Archive member included to satisfy reference by file (symbol)

../ulib/libuserxe.a(libuserxe_a-uallocl.o)
                              gxp-xpebc.o (umalloc)
../ulib/libuserxe.a(libuserxe_a-ucvebc.o)
                              gxp-xpebc.o (Gucvebc_stat)
../ulib/libuserxe.a(libuserxe_a-ucvebc2.o)
                              ../ulib/libuserxe.a(libuserxe_a-ucvebc.o) (ucvebc2_stre2s)
../ulib/libuserxe.a(libuserxe_a-ucvebc3.o)
                              gxp-xpebc.o (ucvebc3_init)
../ulib/libuserxe.a(libuserxe_a-ucvebc32.o)
                              gxp-xpebc.o (ucvebc_b2afld)
../ulib/libuserxe.a(libuserxe_a-ucvebc4.o)
                              gxp-xpebc.o (ucvebc4_createhandle)
../ulib/libuserxe.a(libuserxe_a-ucvebct.o)
                              ../ulib/libuserxe.a(libuserxe_a-ucvebc2.o) (ucvebc2gettbl)
../ulib/libuserxe.a(libuserxe_a-ucvext.o)
                              ../ulib/libuserxe.a(libuserxe_a-ucvebc3.o) (ucvext_mapinit)
../ulib/libuserxe.a(libuserxe_a-ucvext12.o)
                              ../ulib/libuserxe.a(libuserxe_a-ucvext.o) (ucvext12_init)
../ulib/libuserxe.a(libuserxe_a-ucvext2.o)
                              ../ulib/libuserxe.a(libuserxe_a-ucvext.o) (ucvext_iconvmapinit)
../ulib/libuserxe.a(libuserxe_a-ucvucs.o)
                              ../ulib/libuserxe.a(libuserxe_a-ucvebc3.o) (uccvsjis2ucs)
../ulib/libuserxe.a(libuserxe_a-ucvucst.o)
                              ../ulib/libuserxe.a(libuserxe_a-ucvucs.o) (ugetcp932tbl)
../ulib/libuserxe.a(libuserxe_a-udbcschk.o)
                              gxp-xprint.o (Gudbcschk_flag)
../ulib/libuserxe.a(libuserxe_a-udbcsck2.o)
                              gxp-xppf.o (usjis2jis)
../ulib/libuserxe.a(libuserxe_a-udos2.o)
                              ../ulib/libuserxe.a(libuserxe_a-ucvext.o) (udos_setenv)
../ulib/libuserxe.a(libuserxe_a-uedit.o)
                              gxp-xplnxp.o (utimeedit)
../ulib/libuserxe.a(libuserxe_a-uerr.o)
                              gxp-xprint.o (Guerropt)
../ulib/libuserxe.a(libuserxe_a-ufemsg.o)
                              ../ulib/libuserxe.a(libuserxe_a-uallocl.o) (ufileapierr)
../ulib/libuserxe.a(libuserxe_a-ufile.o)
                              ../ulib/libuserxe.a(libuserxe_a-udos2.o) (Gufile_opt)
../ulib/libuserxe.a(libuserxe_a-ufile1f.o)
                              ../ulib/libuserxe.a(libuserxe_a-ufile.o) (uftpdirlistsub)
../ulib/libuserxe.a(libuserxe_a-ufile1l.o)
                              gxp-xprint.o (ufstat)
../ulib/libuserxe.a(libuserxe_a-ufile1l2.o)
                              ../ulib/libuserxe.a(libuserxe_a-ufile1l.o) (ufstat_mdos)
../ulib/libuserxe.a(libuserxe_a-ufile2.o)
                              ../ulib/libuserxe.a(libuserxe_a-uerr.o) (uremove)
../ulib/libuserxe.a(libuserxe_a-ufile2f.o)
                              ../ulib/libuserxe.a(libuserxe_a-ufile2.o) (uftpremove)
../ulib/libuserxe.a(libuserxe_a-ufile2l.o)
                              ../ulib/libuserxe.a(libuserxe_a-ufile2.o) (urmdir)
../ulib/libuserxe.a(libuserxe_a-ufile2l2.o)
                              ../ulib/libuserxe.a(libuserxe_a-ufile2l.o) (umkdir_mdos)
../ulib/libuserxe.a(libuserxe_a-ufile3.o)
                              ../ulib/libuserxe.a(libuserxe_a-ufile2l2.o) (udoscopy)
../ulib/libuserxe.a(libuserxe_a-ufile3f.o)
                              ../ulib/libuserxe.a(libuserxe_a-ufile3.o) (uftpxmove)
../ulib/libuserxe.a(libuserxe_a-ufile4.o)
                              ../ulib/libuserxe.a(libuserxe_a-ufile2l2.o) (utempnam)
../ulib/libuserxe.a(libuserxe_a-ufile5.o)
                              gxp-xpebc.o (ufgetsinit)
../ulib/libuserxe.a(libuserxe_a-uftp.o)
                              ../ulib/libuserxe.a(libuserxe_a-ufile1f.o) (uftpfstatudl)
../ulib/libuserxe.a(libuserxe_a-uftp2.o)
                              ../ulib/libuserxe.a(libuserxe_a-uftp.o) (Gftpopt)
../ulib/libuserxe.a(libuserxe_a-uftp3.o)
                              ../ulib/libuserxe.a(libuserxe_a-uftp.o) (uftp3setssh)
../ulib/libuserxe.a(libuserxe_a-ugcclib.o)
                              gxp-xprint.o (strupr)
../ulib/libuserxe.a(libuserxe_a-ukbdl.o)
                              ../ulib/libuserxe.a(libuserxe_a-ugcclib.o) (ukbdl_getch_init)
../ulib/libuserxe.a(libuserxe_a-ukbdlnxc.o)
                              ../ulib/libuserxe.a(libuserxe_a-ukbdl.o) (ukbdlnxc_init)
../ulib/libuserxe.a(libuserxe_a-ukbdlnxm.o)
                              ../ulib/libuserxe.a(libuserxe_a-ukbdlnxc.o) (ukbdlnxm_mouseinit)
../ulib/libuserxe.a(libuserxe_a-uparse.o)
                              ../ulib/libuserxe.a(libuserxe_a-uftp.o) (uparsev)
../ulib/libuserxe.a(libuserxe_a-uproc.o)
                              ../ulib/libuserxe.a(libuserxe_a-ukbdl.o) (uproc_getpsinfo)
../ulib/libuserxe.a(libuserxe_a-uproc2.o)
                              ../ulib/libuserxe.a(libuserxe_a-ufile2f.o) (uproc_rsh)
../ulib/libuserxe.a(libuserxe_a-uproc4.o)
                              ../ulib/libuserxe.a(libuserxe_a-ukbdlnxc.o) (uproc_select)
../ulib/libuserxe.a(libuserxe_a-uque.o)
                              ../ulib/libuserxe.a(libuserxe_a-uftp.o) (uenq)
../ulib/libuserxe.a(libuserxe_a-ustrcpy.o)
                              gxp-xp2p.o (ustring_memcpy)
../ulib/libuserxe.a(libuserxe_a-ustring.o)
                              ../ulib/libuserxe.a(libuserxe_a-ucvebc32.o) (ustrnlen)
../ulib/libuserxe.a(libuserxe_a-utf.o)
                              ../ulib/libuserxe.a(libuserxe_a-udbcschk.o) (Gulibutfmode)
../ulib/libuserxe.a(libuserxe_a-utf2.o)
                              gxp-xphex.o (utfcvf2u)
../ulib/libuserxe.a(libuserxe_a-utf22.o)
                              ../ulib/libuserxe.a(libuserxe_a-udbcschk.o) (utfucsmapinit)
../ulib/libuserxe.a(libuserxe_a-utf3.o)
                              ../ulib/libuserxe.a(libuserxe_a-utf2.o) (utfmb2wc)
../ulib/libuserxe.a(libuserxe_a-utf4.o)
                              ../ulib/libuserxe.a(libuserxe_a-utf3.o) (mk_wcwidth)
../ulib/libuserxe.a(libuserxe_a-utrace.o)
                              ../ulib/libuserxe.a(libuserxe_a-uftp2.o) (Gtracehdr)
../ulib/libuserxe.a(libuserxe_a-uunxsub.o)
                              ../ulib/libuserxe.a(libuserxe_a-ufile2l.o) (ugetugid)
../ulib/libuserxe.a(libuserxe_a-uviom.o)
                              ../ulib/libuserxe.a(libuserxe_a-udbcschk.o) (uvio_wcinit)
../ulib/libuserxe.a(libuserxe_a-uviol.o)
                              ../ulib/libuserxe.a(libuserxe_a-uerr.o) (Guviol_flag)
../ulib/libuserxe.a(libuserxe_a-u3270.o)
                              ../ulib/libuserxe.a(libuserxe_a-ufile1f.o) (u3270fstat)
../ulib/libuserxe.a(libuserxe_a-u32702.o)
                              ../ulib/libuserxe.a(libuserxe_a-ufile2f.o) (u3270mkdir)
../ulib/libuserxe.a(libuserxe_a-u32703.o)
                              ../ulib/libuserxe.a(libuserxe_a-ufile3.o) (u3270xmove)
../ulib/libuserxe.a(libuserxe_a-uabend.o)
                              ../ulib/libuserxe.a(libuserxe_a-ukbdl.o) (uabend)
../ulib/libuserxe.a(libuserxe_a-ucalc2.o)
                              ../ulib/libuserxe.a(libuserxe_a-uftp2.o) (ucalc_ld2dw)
../ulib/libuserxe.a(libuserxe_a-uedit2.o)
                              ../ulib/libuserxe.a(libuserxe_a-ufemsg.o) (ueditfattr)
../ulib/libuserxe.a(libuserxe_a-uehl.o)
                              ../ulib/libuserxe.a(libuserxe_a-ukbdlnxc.o) (uehl_setsh)
../ulib/libuserxe.a(libuserxe_a-uproc22.o)
                              ../ulib/libuserxe.a(libuserxe_a-utrace.o) (ucriticalsection)
../ulib/libuserxe.a(libuserxe_a-uproc3.o)
                              ../ulib/libuserxe.a(libuserxe_a-uproc4.o) (usleepms)
../ulib/libuserxe.a(libuserxe_a-ucalc.o)
                              ../ulib/libuserxe.a(libuserxe_a-ucalc2.o) (ucalc_binop)
/usr/lib/gcc/arm-linux-gnueabihf/8/libgcc.a(_divsi3.o)
                              gxp-xprint.o (__aeabi_idiv)
/usr/lib/gcc/arm-linux-gnueabihf/8/libgcc.a(_aeabi_ldivmod.o)
                              ../ulib/libuserxe.a(libuserxe_a-u32703.o) (__aeabi_ldivmod)
/usr/lib/gcc/arm-linux-gnueabihf/8/libgcc.a(_dvmd_lnx.o)
                              /usr/lib/gcc/arm-linux-gnueabihf/8/libgcc.a(_aeabi_ldivmod.o) (__aeabi_ldiv0)
/usr/lib/gcc/arm-linux-gnueabihf/8/libgcc.a(_udivmoddi4.o)
                              /usr/lib/gcc/arm-linux-gnueabihf/8/libgcc.a(_aeabi_ldivmod.o) (__udivmoddi4)
//usr/lib/arm-linux-gnueabihf/libc_nonshared.a(elf-init.oS)
                              /usr/lib/gcc/arm-linux-gnueabihf/8/../../../arm-linux-gnueabihf/crt1.o (__libc_csu_init)
//usr/lib/arm-linux-gnueabihf/libc_nonshared.a(stat64.oS)
                              ../ulib/libuserxe.a(libuserxe_a-ufile1l.o) (stat64)
//usr/lib/arm-linux-gnueabihf/libc_nonshared.a(fstat64.oS)
                              gxp-xpmult.o (fstat64)
//usr/lib/arm-linux-gnueabihf/libc_nonshared.a(lstat64.oS)
                              ../ulib/libuserxe.a(libuserxe_a-ufile1l.o) (lstat64)

Allocating common symbols
Common symbol       size              file

listgensw           0x4               gxp-xprint.o
page                0x4               gxp-xppf.o
Gucs2ddmap_i2u      0x20000           ../ulib/libuserxe.a(libuserxe_a-utf22.o)
Guviombuffu         0x4               ../ulib/libuserxe.a(libuserxe_a-uviom.o)
poswkbuffc          0x4               gxp-xprint.o
pagerange           0xa0              gxp-xprint.o
recordszV0          0x4               gxp-xprint.o
databuffc           0x4               gxp-xprint.o
headers             0x210             gxp-xprint.o
header0ucs          0x840             gxp-xprint.o
esccmd              0x100             gxp-xpesc.o
Gufile_opt          0x4               ../ulib/libuserxe.a(libuserxe_a-ufile.o)
header1len          0x4               gxp-xppf.o
topcmd              0x20              gxp-xpesc.o
GtabonTab           0x4               gxp-xppf.o
Gmsgfile            0x4               gxp-xprint.o
GeoloffsV           0x4               gxp-xprint.o
Gutf8vhexlen        0x4               gxp-xprint.o
Sphiconv            0x4               ../ulib/libuserxe.a(libuserxe_a-ukbdl.o)
conddate            0x2               gxp-xprint.o
Snewoldctr          0x4               ../ulib/libuserxe.a(libuserxe_a-ucvebc2.o)
Gftperr             0x4               ../ulib/libuserxe.a(libuserxe_a-uftp2.o)
Gcmdlineparms       0x4               gxp-xprint.o
phase2sw            0x4               gxp-xprint.o
swsw2               0x1               gxp-xprint.o
Gulibutfmode        0x4               ../ulib/libuserxe.a(libuserxe_a-utf.o)
Hexline2            0x210             gxp-xphex.o
modeparm            0x4               gxp-xprint.o
vhexlinex1          0x4               gxp-xprint.o
Se2stctr            0x4               ../ulib/libuserxe.a(libuserxe_a-ucvebc2.o)
Sparmmarginl        0x8               gxp-xplnxp.o
pageoutlen          0x4               gxp-xprint.o
Gtracehdr           0x100             ../ulib/libuserxe.a(libuserxe_a-utrace.o)
docname             0x100             gxp-xprint.o
Gxpotheropt         0x4               gxp-xprint.o
Linehexdpos         0x4               gxp-xprint.o
Sfdpiper            0x4               ../ulib/libuserxe.a(libuserxe_a-uproc.o)
Gutfrc              0x4               ../ulib/libuserxe.a(libuserxe_a-utf.o)
vhexlinex2          0x4               gxp-xprint.o
Gebcorgcode         0x4               gxp-xprint.o
readcount           0x4               gxp-xprint.o
Gualloc_amount      0x4               ../ulib/libuserxe.a(libuserxe_a-uallocl.o)
Guviomopt           0x4               ../ulib/libuserxe.a(libuserxe_a-uviom.o)
Slockhandle         0x4               ../ulib/libuserxe.a(libuserxe_a-utrace.o)
Gucvebchctr         0x4               ../ulib/libuserxe.a(libuserxe_a-ucvebc.o)
swsw4               0x1               gxp-xprint.o
Gudbcschk_flag      0x4               ../ulib/libuserxe.a(libuserxe_a-udbcschk.o)
conddate2           0x2               gxp-xprint.o
Guerropt2           0x4               ../ulib/libuserxe.a(libuserxe_a-uerr.o)
Sduptctr            0x4               ../ulib/libuserxe.a(libuserxe_a-ucvebc2.o)
pageposucs          0x4               gxp-xprint.o
Gtabonlocale        0x4               gxp-xppf.o
Gukbdl_flag         0x4               ../ulib/libuserxe.a(libuserxe_a-ukbdl.o)
GtabonTabskip       0x4               gxp-xppf.o
Greccolomnold       0x4               gxp-xprint.o
line                0x4               gxp-xprint.o
esccmdlen           0x4               gxp-xprint.o
fastpathsw          0x4               gxp-xprint.o
condtime2           0x2               gxp-xprint.o
header0ucsctr       0x4               gxp-xprint.o
Ss2etctr            0x4               ../ulib/libuserxe.a(libuserxe_a-ucvebc2.o)
headersucs          0x840             gxp-xprint.o
pagefilesw          0x4               gxp-xprint.o
Ghdrfnm             0x4               gxp-xprint.o
Gebcctype           0x4               gxp-xprint.o
header0             0x210             gxp-xprint.o
Geolprintcol        0x4               gxp-xprint.o
cmdfile             0x4               gxp-xprint.o
swgetarchive        0x4               gxp-xprint.o
Shardmargint        0x8               gxp-xplnxp.o
pagesw              0x4               gxp-xprint.o
flist               0x4               gxp-xprint.o
onceputsw           0x4               gxp-xprint.o
vfmtparm            0x4               gxp-xprint.o
actualmaxc          0x4               gxp-xprint.o
puthexfsw           0x4               gxp-xprint.o
vhexreadline        0x4               gxp-xprint.o
pagepos             0x4               gxp-xprint.o
poswkfsw            0x4               gxp-xprint.o
condcode            0x4               gxp-xprint.o
swsw1               0x1               gxp-xprint.o
recordprintwidth    0x4               gxp-xprint.o
Gcolumnucs          0x4               gxp-xputf.o
condtime            0x2               gxp-xprint.o
reccolomn           0x4               gxp-xprint.o
recorddumpcopyoffs  0x4               gxp-xprint.o
vhexdump            0x4               gxp-xprint.o
despagecntsw        0x4               gxp-xprint.o
eolV                0x4               gxp-xprint.o
jobname             0x4               gxp-xprint.o
databuffl           0x4               gxp-xprint.o
Gucvebch            0x9c40            ../ulib/libuserxe.a(libuserxe_a-ucvebc.o)
topcmdlen           0x4               gxp-xpesc.o
Gbuffutf            0x3180            gxp-xputf.o
GoffsV              0x4               gxp-xprint.o
Shardmarginb        0x8               gxp-xplnxp.o
Shardmarginr        0x8               gxp-xplnxp.o
Sparmmarginb        0x8               gxp-xplnxp.o
input               0x4               gxp-xprint.o
Sparmmarginr        0x8               gxp-xplnxp.o
Linecharpos         0x4               gxp-xprint.o
textmodevhexsw      0x4               gxp-xprint.o
rcount              0x4               gxp-xprint.o
printdumpfsw        0x4               gxp-xprint.o
Gucalc_result       0x140             ../ulib/libuserxe.a(libuserxe_a-ucalc.o)
swsw3               0x1               gxp-xprint.o
eolprintfmt         0x4               gxp-xprint.o
recordszparm        0x4               gxp-xprint.o
Guviol_flag         0x4               ../ulib/libuserxe.a(libuserxe_a-uviol.o)
dbcsenv             0x4               gxp-xprint.o
Guviomoptstr        0x4               ../ulib/libuserxe.a(libuserxe_a-uviom.o)
header0utf8         0x210             gxp-xprint.o
condcode2           0x4               gxp-xprint.o
Gptrtfnm            0x4               gxp-xprint.o
Gftpopt             0x4               ../ulib/libuserxe.a(libuserxe_a-uftp2.o)
Syshift             0x8               gxp-xplnxp.o
flistc              0x4               gxp-xprint.o
Gdrawpagectr        0x4               gxp-xplnxp.o
recordszV           0x4               gxp-xprint.o
pagebuffc           0x4               gxp-xprint.o
Gqparm              0x4               gxp-xprint.o
Gxputfstat          0x4               gxp-xputf.o
Gparmfname          0x4               gxp-xprint.o
Sparmmargint        0x8               gxp-xplnxp.o
rmax                0x4               gxp-xprint.o
swsw5               0x1               gxp-xprint.o
databuffsw          0x4               gxp-xprint.o
Gufile_nomsg        0x4               ../ulib/libuserxe.a(libuserxe_a-ufile.o)
Gebctrt             0x4               gxp-xppf.o
vhexrmax            0x4               gxp-xprint.o
Gualloc16_amount    0x4               ../ulib/libuserxe.a(libuserxe_a-uallocl.o)
GtabonDBCSspace     0x4               gxp-xppf.o
pagefsw             0x4               gxp-xprint.o
Gudbcschk_width0top
                    0x4               ../ulib/libuserxe.a(libuserxe_a-udbcschk.o)
Gucvebc_stat        0x4               ../ulib/libuserxe.a(libuserxe_a-ucvebc.o)
Gftpclient          0x80              ../ulib/libuserxe.a(libuserxe_a-uftp2.o)
headersucsctr       0x4               gxp-xprint.o
recordszVEOL        0x4               gxp-xprint.o
Gtabonutf8          0x4               gxp-xppf.o
Guviomopt2          0x4               ../ulib/libuserxe.a(libuserxe_a-uviom.o)
Gdefaultlocalecode  0x40              gxp-xprint.o
pagefile            0x4               gxp-xprint.o
vhexrcount          0x4               gxp-xprint.o
Gvhexlineoffs       0x4               gxp-xprint.o
Gpapersizeparm      0x4               gxp-xprint.o
Sdbcschk_hkopt      0x4               ../ulib/libuserxe.a(libuserxe_a-udbcschk.o)
Hexline1            0x210             gxp-xphex.o
Gebccfgfname        0x4               gxp-xprint.o
Gxpebchandle        0x4               gxp-xprint.o
endjobreq           0x4               gxp-xpesc.o
Sxshift             0x8               gxp-xplnxp.o
realpage            0x4               gxp-xprint.o
Gbuffucs            0x840             gxp-xputf.o
Gutfcombaltch       0x4               ../ulib/libuserxe.a(libuserxe_a-utf.o)
Gucs2ddmap          0x40000           ../ulib/libuserxe.a(libuserxe_a-utf22.o)
Shardmarginl        0x8               gxp-xplnxp.o
headersutf8         0x210             gxp-xprint.o
Gw95buffopt         0x4               ../ulib/libuserxe.a(libuserxe_a-uviom.o)
Guerropt            0x1               ../ulib/libuserxe.a(libuserxe_a-uerr.o)
pagerangectr        0x4               gxp-xprint.o
Guviomoptstrucs     0x10              ../ulib/libuserxe.a(libuserxe_a-uviom.o)
header1             0x210             gxp-xppf.o
linespwk            0x8               gxp-xprint.o
Sunixexpandfnm      0x4               gxp-xprint.o
inputrangeopt       0x4               gxp-xprint.o
Gvhexlinelenhhex    0x4               gxp-xprint.o
vhexlinech          0x4               gxp-xprint.o
fstat3              0x1178            gxp-xprint.o
multifile           0x4               gxp-xprint.o
Gdatalinenosz       0x4               gxp-xprint.o
vfmt                0x4               gxp-xprint.o
Sfdpipew            0x4               ../ulib/libuserxe.a(libuserxe_a-uproc.o)
databufft           0x4               gxp-xprint.o
Gtraceopt           0x4               gxp-xprint.o

Discarded input sections

 .note.GNU-stack
                0x00000000        0x0 /usr/lib/gcc/arm-linux-gnueabihf/8/../../../arm-linux-gnueabihf/crt1.o
 .note.GNU-stack
                0x00000000        0x0 /usr/lib/gcc/arm-linux-gnueabihf/8/../../../arm-linux-gnueabihf/crti.o
 .note.GNU-stack
                0x00000000        0x0 /usr/lib/gcc/arm-linux-gnueabihf/8/crtbegin.o
 .note.GNU-stack
                0x00000000        0x0 gxp-xprint.o
 .note.GNU-stack
                0x00000000        0x0 gxp-xp2p.o
 .note.GNU-stack
                0x00000000        0x0 gxp-xpdesp.o
 .note.GNU-stack
                0x00000000        0x0 gxp-xpebc.o
 .note.GNU-stack
                0x00000000        0x0 gxp-xpesc.o
 .note.GNU-stack
                0x00000000        0x0 gxp-xphex.o
 .note.GNU-stack
                0x00000000        0x0 gxp-xphlp.o
 .note.GNU-stack
                0x00000000        0x0 gxp-xpinp.o
 .note.GNU-stack
                0x00000000        0x0 gxp-xpmult.o
 .note.GNU-stack
                0x00000000        0x0 gxp-xppf.o
 .note.GNU-stack
                0x00000000        0x0 gxp-xpsub1.o
 .note.GNU-stack
                0x00000000        0x0 gxp-xputf.o
 .note.GNU-stack
                0x00000000        0x0 gxp-xplnxp.o
 .note.GNU-stack
                0x00000000        0x0 ../ulib/libuserxe.a(libuserxe_a-uallocl.o)
 .note.GNU-stack
                0x00000000        0x0 ../ulib/libuserxe.a(libuserxe_a-ucvebc.o)
 .note.GNU-stack
                0x00000000        0x0 ../ulib/libuserxe.a(libuserxe_a-ucvebc2.o)
 .note.GNU-stack
                0x00000000        0x0 ../ulib/libuserxe.a(libuserxe_a-ucvebc3.o)
 .note.GNU-stack
                0x00000000        0x0 ../ulib/libuserxe.a(libuserxe_a-ucvebc32.o)
 .note.GNU-stack
                0x00000000        0x0 ../ulib/libuserxe.a(libuserxe_a-ucvebc4.o)
 .note.GNU-stack
                0x00000000        0x0 ../ulib/libuserxe.a(libuserxe_a-ucvebct.o)
 .note.GNU-stack
                0x00000000        0x0 ../ulib/libuserxe.a(libuserxe_a-ucvext.o)
 .note.GNU-stack
                0x00000000        0x0 ../ulib/libuserxe.a(libuserxe_a-ucvext12.o)
 .note.GNU-stack
                0x00000000        0x0 ../ulib/libuserxe.a(libuserxe_a-ucvext2.o)
 .note.GNU-stack
                0x00000000        0x0 ../ulib/libuserxe.a(libuserxe_a-ucvucs.o)
 .note.GNU-stack
                0x00000000        0x0 ../ulib/libuserxe.a(libuserxe_a-ucvucst.o)
 .note.GNU-stack
                0x00000000        0x0 ../ulib/libuserxe.a(libuserxe_a-udbcschk.o)
 .note.GNU-stack
                0x00000000        0x0 ../ulib/libuserxe.a(libuserxe_a-udbcsck2.o)
 .note.GNU-stack
                0x00000000        0x0 ../ulib/libuserxe.a(libuserxe_a-udos2.o)
 .note.GNU-stack
                0x00000000        0x0 ../ulib/libuserxe.a(libuserxe_a-uedit.o)
 .note.GNU-stack
                0x00000000        0x0 ../ulib/libuserxe.a(libuserxe_a-uerr.o)
 .note.GNU-stack
                0x00000000        0x0 ../ulib/libuserxe.a(libuserxe_a-ufemsg.o)
 .note.GNU-stack
                0x00000000        0x0 ../ulib/libuserxe.a(libuserxe_a-ufile.o)
 .note.GNU-stack
                0x00000000        0x0 ../ulib/libuserxe.a(libuserxe_a-ufile1f.o)
 .note.GNU-stack
                0x00000000        0x0 ../ulib/libuserxe.a(libuserxe_a-ufile1l.o)
 .note.GNU-stack
                0x00000000        0x0 ../ulib/libuserxe.a(libuserxe_a-ufile1l2.o)
 .note.GNU-stack
                0x00000000        0x0 ../ulib/libuserxe.a(libuserxe_a-ufile2.o)
 .note.GNU-stack
                0x00000000        0x0 ../ulib/libuserxe.a(libuserxe_a-ufile2f.o)
 .note.GNU-stack
                0x00000000        0x0 ../ulib/libuserxe.a(libuserxe_a-ufile2l.o)
 .note.GNU-stack
                0x00000000        0x0 ../ulib/libuserxe.a(libuserxe_a-ufile2l2.o)
 .note.GNU-stack
                0x00000000        0x0 ../ulib/libuserxe.a(libuserxe_a-ufile3.o)
 .note.GNU-stack
                0x00000000        0x0 ../ulib/libuserxe.a(libuserxe_a-ufile3f.o)
 .note.GNU-stack
                0x00000000        0x0 ../ulib/libuserxe.a(libuserxe_a-ufile4.o)
 .note.GNU-stack
                0x00000000        0x0 ../ulib/libuserxe.a(libuserxe_a-ufile5.o)
 .note.GNU-stack
                0x00000000        0x0 ../ulib/libuserxe.a(libuserxe_a-uftp.o)
 .note.GNU-stack
                0x00000000        0x0 ../ulib/libuserxe.a(libuserxe_a-uftp2.o)
 .note.GNU-stack
                0x00000000        0x0 ../ulib/libuserxe.a(libuserxe_a-uftp3.o)
 .note.GNU-stack
                0x00000000        0x0 ../ulib/libuserxe.a(libuserxe_a-ugcclib.o)
 .note.GNU-stack
                0x00000000        0x0 ../ulib/libuserxe.a(libuserxe_a-ukbdl.o)
 .note.GNU-stack
                0x00000000        0x0 ../ulib/libuserxe.a(libuserxe_a-ukbdlnxc.o)
 .note.GNU-stack
                0x00000000        0x0 ../ulib/libuserxe.a(libuserxe_a-ukbdlnxm.o)
 .note.GNU-stack
                0x00000000        0x0 ../ulib/libuserxe.a(libuserxe_a-uparse.o)
 .note.GNU-stack
                0x00000000        0x0 ../ulib/libuserxe.a(libuserxe_a-uproc.o)
 .note.GNU-stack
                0x00000000        0x0 ../ulib/libuserxe.a(libuserxe_a-uproc2.o)
 .note.GNU-stack
                0x00000000        0x0 ../ulib/libuserxe.a(libuserxe_a-uproc4.o)
 .note.GNU-stack
                0x00000000        0x0 ../ulib/libuserxe.a(libuserxe_a-uque.o)
 .note.GNU-stack
                0x00000000        0x0 ../ulib/libuserxe.a(libuserxe_a-ustrcpy.o)
 .note.GNU-stack
                0x00000000        0x0 ../ulib/libuserxe.a(libuserxe_a-ustring.o)
 .note.GNU-stack
                0x00000000        0x0 ../ulib/libuserxe.a(libuserxe_a-utf.o)
 .note.GNU-stack
                0x00000000        0x0 ../ulib/libuserxe.a(libuserxe_a-utf2.o)
 .note.GNU-stack
                0x00000000        0x0 ../ulib/libuserxe.a(libuserxe_a-utf22.o)
 .note.GNU-stack
                0x00000000        0x0 ../ulib/libuserxe.a(libuserxe_a-utf3.o)
 .note.GNU-stack
                0x00000000        0x0 ../ulib/libuserxe.a(libuserxe_a-utf4.o)
 .note.GNU-stack
                0x00000000        0x0 ../ulib/libuserxe.a(libuserxe_a-utrace.o)
 .note.GNU-stack
                0x00000000        0x0 ../ulib/libuserxe.a(libuserxe_a-uunxsub.o)
 .note.GNU-stack
                0x00000000        0x0 ../ulib/libuserxe.a(libuserxe_a-uviom.o)
 .note.GNU-stack
                0x00000000        0x0 ../ulib/libuserxe.a(libuserxe_a-uviol.o)
 .note.GNU-stack
                0x00000000        0x0 ../ulib/libuserxe.a(libuserxe_a-u3270.o)
 .note.GNU-stack
                0x00000000        0x0 ../ulib/libuserxe.a(libuserxe_a-u32702.o)
 .note.GNU-stack
                0x00000000        0x0 ../ulib/libuserxe.a(libuserxe_a-u32703.o)
 .note.GNU-stack
                0x00000000        0x0 ../ulib/libuserxe.a(libuserxe_a-uabend.o)
 .note.GNU-stack
                0x00000000        0x0 ../ulib/libuserxe.a(libuserxe_a-ucalc2.o)
 .note.GNU-stack
                0x00000000        0x0 ../ulib/libuserxe.a(libuserxe_a-uedit2.o)
 .note.GNU-stack
                0x00000000        0x0 ../ulib/libuserxe.a(libuserxe_a-uehl.o)
 .note.GNU-stack
                0x00000000        0x0 ../ulib/libuserxe.a(libuserxe_a-uproc22.o)
 .note.GNU-stack
                0x00000000        0x0 ../ulib/libuserxe.a(libuserxe_a-uproc3.o)
 .note.GNU-stack
                0x00000000        0x0 ../ulib/libuserxe.a(libuserxe_a-ucalc.o)
 .note.GNU-stack
                0x00000000        0x0 /usr/lib/gcc/arm-linux-gnueabihf/8/libgcc.a(_divsi3.o)
 .note.GNU-stack
                0x00000000        0x0 /usr/lib/gcc/arm-linux-gnueabihf/8/libgcc.a(_aeabi_ldivmod.o)
 .note.GNU-stack
                0x00000000        0x0 /usr/lib/gcc/arm-linux-gnueabihf/8/libgcc.a(_dvmd_lnx.o)
 .note.GNU-stack
                0x00000000        0x0 /usr/lib/gcc/arm-linux-gnueabihf/8/libgcc.a(_udivmoddi4.o)
 .note.GNU-stack
                0x00000000        0x0 //usr/lib/arm-linux-gnueabihf/libc_nonshared.a(elf-init.oS)
 .note.GNU-stack
                0x00000000        0x0 //usr/lib/arm-linux-gnueabihf/libc_nonshared.a(stat64.oS)
 .note.GNU-stack
                0x00000000        0x0 //usr/lib/arm-linux-gnueabihf/libc_nonshared.a(fstat64.oS)
 .note.GNU-stack
                0x00000000        0x0 //usr/lib/arm-linux-gnueabihf/libc_nonshared.a(lstat64.oS)
 .note.GNU-stack
                0x00000000        0x0 /usr/lib/gcc/arm-linux-gnueabihf/8/crtend.o
 .note.GNU-stack
                0x00000000        0x0 /usr/lib/gcc/arm-linux-gnueabihf/8/../../../arm-linux-gnueabihf/crtn.o

Memory Configuration

Name             Origin             Length             Attributes
*default*        0x00000000         0xffffffff

Linker script and memory map

LOAD /usr/lib/gcc/arm-linux-gnueabihf/8/../../../arm-linux-gnueabihf/crt1.o
LOAD /usr/lib/gcc/arm-linux-gnueabihf/8/../../../arm-linux-gnueabihf/crti.o
LOAD /usr/lib/gcc/arm-linux-gnueabihf/8/crtbegin.o
LOAD gxp-xprint.o
LOAD gxp-xp2p.o
LOAD gxp-xpdesp.o
LOAD gxp-xpebc.o
LOAD gxp-xpesc.o
LOAD gxp-xphex.o
LOAD gxp-xphlp.o
LOAD gxp-xpinp.o
LOAD gxp-xpmult.o
LOAD gxp-xppf.o
LOAD gxp-xpsub1.o
LOAD gxp-xputf.o
LOAD gxp-xplnxp.o
LOAD ../ulib/libuserxe.a
LOAD /usr/lib/gcc/arm-linux-gnueabihf/8/../../../arm-linux-gnueabihf/libgnomeui-2.so
LOAD /usr/lib/gcc/arm-linux-gnueabihf/8/../../../arm-linux-gnueabihf/libSM.so
LOAD /usr/lib/gcc/arm-linux-gnueabihf/8/../../../arm-linux-gnueabihf/libICE.so
LOAD /usr/lib/gcc/arm-linux-gnueabihf/8/../../../arm-linux-gnueabihf/libbonoboui-2.so
LOAD /usr/lib/gcc/arm-linux-gnueabihf/8/../../../arm-linux-gnueabihf/libgnome-2.so
LOAD /usr/lib/gcc/arm-linux-gnueabihf/8/../../../arm-linux-gnueabihf/libpopt.so
LOAD /usr/lib/gcc/arm-linux-gnueabihf/8/../../../arm-linux-gnueabihf/libbonobo-2.so
LOAD /usr/lib/gcc/arm-linux-gnueabihf/8/../../../arm-linux-gnueabihf/libbonobo-activation.so
LOAD /usr/lib/gcc/arm-linux-gnueabihf/8/../../../arm-linux-gnueabihf/libORBit-2.so
LOAD /usr/lib/gcc/arm-linux-gnueabihf/8/../../../arm-linux-gnueabihf/libgnomecanvas-2.so
LOAD /usr/lib/gcc/arm-linux-gnueabihf/8/../../../arm-linux-gnueabihf/libart_lgpl_2.so
LOAD /usr/lib/gcc/arm-linux-gnueabihf/8/../../../arm-linux-gnueabihf/libgnomevfs-2.so
LOAD /usr/lib/gcc/arm-linux-gnueabihf/8/../../../arm-linux-gnueabihf/libgconf-2.so
LOAD /usr/lib/gcc/arm-linux-gnueabihf/8/../../../arm-linux-gnueabihf/libgthread-2.0.so
LOAD /usr/lib/gcc/arm-linux-gnueabihf/8/../../../arm-linux-gnueabihf/libgmodule-2.0.so
LOAD /usr/lib/gcc/arm-linux-gnueabihf/8/../../../arm-linux-gnueabihf/libgtk-x11-2.0.so
LOAD /usr/lib/gcc/arm-linux-gnueabihf/8/../../../arm-linux-gnueabihf/libgdk-x11-2.0.so
LOAD /usr/lib/gcc/arm-linux-gnueabihf/8/../../../arm-linux-gnueabihf/libpangocairo-1.0.so
LOAD /usr/lib/gcc/arm-linux-gnueabihf/8/../../../arm-linux-gnueabihf/libatk-1.0.so
LOAD /usr/lib/gcc/arm-linux-gnueabihf/8/../../../arm-linux-gnueabihf/libcairo.so
LOAD /usr/lib/gcc/arm-linux-gnueabihf/8/../../../arm-linux-gnueabihf/libgdk_pixbuf-2.0.so
LOAD /usr/lib/gcc/arm-linux-gnueabihf/8/../../../arm-linux-gnueabihf/libgio-2.0.so
LOAD /usr/lib/gcc/arm-linux-gnueabihf/8/../../../arm-linux-gnueabihf/libpangoft2-1.0.so
LOAD /usr/lib/gcc/arm-linux-gnueabihf/8/../../../arm-linux-gnueabihf/libpango-1.0.so
LOAD /usr/lib/gcc/arm-linux-gnueabihf/8/../../../arm-linux-gnueabihf/libgobject-2.0.so
LOAD /usr/lib/gcc/arm-linux-gnueabihf/8/../../../arm-linux-gnueabihf/libglib-2.0.so
LOAD /usr/lib/gcc/arm-linux-gnueabihf/8/../../../arm-linux-gnueabihf/libfontconfig.so
LOAD /usr/lib/gcc/arm-linux-gnueabihf/8/../../../arm-linux-gnueabihf/libfreetype.so
LOAD /usr/lib/gcc/arm-linux-gnueabihf/8/../../../arm-linux-gnueabihf/libdl.so
LOAD /usr/lib/gcc/arm-linux-gnueabihf/8/../../../arm-linux-gnueabihf/libncursesw.so
LOAD /lib/arm-linux-gnueabihf/libncursesw.so.6
LOAD /usr/lib/gcc/arm-linux-gnueabihf/8/../../../arm-linux-gnueabihf/libtinfo.so
LOAD /usr/lib/gcc/arm-linux-gnueabihf/8/../../../arm-linux-gnueabihf/libcups.so
LOAD /usr/lib/gcc/arm-linux-gnueabihf/8/libgcc.a
LOAD /usr/lib/gcc/arm-linux-gnueabihf/8/libgcc_s.so
START GROUP
LOAD /usr/lib/gcc/arm-linux-gnueabihf/8/libgcc_s.so.1
LOAD /usr/lib/gcc/arm-linux-gnueabihf/8/libgcc.a
END GROUP
LOAD /usr/lib/gcc/arm-linux-gnueabihf/8/../../../arm-linux-gnueabihf/libpthread.so
LOAD /usr/lib/gcc/arm-linux-gnueabihf/8/../../../arm-linux-gnueabihf/libc.so
START GROUP
LOAD //lib/arm-linux-gnueabihf/libc.so.6
LOAD //usr/lib/arm-linux-gnueabihf/libc_nonshared.a
LOAD //lib/arm-linux-gnueabihf/ld-linux-armhf.so.3
END GROUP
LOAD /usr/lib/gcc/arm-linux-gnueabihf/8/libgcc.a
LOAD /usr/lib/gcc/arm-linux-gnueabihf/8/libgcc_s.so
START GROUP
LOAD /usr/lib/gcc/arm-linux-gnueabihf/8/libgcc_s.so.1
LOAD /usr/lib/gcc/arm-linux-gnueabihf/8/libgcc.a
END GROUP
LOAD /usr/lib/gcc/arm-linux-gnueabihf/8/crtend.o
LOAD /usr/lib/gcc/arm-linux-gnueabihf/8/../../../arm-linux-gnueabihf/crtn.o
                [!provide]                PROVIDE (__executable_start = SEGMENT_START ("text-segment", 0x10000))
                0x00010154                . = (SEGMENT_START ("text-segment", 0x10000) + SIZEOF_HEADERS)

.interp         0x00010154       0x19
 *(.interp)
 .interp        0x00010154       0x19 /usr/lib/gcc/arm-linux-gnueabihf/8/../../../arm-linux-gnueabihf/crt1.o

.note.ABI-tag   0x00010170       0x20
 .note.ABI-tag  0x00010170       0x20 /usr/lib/gcc/arm-linux-gnueabihf/8/../../../arm-linux-gnueabihf/crt1.o

.note.gnu.build-id
                0x00010190       0x24
 *(.note.gnu.build-id)
 .note.gnu.build-id
                0x00010190       0x24 linker stubs

.hash
 *(.hash)

.gnu.hash       0x000101b4      0xae0
 *(.gnu.hash)
 .gnu.hash      0x000101b4      0xae0 /usr/lib/gcc/arm-linux-gnueabihf/8/../../../arm-linux-gnueabihf/crt1.o

.dynsym         0x00010c94     0x1710
 *(.dynsym)
 .dynsym        0x00010c94     0x1710 /usr/lib/gcc/arm-linux-gnueabihf/8/../../../arm-linux-gnueabihf/crt1.o

.dynstr         0x000123a4     0x19ab
 *(.dynstr)
 .dynstr        0x000123a4     0x19ab /usr/lib/gcc/arm-linux-gnueabihf/8/../../../arm-linux-gnueabihf/crt1.o

.gnu.version    0x00013d50      0x2e2
 *(.gnu.version)
 .gnu.version   0x00013d50      0x2e2 /usr/lib/gcc/arm-linux-gnueabihf/8/../../../arm-linux-gnueabihf/crt1.o

.gnu.version_d  0x00014034        0x0
 *(.gnu.version_d)
 .gnu.version_d
                0x00014034        0x0 /usr/lib/gcc/arm-linux-gnueabihf/8/../../../arm-linux-gnueabihf/crt1.o

.gnu.version_r  0x00014034       0xc0
 *(.gnu.version_r)
 .gnu.version_r
                0x00014034       0xc0 /usr/lib/gcc/arm-linux-gnueabihf/8/../../../arm-linux-gnueabihf/crt1.o

.rel.dyn        0x000140f4       0x60
 *(.rel.init)
 *(.rel.text .rel.text.* .rel.gnu.linkonce.t.*)
 *(.rel.fini)
 *(.rel.rodata .rel.rodata.* .rel.gnu.linkonce.r.*)
 *(.rel.data.rel.ro .rel.data.rel.ro.* .rel.gnu.linkonce.d.rel.ro.*)
 .rel.data.rel.ro
                0x000140f4        0x0 /usr/lib/gcc/arm-linux-gnueabihf/8/../../../arm-linux-gnueabihf/crt1.o
 *(.rel.data .rel.data.* .rel.gnu.linkonce.d.*)
 *(.rel.tdata .rel.tdata.* .rel.gnu.linkonce.td.*)
 *(.rel.tbss .rel.tbss.* .rel.gnu.linkonce.tb.*)
 *(.rel.ctors)
 *(.rel.dtors)
 *(.rel.got)
 .rel.got       0x000140f4        0x8 /usr/lib/gcc/arm-linux-gnueabihf/8/../../../arm-linux-gnueabihf/crt1.o
 *(.rel.bss .rel.bss.* .rel.gnu.linkonce.b.*)
 .rel.bss       0x000140fc       0x58 /usr/lib/gcc/arm-linux-gnueabihf/8/../../../arm-linux-gnueabihf/crt1.o
                [!provide]                PROVIDE (__rel_iplt_start = .)
 *(.rel.iplt)
 .rel.iplt      0x00014154        0x0 /usr/lib/gcc/arm-linux-gnueabihf/8/../../../arm-linux-gnueabihf/crt1.o
                [!provide]                PROVIDE (__rel_iplt_end = .)

.rela.dyn       0x00014154        0x0
 *(.rela.init)
 *(.rela.text .rela.text.* .rela.gnu.linkonce.t.*)
 *(.rela.fini)
 *(.rela.rodata .rela.rodata.* .rela.gnu.linkonce.r.*)
 *(.rela.data .rela.data.* .rela.gnu.linkonce.d.*)
 *(.rela.tdata .rela.tdata.* .rela.gnu.linkonce.td.*)
 *(.rela.tbss .rela.tbss.* .rela.gnu.linkonce.tb.*)
 *(.rela.ctors)
 *(.rela.dtors)
 *(.rela.got)
 *(.rela.bss .rela.bss.* .rela.gnu.linkonce.b.*)
                [!provide]                PROVIDE (__rela_iplt_start = .)
 *(.rela.iplt)
                [!provide]                PROVIDE (__rela_iplt_end = .)

.rel.plt        0x00014154      0xad8
 *(.rel.plt)
 .rel.plt       0x00014154      0xad8 /usr/lib/gcc/arm-linux-gnueabihf/8/../../../arm-linux-gnueabihf/crt1.o

.rela.plt
 *(.rela.plt)

.init           0x00014c2c        0xc
 *(SORT_NONE(.init))
 .init          0x00014c2c        0x8 /usr/lib/gcc/arm-linux-gnueabihf/8/../../../arm-linux-gnueabihf/crti.o
                0x00014c2c                _init
 .init          0x00014c34        0x4 /usr/lib/gcc/arm-linux-gnueabihf/8/../../../arm-linux-gnueabihf/crtn.o

.plt            0x00014c38     0x1058
 *(.plt)
 .plt           0x00014c38     0x1058 /usr/lib/gcc/arm-linux-gnueabihf/8/../../../arm-linux-gnueabihf/crt1.o
                0x00014c4c                gethostname@@GLIBC_2.4
                0x00014c58                gtk_page_setup_new
                0x00014c64                pango_layout_set_text
                0x00014c70                gtk_page_setup_set_left_margin
                0x00014c7c                ftell@@GLIBC_2.4
                0x00014c88                getuid@@GLIBC_2.4
                0x00014c94                gtk_print_unix_dialog_get_selected_printer
                0x00014ca0                gtk_print_unix_dialog_get_page_setup
                0x00014cac                fopen64@@GLIBC_2.4
                0x00014cb8                endwin@@NCURSESW6_5.1.20000708
                0x00014cc4                g_main_loop_unref
                0x00014cd0                fwrite@@GLIBC_2.4
                0x00014cdc                mbrtowc@@GLIBC_2.4
                0x00014ce8                toupper@@GLIBC_2.4
                0x00014cf4                pango_font_metrics_get_approximate_char_width
                0x00014d00                gtk_label_set_text
                0x00014d0c                __isoc99_sscanf@@GLIBC_2.7
                0x00014d18                pango_font_description_from_string
                0x00014d24                g_type_check_instance_cast
                0x00014d30                fprintf@@GLIBC_2.4
                0x00014d3c                gtk_print_settings_get_orientation
                0x00014d48                gtk_print_settings_set
                0x00014d54                waddnstr@@NCURSESW6_5.1.20000708
                0x00014d60                strstr@@GLIBC_2.4
                0x00014d6c                isatty@@GLIBC_2.4
                0x00014d78                getppid@@GLIBC_2.4
                0x00014d84                gtk_widget_destroy
                0x00014d90                pango_font_family_get_name
                0x00014d9c                gtk_widget_hide
                0x00014da8                gtk_print_settings_set_use_color
                0x00014db4                gtk_paper_size_get_width
                0x00014dc0                wbkgdset@@NCURSESW6_5.1.20000708
                0x00014dcc                execvp@@GLIBC_2.4
                0x00014dd8                write@@GLIBC_2.4
                0x00014de4                wctomb@@GLIBC_2.4
                0x00014df0                pango_context_get_metrics
                0x00014dfc                can_change_color@@NCURSESW6_5.1.20000708
                0x00014e08                opendir@@GLIBC_2.4
                0x00014e14                printf@@GLIBC_2.4
                0x00014e20                gnome_vfs_mime_get_default_application
                0x00014e2c                bsearch@@GLIBC_2.4
                0x00014e38                gtk_box_pack_start
                0x00014e44                g_main_loop_new
                0x00014e50                fclose@@GLIBC_2.4
                0x00014e5c                cairo_translate
                0x00014e68                gtk_page_setup_get_top_margin
                0x00014e74                atoll@@GLIBC_2.4
                0x00014e80                g_signal_connect_data
                0x00014e8c                qsort@@GLIBC_2.4
                0x00014e98                getgid@@GLIBC_2.4
                0x00014ea4                wclear@@NCURSESW6_5.1.20000708
                0x00014eb0                __ctype_b_loc@@GLIBC_2.4
                0x00014ebc                strnlen@@GLIBC_2.4
                0x00014ec8                g_free
                0x00014ed4                gdk_pango_context_get
                0x00014ee0                ppdFindChoice
                0x00014eec                nonl@@NCURSESW6_5.1.20000708
                0x00014ef8                getmntent@@GLIBC_2.4
                0x00014f04                gtk_dialog_run
                0x00014f10                gtk_paper_size_get_height
                0x00014f1c                gtk_print_settings_set_paper_size
                0x00014f28                iconv@@GLIBC_2.4
                0x00014f34                fputc@@GLIBC_2.4
                0x00014f40                dlclose@@GLIBC_2.4
                0x00014f4c                gtk_printer_is_default
                0x00014f58                beep@@NCURSESW6_5.1.20000708
                0x00014f64                __xstat64@@GLIBC_2.4
                0x00014f70                gtk_page_setup_get_bottom_margin
                0x00014f7c                chown@@GLIBC_2.4
                0x00014f88                gtk_print_context_get_hard_margins
                0x00014f94                gtk_print_settings_set_printer
                0x00014fa0                strpbrk@@GLIBC_2.4
                0x00014fac                fseek@@GLIBC_2.4
                0x00014fb8                cupsGetPPD
                0x00014fc4                pango_font_map_list_families
                0x00014fd0                gtk_paper_size_get_default_left_margin
                0x00014fdc                strerror@@GLIBC_2.4
                0x00014fe8                gtk_print_settings_get_paper_height
                0x00014ff4                g_get_charset
                0x00015000                pango_layout_set_font_description
                0x0001500c                pango_context_load_font
                0x00015018                gtk_main_quit
                0x00015024                pango_font_description_get_family
                0x00015030                color_content@@NCURSESW6_5.1.20000708
                0x0001503c                tolower@@GLIBC_2.4
                0x00015048                g_iconv_open
                0x00015054                ppdOpenFile
                0x00015060                putchar@@GLIBC_2.4
                0x0001506c                gtk_enumerate_printers
                0x00015078                has_colors@@NCURSESW6_5.1.20000708
                0x00015084                pango_language_from_string
                0x00015090                puts@@GLIBC_2.4
                0x0001509c                gtk_printer_get_default_page_size
                0x000150a8                init_pair@@NCURSESW6_5.1.20000708
                0x000150b4                pango_font_description_get_style
                0x000150c0                __libc_start_main@@GLIBC_2.4
                0x000150d8                setupterm@@NCURSES6_TINFO_5.0.19991023
                0x000150e4                strchr@@GLIBC_2.4
                0x000150f0                gtk_page_setup_get_orientation
                0x000150fc                g_error_free
                0x00015108                cairo_line_to
                0x00015114                __errno_location@@GLIBC_2.4
                0x00015120                gtk_init
                0x0001512c                pango_font_description_get_weight
                0x00015138                keypad@@NCURSES6_TINFO_5.0.19991023
                0x00015144                wmemset@@GLIBC_2.4
                0x00015150                lutimes@@GLIBC_2.4
                0x0001515c                atol@@GLIBC_2.4
                0x00015168                ftello64@@GLIBC_2.4
                0x00015174                tcsetattr@@GLIBC_2.4
                0x00015180                gtk_print_settings_get_printer
                0x0001518c                curs_set@@NCURSES6_TINFO_5.0.19991023
                0x00015198                gtk_paper_size_get_display_name
                0x000151a4                symlink@@GLIBC_2.4
                0x000151b0                gtk_print_operation_set_use_full_page
                0x000151bc                setenv@@GLIBC_2.4
                0x000151c8                mkdir@@GLIBC_2.4
                0x000151d4                gtk_page_setup_get_paper_width
                0x000151e0                pthread_mutex_lock@@GLIBC_2.4
                0x000151ec                pipe@@GLIBC_2.4
                0x000151f8                noecho@@NCURSESW6_5.1.20000708
                0x00015204                gnome_vfs_get_mime_type
                0x00015210                remove@@GLIBC_2.4
                0x0001521c                pango_context_set_language
                0x00015228                waddchnstr@@NCURSESW6_5.1.20000708
                0x00015234                gtk_print_operation_set_embed_page_setup
                0x00015240                pthread_cond_wait@@GLIBC_2.4
                0x0001524c                pango_font_metrics_get_ascent
                0x00015258                free@@GLIBC_2.4
                0x00015264                gtk_page_setup_get_paper_height
                0x00015270                gtk_page_setup_set_top_margin
                0x0001527c                iconv_close@@GLIBC_2.4
                0x00015288                ppdClose
                0x00015294                wcwidth@@GLIBC_2.4
                0x000152a0                close@@GLIBC_2.4
                0x000152ac                g_list_free
                0x000152b8                clearok@@NCURSESW6_5.1.20000708
                0x000152c4                memcpy@@GLIBC_2.4
                0x000152d0                wcstombs@@GLIBC_2.4
                0x000152dc                pango_layout_new
                0x000152e8                iconv_open@@GLIBC_2.4
                0x000152f4                memmove@@GLIBC_2.4
                0x00015300                strncpy@@GLIBC_2.4
                0x0001530c                winchnstr@@NCURSESW6_5.1.20000708
                0x00015318                gtk_page_setup_set_orientation
                0x00015324                win_wchnstr@@NCURSESW6_5.3.20021019
                0x00015330                access@@GLIBC_2.4
                0x0001533c                cairo_set_line_width
                0x00015348                gtk_print_operation_set_default_page_setup
                0x00015354                gtk_window_set_position
                0x00015360                gtk_print_unix_dialog_new
                0x0001536c                unlink@@GLIBC_2.4
                0x00015378                ferror@@GLIBC_2.4
                0x00015384                gtk_print_settings_new
                0x00015390                gtk_paper_size_new_custom
                0x0001539c                cairo_stroke
                0x000153a8                strcpy@@GLIBC_2.4
                0x000153b4                execv@@GLIBC_2.4
                0x000153c0                cupsFreeDests
                0x000153cc                gtk_print_settings_get_resolution_x
                0x000153d8                raise@@GLIBC_2.4
                0x000153e4                getgrgid@@GLIBC_2.4
                0x000153f0                gtk_page_setup_get_right_margin
                0x000153fc                gtk_print_operation_set_unit
                0x00015408                start_color@@NCURSESW6_5.1.20000708
                0x00015414                atoi@@GLIBC_2.4
                0x00015420                gtk_print_operation_set_n_pages
                0x0001542c                gtk_print_unix_dialog_set_manual_capabilities
                0x00015438                gtk_print_operation_get_print_settings
                0x00015444                dlsym@@GLIBC_2.4
                0x00015450                gtk_label_new
                0x0001545c                pango_font_description_set_size
                0x00015468                ppdFindOption
                0x00015474                gtk_dialog_get_type
                0x00015480                ftime@@GLIBC_2.4
                0x0001548c                gtk_print_unix_dialog_get_settings
                0x00015498                fork@@GLIBC_2.4
                0x000154a4                gtk_print_unix_dialog_set_current_page
                0x000154b0                pango_cairo_font_map_get_default
                0x000154bc                signal@@GLIBC_2.4
                0x000154c8                cairo_move_to
                0x000154d4                gettimeofday@@GLIBC_2.4
                0x000154e0                getpwuid@@GLIBC_2.4
                0x000154ec                system@@GLIBC_2.4
                0x000154f8                g_main_loop_quit
                0x00015504                malloc@@GLIBC_2.4
                0x00015510                localtime@@GLIBC_2.4
                0x0001551c                getcwd@@GLIBC_2.4
                0x00015528                gtk_box_get_type
                0x00015534                gtk_print_settings_get_paper_size
                0x00015540                tcgetattr@@GLIBC_2.4
                0x0001554c                pthread_cond_init@@GLIBC_2.4
                0x00015558                wmemmove@@GLIBC_2.4
                0x00015564                g_type_class_ref
                0x00015570                gnome_program_init
                0x0001557c                kill@@GLIBC_2.4
                0x00015588                gtk_page_setup_set_right_margin
                0x00015594                libgnome_module_info_get
                0x000155a0                strdup@@GLIBC_2.4
                0x000155ac                strlen@@GLIBC_2.4
                0x000155b8                gtk_print_operation_set_print_settings
                0x000155c4                pthread_mutex_destroy@@GLIBC_2.4
                0x000155d0                chdir@@GLIBC_2.4
                0x000155dc                cairo_get_matrix
                0x000155e8                chmod@@GLIBC_2.4
                0x000155f4                g_convert_with_iconv
                0x00015600                gtk_page_setup_get_left_margin
                0x0001560c                __fxstat64@@GLIBC_2.4
                0x00015618                pango_cairo_show_layout
                0x00015624                gtk_container_get_type
                0x00015630                mktime@@GLIBC_2.4
                0x0001563c                wadd_wchnstr@@NCURSESW6_5.3.20021019
                0x00015648                closedir@@GLIBC_2.4
                0x00015654                getpid@@GLIBC_2.4
                0x00015660                winnstr@@NCURSESW6_5.1.20000708
                0x0001566c                g_list_append
                0x00015678                __lxstat64@@GLIBC_2.4
                0x00015684                select@@GLIBC_2.4
                0x00015690                gtk_print_operation_get_default_page_setup
                0x0001569c                gtk_printer_request_details
                0x000156a8                readlink@@GLIBC_2.4
                0x000156b4                pango_layout_get_iter
                0x000156c0                g_object_ref
                0x000156cc                gtk_printer_is_virtual
                0x000156d8                iswalpha@@GLIBC_2.4
                0x000156e4                fseeko64@@GLIBC_2.4
                0x000156f0                dup@@GLIBC_2.4
                0x000156fc                sprintf@@GLIBC_2.4
                0x00015708                g_main_loop_run
                0x00015714                gtk_print_unix_dialog_set_embed_page_setup
                0x00015720                snprintf@@GLIBC_2.4
                0x0001572c                fflush@@GLIBC_2.4
                0x00015738                mbtowc@@GLIBC_2.4
                0x00015744                curses_version@@NCURSES6_TINFO_5.0.19991023
                0x00015750                gtk_message_dialog_new
                0x0001575c                gtk_printer_has_details
                0x00015768                cairo_scale
                0x00015774                perror@@GLIBC_2.4
                0x00015780                wmemcpy@@GLIBC_2.4
                0x0001578c                setlocale@@GLIBC_2.4
                0x00015798                vfprintf@@GLIBC_2.4
                0x000157a4                cupsGetDests
                0x000157b0                cairo_set_source_rgb
                0x000157bc                gtk_vbox_new
                0x000157c8                gtk_printer_list_papers
                0x000157d4                mousemask@@NCURSESW6_5.1.20000708
                0x000157e0                gnome_vfs_mime_application_free
                0x000157ec                gtk_button_new_from_stock
                0x000157f8                strcmp@@GLIBC_2.4
                0x00015804                pango_layout_iter_free
                0x00015810                initscr@@NCURSESW6_5.1.20000708
                0x0001581c                memcmp@@GLIBC_2.4
                0x00015828                gtk_print_operation_new
                0x00015834                gtk_paper_size_new
                0x00015840                gtk_widget_show_all
                0x0001584c                memset@@GLIBC_2.4
                0x00015858                gtk_print_context_get_page_setup
                0x00015864                wrefresh@@NCURSESW6_5.1.20000708
                0x00015870                pango_layout_set_ellipsize
                0x0001587c                getenv@@GLIBC_2.4
                0x00015888                gtk_paper_size_get_paper_sizes
                0x00015894                gtk_printer_get_name
                0x000158a0                rename@@GLIBC_2.4
                0x000158ac                flock@@GLIBC_2.4
                0x000158b8                mkfifo@@GLIBC_2.4
                0x000158c4                time@@GLIBC_2.4
                0x000158d0                g_list_length
                0x000158dc                meta@@NCURSES6_TINFO_5.0.19991023
                0x000158e8                gtk_print_settings_set_orientation
                0x000158f4                g_list_first
                0x00015900                gtk_hbox_new
                0x0001590c                wait@@GLIBC_2.4
                0x00015918                statfs64@@GLIBC_2.4
                0x00015924                g_object_unref
                0x00015930                pthread_cond_broadcast@@GLIBC_2.4
                0x0001593c                gtk_window_new
                0x00015948                fread@@GLIBC_2.4
                0x00015954                gnome_vfs_init
                0x00015960                pthread_create@@GLIBC_2.4
                0x0001596c                pango_font_metrics_get_descent
                0x00015978                strcat@@GLIBC_2.4
                0x00015984                gtk_paper_size_get_name
                0x00015990                pango_style_get_type
                0x0001599c                gtk_print_settings_get_paper_width
                0x000159a8                abort@@GLIBC_2.4
                0x000159b4                gtk_print_unix_dialog_set_page_setup
                0x000159c0                init_color@@NCURSESW6_5.1.20000708
                0x000159cc                pango_layout_iter_get_line
                0x000159d8                gnome_vfs_get_uri_from_local_path
                0x000159e4                gtk_label_get_type
                0x000159f0                waitpid@@GLIBC_2.4
                0x000159fc                pango_font_description_get_size
                0x00015a08                gnome_vfs_get_file_info
                0x00015a14                pthread_cond_timedwait@@GLIBC_2.4
                0x00015a20                exit@@GLIBC_2.4
                0x00015a2c                gtk_widget_show
                0x00015a38                gtk_print_settings_get_print_pages
                0x00015a44                pango_layout_get_extents
                0x00015a50                calloc@@GLIBC_2.4
                0x00015a5c                g_enum_get_value
                0x00015a68                gtk_print_unix_dialog_set_settings
                0x00015a74                gtk_print_settings_get_resolution_y
                0x00015a80                gtk_print_operation_run
                0x00015a8c                setmntent@@GLIBC_2.4
                0x00015a98                rmdir@@GLIBC_2.4
                0x00015aa4                pango_weight_get_type
                0x00015ab0                gtk_container_add
                0x00015abc                strrchr@@GLIBC_2.4
                0x00015ac8                wmove@@NCURSESW6_5.1.20000708
                0x00015ad4                dup2@@GLIBC_2.4
                0x00015ae0                getmntent_r@@GLIBC_2.4
                0x00015aec                fgets@@GLIBC_2.4
                0x00015af8                raw@@NCURSES6_TINFO_5.0.19991023
                0x00015b04                pango_layout_copy
                0x00015b10                gtk_widget_create_pango_layout
                0x00015b1c                utimes@@GLIBC_2.4
                0x00015b28                endmntent@@GLIBC_2.4
                0x00015b34                fgetc@@GLIBC_2.4
                0x00015b40                memchr@@GLIBC_2.4
                0x00015b4c                read@@GLIBC_2.4
                0x00015b58                gtk_window_get_type
                0x00015b64                readdir64@@GLIBC_2.4
                0x00015b70                gtk_page_setup_set_paper_size
                0x00015b7c                pthread_mutex_unlock@@GLIBC_2.4
                0x00015b88                wcrtomb@@GLIBC_2.4
                0x00015b94                gtk_page_setup_get_paper_size
                0x00015ba0                nl_langinfo@@GLIBC_2.4
                0x00015bac                gtk_print_context_get_cairo_context
                0x00015bb8                pthread_mutex_init@@GLIBC_2.4
                0x00015bc4                gtk_widget_get_type
                0x00015bd0                fileno@@GLIBC_2.4
                0x00015bdc                mkstemp64@@GLIBC_2.4
                0x00015be8                strspn@@GLIBC_2.4
                0x00015bf4                open64@@GLIBC_2.4
                0x00015c00                ioctl@@GLIBC_2.4
                0x00015c0c                pango_font_metrics_get_approximate_digit_width
                0x00015c18                fputs@@GLIBC_2.4
                0x00015c24                gtk_printer_get_hard_margins
                0x00015c30                g_utf8_validate
                0x00015c3c                gtk_print_settings_get_page_ranges
                0x00015c48                nanosleep@@GLIBC_2.4
                0x00015c54                iswprint@@GLIBC_2.4
                0x00015c60                gtk_page_setup_set_bottom_margin
                0x00015c6c                putenv@@GLIBC_2.4
                0x00015c78                ttyname@@GLIBC_2.4
                0x00015c84                dlopen@@GLIBC_2.4

.iplt           0x00015c90        0x0
 *(.iplt)
 .iplt          0x00015c90        0x0 /usr/lib/gcc/arm-linux-gnueabihf/8/../../../arm-linux-gnueabihf/crt1.o

.text           0x00015c90    0xd16dc
 *(.text.unlikely .text.*_unlikely .text.unlikely.*)
 *(.text.exit .text.exit.*)
 *(.text.startup .text.startup.*)
 *(.text.hot .text.hot.*)
 *(.text .stub .text.* .gnu.linkonce.t.*)
 .text          0x00015c90       0x3c /usr/lib/gcc/arm-linux-gnueabihf/8/../../../arm-linux-gnueabihf/crt1.o
                0x00015c90                _start
 .text          0x00015ccc       0x24 /usr/lib/gcc/arm-linux-gnueabihf/8/../../../arm-linux-gnueabihf/crti.o
 .text          0x00015cf0       0x90 /usr/lib/gcc/arm-linux-gnueabihf/8/crtbegin.o
 .text          0x00015d80     0x5734 gxp-xprint.o
                0x00015d80                main
                0x0001aec0                openoutput
                0x0001afa8                uexit
                0x0001b0a4                dos_endjob
                0x0001b16c                parmprechk
                0x0001b3b8                AllocCmdlineParmSave
                0x0001b460                SaveToCmdlineParmSave
 .text          0x0001b4b4      0xcd4 gxp-xp2p.o
                0x0001b4b4                get2pwidth
                0x0001b64c                newpage2p
                0x0001b940                closepage2p
                0x0001bc64                closedoc2p
                0x0001bc78                putline2p
 .text          0x0001c188     0x16fc gxp-xpdesp.o
                0x0001c188                deswkfwrite
                0x0001c604                desp_gtkopenwk
                0x0001c728                desp_gtkdatawrite
                0x0001c8ac                desp_gtkdataread
                0x0001ca70                despageout
                0x0001d15c                desp_gtkflush_opendoc
                0x0001d208                desp_gtkflushpage
                0x0001d4e8                desp_gtkopendoc
                0x0001d630                desp_gtkclosedoc
                0x0001d67c                desp_gtktextout
                0x0001d700                desp_gtklineout
                0x0001d75c                desp_gtknewpage
                0x0001d774                desp_gtkclosepage
                0x0001d79c                desp_gtkbeginprint
                0x0001d860                desp_gtkdrawpage
 .text          0x0001d884     0x25e0 gxp-xpebc.o
                0x0001d884                xpebc_getparmcvname
                0x0001d92c                xpebc_init
                0x0001dbdc                xpebc_setupcp
                0x0001de8c                xpebc_open
                0x0001df44                xpebc_fgets
                0x0001e288                xpebc_fgetc
                0x0001e7e4                xpebc_fread
                0x0001eabc                xpebc_freadnext
                0x0001ebd0                xpebc_b2dd
                0x0001efdc                xpebc_b2m_cmt
                0x0001f064                xpebc_b2m
                0x0001f2b0                xpebc_setucsline
                0x0001f764                xpebc_b2u
                0x0001f920                xpebc_setucslinesamechk
                0x0001fad0                xpebc_b2ddrecord
                0x0001fc08                xpebc_b2ddrecord_copy
                0x0001fd04                xpebc_setdbcsspacealtch
 .text          0x0001fe64     0x2f58 gxp-xpesc.o
                0x0001fe64                escformchk
                0x00020050                escformchkGtk
                0x000202a0                escdefaultmax
                0x00020b7c                esccmdsetup
                0x00021be4                canonfontset
                0x00022218                getescdata
                0x000224dc                gethexvalue
                0x00022628                escfontchk
                0x00022cb8                escprntyp
 .text          0x00022dbc     0x1d38 gxp-xphex.o
                0x00022dbc                setprintucsline
                0x00022e24                printdump
                0x0002325c                puthexline
                0x00023e4c                printdump3
                0x00023fd0                putsameline
                0x000241b0                datapxline
                0x00024280                datapxline_ucs
                0x00024398                datapxline_ucsebc
                0x00024494                pxline
                0x000245ec                pxline_ucsebc
                0x000248c0                xphexresetboundary
 .text          0x00024af4     0x1ff0 gxp-xphlp.o
                0x00024af4                helpabridge
                0x00026a3c                hline
                0x00026a7c                titlemsg
 *fill*         0x00026ae4        0x4 
 .text          0x00026ae8     0x3064 gxp-xpinp.o
                0x00026ae8                listgen
                0x000271ec                pathcomp
                0x0002725c                fullpathcomp
                0x00027320                compare
                0x00027670                openinput
                0x000286b8                findfile2
                0x00028704                findfile
                0x000287b8                notfound
                0x000288f0                archoff
                0x00028908                getpath
                0x000289a4                fdatechkmain
                0x00028aa8                fdatechk
                0x00028ca8                getinput
                0x000295cc                fileconfirm
                0x000299e8                xpfnmcomp
                0x00029a18                xpparsehdrfnm
 .text          0x00029b4c     0x149c gxp-xpmult.o
                0x00029b4c                uindirect
                0x0002a1c4                umultifnlist
                0x0002a40c                xpsrchsepc
                0x0002a534                xpmultdir
                0x0002a744                xpmult_indirectopt
                0x0002a880                xpmult_chkindirectopt
 .text          0x0002afe8     0x6b2c gxp-xppf.o
                0x0002afe8                printfile
                0x0002ecf4                printsubhdr
                0x0002f028                chkhdrfnm_utf8
                0x0002f850                subhdredit_utf8
                0x0002fecc                header0edit
                0x00030144                printhdr
                0x000305e8                pagenoedit
                0x00030840                datapline
                0x00030930                datapline_ucs
                0x000309f8                datapline_ucsebc
                0x00030b24                pline
                0x00030cb0                ufwrite
                0x00031444                keisenconv
                0x0003152c                getTabon
                0x00031884                chkTabon
                0x00031a9c                getTabonAltch
 .text          0x00031b14      0xc7c gxp-xpsub1.o
                0x00031b14                getcondts
                0x00031ec0                escstopmsg
                0x00031f54                escstopmsg2
                0x00032064                optionerr
                0x00032108                os2init
                0x00032120                breakchk
                0x000321d8                kbdinp
                0x0003221c                dbcsenvchk
                0x00032250                setupcp
                0x00032414                chkvfmtparm
                0x00032480                errexclusive
                0x000324cc                sub1freadVinit
                0x00032550                sub1freadVinitphase
                0x0003259c                sub1freadV
 .text          0x00032790      0xd3c gxp-xputf.o
                0x00032790                xputf_open
                0x000328a0                xputf_getinputfrombuff
                0x00032964                xputf_putinputtobuff
                0x000329f0                xputf_getinput
                0x00033410                xputf_f2u
 *fill*         0x000334cc        0x4 
 .text          0x000334d0     0x8520 gxp-xplnxp.o
                0x000334d0                lnx_init
                0x000336f0                lnx_getconfig
                0x00033768                lnx_portchk
                0x00033a4c                lnx_setupfont
                0x00033be0                lnx_getfontmetrics
                0x00033d04                lnx_printdialoginit
                0x00033d80                lnx_initdm
                0x00033e20                lnx_createlogfont
                0x000345ac                lnx_setscale
                0x000346d0                lnx_getdcinf
                0x00034a54                lnx_searchfont
                0x00034c30                lnx_getpangolang
                0x00034c94                lnx_parsefontname
                0x00034db8                lnx_lookupenum
                0x00034e04                lnx_printfd
                0x00034f08                lnx_createfont
                0x00035188                lnx_opendoc
                0x0003523c                lnx_opendoc2printer
                0x0003526c                lnx_closedoc
                0x00035338                lnx_newpage
                0x00035518                lnx_newpage_flush
                0x0003561c                lnx_closepage
                0x00035658                lnx_putline
                0x0003597c                lnx_endjob
                0x00035a38                lnx_textout
                0x00035cc4                lnx_drawhhexpart
                0x00035e1c                lnx_textout2printer
                0x0003630c                lnx_lineout
                0x00036348                lnx_lineout2printer
                0x000363dc                lnx_locale2utf8
                0x00036924                lnx_ucs2utf8
                0x00036ac0                lnx_utf8init
                0x00036b98                lnx_printgerror
                0x00036c14                lnx_getmaxcol
                0x00036d94                lnx_getmaxline
                0x00036e64                on_framewindow_realize
                0x00036e88                on_button_can_clicked
                0x00036ebc                on_framewindow_destroy
                0x00036f24                gtkinit
                0x00036f64                lnx_createfw
                0x000371f0                lnx_updatefw
                0x0003726c                lnx_updatefwmsg
                0x000372a0                begin_print
                0x000373bc                draw_page
                0x00037470                end_print
                0x00037498                done_print
                0x000374c0                begin_print_init
                0x00037504                draw_page_init
                0x00037530                end_print_init
                0x00037558                done_print_init
                0x00037580                lnx_settings
                0x000375f4                printdialogGtk
                0x00037990                printdialogUnixDialog
                0x00037b80                printdialogGtkUnix
                0x00037d84                lnx_setconfigprinter
                0x00037e04                lnx_startjob
                0x00037e34                lnx_startdoc2
                0x00037e80                lnx_flushprint
                0x00037f14                lnx_getcupspapername
                0x00037ff8                lnx_setpapersize
                0x00038050                lnx_setcolorGtk
                0x00038088                lnx_srchppdsizePrinter
                0x000381d4                comparePaperSize
                0x00038378                comparePaperNameGtkPPD
                0x00038550                printPaperSize
                0x000385c8                getpapermarginwh
                0x00038748                lnx_srchGtkPaperSize_212
                0x00038abc                getdisplayname
                0x00038b30                lnx_srchGtkPaperSize
                0x00038f8c                lnx_getprinterFormchk
                0x0003902c                lnx_formchk
                0x000391f8                lnx_papersizeinit
                0x00039334                getglyphextent
                0x000393a4                chkglyphextent
                0x000394a4                chkstringextent
                0x00039538                lnx_ismonospace
                0x0003968c                lnx_chkfontsize
                0x0003999c                chklayoutextent
                0x000399f0                getstringxscale
                0x00039b30                lnx_setlayoutoption
                0x00039c34                usetmonospace
                0x00039da8                lnx_showlayout
                0x00039f98                createfontByWidth
                0x0003a0b4                getparmmargin
                0x0003a188                getshiftparm
                0x0003a794                shiftpaper
                0x0003a9d8                getCustomPapersize
                0x0003aa70                getDialogPageRange
                0x0003ac60                getDialogNpage
                0x0003adf8                getDialogSelectpage
                0x0003ae1c                printedmsg
                0x0003b004                msgdialog
                0x0003b0d4                hidewindow
                0x0003b158                showwindow
                0x0003b188                isallascii
                0x0003b1fc                enumprinter
                0x0003b3b8                enumprinters
                0x0003b43c                srchprinterGtk
                0x0003b570                wait_callback
                0x0003b5c8                wakeup_wait
                0x0003b5ec                printer_details_acquired
                0x0003b624                requestPrinterDetail
                0x0003b6d0                getcupspaperlistGtk
                0x0003b730                create_pagesetup
                0x0003b84c                applyparmmargin
                0x0003b938                get_printer_defaultpapersize
 .text          0x0003b9f0      0xe50 ../ulib/libuserxe.a(libuserxe_a-uallocl.o)
                0x0003b9f0                ualloc_init
                0x0003bc44                ugetallocdata
                0x0003bd7c                ualloc_chk
                0x0003bf44                umalloc
                0x0003c188                ucalloc
                0x0003c3f8                ufree
                0x0003c628                uallocsz
                0x0003c674                ufreesz
                0x0003c6c4                uallocmapset
                0x0003c7d8                ufreesizeerr
                0x0003c80c                umallocsizeerr
 .text          0x0003c840     0x1ad0 ../ulib/libuserxe.a(libuserxe_a-ucvebc.o)
                0x0003c840                ucvebcinite2uJ
                0x0003c994                ucvebc
                0x0003c9ac                ucvebc_gettrte2a
                0x0003c9cc                ucvebc2asc_handle
                0x0003ca6c                ucvasc2ebc_handle
                0x0003cb0c                ucvebc2asc
                0x0003cf24                ucvebc2asc1sbcsJ
                0x0003d0a4                ucvebc2ucs1sbcsJ
                0x0003d238                ucvasc2ebc
                0x0003d7e0                ucvebc_defaultremap
                0x0003dac0                ucvebcinita2e
                0x0003dc2c                ucvkandl
                0x0003de1c                ucvebcinitkandl
                0x0003df40                ucvebc2_chkprintsbcs
                0x0003e21c                ucvebc_chkeolopt
 .text          0x0003e310     0x1718 ../ulib/libuserxe.a(libuserxe_a-ucvebc2.o)
                0x0003e310                ucvebc2
                0x0003e328                ucvebc2_init
                0x0003e398                ucvebc2_codecomp
                0x0003e3e0                ucvebc2_s2e
                0x0003e47c                ucvebc2_e2s
                0x0003e514                ucvebc2_chkprint
                0x0003e7dc                ucvebc2_chkprintnewold
                0x0003ea54                ucvebc2_chkprintdup
                0x0003ec00                ucvebc2_e2ssub
                0x0003ee40                ucvebc2_s2esub
                0x0003eef8                ucvebc2_stre2s
                0x0003f1a8                ucvebc2_ebc2asc1dbcsJ
                0x0003f244                ucvebc2_strs2e
                0x0003f7f8                ucvebc2_setsi
                0x0003f91c                ucvebc2_setso
 .text          0x0003fa28     0x54c8 ../ulib/libuserxe.a(libuserxe_a-ucvebc3.o)
                0x0003fa28                ucvebc3_getcfgparmconverter
                0x0003fc2c                ucvebc3_init_xcv
                0x0003fc6c                ucvebc3_getconvertersubchar
                0x0003fce0                ucvebc3_setletter
                0x00040614                ucvebc3_init
                0x00040888                ucvebc3_cfgerr
                0x000408b0                ucvebc3_b2uSbcs1
                0x00040b98                ucvebc3_b2ddSbcs1
                0x00040d88                ucvebc3_b2ddSbcs
                0x00041248                ucvebc3_b2uDbcs1
                0x00041464                ucvebc3_b2ddDbcs1
                0x00041684                ucvebc3_b2ddDbcsstr
                0x00041884                ucvebc3_b2ddDbcs
                0x00041fb0                ucvebc3_b2dd
                0x000420a4                ucvebc3_u2b1map
                0x000421e4                ucvebc3_u2b1
                0x00042588                ucvebc3_m2b1Sbcs1
                0x00042744                ucvebc3_m2b1
                0x00042a7c                ucvebc3_m2b
                0x00042f8c                ucvebc3_f2b
                0x00043624                ucvebc3_dd2b
                0x00043cf4                ucvebc3_b2mSbcs
                0x000443c0                ucvebc3_b2mDbcsstr
                0x00044660                ucvebc3_b2m
                0x00044b38                ucvebc3_setdbcstbl
                0x00044cd8                ucvebc3_getebc3opt
                0x00044dc8                ucvebc3_b2f
                0x00044e64                ucvebc3_f2bcmd
 .text          0x00044ef0     0x1ee8 ../ulib/libuserxe.a(libuserxe_a-ucvebc32.o)
                0x00044ef0                ucvebc_umemspnc
                0x00044fe0                ucvebc_umemrspnc
                0x000450d0                ucvebc_umemchr
                0x00045204                ucvebc_umemrchr
                0x00045314                ucvebc_memcmp_banda
                0x000454e8                ucvebc_memicmp
                0x00045544                ucvebc_memcmp
                0x000457a4                ucvebc_umemmemi
                0x00045a90                ucvebc_umemmem
                0x00045c1c                ucvebc_umemrmemi
                0x00045ec4                ucvebc_umemrmem
                0x00046054                ucvebc_unumlen
                0x0004637c                ucvebc_asciilen
                0x000464a4                ucvebc_issbcsstr
                0x00046544                ucvebc_uispunct
                0x00046660                ucvebc_uatoin
                0x0004678c                ucvebc_a2bfld
                0x000468b0                ucvebc_b2afld
                0x000469ec                ucvebc_umempbrk
                0x00046ad4                ucvebc_umemrpbrk
                0x00046bd4                ucvebc_umemspn
                0x00046cd4                ucvebc_umemrspn
 .text          0x00046dd8     0x1c0c ../ulib/libuserxe.a(libuserxe_a-ucvebc4.o)
                0x00046dd8                ucvebc4_init
                0x00046e64                ucvebc4_compbyname
                0x00046ebc                ucvebc4_compbyhandle
                0x00046f0c                ucvebc4_srchcveh
                0x00047060                ucvebc4_gethandle
                0x00047150                ucvebc4_getpucveh
                0x000471d0                ucvebc4_getcvname
                0x00047234                ucvebc4_getcvtype
                0x000473b8                ucvebc4_createhandle
                0x000474f4                ucvebc4_getparmconverter
                0x00047624                ucvebc4_chkdbcsconverter
                0x0004773c                ucvebc4_setuphandle
                0x0004784c                ucvebc4_setletter
                0x00047fa8                ucvebc4_b2uSbcs1
                0x000480c4                ucvebc4_b2mSbcs
                0x000484f0                ucvebc4_setupsubch
 .text          0x000489e4       0xa8 ../ulib/libuserxe.a(libuserxe_a-ucvebct.o)
                0x000489e4                ucvebc2gettbl
 .text          0x00048a8c     0x6c18 ../ulib/libuserxe.a(libuserxe_a-ucvext.o)
                0x00048a8c                ucvext_cfglineerr
                0x00048ac8                ucvext_cfgdupoption
                0x00048b04                ucvext_ux2s
                0x00048bec                ucvext_cfgmap
                0x00048d64                ucvext_getcfg
                0x00049b58                ucvext_setdefaultlocalcv
                0x00049c9c                ucvext_getarmso1
                0x00049efc                ucvext_getarmso
                0x0004a188                ucvext_getarmdata1
                0x0004a2f8                ucvext_getarmdata
                0x0004a4a8                chkapiver
                0x0004a664                ucvext_icuinit_env
                0x0004a900                setdatadir
                0x0004a9cc                ucvext_mapinit
                0x0004b3b0                ucvext_setupsubch
                0x0004b984                ucvext_loaddll_icudata
                0x0004bc18                ucvext_loaddll
                0x0004bcc8                ucvext_icuinit
                0x0004c3ec                ucvext_icuenumcvname
                0x0004c7bc                ucvext_icuuerrname
                0x0004c82c                ucvext_icugetdefaultconvertername2
                0x0004c948                ucvext_getstdcharset
                0x0004cd20                ucvext_icugetdefaultconvertername
                0x0004ce60                ucvext_icugetconvertertype
                0x0004d084                ucvext_icugetsubchars
                0x0004d208                ucvext_icusetsubchars
                0x0004d2fc                ucvext_icugetstarter
                0x0004d488                ucvext_icugetconverter
                0x0004da98                ucvext_getparmconverter
                0x0004dd1c                ucvext_openparmconverter
                0x0004de9c                ucvext_getcvoption
                0x0004e208                set_internal_CP037
                0x0004e2f0                ucvext_mapinitsetdefault
                0x0004e52c                ucvext_setlocalconverter
                0x0004e628                ucvext_icusubcharchk
                0x0004e9dc                ucvext_isdbcs1st
                0x0004ea60                chk_converter_is_ebcdic
                0x0004eb54                ucvext_handle0init
                0x0004ed98                ucvext_icuclose
                0x0004ee00                ucvext_icureset
                0x0004ee68                ucvext_icugetmbconverter
                0x0004ef48                ucvext_icumbinit12
                0x0004efa8                ucvext_icumbinit
                0x0004f274                ucvext_setdefaultlocale
                0x0004f364                chkicuversion
                0x0004f5f0                ucvext_getConverterCfg
 .text          0x0004f6a4     0x49f4 ../ulib/libuserxe.a(libuserxe_a-ucvext12.o)
                0x0004f6a4                ucvext12_init
                0x0004f808                ucvext_icuebc2ucs1
                0x0004fac4                ucvext_iculocal2ucs1
                0x0004fdb8                ucvext_icuucs2ebc1
                0x000500d0                ucvext_icuucs2local1
                0x0005039c                ucvext_icuebc2mb1
                0x000507fc                ucvext_icumb2ebc1
                0x00050cbc                ucvext_icuebc2mbs_handle
                0x00050d3c                ucvext_icuebc2mbs
                0x00051044                ucvext_icumb2ebcdbcs
                0x00051604                ucvext_icumb2ebcs_handle
                0x00051684                ucvext_icumb2ebcs
                0x00051b84                ucvext_icuebc2mbf
                0x0005206c                ucvext_icumb2ebcf
                0x00052808                ucvext_icumb2ucs1
                0x00052a14                ucvext_icuucs2mb1
                0x00052c3c                ucvext_icuutf2mb1
                0x00052de8                ucvext_icumb2utf1
                0x00052fe4                ucvext_icumb2utf
                0x0005328c                ucvext_icuisprint
                0x0005332c                ucvext_locale1ICU
                0x00053410                ucvext_getparmconvertermbICU
                0x00053848                ucvext_icua2ainit
                0x0005390c                ucvext_icua2aterm
                0x00053984                ucvext_icua2as
                0x00054044                ucvext_icusubcharchk_handle
 .text          0x00054098     0x1ec0 ../ulib/libuserxe.a(libuserxe_a-ucvext2.o)
                0x00054098                ucvext_iconvmapinit
                0x000540e4                ucvext_iconvgetstarter
                0x00054248                ucvext_iconvgetconvertertype
                0x000542c4                ucvext_iconvgetconverter
                0x00054408                ucvext_iconvgetparmconverter
                0x00054610                ucvext_iconvebc2ucs1
                0x00054780                ucvext_iconvlocal2ucs1
                0x00054a40                ucvext_iconvucs2ebc1
                0x00054bb4                ucvext_iconvucs2local1
                0x00054d1c                ucvext_iconva2as
                0x00055330                ucvext_iconvb2bs
                0x000554dc                ucvext_iconva2af
                0x00055bec                ucvext_iconva2ainit
                0x00055d0c                ucvext_iconva2acont
 .text          0x00055f58     0x4f64 ../ulib/libuserxe.a(libuserxe_a-ucvucs.o)
                0x00055f58                ucp932init
                0x000564e0                ucp932term
                0x00056588                ucp932sjis2ucs
                0x00056658                ucp932ucs2sjis
                0x000567dc                uccvsjis2ucs
                0x00056910                uccvucs2sjis
                0x00056940                uccvucs2utf
                0x00056b74                uccvutf2ucs
                0x00056f18                uccvucss2utf
                0x00056ffc                uccvutf2ucss
                0x000571c8                uccvsjis2ucss
                0x00057248                uccvucss2sjis
                0x0005728c                uccvsjis2utf
                0x00057370                uccvutf2sjis
                0x0005743c                ucvsucs2utf
                0x000577e0                ucvsescucs2utf
                0x00057ba4                ucvssjis2utf
                0x00057f70                ucvsmb2utf
                0x000582d0                ucvsutf2ucs
                0x00058634                ucvsutf2sjis
                0x00058ad0                ucvsutf2mb
                0x00058eb0                ucvssjis2ucs
                0x000591d4                ucvsucs2sjis
                0x00059574                ucvsescucs2sjis
                0x000598f8                ucvfsjis2ucs
                0x00059b18                ucvfucs2sjis
                0x00059d1c                ucvfutf2ucs
                0x00059fb8                ucvfucs2utf
                0x0005a224                ucvfsjis2utf
                0x0005a490                ucvfutf2sjis
                0x0005a72c                ucvbomchk
                0x0005a8d4                ucvbomset
                0x0005aa30                ucvsetucss
                0x0005ac60                ucvgetucss
                0x0005ad9c                ucverrutf
                0x0005adfc                ucverrucs
                0x0005ae5c                ucverrsjis
 .text          0x0005aebc       0x38 ../ulib/libuserxe.a(libuserxe_a-ucvucst.o)
                0x0005aebc                ugetcp932tbl
 .text          0x0005aef4     0x3084 ../ulib/libuserxe.a(libuserxe_a-udbcschk.o)
                0x0005aef4                udbcschk_wcinit
                0x0005b294                udbcschk_getbaseconverter
                0x0005b33c                udbcschk_setunprintable
                0x0005b4d4                udbcschk_wclocaleinit
                0x0005b640                udbcschk_wclocalereset
                0x0005ba54                udbcschk_chklocale
                0x0005bb14                udbcschk_getlinuxleadbyte
                0x0005bc7c                udbcschk
                0x0005be08                udbcschk_hk
                0x0005bef4                udbcschk_getmblen
                0x0005c1b4                udbcschk_mblen
                0x0005c284                udbcschk_mb2nd
                0x0005c40c                udbcschk_isvalidmbchar
                0x0005c4f0                udbcschk_locale_topbyte
                0x0005c5f4                udbcschk_getdbcs1st
                0x0005c6e8                udbcschk_ismbdbcs1st
                0x0005c748                udbcschk_locale1
                0x0005ca34                udbcschk_mb2ucs1
                0x0005cba0                udbcschk_ucs2mb1
                0x0005cccc                udbcschk_forceenglish
                0x0005cd38                udbcschkcp
                0x0005cea4                ugetcp
                0x0005cf88                udbcsenv
                0x0005cfc8                udosquerydbcsenv
                0x0005d13c                udbcschk2
                0x0005d200                udbcschk_pos2offs
                0x0005d3dc                usetdbcstbl
                0x0005d740                usetdbcstblmb
                0x0005dbb0                udbcschk_setlocale
                0x0005de00                udbcschk_setdbcstype
                0x0005df18                udbcschk_icugetlocalconverter
 .text          0x0005df78     0x2e38 ../ulib/libuserxe.a(libuserxe_a-udbcsck2.o)
                0x0005df78                ujischkx208
                0x0005e048                usjischkx208
                0x0005e128                usjis2jis
                0x0005e230                ujis2sjis
                0x0005e320                ustrjis2sjis
                0x0005e838                ustrsjis2jis
                0x0005ed40                ushift2euc
                0x0005f278                ushift2euc1
                0x0005f454                ushift2euccount
                0x0005f694                usjischk
                0x0005f948                ueuc2shift1SS3
                0x0005f978                ueuc2shift
                0x00060104                ueucchk
                0x00060540                ueuc2shift1
                0x000607b4                ueuc2shift1c
                0x00060968                uhan2zen
                0x00060c2c                udbcschktty
                0x00060cb0                udbcschk_srchSS2
 .text          0x00060db0      0x3dc ../ulib/libuserxe.a(libuserxe_a-udos2.o)
                0x00060db0                udos2
                0x00060dc8                ugetdriveidlist
                0x00060ebc                ugetdrivelist
                0x00060f5c                ugetdrivetype
                0x00061084                udos_setenv
 .text          0x0006118c     0x3fe8 ../ulib/libuserxe.a(libuserxe_a-uedit.o)
                0x0006118c                uedit
                0x000611a4                unumedit
                0x000614dc                utimeedit
                0x00062054                uitoa10
                0x00062088                ucmdparmedit
                0x000627b0                ueditenv
                0x00062bdc                uwordrep
                0x00063288                ugethex
                0x000633e8                ugethexdump
                0x000635c8                ux2FILESZ
                0x000635f8                ux2l
                0x0006378c                ux2ll
                0x00063874                ua2ll
                0x000638a4                ux2s
                0x00063a00                ugetnumrange3
                0x00063b78                ugetnumrange2
                0x00063c74                ugetnumrange2XFILESZ
                0x00063d48                ugetnumrange
                0x00063f54                ugetxnumrange
                0x00064378                ugetxnumrangeLL
                0x000647a4                unumlen
                0x000649e4                uatoin
                0x00064a64                getKMGTB
                0x00064bec                ueditFILESZ
                0x00064e60                ueditLONGHANDLE
                0x00065068                ueditKMG
 .text          0x00065174     0x29f8 ../ulib/libuserxe.a(libuserxe_a-uerr.o)
                0x00065174                uerr
                0x0006518c                ubell_init
                0x000651cc                ubell_init2
                0x000651fc                ubell
                0x00065314                uerrexit_init
                0x000653dc                uerrexit_optinit
                0x0006540c                uerrsetopt2
                0x00065470                uerrexit
                0x00065668                uerrmsg_init
                0x00065848                uerrmsg
                0x00065a58                uerrmsg2
                0x00065bd8                uerrmsgcat
                0x00065ce4                uerrsprintf
                0x00065dd0                uerrfprintfutf
                0x0006623c                uerrhelpmsg
                0x00066728                uerrscrheight
                0x000667d8                useterrmsg
                0x0006684c                ugeterrmsg
                0x00066898                ugeterrmsg2
                0x000668d8                uerrmsgedit
                0x0006726c                uconfirmmsg
                0x00067584                uerrornomsg
                0x000675ac                ugeterrdescription
                0x00067630                uerrapi1
                0x00067678                uerrapi1x
                0x000676bc                uerrapi0
                0x000676f8                uerrapi0x
                0x00067730                uerrapi1t
                0x000677a0                uerrapi1nt
                0x000677f4                uerrapi1tx
                0x00067860                uerrapi0t
                0x000678c8                uerrapi0tx
                0x0006792c                uerrnotsupported
                0x00067970                uerrmsg_initstart
                0x00067a34                uerrmsg_initstack
                0x00067a98                uerrmsg_initcomp
 *fill*         0x00067b6c        0x4 
 .text          0x00067b70      0xec0 ../ulib/libuserxe.a(libuserxe_a-ufemsg.o)
                0x00067b70                ufemsg
                0x00067b88                ufilenotfound
                0x00067bc4                ufilenotfoundotherexist
                0x00067c00                ufilepatherr
                0x00067c3c                ufileapierr
                0x00067c84                ufileapierr_str
                0x00067cdc                ufiledelpath
                0x00067d18                ufilereadonly
                0x00067d54                ufilereadonly2
                0x00067d94                ufiledeleted
                0x00067ec4                ufileshare
                0x00067f00                ufileexist
                0x00067f3c                ufileexistcopy
                0x00067f78                ufileexist2
                0x00067fbc                ufileexistdir
                0x00067ff8                ufilenotdir
                0x00068034                ufilediskfull
                0x00068078                ufilewildtarget
                0x000680ac                ufilewildcarderr
                0x000680e0                ufilewildpatherr
                0x00068114                ufileroot
                0x00068150                ufileapierr2
                0x000681a4                ufiledirna
                0x000681f0                ufileerrdir
                0x0006822c                ufilenotvfat
                0x00068254                ufilenopermission
                0x00068298                ufileslinkloop
                0x000682f0                ufileerrspecialfile
                0x0006832c                ufileerrnotnormal
                0x00068368                ufileerrdir2file
                0x00068398                ufileerrnoentry
                0x000683d0                ufileerrnofileentry
                0x00068408                ufileTooLongFullpathName
                0x00068460                ufileTooLongFullpathName2
                0x000685c0                ufileeditsz
                0x00068958                ufileslinktargeterr
                0x0006899c                ufileopenerrInvalidargument
                0x000689f8                ufileErrInvalidName
 .text          0x00068a30     0x3508 ../ulib/libuserxe.a(libuserxe_a-ufile.o)
                0x00068a30                ufile
                0x00068a48                ufullpathwildexp
                0x000690fc                ufullpathresolvespecialdirid
                0x000692b8                ufilegetpathdir
                0x000694a4                udirlistnomsg
                0x00069504                udirlist
                0x000696b8                udirlistsub
                0x00069bac                udirlist_set_slinkname
                0x00069d00                ufile_udirlist_copy
                0x00069f5c                ufile_udirlist_swap
                0x0006a140                ufile_udirlist_alloc1
                0x0006a1d4                ufile_udirlist_free
                0x0006a2d0                udircompare_pointer
                0x0006a340                udirlistsort
                0x0006a504                udircomp
                0x0006a548                udircompare
                0x0006afc8                udircompsub
                0x0006b0f0                uredirect
                0x0006b538                uredirectrestore
                0x0006b654                ufdateedit
                0x0006b994                uftimeedit
                0x0006bbcc                uftimeedit_1sec
                0x0006bc28                udirlist_chk_max_entry
                0x0006bc90                udirlist_setname
                0x0006be6c                udirlist_setname_cat
 .text          0x0006bf38     0x1b00 ../ulib/libuserxe.a(libuserxe_a-ufile1f.o)
                0x0006bf38                uftpfstat
                0x0006c258                uftpwinchk
                0x0006c384                uftpfullpathnorid
                0x0006c3e4                uftpfullpath
                0x0006caac                uftppathlen
                0x0006cafc                uftpgetcwd
                0x0006cbfc                uftpgethome
                0x0006cc7c                uftpgethomesub
                0x0006ce50                uftpchdir
                0x0006d01c                uftpchdirsub
                0x0006d1ec                uftplchdirrespchk
                0x0006d3f8                uftpdirlistsub
                0x0006d7d8                uftpfindfirst
                0x0006d928                uftpfindfirstfile
                0x0006d9b0                uftpfindnext
 .text          0x0006da38     0x4344 ../ulib/libuserxe.a(libuserxe_a-ufile1l.o)
                0x0006da38                ufstat
                0x0006e2a8                ufilechkwildmultiple
                0x0006e544                ufstat_wild
                0x0006e5d4                ufilefscomp
                0x0006e64c                ufilegetfsid
                0x0006e72c                ufilegetftime
                0x0006e83c                ufullpath
                0x0006f244                upathlen
                0x0006f294                ugetcwd
                0x0006f2c0                uchdir
                0x0006f3ec                udosfindfirstnomsg
                0x0006f45c                udosfindfirst
                0x0006fbd8                udosfindnext
                0x0006fc48                udosfindnextmsg
                0x0007004c                ufilelnxwildselect
                0x000700b8                ufilelnxattrselect
                0x00070290                ufilelnxgetmembfstat
                0x000704bc                ufilelnxsavehdir
                0x000705ec                ufilelnxsrchhdir
                0x000706f4                ufilelnxclosehdir
                0x00070834                ufilemode2attr
                0x000709e0                ufilemktime
                0x00070a98                ufilerepwildname
                0x00070b98                errwildname
                0x00070da0                filesrchmountpoint
                0x00070f78                filegetdevt
                0x000711fc                filegetdevicename
                0x000713a8                filegetdevicemntent
                0x000714c8                filegetmntent
                0x0007169c                filegetmntoption
                0x00071800                ufilegetiocharset
                0x00071904                ufilefnmcvcs
                0x00071b48                ufullpathCP
 .text          0x00071d7c     0x1f08 ../ulib/libuserxe.a(libuserxe_a-ufile1l2.o)
                0x00071d7c                mtoolsinit
                0x00071da8                ufstat_mdos
                0x000722f4                ufilegetmdosattr
                0x000723f8                uopendir_mdos
                0x000726f4                ureaddir_mdos
                0x00072938                ufilegetmdosdl
                0x00072e98                ufilegetmdosattrlist
                0x00073090                ugetcwd_mdos
                0x0007320c                uchdir_mdos
                0x000732a8                ustatfs_mdos
                0x000734e8                uminfo
                0x000737c4                ufilegetnum
                0x000738c8                ufilemdoscmd
                0x00073b20                ufilemdoserrchk
 .text          0x00073c84     0x4588 ../ulib/libuserxe.a(libuserxe_a-ufile2.o)
                0x00073c84                ufile2
                0x00073c9c                uxddpchk
                0x000740ec                uxddsub
                0x0007493c                uxdelete
                0x000756bc                ufilewildxdel
                0x000758f0                uxdelsub
                0x00076298                uremovenomsg
                0x000762ec                uremove
                0x0007654c                urenamenomsg
                0x000765a4                urename2
                0x000765fc                urename
                0x00076d00                ufilewildrename
                0x00076d38                uwildfunc
                0x00077134                ufilecdirchk
                0x000774cc                ufilespfnchk
                0x000774f4                wildchk
                0x0007768c                ufilechkwildmemb
                0x000777bc                ufilechkwildname
                0x00077950                ufileopenexclusivewrite
                0x00077a0c                ufiledelifnotopened
                0x00077ae8                ufile2quietmsg
                0x00077c18                ugetmoveavailablepath
                0x00078104                uwildfunc_LongName
 .text          0x0007820c     0x47cc ../ulib/libuserxe.a(libuserxe_a-ufile2f.o)
                0x0007820c                uftpmkdir
                0x00078804                uftprmdir
                0x00078c10                uftpremove
                0x00079054                uftprename
                0x00079400                uftprenamesub
                0x000797d4                uftpwildrename
                0x00079824                uftpattrib
                0x00079b30                uftpattrxon
                0x00079b78                uftpattrxchk
                0x00079d50                uftpgetftime
                0x00079ea4                uftpgetftime_1sec
                0x0007a01c                uftpsetftime
                0x0007a094                uftpsetftime2
                0x0007a10c                uftpcopypathinfo
                0x0007a234                uftpsetown
                0x0007a2ac                uftpsetmod
                0x0007a78c                uftpwildfunc
                0x0007a9b8                uftpwildfunc2
                0x0007ad30                uftpmultidel
                0x0007ae48                uftpmultirename
                0x0007af60                uftpwildxdel
                0x0007b29c                uftpmultidelsub
                0x0007b428                uftpmultirenamesub
                0x0007b668                uftpbypassreason
                0x0007b6f4                uftpxdelrchk
                0x0007bb00                uftpmultidelrchk
                0x0007bd9c                uftpmultirenamerchk
                0x0007c044                ufile2putstmt
                0x0007c184                uftpnotsupported
                0x0007c1dc                uftpnotsupportedforlocal
                0x0007c234                uftpdelsubdir
                0x0007c4b4                ufile3xdeleteinit
                0x0007c540                uxdelsubftp
                0x0007c990                errtoolongname
 .text          0x0007c9d8     0x19d8 ../ulib/libuserxe.a(libuserxe_a-ufile2l.o)
                0x0007c9d8                umkdir
                0x0007ca44                umkdirmode
                0x0007cd78                urmdir
                0x0007d21c                uattrib
                0x0007d568                uattrxon
                0x0007d5e0                uattrxchk
                0x0007d7c0                ugetftime
                0x0007d8f8                ugetftime_1sec
                0x0007da78                usetftime
                0x0007dbf4                usetftime_1sec
                0x0007dc50                usetftime2
                0x0007ddac                ucopypathinfo
                0x0007e1b8                ufilesetown
                0x0007e2b0                ufilesetmod
 .text          0x0007e3b0      0xbc8 ../ulib/libuserxe.a(libuserxe_a-ufile2l2.o)
                0x0007e3b0                umkdir_mdos
                0x0007e47c                urmdir_mdos
                0x0007e590                uattrib_mdos
                0x0007e794                uremove_mdos
                0x0007e8a8                urename_mdos
                0x0007e940                ucopy_mdos
                0x0007ebd4                uappend_mdos
                0x0007ef1c                ufilemdoscopyerr
 .text          0x0007ef78     0x4dd0 ../ulib/libuserxe.a(libuserxe_a-ufile3.o)
                0x0007ef78                ufile3
                0x0007ef90                invalidtargetfilename
                0x0007efc8                uxcopy
                0x0007feb8                ufilecreateparmproc
                0x00080624                ufilecpymvflags
                0x000808f0                ufilewildcopy
                0x00080b90                ucopysub_slinktarget
                0x00080d30                ucopysub_slink
                0x00081028                ucopysub
                0x0008174c                udoscopy
                0x00081b04                uxmove
                0x0008251c                ufilewildmove
                0x000826ac                umovesub_slink
                0x00082de8                umovesub
                0x00083518                ufilecopytschk
                0x00083630                ufilechkslinkpath
                0x00083878                ufilegetslinkfinaltarget
                0x00083a00                ufilesymlink
                0x00083a84                ufilesymlink_copyfiletime
                0x00083b7c                ufilesymlink_copy
                0x00083c28                ufileerrdirandfile
                0x00083c68                ufileerrslinktarget
                0x00083cac                ufileerrslinkappend
                0x00083cec                ufileerrnotargetslink
 .text          0x00083d48     0x539c ../ulib/libuserxe.a(libuserxe_a-ufile3f.o)
                0x00083d48                uftpxmove
                0x00083f10                uftpxcopy
                0x00084208                uftpxcopyr2r
                0x0008448c                uftpupload
                0x00084b2c                uftpdownload
                0x0008517c                uftptargetflag
                0x00085504                uftpsourceflag
                0x000858bc                uftps2tchk
                0x00085eb0                uftpcreateparmproc
                0x000862f4                uftpmoveparmproc
                0x000865a8                uftpupdownctl
                0x00086eac                uftpgetdirlist
                0x00086f80                uftpexistchk1
                0x000871dc                uftpexistchkm
                0x0008773c                uftpcopycallback
                0x00087f60                uftpcopyrchk
                0x000886f4                uftpputstmt
                0x00088838                uftpputstmt2
                0x000889d8                uftpcopyftime
                0x00088d24                ufileftpcopytschk
                0x00088f60                uftpmktdir
                0x00088fc0                uftperrsourceisroot
                0x00088fe8                uftperrtargetisnotdir
                0x0008901c                uftperrdir2file
                0x0008905c                uftpfileanddir
                0x000890a8                uftpappenddir2dir
 .text          0x000890e4     0x2acc ../ulib/libuserxe.a(libuserxe_a-ufile4.o)
                0x000890e4                ufile4
                0x000890fc                utempnam
                0x000893dc                utempnamd
                0x00089434                ufgetpos
                0x00089464                udirwalk
                0x00089b9c                udirwalksub
                0x0008ac4c                ufileslinkoutoflinkchk
                0x0008b0ec                ufileslinkloopchk
                0x0008b590                ufileslinkloopchk2
                0x0008b6a0                ugetdiskfree
                0x0008b834                ufileisvfat
                0x0008b868                ufileisntfs
                0x0008b88c                ufileisvfatMounted
                0x0008b90c                ufileisntfsMounted
                0x0008b98c                ufileisMSMounted
                0x0008ba38                ufsetlock
                0x0008baa0                uflock
 .text          0x0008bbb0     0x4e20 ../ulib/libuserxe.a(libuserxe_a-ufile5.o)
                0x0008bbb0                ufile5
                0x0008bbc8                ufgetsinit
                0x0008bfe4                ufgetscurpos
                0x0008c00c                ufgets_setcurpos
                0x0008c090                ufgets
                0x0008c454                ufgetssub
                0x0008ca3c                ufgetsbinchk_utf8
                0x0008cd14                ufgetsbinchk_ebc
                0x0008cf34                ufgetsbinchk
                0x0008d3ec                isSameU8c
                0x0008d634                udoseditname
                0x0008def8                ufileeditname
                0x0008e3c0                ufilewildcomp
                0x0008e740                ufilewildcompsub
                0x0008e910                ufilecomp
                0x0008ede8                ufilecomptextmode
                0x0008f190                ufilecomptextmodefixed
                0x0008f41c                ufilecomptextmodesub
                0x0008f560                ufreads
                0x0008f840                ufgetsVHeader
                0x0008fac8                ufgetsVRecord
                0x0008fdc0                ufgetsV
                0x00090040                ufile5chkvfmt
                0x000901a0                ufile5getVfmtstr
                0x00090264                ufseek
                0x000902a0                uftell
                0x000902d0                fileeditname_copypath
                0x000908ec                fileeditname_copypath_err
                0x00090950                filetouch
 .text          0x000909d0     0x4f50 ../ulib/libuserxe.a(libuserxe_a-uftp.o)
                0x000909d0                uftpfstatroot
                0x00090a78                uftplshome
                0x00090be0                uftpfstatudl
                0x00090f24                uftpisexist
                0x00091040                uftpopendir
                0x00091618                uftpreaddir
                0x0009177c                uftpattrselect
                0x00091944                uftpgetslinkattr
                0x00091d24                uftpdirlistslink
                0x00092314                uftpsortslink
                0x0009236c                uftpslinkcomp
                0x000923f0                uftpslinklscmd
                0x00092728                uftplsoutchk
                0x00092a9c                uftpmodtimerchk
                0x00092f78                uftpmodtimeerr
                0x00092fcc                uftplsoutchkslinkerrskip
                0x000930f8                uftplsoutchkslink
                0x000931f8                uftpsavehdir
                0x00093340                uftpsrchhdir
                0x000933ec                uftpclosehdir
                0x00093450                uftpmode2attr
                0x000935cc                uftpudl2ffb3
                0x0009377c                uftpgetpathname
                0x00093844                uftpnodesrch
                0x000938f4                uftpnodeadd
                0x000939ac                uftpnodedel
                0x00093a08                uftpnodeclear
                0x00093a24                uftpgethostqhaddr
                0x00093a44                uftphoststbinit
                0x00093d64                uftpgethostsdata
                0x00094dd0                uftgetstringopd
                0x00095050                uftpipachk
                0x00095270                uftpgetportno
                0x000952fc                uftpisremote
                0x00095488                uftpisrootdir
                0x0009550c                uftphostscrypt
                0x000957e8                uftptempnam
                0x00095844                uftp_mempswd
                0x000958dc                uftp_udirlist_setname
 .text          0x00095920     0x2c2c ../ulib/libuserxe.a(libuserxe_a-uftp2.o)
                0x00095920                uftpinit
                0x00095a70                uftpterm
                0x00095ab8                uftplog
                0x00095e8c                uftpnodeinit
                0x00096074                uftpcmd
                0x000967ac                uftpcmdrespchk
                0x000968b8                uftpcmdresphdrchk
                0x000969e0                uftpcmdsrchrespid
                0x00096c40                uftpsimplerespchk
                0x00096d18                uftpnextstdo
                0x00096de8                uftpsrchfname
                0x00096fb0                uftpsrchfnameslink
                0x00097238                uftpgetdl
                0x00097558                uftpgetdl1
                0x00097c60                uftpgetmode
                0x00097fa8                uftpgetdlftime
                0x0009814c                uftpgetmonth
                0x000981c8                uftpgetwday
                0x00098240                uftpajustjst
                0x0009849c                uftpmktempwd
                0x000984e8                uftpdeltempwd
 .text          0x0009854c     0x5ab0 ../ulib/libuserxe.a(libuserxe_a-uftp3.o)
                0x0009854c                uftp3setssh
                0x0009880c                uftp3editpsftpcmd
                0x0009894c                uftp3cmdrespchk
                0x00098a68                uftp3cmdresphdrchk
                0x00098bbc                uftp3srchcmdecho
                0x00098d10                uftp3gethomesub
                0x00098e70                uftp3simplerespchk
                0x00098fdc                uftp3simplerespchkOK
                0x00099178                uftp3simplerespchkCHNG
                0x00099308                uftp3lchdirrespchk
                0x00099374                uftp3getputrespchk
                0x00099490                uftp3cdrespchk
                0x000995cc                uftp3setsmb
                0x00099688                uftp3smb_setcmd
                0x00099b08                uftp3smb_editcmdline
                0x00099dc0                uftp3smb_nodeinit
                0x00099e6c                uftp3smbcmd
                0x00099ef0                uftp3smb_cmd
                0x0009a3f8                uftp3smb_chkstatuserr
                0x0009a640                uftp3smb_srchresp
                0x0009a868                uftp3smb_stderrlog
                0x0009a8e0                uftp3smb_getdltime
                0x0009aa84                uftp3smb_getdltimestat
                0x0009abd4                uftp3smb_setdltime
                0x0009ad04                uftp3smb_getmode
                0x0009af34                uftp3smb_getdirlistctr
                0x0009af7c                uftp3smb_getdl1
                0x0009b1f0                uftp3smb_fstatudl
                0x0009b500                uftp3smb_fstatudl_byls
                0x0009b730                uftp3smb_fstatudl_byls_root
                0x0009b9cc                uftp3smb_lsoutchk
                0x0009bb50                uftp3smb_getdlattr
                0x0009bc48                uftp3smb_fstatdircallback
                0x0009bee8                uftp3smb_fstatdirrchk
                0x0009c330                uftp3smb_fstatoutchk
                0x0009c834                uftp3smb_putstmt
                0x0009cddc                uftp3smb_respchk_srchnext
                0x0009d114                uftp3smb_respchk
                0x0009d53c                uftp3smb_lchdirrespchk
                0x0009d58c                uftp3smb_strfname
                0x0009d83c                uftp3smb_enclosefnm
                0x0009d97c                uftp3smb_editcmdparm
                0x0009db1c                uftp3smb_dirnameforlist
                0x0009dbec                uftp3smb_mode2attr_winsub
                0x0009dc7c                uftp3smb_mode2attr_win
                0x0009dccc                uftp3smb_strattr
                0x0009ddb4                uftp3smb_setmod_win
 .text          0x0009dffc      0x4b0 ../ulib/libuserxe.a(libuserxe_a-ugcclib.o)
                0x0009dffc                strupr
                0x0009e064                strlwr
                0x0009e0cc                memicmp
                0x0009e198                stricmp
                0x0009e228                itoa
                0x0009e2bc                kbhit
                0x0009e2d4                getch_nc
                0x0009e2f4                getche
                0x0009e314                spawnvp
                0x0009e36c                spawnv
 .text          0x0009e4ac     0x1d30 ../ulib/libuserxe.a(libuserxe_a-ukbdl.o)
                0x0009e4ac                ukbdpeek
                0x0009e4d8                ukbdcharin
                0x0009e680                ukbdl_init
                0x0009e76c                ukbdl_term
                0x0009e784                ukbdl_setkbmode
                0x0009e80c                ukbdl_shellmode
                0x0009e918                ukbdl_setgetchmode
                0x0009e9d8                ukbdl_tcgetattr
                0x0009ea78                ukbdl_tcsetattr
                0x0009eb1c                ukbdl_getch_init
                0x0009eb70                ukbdl_getche_init
                0x0009ebc4                ukbdl_getch_term
                0x0009ec10                ukbdl_getche_term
                0x0009ec5c                ukbdl_kbhit
                0x0009ecac                ukbdl_getch
                0x0009ed4c                ukbdl_getche
                0x0009edec                ukbdl_gettermid
                0x0009ef30                ukbdl_gettermsim
                0x0009f468                ukbdl_editstring
                0x0009f530                ukbdsetstatus
                0x0009f5e8                ukbdl_wcinit
                0x0009f6e8                ukbdl_readutf8
                0x0009fcdc                ukbdl_readdbcs
                0x0009ffe4                ukbd_simutf8_f2l
 .text          0x000a01dc     0x8020 ../ulib/libuserxe.a(libuserxe_a-ukbdlnxc.o)
                0x000a01dc                ukbdlnxc_gettbl
                0x000a0278                ukbdlnxc_init
                0x000a0428                ukbdlnxc_term
                0x000a04a4                ukbdlnxc_getnext
                0x000a052c                ukbdlnxc_read
                0x000a06e0                ukbdlnxc_readkbd
                0x000a1574                ukbdlnxc_optproc
                0x000a16f0                ukbdlnxc_setupckt
                0x000a1db4                ukbdlnxc_setupcktsub
                0x000a2020                ukbdlnxc_setupcktx
                0x000a46dc                cktovferr
                0x000a4758                ukbdlnxc_addstrtbl
                0x000a4a30                ukbdlnxc_dupstrchk
                0x000a4d8c                ukbdlnxc_cleanup
                0x000a4e14                ukbdlnxc_termexit
                0x000a4e48                ukbdlnxc_getplainsym
                0x000a511c                ukbdlnxc_chkothersym
                0x000a5188                ukbdlnxc_xbsdel
                0x000a528c                ukbdlnxc_delopt
                0x000a5370                ukbdlnxc_setfunckey
                0x000a5554                ukbdlnxc_setfuncstr
                0x000a5938                ukbdlnxc_setcompose
                0x000a59d0                ukbdlnxc_getkeysym
                0x000a5ab0                ukbdlnxc_setkeysym
                0x000a5b90                ukbdlnxc_getstring
                0x000a5c60                ukbdlnxc_setstring
                0x000a5d58                ukbdlnxc_getdiacr
                0x000a5e04                ukbdlnxc_setdiacr
                0x000a5eb0                ukbdlnxc_setmetamode
                0x000a60bc                ukbdlnxc_getconsole
                0x000a6240                ukbdlnxc_getptty
                0x000a637c                ukbdlnxc_open
                0x000a6404                ukbdlnxc_chkconsole
                0x000a642c                ukbdlnxc_save1st
                0x000a67c8                ukbdlnxc_restorelast
                0x000a6d84                ukbdlnxc_lockfwrite
                0x000a6e08                ukbdlnxc_lockfread
                0x000a6e8c                ukbdlnxc_pidsetlock
                0x000a6f78                ukbdlnxc_pidresetlock
                0x000a7018                ukbdlnxc_pidchklock
                0x000a70d0                ukbdlnxc_chngttkey
                0x000a7c9c                ukbdlnxc_setrctl
                0x000a7dd0                ukbdlnxc_setrctlstr
                0x000a81d4                uttyname
 .text          0x000a81fc      0x848 ../ulib/libuserxe.a(libuserxe_a-ukbdlnxm.o)
                0x000a81fc                ukbdlnxm_mouseopt
                0x000a830c                ukbdlnxm_mouseinit
                0x000a8374                ukbdlnxm_mouseterm
                0x000a83d4                ukbdlnxm_getmouse
                0x000a882c                clickchk
 .text          0x000a8a44     0x22e0 ../ulib/libuserxe.a(libuserxe_a-uparse.o)
                0x000a8a44                uparsein
                0x000a8cec                uparseindir
                0x000a8e60                uparsev
                0x000a9028                uparse2
                0x000a9164                uparse
                0x000a9e6c                uparsefname
                0x000a9ff8                uparsecmd
                0x000aa768                uparsecmdin
                0x000aa9c0                uparsegetopt
 .text          0x000aad24     0x3754 ../ulib/libuserxe.a(libuserxe_a-uproc.o)
                0x000aad24                usystem2
                0x000aae60                usystem
                0x000aaf74                uspawnl
                0x000ab0a0                uspawnlp
                0x000ab1cc                uspawnvp
                0x000ab2c8                uprocopt
                0x000ab394                uspawnrc
                0x000ab5bc                uprocerrmem
                0x000ab5f8                uprocerrnotf
                0x000ab634                uexecchk
                0x000aba3c                uextdirsrch
                0x000aba7c                ucmdnmcomp
                0x000abbf8                ugetexepath
                0x000abc1c                uproc_getpsinfo
                0x000ac174                uproc_srchpsinfo
                0x000ac304                uproc_freepsinfo
                0x000ac374                usystem_redirect
                0x000ac65c                uspawn_redirect
                0x000aca34                uproc_redirectoutchk
                0x000ad3b0                uspawnvp_pipe
                0x000ad804                uspawnvp_pipeclose
                0x000ad8d0                usystem_cmdserverinit
                0x000ad974                usystem_cmdserverterm
                0x000adab0                usystem_cmdserversetup
                0x000adf20                usystem_cmdtocmdserver
                0x000adfac                usystem_cmdserverreq
                0x000ae3b8                usystem_cmdserverreqwithoutbuff
                0x000ae44c                usystem_pidalivechk
 .text          0x000ae478     0x142c ../ulib/libuserxe.a(libuserxe_a-uproc2.o)
                0x000ae478                uprocparseredirect
                0x000ae880                uproc_rsh
                0x000aefa0                uproc_redirectrewrite
                0x000af0c8                uproc_rshlog
                0x000af198                ugetpid
                0x000af1e4                uprocredirectchk
                0x000af234                uproc_loaddllpath
                0x000af49c                uproc_loaddll
                0x000af64c                uproc_getdllproc
                0x000af738                uproc_freedll
                0x000af794                uproc_getprocaddr
 .text          0x000af8a4     0x11dc ../ulib/libuserxe.a(libuserxe_a-uproc4.o)
                0x000af8a4                uproc_shcmd
                0x000af9ac                uproc_shserverinit
                0x000afa50                uproc_shserverterm
                0x000afb28                uproc_shserversetup
                0x000affe8                uproc_shserverreq
                0x000b042c                uproc_srchprocessw
                0x000b04f0                uproc_srchprocess
                0x000b05d4                uproc_select
                0x000b0998                uproc4_fdset
                0x000b0a08                uproc4_fdisset
 .text          0x000b0a80      0x9d4 ../ulib/libuserxe.a(libuserxe_a-uque.o)
                0x000b0a80                uque
                0x000b0a98                uenq
                0x000b0d6c                udeq
                0x000b1048                uqscan
                0x000b116c                uqfree
                0x000b11c4                uqufree
                0x000b121c                uenqchain
                0x000b1334                uenqent
                0x000b13d4                uqhmove
 .text          0x000b1454      0x274 ../ulib/libuserxe.a(libuserxe_a-ustrcpy.o)
                0x000b1454                ustring_memcpy
                0x000b1510                ustring_strncpy
                0x000b1630                ustring_strcpy
 .text          0x000b16c8     0x2778 ../ulib/libuserxe.a(libuserxe_a-ustring.o)
                0x000b16c8                ustring
                0x000b16e0                ustrnchr
                0x000b1768                ustrnpbrk
                0x000b1844                ustrnspn
                0x000b1940                ustrrspn
                0x000b19e0                ustrnrspn
                0x000b1a90                umemrspn
                0x000b1b48                umemspnc
                0x000b1bd4                umemspn_spacetab
                0x000b1c64                umemrspnc
                0x000b1cf4                ustrnstr
                0x000b1dfc                ustrrstr
                0x000b1e8c                ustrnrstr
                0x000b1f78                ustrstri
                0x000b20d0                ustrnstri
                0x000b21c4                ustrrstri
                0x000b2254                ustrnrstri
                0x000b2340                ustrnrchr
                0x000b2434                umemchr_utf
                0x000b25d0                ustrchr2
                0x000b2718                ustrnchr2
                0x000b2764                umemchr2
                0x000b28a4                ustrrchr2
                0x000b29e4                ustrnrchr2
                0x000b2a30                umemrchr2
                0x000b2b44                umemrchr
                0x000b2bc4                umempbrk
                0x000b2c90                umemrpbrk
                0x000b2d60                ustrnlen
                0x000b2db4                umemstr
                0x000b2df8                umemstri
                0x000b2e3c                umemrstr
                0x000b2e80                umemrstri
                0x000b2ec4                umemmem
                0x000b2fb4                umemmemi
                0x000b31b4                umemrmem
                0x000b32ac                umemrmemi
                0x000b3490                ustrncpyz
                0x000b3534                uispunct
                0x000b35fc                uispunctdbcs
                0x000b3808                ustrdup
                0x000b38d4                umemtrim
                0x000b3b20                umemicmpdbcs
                0x000b3c1c                umemstridbcs
                0x000b3d3c                umemrstridbcs
 .text          0x000b3e40       0x70 ../ulib/libuserxe.a(libuserxe_a-utf.o)
                0x000b3e40                utf_init
 .text          0x000b3eb0     0x5ba0 ../ulib/libuserxe.a(libuserxe_a-utf2.o)
                0x000b3eb0                umbtowc
                0x000b3f6c                utfpos2offs
                0x000b41fc                utfctr2offs
                0x000b4514                utfstrchkmbr2wc
                0x000b4994                utfcvf2u
                0x000b4e9c                utfcvl2fmix
                0x000b5174                utfcvl2f
                0x000b5840                utfcvl2ftab
                0x000b59fc                utfsetdbcstbl
                0x000b5d00                utfisvalidutf8
                0x000b5e04                utfgetstrwidth
                0x000b5ecc                utfisvalidutf8char
                0x000b605c                utfstrvalidate
                0x000b61c8                utfgetutf8strlen
                0x000b6340                utfsplitchk
                0x000b6564                utfcvl2fany
                0x000b6dec                utfcvf2l1
                0x000b6fd4                utfcvf2l
                0x000b7470                utfcvf2lany
                0x000b7a0c                utfcvl2fany1
                0x000b7c70                utfcvl2fany1mb
                0x000b7dd4                utfcvl2uany1mb
                0x000b7f78                utfcvf2lany1
                0x000b8388                utfcvf2lany1mb
                0x000b850c                utfcvu2lany1mb
                0x000b8670                utfcvlocaleinit
                0x000b889c                utfcvsetdefaultlocale
                0x000b8a0c                utfcvsetparmlocale
                0x000b8b68                utfgetcharset_std
                0x000b8e94                utfgetcharset
                0x000b90b8                utflocalechk
                0x000b9138                utfcvlocaleopen
                0x000b9250                utfcvlocaleclose
                0x000b927c                utfcvlocaletclose
                0x000b92bc                utfcviconvdbcschk_topbyte
                0x000b93f8                utfcviconvdbcschk1
                0x000b9564                utfcvlocaleinitICU
                0x000b95cc                utfcvf2lany1ICU
                0x000b9748                utfcvl2fany1ICU
                0x000b98ec                utfcvsetdefaultlocaleICU
                0x000b9930                utflocalechkICU
                0x000b9998                utfgetstrlenHK
 .text          0x000b9a50     0x7bb0 ../ulib/libuserxe.a(libuserxe_a-utf22.o)
                0x000b9a50                utfwwapichk
                0x000b9cb8                utfddflag2sbcsid
                0x000b9d50                utfddgetlenflag
                0x000ba010                utf22_mapwidth0_rounddown
                0x000ba14c                utf22_mapwidth0
                0x000ba364                utfucsmapinit
                0x000ba874                utf22setworkdir
                0x000baa0c                utf22versionchk
                0x000bac04                utfucsloadmap
                0x000badfc                utfucssavemap
                0x000baf90                utfucsmapinit_remap
                0x000bb320                utfucsmapmodify
                0x000bb498                utfmapucs2dd
                0x000bb550                utfmapdd2ucs
                0x000bb5d4                utfddsetsbcs
                0x000bb69c                utfddgetsbcs
                0x000bb700                utfgetwcw
                0x000bb840                utfcvu2dd1w
                0x000bbb0c                utfcvu2dd1
                0x000bbc08                utfcvf2dd
                0x000bbef4                utfdd2u1
                0x000bbf60                utfdd2u1vio
                0x000bc03c                utfdd2u1chsz
                0x000bc230                utfdd2u
                0x000bc75c                utfucs42utf16
                0x000bc928                utfddgetucsctr
                0x000bcaa4                utfu2dd
                0x000bccb8                utfddcmp
                0x000bd5b4                utfddicmp
                0x000bd6f8                utfcvdd2f
                0x000bdd8c                utfchkdd
                0x000bde74                utfddisasciistr
                0x000bdfe8                utfddissbcsstr
                0x000be0a0                utfddasciilen
                0x000be0e8                utfddpos2offs
                0x000be320                utfddoffs2pos
                0x000be654                utfddispunct
                0x000be84c                utfddmemspnc
                0x000be950                utfddmemrspnc
                0x000bea70                utfddstrnlen
                0x000beb58                utfddstrlen
                0x000bec08                utfddstrnspn
                0x000bec90                utfddmemspn
                0x000bedc4                utfddmemrspn
                0x000beefc                utfddmemchr
                0x000bf02c                utfddmemchr_nonascii
                0x000bf120                utfddmemrchr
                0x000bf208                utfddmemrchr_nonascii
                0x000bf2b8                utfddmempbrk
                0x000bf398                utfddmempbrk_nonascii
                0x000bf49c                utfddmemrpbrk
                0x000bf598                utfddmemrpbrk_nonascii
                0x000bf6b8                utfddcmpdbcstab
                0x000bf7c8                utfddmemmem
                0x000bfa4c                utfddmemrmem
                0x000bfb38                utfddnumlen
                0x000bfdfc                utfddgetdbcslr
                0x000bff3c                utfddgetcsrposbca
                0x000c02d0                utfgetvisiblealtch
                0x000c0694                utfgetvisiblealtchprint
                0x000c0730                utf_setsubchar_dbcs
                0x000c0934                utf_subcharcmp
                0x000c0ab0                utfmemrchrDD
                0x000c0b6c                utfmemchrDD
                0x000c0c48                isASCIIstr
                0x000c0cb0                isPrintableASCIIstr
                0x000c0d28                isPrintableASCIImem
                0x000c0db4                utf22_setunpucsvio
                0x000c0ef0                utf22_setdbcsspacealt
                0x000c0fac                utfsetvisiblealtch
                0x000c1104                utf22_iswidth0Ovf
                0x000c11f8                utf22_iswidth0DBCS
                0x000c12d0                utf_iswidth0
                0x000c1410                utf_iscombinable
                0x000c154c                utf_iscombining
 .text          0x000c1600     0x178c ../ulib/libuserxe.a(libuserxe_a-utf3.o)
                0x000c1600                utfmb2wc
                0x000c185c                utfwcwidth
                0x000c1ae8                utfwcwidthNoMap
                0x000c1c88                utfwcwidthsub
                0x000c1ec8                utfwcwidthsubNoMap
                0x000c20f4                utfiswide
                0x000c212c                utfisprint
                0x000c2330                utfgetwc
                0x000c23cc                utftbinit
                0x000c2944                utftbfhelp
                0x000c2964                utftbterm
                0x000c29b8                utftbsrch
                0x000c2b34                utftbsrch_jeuc
                0x000c2ba0                utftbsrch_cjk
                0x000c2ce8                utf3_wcwidthXXE
 .text          0x000c2d8c      0xad0 ../ulib/libuserxe.a(libuserxe_a-utf4.o)
                0x000c2e90                mk_wcwidth_combining
                0x000c2edc                mk_wcwidth
                0x000c31a0                mk_wcwidth_cjk
                0x000c32dc                mk_wcswidth_cjk
                0x000c3374                mk_wcwidth_adjsbcs
                0x000c3574                utf4_isSpacingCombiningMark
                0x000c3630                utf4_isAmbiguous
                0x000c373c                utf4_isAmbiguous_XXE
                0x000c37bc                utf4_isFormat
                0x000c3810                mk_wcwidth_combining2SCM
 .text          0x000c385c     0x1754 ../ulib/libuserxe.a(libuserxe_a-utrace.o)
                0x000c385c                utrace_initmt
                0x000c38b8                utrace_init
                0x000c3b1c                utracepop
                0x000c3c88                utracepopf
                0x000c3e3c                utracepnop
                0x000c3e5c                utrace_ebc
                0x000c3f54                utrace
                0x000c4338                utracectime
                0x000c455c                utraceopen_force
                0x000c472c                utraceocmsg_force
                0x000c4ed0                utrace_term
 .text          0x000c4fb0      0x5b8 ../ulib/libuserxe.a(libuserxe_a-uunxsub.o)
                0x000c4fb0                ugetugid
                0x000c5054                ugetusername
                0x000c50ec                ugetgroupname
                0x000c5184                usrchugname
                0x000c51f0                uaddugname
                0x000c52e4                unc_setupterm
                0x000c5358                unx_fsetlock
                0x000c541c                unx_fresetlock
                0x000c5478                unx_fchklock
                0x000c5534                ugethostname
 .text          0x000c5568     0x65fc ../ulib/libuserxe.a(libuserxe_a-uviom.o)
                0x000c5568                uviom_init
                0x000c5800                uviom_setopt2
                0x000c5afc                uviom_notify
                0x000c5bc4                uvio_wcinit
                0x000c5c24                uviom_savecell
                0x000c5ccc                uviom_readcell
                0x000c5d74                uvio_mvaddchnstrF
                0x000c6420                uviom_mvaddwchnstr
                0x000c6490                uvio_mvaddchnstrW_ligature
                0x000c67e4                uvio_mvaddchnstrW_combine
                0x000c6de4                uvio_mvaddchnstrW
                0x000c70a8                uviom_cht2cchar
                0x000c80a4                uviom_setcchar_itself
                0x000c812c                uviom_setcchar_shadow
                0x000c8204                uviom_setcombine1
                0x000c8664                uviom_setcombine
                0x000c8e7c                uviom_setcombineSCM
                0x000c909c                uvio_ddcht2cchar
                0x000c9dc8                uvio_ddcht2cchar_ligature
                0x000cab5c                uvio_getcombinectr
                0x000cacc0                uviom_escrep
                0x000caeac                uviom_set_padattr
                0x000caf10                uviom_fillattrspace
                0x000cb02c                uviom_setunpucs
                0x000cb3fc                uviom_attr_itself
                0x000cb4a0                uviom_ISUCSWIDTH0
                0x000cb620                uviom_iscombining
                0x000cb808                uviom_spaceclear
                0x000cb860                uviom_clearscr
                0x000cb900                uviom_getcombaltchUcs
                0x000cb988                uviom_getcombaltchU8
 .text          0x000cbb64     0x3914 ../ulib/libuserxe.a(libuserxe_a-uviol.o)
                0x000cbb64                uviol_cell2attr
                0x000cbca4                uviol_attr2cell
                0x000cbd80                uviol_repfg
                0x000cbe00                uviol_altcharset
                0x000cbf48                uvio_initparm
                0x000cbfa0                uviogetmode
                0x000cc134                uviol_init
                0x000cc670                uviol_acssetup
                0x000cc7c0                uviol_init2
                0x000cc7f0                uviol_konchk
                0x000cc8e4                uviol_konchk2
                0x000cc954                uviol_colorinit
                0x000ccb6c                uviol_termexit
                0x000ccb9c                uviol_cleanup
                0x000cccac                uviol_term
                0x000ccd30                uviol_beep
                0x000ccd6c                uviosetmode
                0x000ccda4                uvioreadcellstr
                0x000ccf38                uviowrtcellstr
                0x000cd164                uvioreadcharstr
                0x000cd280                uviowrtcharstr
                0x000cd388                uviowrtcharstratt
                0x000cd584                uviowrtnattr
                0x000cd794                uviowrtncell
                0x000cd8f0                uviowrtnchar
                0x000cda50                uviogetcurpos
                0x000cdb3c                uviosetcurpos
                0x000cdc98                uviogetcurtype
                0x000cdd48                uviosetcurtype
                0x000cde7c                uviowrttty
                0x000cdebc                uviol_rgb2colorno
                0x000ce0d4                uviol_colorno2rgb
                0x000ce22c                uviogetstate
                0x000ce4e0                uviosetstate
                0x000ce6c0                uvioscrolldn
                0x000ce9ec                uvioscrollup
                0x000ced18                uviol_clear
                0x000ced50                uviol_clearok
                0x000ced9c                uviol_refresh
                0x000cedc4                uviol_mvaddchnstr
                0x000cef60                uviol_attrupdate
                0x000cf3f8                uviol_set_padattrsub
 .text          0x000cf478     0x3778 ../ulib/libuserxe.a(libuserxe_a-u3270.o)
                0x000cf478                u3270init
                0x000cf4e0                u3270fstat
                0x000cfad4                u3270findfile
                0x000cfd08                u3270fullpathistso
                0x000cfd94                u3270getcwd
                0x000cfe1c                u3270chdir
                0x000cfeb8                u3270fullpath
                0x000d0194                u3270fullpathwildexp
                0x000d06b0                u3270getmembname
                0x000d0854                u3270chkmembname
                0x000d099c                u3270getlastname
                0x000d0a74                u3270getnthname
                0x000d0b7c                u3270concatfilename
                0x000d0e64                u3270editname
                0x000d120c                u3270parsedsn
                0x000d12a8                u3270parentdsn
                0x000d1448                u3270getsetdsnwild
                0x000d1768                u3270pathlen
                0x000d18b8                u3270sethostuser
                0x000d196c                u3270cmdrequest
                0x000d1be4                u3270editrespmsg
                0x000d1cfc                u3270dirlistsub
                0x000d1fb8                u3270setdirlist
                0x000d2478                u3270srchdirlist
                0x000d2544                u3270setdirlistdsn
                0x000d2810                u3270setattr
                0x000d292c                u3270getattrstr
                0x000d2bb8                u3270errdsnpath
 .text          0x000d2bf0     0x152c ../ulib/libuserxe.a(libuserxe_a-u32702.o)
                0x000d2bf0                u3270mkdir
                0x000d2c28                u3270rmdir
                0x000d2c58                u3270xddsub
                0x000d2dd8                u3270xdelete
                0x000d2fe8                u3270wildxdel
                0x000d3020                u3270xdelsub
                0x000d3128                u3270remove
                0x000d328c                u3270rename
                0x000d34dc                u3270renamesub
                0x000d35b0                u3270wildrename
                0x000d3600                u3270spfupdate
                0x000d37d0                u3270spfsetparm
                0x000d3d0c                u3270attrib
                0x000d3d44                u3270attrxchk
                0x000d3d78                u3270getftime
                0x000d3db0                u3270setftime
                0x000d3de8                u3270setftime2
                0x000d3e20                u3270copypathinfo
                0x000d3e58                u3270setown
                0x000d3e90                u3270setmod
                0x000d3ec4                u3270wildfunc
                0x000d40cc                u3270errnotsupported
 .text          0x000d411c     0x3ab0 ../ulib/libuserxe.a(libuserxe_a-u32703.o)
                0x000d411c                u3270xmove
                0x000d428c                u3270xcopyr2r
                0x000d4554                u3270xcopy
                0x000d471c                u3270xcopyget
                0x000d51d8                u3270xcopyput
                0x000d5c8c                u3270filecreateparmproc
                0x000d5f30                u3270filecpymvflags
                0x000d6484                u3270filewildcopyget
                0x000d66cc                u3270filewildcopyput
                0x000d6a0c                u3270copysubget
                0x000d6c68                u3270copysubput
                0x000d70f4                u3270transfer
                0x000d7658                u3270srcdupchk
                0x000d789c                u3270copyspfupdate
                0x000d7b40                u3270setftpparm
 .text          0x000d7bcc       0x40 ../ulib/libuserxe.a(libuserxe_a-uabend.o)
                0x000d7bcc                uabend
 .text          0x000d7c0c     0x417c ../ulib/libuserxe.a(libuserxe_a-ucalc2.o)
                0x000d7c0c                bc_getxdw
                0x000d7d60                bc_getld
                0x000d7fb0                bc_dwbinop
                0x000d8568                bc_twbinop
                0x000d8a88                bc_edittod
                0x000d8bfc                bc_dweditnum64
                0x000d8c64                bc_dweditnum
                0x000d8f80                bc_dwupeditnum
                0x000d9148                ucalc_dwmult
                0x000d939c                ucalc_twmult
                0x000d9864                ucalc_dwdiv
                0x000d9b44                ucalc_dwdiv2
                0x000d9e7c                ucalc_twdiv
                0x000da004                ucalc_twdivbyup
                0x000da148                ucalc_twshiftup
                0x000da264                ucalc_dwshiftdown
                0x000da394                ucalc_ltime
                0x000da7b4                ucalc_getdate
                0x000da9a0                ucalc_nextday
                0x000dac50                ucalc_ld2dw
                0x000db1e8                ucalc_dw2ld
                0x000db2f4                ucalc_nsadd
                0x000db55c                ucalc_ldedit
                0x000db69c                ucalc_dwupinit
                0x000db6fc                ucalc_dwupset
                0x000db82c                bc_numfmt2dw
                0x000db8dc                bc_dw2numfmt
                0x000db9b4                ucalc_dwup2dwandup
                0x000dbb58                bc_dword2word
                0x000dbc54                ucalc_dw2err
                0x000dbc8c                ucalc_dw2errresidual
                0x000dbd00                ucalc_dwuperr
                0x000dbd28                ucalc_dwmaxerr
                0x000dbd60                ucalcerrdwordovf
 .text          0x000dbd88     0x2890 ../ulib/libuserxe.a(libuserxe_a-uedit2.o)
                0x000dbd88                uedit2
                0x000dbda0                uasciidump
                0x000dbfbc                uasciidump_utf
                0x000dc274                uucsdump
                0x000dc5c0                ub2x
                0x000dc6f0                ueditfattr
                0x000dcac8                ueditfattrspf
                0x000dcb9c                ueditfattr_mdos
                0x000dcd1c                uxdumpline
                0x000dd71c                xdlputs
                0x000dd7c8                ugetdtparm
                0x000dd8c4                ugetdateparm
                0x000dd938                ugettimeparm
                0x000dd9ac                ueditgetftnum
                0x000ddc7c                ueditsetfdateUSHORT
                0x000ddd10                ueditsetfdate
                0x000dddf0                ueditsetftimeUSHORT
                0x000dde84                ueditsetftime
                0x000ddf7c                uxdumpstr
                0x000de1a4                ueditNowFileTime
                0x000de2d4                ueditescrep
 .text          0x000de618      0x354 ../ulib/libuserxe.a(libuserxe_a-uehl.o)
                0x000de618                useteh
                0x000de6e4                uehl_setsh
                0x000de738                ureseteh
                0x000de800                uehl_resetsh
                0x000de83c                usighandler
 .text          0x000de96c      0xd74 ../ulib/libuserxe.a(libuserxe_a-uproc22.o)
                0x000de96c                ukillpid
                0x000dea08                uthread
                0x000dea80                uevent
                0x000decec                uevent_wait1
                0x000deeb8                uevent_post1
                0x000defbc                uevent_waitm
                0x000df1a0                uevent_postm
                0x000df2e0                uevent_reset1
                0x000df374                uevent_setuplist
                0x000df508                uevent_resetlist
                0x000df5b8                ucriticalsection
 .text          0x000df6e0     0x19c4 ../ulib/libuserxe.a(libuserxe_a-uproc3.o)
                0x000df6e0                uproc_gvfsinit
                0x000df744                ushellexec
                0x000dfbf8                ushellexecsub
                0x000dfecc                ulnxlgettermpgmopt
                0x000e0050                ulnxlgetshellpgm
                0x000e011c                ulnxxgettermpgmopt
                0x000e0430                uproc3pgmchk
                0x000e04d4                usystemlnxterm
                0x000e05b0                usleepms
                0x000e0654                uprocconnect
                0x000e0910                uprocdisconnect
                0x000e09bc                uprocpipeio
                0x000e0bc8                startserver
                0x000e0c44                uprocpiperead
                0x000e0cd8                uprocpiperecevmsg
                0x000e0e54                uprocpipeiodata
 .text          0x000e10a4     0x5de8 ../ulib/libuserxe.a(libuserxe_a-ucalc.o)
                0x000e10a4                ucalc_bcmain
                0x000e1f24                bc_opdchk
                0x000e2e08                getvarname
                0x000e2ee8                ucalc_chkvrparm
                0x000e3074                bc_getvalue
                0x000e3768                ucalc_vrajust
                0x000e3a8c                ucalc_o2l
                0x000e3b74                ucalc_gettimevalue
                0x000e3f9c                ucalc_getunderpointdata
                0x000e4100                bc_opdcopy
                0x000e43c0                bc_putwordordword
                0x000e4498                bc_expand2dword
                0x000e4534                ucalc_binop
                0x000e4ad0                ucalc_binopsub
                0x000e5584                ucalc_underpoint
                0x000e586c                ucalc_editnum
                0x000e5a34                ucalc_editevenhex
                0x000e5ac0                ucalc_dwtime
                0x000e5ca8                ucalc_time
                0x000e61a0                ucalc_timeedit
                0x000e6530                ucalc_shiftdown
                0x000e667c                ucalc_shiftup
                0x000e67bc                bc_getbase
                0x000e6800                calcuperr1
                0x000e6828                calcuperr2
                0x000e6850                calcuperr3
                0x000e6878                calcerrinvalid
                0x000e68b0                calcerrinvalid_dw
                0x000e68e8                calcerrformat
                0x000e6910                calcerrunderflow
                0x000e693c                calcerrwordovf
                0x000e6980                calcerrminus
                0x000e69a8                calcerr0div
                0x000e69d0                calcerrtimeop
                0x000e69f8                bc_getvalue3
                0x000e6cac                bc_setconvtype3
 .text          0x000e6e8c      0x240 /usr/lib/gcc/arm-linux-gnueabihf/8/libgcc.a(_divsi3.o)
                0x000e6e8c                __divsi3
                0x000e6e8c                __aeabi_idiv
                0x000e70ac                __aeabi_idivmod
 .text          0x000e70cc       0xd4 /usr/lib/gcc/arm-linux-gnueabihf/8/libgcc.a(_aeabi_ldivmod.o)
                0x000e70cc                __aeabi_ldivmod
 .text          0x000e71a0       0x10 /usr/lib/gcc/arm-linux-gnueabihf/8/libgcc.a(_dvmd_lnx.o)
                0x000e71a0                __aeabi_idiv0
                0x000e71a0                __aeabi_ldiv0
 .text          0x000e71b0      0x128 /usr/lib/gcc/arm-linux-gnueabihf/8/libgcc.a(_udivmoddi4.o)
                0x000e71b0                __udivmoddi4
 .text          0x000e72d8       0x64 //usr/lib/arm-linux-gnueabihf/libc_nonshared.a(elf-init.oS)
                0x000e72d8                __libc_csu_init
                0x000e7338                __libc_csu_fini
 .text          0x000e733c       0x10 //usr/lib/arm-linux-gnueabihf/libc_nonshared.a(stat64.oS)
                0x000e733c                stat64
 .text          0x000e734c       0x10 //usr/lib/arm-linux-gnueabihf/libc_nonshared.a(fstat64.oS)
                0x000e734c                fstat64
 .text          0x000e735c       0x10 //usr/lib/arm-linux-gnueabihf/libc_nonshared.a(lstat64.oS)
                0x000e735c                lstat64
 .text          0x000e736c        0x0 /usr/lib/gcc/arm-linux-gnueabihf/8/crtend.o
 .text          0x000e736c        0x0 /usr/lib/gcc/arm-linux-gnueabihf/8/../../../arm-linux-gnueabihf/crtn.o
 *(.gnu.warning)
 *(.glue_7t)
 .glue_7t       0x000e736c        0x0 linker stubs
 *(.glue_7)
 .glue_7        0x000e736c        0x0 linker stubs
 *(.vfp11_veneer)
 .vfp11_veneer  0x000e736c        0x0 linker stubs
 *(.v4_bx)
 .v4_bx         0x000e736c        0x0 linker stubs

.fini           0x000e736c        0x8
 *(SORT_NONE(.fini))
 .fini          0x000e736c        0x4 /usr/lib/gcc/arm-linux-gnueabihf/8/../../../arm-linux-gnueabihf/crti.o
                0x000e736c                _fini
 .fini          0x000e7370        0x4 /usr/lib/gcc/arm-linux-gnueabihf/8/../../../arm-linux-gnueabihf/crtn.o
                [!provide]                PROVIDE (__etext = .)
                [!provide]                PROVIDE (_etext = .)
                [!provide]                PROVIDE (etext = .)

.rodata         0x000e7374    0x131e5
 *(.rodata .rodata.* .gnu.linkonce.r.*)
 .rodata.cst4   0x000e7374        0x4 /usr/lib/gcc/arm-linux-gnueabihf/8/../../../arm-linux-gnueabihf/crt1.o
                0x000e7374                _IO_stdin_used
 .rodata        0x000e7378     0x1324 gxp-xprint.o
 .rodata        0x000e869c      0x1d9 gxp-xpdesp.o
 *fill*         0x000e8875        0x3 
 .rodata        0x000e8878      0x12d gxp-xpebc.o
 *fill*         0x000e89a5        0x3 
 .rodata        0x000e89a8      0x79c gxp-xpesc.o
 .rodata        0x000e9144       0x9e gxp-xphex.o
 *fill*         0x000e91e2        0x2 
 .rodata        0x000e91e4     0x3c7c gxp-xphlp.o
 .rodata        0x000ece60      0x7e0 gxp-xpinp.o
 .rodata        0x000ed640      0x271 gxp-xpmult.o
 *fill*         0x000ed8b1        0x3 
 .rodata        0x000ed8b4      0x435 gxp-xppf.o
 *fill*         0x000edce9        0x3 
 .rodata        0x000edcec      0x2a3 gxp-xpsub1.o
 *fill*         0x000edf8f        0x1 
 .rodata        0x000edf90      0x120 gxp-xputf.o
 .rodata        0x000ee0b0      0xc44 gxp-xplnxp.o
 .rodata        0x000eecf4      0x571 ../ulib/libuserxe.a(libuserxe_a-uallocl.o)
 *fill*         0x000ef265        0x3 
 .rodata        0x000ef268      0x88e ../ulib/libuserxe.a(libuserxe_a-ucvebc.o)
 *fill*         0x000efaf6        0x2 
 .rodata        0x000efaf8      0x221 ../ulib/libuserxe.a(libuserxe_a-ucvebc2.o)
 *fill*         0x000efd19        0x3 
 .rodata        0x000efd1c       0x8f ../ulib/libuserxe.a(libuserxe_a-ucvebc3.o)
 *fill*         0x000efdab        0x1 
 .rodata        0x000efdac       0xac ../ulib/libuserxe.a(libuserxe_a-ucvebc4.o)
 .rodata        0x000efe58      0x8e8 ../ulib/libuserxe.a(libuserxe_a-ucvext.o)
 .rodata        0x000f0740       0xca ../ulib/libuserxe.a(libuserxe_a-ucvext12.o)
 *fill*         0x000f080a        0x2 
 .rodata        0x000f080c      0x172 ../ulib/libuserxe.a(libuserxe_a-ucvext2.o)
 *fill*         0x000f097e        0x2 
 .rodata        0x000f0980       0xa2 ../ulib/libuserxe.a(libuserxe_a-ucvucs.o)
 *fill*         0x000f0a22        0x2 
 .rodata        0x000f0a24      0x10c ../ulib/libuserxe.a(libuserxe_a-udbcschk.o)
 .rodata        0x000f0b30        0xc ../ulib/libuserxe.a(libuserxe_a-udbcsck2.o)
 .rodata        0x000f0b3c       0x47 ../ulib/libuserxe.a(libuserxe_a-udos2.o)
 *fill*         0x000f0b83        0x1 
 .rodata        0x000f0b84       0xed ../ulib/libuserxe.a(libuserxe_a-uedit.o)
 *fill*         0x000f0c71        0x3 
 .rodata        0x000f0c74      0x30d ../ulib/libuserxe.a(libuserxe_a-uerr.o)
 *fill*         0x000f0f81        0x3 
 .rodata        0x000f0f84      0x8b9 ../ulib/libuserxe.a(libuserxe_a-ufemsg.o)
 *fill*         0x000f183d        0x3 
 .rodata        0x000f1840      0x113 ../ulib/libuserxe.a(libuserxe_a-ufile.o)
 *fill*         0x000f1953        0x1 
 .rodata        0x000f1954      0x12b ../ulib/libuserxe.a(libuserxe_a-ufile1f.o)
 *fill*         0x000f1a7f        0x1 
 .rodata        0x000f1a80      0x6a3 ../ulib/libuserxe.a(libuserxe_a-ufile1l.o)
 *fill*         0x000f2123        0x1 
 .rodata        0x000f2124      0x10f ../ulib/libuserxe.a(libuserxe_a-ufile1l2.o)
 *fill*         0x000f2233        0x1 
 .rodata        0x000f2234      0x7e4 ../ulib/libuserxe.a(libuserxe_a-ufile2.o)
 .rodata        0x000f2a18      0x357 ../ulib/libuserxe.a(libuserxe_a-ufile2f.o)
 *fill*         0x000f2d6f        0x1 
 .rodata        0x000f2d70       0xf6 ../ulib/libuserxe.a(libuserxe_a-ufile2l.o)
 *fill*         0x000f2e66        0x2 
 .rodata        0x000f2e68       0xfc ../ulib/libuserxe.a(libuserxe_a-ufile2l2.o)
 .rodata        0x000f2f64      0x4da ../ulib/libuserxe.a(libuserxe_a-ufile3.o)
 *fill*         0x000f343e        0x2 
 .rodata        0x000f3440      0x476 ../ulib/libuserxe.a(libuserxe_a-ufile3f.o)
 *fill*         0x000f38b6        0x2 
 .rodata        0x000f38b8      0x234 ../ulib/libuserxe.a(libuserxe_a-ufile4.o)
 .rodata        0x000f3aec      0x1a6 ../ulib/libuserxe.a(libuserxe_a-ufile5.o)
 *fill*         0x000f3c92        0x2 
 .rodata        0x000f3c94      0x619 ../ulib/libuserxe.a(libuserxe_a-uftp.o)
 *fill*         0x000f42ad        0x3 
 .rodata        0x000f42b0      0x45c ../ulib/libuserxe.a(libuserxe_a-uftp2.o)
 .rodata        0x000f470c      0x512 ../ulib/libuserxe.a(libuserxe_a-uftp3.o)
 *fill*         0x000f4c1e        0x2 
 .rodata        0x000f4c20        0xb ../ulib/libuserxe.a(libuserxe_a-ugcclib.o)
 *fill*         0x000f4c2b        0x1 
 .rodata        0x000f4c2c       0xef ../ulib/libuserxe.a(libuserxe_a-ukbdl.o)
 *fill*         0x000f4d1b        0x1 
 .rodata        0x000f4d1c      0xf2a ../ulib/libuserxe.a(libuserxe_a-ukbdlnxc.o)
 *fill*         0x000f5c46        0x2 
 .rodata        0x000f5c48       0x2d ../ulib/libuserxe.a(libuserxe_a-uparse.o)
 *fill*         0x000f5c75        0x3 
 .rodata        0x000f5c78      0x4fd ../ulib/libuserxe.a(libuserxe_a-uproc.o)
 *fill*         0x000f6175        0x3 
 .rodata        0x000f6178      0x168 ../ulib/libuserxe.a(libuserxe_a-uproc2.o)
 .rodata        0x000f62e0      0x341 ../ulib/libuserxe.a(libuserxe_a-uproc4.o)
 *fill*         0x000f6621        0x3 
 .rodata        0x000f6624      0x384 ../ulib/libuserxe.a(libuserxe_a-uque.o)
 .rodata        0x000f69a8       0x7e ../ulib/libuserxe.a(libuserxe_a-ustrcpy.o)
 *fill*         0x000f6a26        0x2 
 .rodata        0x000f6a28        0x4 ../ulib/libuserxe.a(libuserxe_a-ustring.o)
 .rodata        0x000f6a2c      0x1cc ../ulib/libuserxe.a(libuserxe_a-utf2.o)
 .rodata        0x000f6bf8      0x325 ../ulib/libuserxe.a(libuserxe_a-utf22.o)
 *fill*         0x000f6f1d        0x3 
 .rodata        0x000f6f20      0x133 ../ulib/libuserxe.a(libuserxe_a-utf3.o)
 *fill*         0x000f7053        0x1 
 .rodata        0x000f7054     0x19d0 ../ulib/libuserxe.a(libuserxe_a-utf4.o)
 .rodata        0x000f8a24      0x161 ../ulib/libuserxe.a(libuserxe_a-utrace.o)
 *fill*         0x000f8b85        0x3 
 .rodata        0x000f8b88       0x98 ../ulib/libuserxe.a(libuserxe_a-uunxsub.o)
 .rodata        0x000f8c20        0x2 ../ulib/libuserxe.a(libuserxe_a-uviom.o)
 *fill*         0x000f8c22        0x2 
 .rodata        0x000f8c24       0x7a ../ulib/libuserxe.a(libuserxe_a-uviol.o)
 *fill*         0x000f8c9e        0x2 
 .rodata        0x000f8ca0      0x161 ../ulib/libuserxe.a(libuserxe_a-u3270.o)
 *fill*         0x000f8e01        0x3 
 .rodata        0x000f8e04      0x1ad ../ulib/libuserxe.a(libuserxe_a-u32702.o)
 *fill*         0x000f8fb1        0x3 
 .rodata        0x000f8fb4      0x395 ../ulib/libuserxe.a(libuserxe_a-u32703.o)
 *fill*         0x000f9349        0x3 
 .rodata        0x000f934c       0x30 ../ulib/libuserxe.a(libuserxe_a-uabend.o)
 .rodata        0x000f937c      0x7c3 ../ulib/libuserxe.a(libuserxe_a-ucalc2.o)
 *fill*         0x000f9b3f        0x1 
 .rodata        0x000f9b40       0xbd ../ulib/libuserxe.a(libuserxe_a-uedit2.o)
 *fill*         0x000f9bfd        0x3 
 .rodata        0x000f9c00       0x33 ../ulib/libuserxe.a(libuserxe_a-uehl.o)
 *fill*         0x000f9c33        0x1 
 .rodata        0x000f9c34       0x66 ../ulib/libuserxe.a(libuserxe_a-uproc22.o)
 *fill*         0x000f9c9a        0x2 
 .rodata        0x000f9c9c      0x410 ../ulib/libuserxe.a(libuserxe_a-uproc3.o)
 .rodata        0x000fa0ac      0x4ad ../ulib/libuserxe.a(libuserxe_a-ucalc.o)

.rodata1
 *(.rodata1)

.ARM.extab      0x000fa559        0x0
 *(.ARM.extab* .gnu.linkonce.armextab.*)
 .ARM.extab     0x000fa559        0x0 /usr/lib/gcc/arm-linux-gnueabihf/8/../../../arm-linux-gnueabihf/crt1.o
 .ARM.extab     0x000fa559        0x0 /usr/lib/gcc/arm-linux-gnueabihf/8/libgcc.a(_udivmoddi4.o)
                [!provide]                PROVIDE (__exidx_start = .)

.ARM.exidx      0x000fa55c        0x8
 *(.ARM.exidx* .gnu.linkonce.armexidx.*)
 .ARM.exidx     0x000fa55c        0x8 /usr/lib/gcc/arm-linux-gnueabihf/8/../../../arm-linux-gnueabihf/crt1.o
 .ARM.exidx     0x000fa564        0x0 /usr/lib/gcc/arm-linux-gnueabihf/8/libgcc.a(_udivmoddi4.o)
                                  0x8 (size before relaxing)
                [!provide]                PROVIDE (__exidx_end = .)

.eh_frame_hdr
 *(.eh_frame_hdr)
 *(.eh_frame_entry .eh_frame_entry.*)

.eh_frame       0x000fa564        0x4
 *(.eh_frame)
 .eh_frame      0x000fa564        0x4 /usr/lib/gcc/arm-linux-gnueabihf/8/crtend.o
 *(.eh_frame.*)

.gcc_except_table
 *(.gcc_except_table .gcc_except_table.*)

.gnu_extab
 *(.gnu_extab*)

.exception_ranges
 *(.exception_ranges .exception_ranges*)
                0x0010ae08                . = DATA_SEGMENT_ALIGN (CONSTANT (MAXPAGESIZE), CONSTANT (COMMONPAGESIZE))

.eh_frame
 *(.eh_frame)
 *(.eh_frame.*)

.gnu_extab
 *(.gnu_extab)

.gcc_except_table
 *(.gcc_except_table .gcc_except_table.*)

.exception_ranges
 *(.exception_ranges .exception_ranges*)

.tdata          0x0010ae08        0x0
                [!provide]                PROVIDE (__tdata_start = .)
 *(.tdata .tdata.* .gnu.linkonce.td.*)

.tbss
 *(.tbss .tbss.* .gnu.linkonce.tb.*)
 *(.tcommon)

.preinit_array  0x0010ae08        0x0
                [!provide]                PROVIDE (__preinit_array_start = .)
 *(.preinit_array)
                [!provide]                PROVIDE (__preinit_array_end = .)

.init_array     0x0010ae08        0x4
                0x0010ae08                PROVIDE (__init_array_start = .)
 *(SORT_BY_INIT_PRIORITY(.init_array.*) SORT_BY_INIT_PRIORITY(.ctors.*))
 *(.init_array EXCLUDE_FILE(*crtend?.o *crtend.o *crtbegin?.o *crtbegin.o) .ctors)
 .init_array    0x0010ae08        0x4 /usr/lib/gcc/arm-linux-gnueabihf/8/crtbegin.o
                0x0010ae0c                PROVIDE (__init_array_end = .)

.fini_array     0x0010ae0c        0x4
                [!provide]                PROVIDE (__fini_array_start = .)
 *(SORT_BY_INIT_PRIORITY(.fini_array.*) SORT_BY_INIT_PRIORITY(.dtors.*))
 *(.fini_array EXCLUDE_FILE(*crtend?.o *crtend.o *crtbegin?.o *crtbegin.o) .dtors)
 .fini_array    0x0010ae0c        0x4 /usr/lib/gcc/arm-linux-gnueabihf/8/crtbegin.o
                [!provide]                PROVIDE (__fini_array_end = .)

.ctors
 *crtbegin.o(.ctors)
 *crtbegin?.o(.ctors)
 *(EXCLUDE_FILE(*crtend?.o *crtend.o) .ctors)
 *(SORT_BY_NAME(.ctors.*))
 *(.ctors)

.dtors
 *crtbegin.o(.dtors)
 *crtbegin?.o(.dtors)
 *(EXCLUDE_FILE(*crtend?.o *crtend.o) .dtors)
 *(SORT_BY_NAME(.dtors.*))
 *(.dtors)

.jcr
 *(.jcr)

.data.rel.ro    0x0010ae10        0x0
 *(.data.rel.ro.local* .gnu.linkonce.d.rel.ro.local.*)
 *(.data.rel.ro .data.rel.ro.* .gnu.linkonce.d.rel.ro.*)
 .data.rel.ro   0x0010ae10        0x0 /usr/lib/gcc/arm-linux-gnueabihf/8/../../../arm-linux-gnueabihf/crt1.o

.dynamic        0x0010ae10      0x1f0
 *(.dynamic)
 .dynamic       0x0010ae10      0x1f0 /usr/lib/gcc/arm-linux-gnueabihf/8/../../../arm-linux-gnueabihf/crt1.o
                0x0010ae10                _DYNAMIC
                0x0010b000                . = DATA_SEGMENT_RELRO_END (., 0x0)

.got            0x0010b000      0x57c
 *(.got.plt)
 .got.plt       0x0010b000      0x578 /usr/lib/gcc/arm-linux-gnueabihf/8/../../../arm-linux-gnueabihf/crt1.o
                0x0010b000                _GLOBAL_OFFSET_TABLE_
 *(.igot.plt)
 .igot.plt      0x0010b578        0x0 /usr/lib/gcc/arm-linux-gnueabihf/8/../../../arm-linux-gnueabihf/crt1.o
 *(.got)
 .got           0x0010b578        0x4 /usr/lib/gcc/arm-linux-gnueabihf/8/../../../arm-linux-gnueabihf/crt1.o
 *(.igot)

.data           0x0010b580    0x2bc04
                [!provide]                PROVIDE (__data_start = .)
 *(.data .data.* .gnu.linkonce.d.*)
 .data          0x0010b580        0x4 /usr/lib/gcc/arm-linux-gnueabihf/8/../../../arm-linux-gnueabihf/crt1.o
                0x0010b580                __data_start
                0x0010b580                data_start
 .data          0x0010b584        0x0 /usr/lib/gcc/arm-linux-gnueabihf/8/../../../arm-linux-gnueabihf/crti.o
 .data          0x0010b584        0x4 /usr/lib/gcc/arm-linux-gnueabihf/8/crtbegin.o
                0x0010b584                __dso_handle
 .data          0x0010b588     0x2078 gxp-xprint.o
                0x0010b588                pgmid
                0x0010b58c                ver
                0x0010b594                tabskip
                0x0010b598                os
                0x0010b59c                Gzoomh
                0x0010b5a0                Gzoomw
                0x0010b5a4                maxcol
                0x0010b5a8                maxline
                0x0010b5ac                escsw
                0x0010b5b0                lineprefixsw
                0x0010b5b4                ordertype
                0x0010b5b8                ordersw
                0x0010b5bc                prn
                0x0010b5c0                inputrange2
                0x0010b5c4                multiprintjob
                0x0010b5c8                dumpmode
                0x0010b5cc                swconfirm
                0x0010b5d0                outdevprn
                0x0010b5d4                samechk
                0x0010b5d8                dumpwidth
                0x0010b5dc                pagestart
                0x0010b5e0                pageend
                0x0010b5e4                header1outsw
                0x0010b5e8                header0outsw
                0x0010b5ec                inputrangep
                0x0010b5f0                ffrepl
                0x0010b5f4                skip1stff
                0x0010b5f8                prntyp
                0x0010b5fc                docnamesw
                0x0010b600                deswkfnpage
                0x0010c600                deswkfnpos
 .data          0x0010d600        0xc gxp-xp2p.o
 .data          0x0010d60c        0x0 gxp-xpdesp.o
 .data          0x0010d60c        0x0 gxp-xpebc.o
 .data          0x0010d60c      0x37c gxp-xpesc.o
                0x0010d60c                Gformtype
                0x0010d610                colmax1
 .data          0x0010d988       0x11 gxp-xphex.o
 .data          0x0010d999        0x0 gxp-xphlp.o
 .data          0x0010d999        0x1 gxp-xpinp.o
 *fill*         0x0010d99a        0x2 
 .data          0x0010d99c        0x4 gxp-xpmult.o
 .data          0x0010d9a0     0x215c gxp-xppf.o
 .data          0x0010fafc       0x18 gxp-xpsub1.o
 .data          0x0010fb14        0x0 gxp-xputf.o
 *fill*         0x0010fb14        0x4 
 .data          0x0010fb18       0x38 gxp-xplnxp.o
                0x0010fb18                Gprint_color
 .data          0x0010fb50     0x1000 ../ulib/libuserxe.a(libuserxe_a-uallocl.o)
 .data          0x00110b50      0x248 ../ulib/libuserxe.a(libuserxe_a-ucvebc.o)
 .data          0x00110d98        0x0 ../ulib/libuserxe.a(libuserxe_a-ucvebc2.o)
 .data          0x00110d98        0x8 ../ulib/libuserxe.a(libuserxe_a-ucvebc3.o)
 .data          0x00110da0        0x0 ../ulib/libuserxe.a(libuserxe_a-ucvebc32.o)
 .data          0x00110da0        0x0 ../ulib/libuserxe.a(libuserxe_a-ucvebc4.o)
 .data          0x00110da0     0xed30 ../ulib/libuserxe.a(libuserxe_a-ucvebct.o)
 .data          0x0011fad0      0x316 ../ulib/libuserxe.a(libuserxe_a-ucvext.o)
 .data          0x0011fde6        0x6 ../ulib/libuserxe.a(libuserxe_a-ucvext12.o)
 .data          0x0011fdec        0x0 ../ulib/libuserxe.a(libuserxe_a-ucvext2.o)
 .data          0x0011fdec       0x28 ../ulib/libuserxe.a(libuserxe_a-ucvucs.o)
 .data          0x0011fe14     0x7cb0 ../ulib/libuserxe.a(libuserxe_a-ucvucst.o)
                0x0011fe14                Scp932tb
 .data          0x00127ac4        0x8 ../ulib/libuserxe.a(libuserxe_a-udbcschk.o)
                0x00127ac4                Gpdbcstbl
 .data          0x00127acc     0x1148 ../ulib/libuserxe.a(libuserxe_a-udbcsck2.o)
 .data          0x00128c14        0x0 ../ulib/libuserxe.a(libuserxe_a-udos2.o)
 .data          0x00128c14        0x0 ../ulib/libuserxe.a(libuserxe_a-uedit.o)
 .data          0x00128c14        0xd ../ulib/libuserxe.a(libuserxe_a-uerr.o)
 .data          0x00128c21        0x0 ../ulib/libuserxe.a(libuserxe_a-ufemsg.o)
 *fill*         0x00128c21        0x3 
 .data          0x00128c24        0xc ../ulib/libuserxe.a(libuserxe_a-ufile.o)
 .data          0x00128c30        0x0 ../ulib/libuserxe.a(libuserxe_a-ufile1f.o)
 .data          0x00128c30        0x0 ../ulib/libuserxe.a(libuserxe_a-ufile1l.o)
 .data          0x00128c30       0x2c ../ulib/libuserxe.a(libuserxe_a-ufile1l2.o)
 .data          0x00128c5c        0x0 ../ulib/libuserxe.a(libuserxe_a-ufile2.o)
 .data          0x00128c5c        0x0 ../ulib/libuserxe.a(libuserxe_a-ufile2f.o)
 .data          0x00128c5c        0x0 ../ulib/libuserxe.a(libuserxe_a-ufile2l.o)
 .data          0x00128c5c        0x0 ../ulib/libuserxe.a(libuserxe_a-ufile2l2.o)
 .data          0x00128c5c        0x0 ../ulib/libuserxe.a(libuserxe_a-ufile3.o)
 .data          0x00128c5c        0x0 ../ulib/libuserxe.a(libuserxe_a-ufile3f.o)
 .data          0x00128c5c        0x0 ../ulib/libuserxe.a(libuserxe_a-ufile4.o)
 .data          0x00128c5c        0x0 ../ulib/libuserxe.a(libuserxe_a-ufile5.o)
 .data          0x00128c5c       0x10 ../ulib/libuserxe.a(libuserxe_a-uftp.o)
 .data          0x00128c6c       0x50 ../ulib/libuserxe.a(libuserxe_a-uftp2.o)
 .data          0x00128cbc        0x4 ../ulib/libuserxe.a(libuserxe_a-uftp3.o)
 .data          0x00128cc0        0x0 ../ulib/libuserxe.a(libuserxe_a-ugcclib.o)
 .data          0x00128cc0        0x0 ../ulib/libuserxe.a(libuserxe_a-ukbdl.o)
 .data          0x00128cc0     0xb6bc ../ulib/libuserxe.a(libuserxe_a-ukbdlnxc.o)
 .data          0x0013437c       0x10 ../ulib/libuserxe.a(libuserxe_a-ukbdlnxm.o)
 .data          0x0013438c        0x0 ../ulib/libuserxe.a(libuserxe_a-uparse.o)
 .data          0x0013438c       0x20 ../ulib/libuserxe.a(libuserxe_a-uproc.o)
 .data          0x001343ac        0x0 ../ulib/libuserxe.a(libuserxe_a-uproc2.o)
 .data          0x001343ac        0x0 ../ulib/libuserxe.a(libuserxe_a-uproc4.o)
 .data          0x001343ac        0x0 ../ulib/libuserxe.a(libuserxe_a-uque.o)
 .data          0x001343ac        0x0 ../ulib/libuserxe.a(libuserxe_a-ustrcpy.o)
 .data          0x001343ac       0xfb ../ulib/libuserxe.a(libuserxe_a-ustring.o)
 .data          0x001344a7        0x0 ../ulib/libuserxe.a(libuserxe_a-utf.o)
 .data          0x001344a7        0x0 ../ulib/libuserxe.a(libuserxe_a-utf2.o)
 *fill*         0x001344a7        0x1 
 .data          0x001344a8      0x164 ../ulib/libuserxe.a(libuserxe_a-utf22.o)
 .data          0x0013460c      0xe98 ../ulib/libuserxe.a(libuserxe_a-utf3.o)
 .data          0x001354a4        0x0 ../ulib/libuserxe.a(libuserxe_a-utf4.o)
 .data          0x001354a4     0x1928 ../ulib/libuserxe.a(libuserxe_a-utrace.o)
 .data          0x00136dcc        0x0 ../ulib/libuserxe.a(libuserxe_a-uunxsub.o)
 .data          0x00136dcc        0x4 ../ulib/libuserxe.a(libuserxe_a-uviom.o)
                0x00136dcc                Guviomdbcspad
 .data          0x00136dd0        0xc ../ulib/libuserxe.a(libuserxe_a-uviol.o)
 .data          0x00136ddc        0x4 ../ulib/libuserxe.a(libuserxe_a-u3270.o)
 .data          0x00136de0        0x0 ../ulib/libuserxe.a(libuserxe_a-u32702.o)
 .data          0x00136de0        0x0 ../ulib/libuserxe.a(libuserxe_a-u32703.o)
 .data          0x00136de0        0x0 ../ulib/libuserxe.a(libuserxe_a-uabend.o)
 .data          0x00136de0      0x24c ../ulib/libuserxe.a(libuserxe_a-ucalc2.o)
 .data          0x0013702c       0x78 ../ulib/libuserxe.a(libuserxe_a-uedit2.o)
 .data          0x001370a4       0x38 ../ulib/libuserxe.a(libuserxe_a-uehl.o)
 .data          0x001370dc        0x0 ../ulib/libuserxe.a(libuserxe_a-uproc22.o)
 .data          0x001370dc       0x54 ../ulib/libuserxe.a(libuserxe_a-uproc3.o)
 .data          0x00137130       0x54 ../ulib/libuserxe.a(libuserxe_a-ucalc.o)
 .data          0x00137184        0x0 /usr/lib/gcc/arm-linux-gnueabihf/8/libgcc.a(_divsi3.o)
 .data          0x00137184        0x0 /usr/lib/gcc/arm-linux-gnueabihf/8/libgcc.a(_aeabi_ldivmod.o)
 .data          0x00137184        0x0 /usr/lib/gcc/arm-linux-gnueabihf/8/libgcc.a(_dvmd_lnx.o)
 .data          0x00137184        0x0 /usr/lib/gcc/arm-linux-gnueabihf/8/libgcc.a(_udivmoddi4.o)
 .data          0x00137184        0x0 //usr/lib/arm-linux-gnueabihf/libc_nonshared.a(elf-init.oS)
 .data          0x00137184        0x0 //usr/lib/arm-linux-gnueabihf/libc_nonshared.a(stat64.oS)
 .data          0x00137184        0x0 //usr/lib/arm-linux-gnueabihf/libc_nonshared.a(fstat64.oS)
 .data          0x00137184        0x0 //usr/lib/arm-linux-gnueabihf/libc_nonshared.a(lstat64.oS)
 .data          0x00137184        0x0 /usr/lib/gcc/arm-linux-gnueabihf/8/crtend.o
 .data          0x00137184        0x0 /usr/lib/gcc/arm-linux-gnueabihf/8/../../../arm-linux-gnueabihf/crtn.o

.tm_clone_table
                0x00137184        0x0
 .tm_clone_table
                0x00137184        0x0 /usr/lib/gcc/arm-linux-gnueabihf/8/crtbegin.o
 .tm_clone_table
                0x00137184        0x0 /usr/lib/gcc/arm-linux-gnueabihf/8/crtend.o

.data1
 *(.data1)
                0x00137184                _edata = .
                [!provide]                PROVIDE (edata = .)
                0x00137184                . = .
                0x00137184                __bss_start = .
                0x00137184                __bss_start__ = .

.bss            0x00137188   0x15ef3c
 *(.dynbss)
 .dynbss        0x00137188      0x230 /usr/lib/gcc/arm-linux-gnueabihf/8/../../../arm-linux-gnueabihf/crt1.o
                0x00137188                COLORS@@NCURSESW6_5.1.20000708
                0x0013718c                LINES@@NCURSES6_TINFO_5.0.19991023
                0x00137190                acs_map@@NCURSES6_TINFO_5.0.19991023
                0x00137390                stdscr@@NCURSES6_TINFO_5.0.19991023
                0x00137394                cur_term@@NCURSES6_TINFO_5.0.19991023
                0x00137398                COLS@@NCURSES6_TINFO_5.0.19991023
                0x0013739c                stdout@@GLIBC_2.4
                0x001373a0                COLOR_PAIRS@@NCURSESW6_5.1.20000708
                0x001373a8                stdin@@GLIBC_2.4
                0x001373b0                stderr@@GLIBC_2.4
                0x001373b4                newscr@@NCURSES6_TINFO_5.0.19991023
 *(.bss .bss.* .gnu.linkonce.b.*)
 .bss           0x001373b8        0x0 /usr/lib/gcc/arm-linux-gnueabihf/8/../../../arm-linux-gnueabihf/crt1.o
 .bss           0x001373b8        0x0 /usr/lib/gcc/arm-linux-gnueabihf/8/../../../arm-linux-gnueabihf/crti.o
 .bss           0x001373b8        0x1 /usr/lib/gcc/arm-linux-gnueabihf/8/crtbegin.o
 *fill*         0x001373b9        0x3 
 .bss           0x001373bc       0x78 gxp-xprint.o
                0x001373bc                colomnspec
                0x001373c0                linespec
                0x001373c4                cpitch
                0x001373c8                lpitch
                0x001373cc                fontstyle
                0x001373d0                inputrange1
                0x001373d4                os2sw
                0x001373d8                recordsz
                0x001373dc                output
                0x001373e0                lineskip
                0x001373e4                inputrange1b
                0x001373e8                Gcontpageno
                0x001373ec                nocrlfsw
                0x001373f0                asciimode
                0x001373f4                keisenconvsw
                0x001373f8                Gebcdictype
                0x001373fc                totfile
                0x00137400                totline
                0x00137404                totpage
                0x00137408                despagesw
                0x0013740c                swsetarchive
                0x00137410                minprnc
                0x00137414                skip1stff2
                0x00137418                hexdump
                0x0013741c                pagebufft
                0x00137420                poswkbufft
 .bss           0x00137434      0x140 gxp-xp2p.o
 .bss           0x00137574     0x1038 gxp-xpdesp.o
                0x00137574                despageno
 .bss           0x001385ac     0xcc5c gxp-xpebc.o
 .bss           0x00145208       0x20 gxp-xpesc.o
 .bss           0x00145228     0x10a0 gxp-xphex.o
 .bss           0x001462c8        0x0 gxp-xphlp.o
 .bss           0x001462c8     0x3050 gxp-xpinp.o
 .bss           0x00149318       0x28 gxp-xpmult.o
 .bss           0x00149340      0x390 gxp-xppf.o
                0x00149340                breakpage
                0x00149344                Gpage2p
                0x00149348                Gtrailersw
                0x0014934c                hdr0linesw
 .bss           0x001496d0     0x1110 gxp-xpsub1.o
 .bss           0x0014a7e0       0x10 gxp-xputf.o
 .bss           0x0014a7f0      0x220 gxp-xplnxp.o
                0x0014a7f0                Gl2uconverr
 .bss           0x0014aa10       0x84 ../ulib/libuserxe.a(libuserxe_a-uallocl.o)
 .bss           0x0014aa94      0x790 ../ulib/libuserxe.a(libuserxe_a-ucvebc.o)
 .bss           0x0014b224       0x10 ../ulib/libuserxe.a(libuserxe_a-ucvebc2.o)
 .bss           0x0014b234       0x34 ../ulib/libuserxe.a(libuserxe_a-ucvebc3.o)
 .bss           0x0014b268        0x0 ../ulib/libuserxe.a(libuserxe_a-ucvebc32.o)
 .bss           0x0014b268        0x4 ../ulib/libuserxe.a(libuserxe_a-ucvebc4.o)
 .bss           0x0014b26c        0x0 ../ulib/libuserxe.a(libuserxe_a-ucvebct.o)
 .bss           0x0014b26c     0x1cd4 ../ulib/libuserxe.a(libuserxe_a-ucvext.o)
 .bss           0x0014cf40       0x24 ../ulib/libuserxe.a(libuserxe_a-ucvext12.o)
 .bss           0x0014cf64        0xc ../ulib/libuserxe.a(libuserxe_a-ucvext2.o)
 .bss           0x0014cf70        0xc ../ulib/libuserxe.a(libuserxe_a-ucvucs.o)
 .bss           0x0014cf7c        0x0 ../ulib/libuserxe.a(libuserxe_a-ucvucst.o)
 .bss           0x0014cf7c      0x2f9 ../ulib/libuserxe.a(libuserxe_a-udbcschk.o)
 .bss           0x0014d275        0x0 ../ulib/libuserxe.a(libuserxe_a-udbcsck2.o)
 .bss           0x0014d275        0x0 ../ulib/libuserxe.a(libuserxe_a-udos2.o)
 *fill*         0x0014d275        0x3 
 .bss           0x0014d278       0xd8 ../ulib/libuserxe.a(libuserxe_a-uedit.o)
 .bss           0x0014d350     0x40e4 ../ulib/libuserxe.a(libuserxe_a-uerr.o)
 .bss           0x00151434       0x20 ../ulib/libuserxe.a(libuserxe_a-ufemsg.o)
 .bss           0x00151454       0x18 ../ulib/libuserxe.a(libuserxe_a-ufile.o)
 .bss           0x0015146c        0x4 ../ulib/libuserxe.a(libuserxe_a-ufile1f.o)
 .bss           0x00151470    0x64658 ../ulib/libuserxe.a(libuserxe_a-ufile1l.o)
 .bss           0x001b5ac8        0x4 ../ulib/libuserxe.a(libuserxe_a-ufile1l2.o)
 *fill*         0x001b5acc        0x4 
 .bss           0x001b5ad0       0x34 ../ulib/libuserxe.a(libuserxe_a-ufile2.o)
 .bss           0x001b5b04       0x20 ../ulib/libuserxe.a(libuserxe_a-ufile2f.o)
 .bss           0x001b5b24        0x4 ../ulib/libuserxe.a(libuserxe_a-ufile2l.o)
 .bss           0x001b5b28        0x0 ../ulib/libuserxe.a(libuserxe_a-ufile2l2.o)
 .bss           0x001b5b28        0x8 ../ulib/libuserxe.a(libuserxe_a-ufile3.o)
 .bss           0x001b5b30     0x100d ../ulib/libuserxe.a(libuserxe_a-ufile3f.o)
 *fill*         0x001b6b3d        0x3 
 .bss           0x001b6b40     0x1034 ../ulib/libuserxe.a(libuserxe_a-ufile4.o)
 *fill*         0x001b7b74        0x4 
 .bss           0x001b7b78       0x5d ../ulib/libuserxe.a(libuserxe_a-ufile5.o)
 *fill*         0x001b7bd5        0x3 
 .bss           0x001b7bd8    0x64d00 ../ulib/libuserxe.a(libuserxe_a-uftp.o)
 .bss           0x0021c8d8        0x8 ../ulib/libuserxe.a(libuserxe_a-uftp2.o)
 .bss           0x0021c8e0        0x0 ../ulib/libuserxe.a(libuserxe_a-uftp3.o)
 .bss           0x0021c8e0        0x4 ../ulib/libuserxe.a(libuserxe_a-ugcclib.o)
 .bss           0x0021c8e4       0xf4 ../ulib/libuserxe.a(libuserxe_a-ukbdl.o)
                0x0021c8e4                Swcstat
 .bss           0x0021c9d8     0x5808 ../ulib/libuserxe.a(libuserxe_a-ukbdlnxc.o)
 .bss           0x002221e0        0x8 ../ulib/libuserxe.a(libuserxe_a-ukbdlnxm.o)
 .bss           0x002221e8      0x205 ../ulib/libuserxe.a(libuserxe_a-uparse.o)
 *fill*         0x002223ed        0x3 
 .bss           0x002223f0       0x1c ../ulib/libuserxe.a(libuserxe_a-uproc.o)
                0x002223f0                Sserverstat
                0x002223f4                Scmdservercallback
                0x002223f8                Scallbackparm
                0x002223fc                Scmdserverchildpid
 .bss           0x0022240c        0x4 ../ulib/libuserxe.a(libuserxe_a-uproc2.o)
 .bss           0x00222410       0x1c ../ulib/libuserxe.a(libuserxe_a-uproc4.o)
 .bss           0x0022242c        0x0 ../ulib/libuserxe.a(libuserxe_a-uque.o)
 .bss           0x0022242c        0x0 ../ulib/libuserxe.a(libuserxe_a-ustrcpy.o)
 .bss           0x0022242c        0x0 ../ulib/libuserxe.a(libuserxe_a-ustring.o)
 .bss           0x0022242c        0x0 ../ulib/libuserxe.a(libuserxe_a-utf.o)
 .bss           0x0022242c       0x98 ../ulib/libuserxe.a(libuserxe_a-utf2.o)
 .bss           0x002224c4       0x14 ../ulib/libuserxe.a(libuserxe_a-utf22.o)
 .bss           0x002224d8        0x8 ../ulib/libuserxe.a(libuserxe_a-utf3.o)
 .bss           0x002224e0        0x4 ../ulib/libuserxe.a(libuserxe_a-utf4.o)
 .bss           0x002224e4     0x1170 ../ulib/libuserxe.a(libuserxe_a-utrace.o)
 .bss           0x00223654       0x20 ../ulib/libuserxe.a(libuserxe_a-uunxsub.o)
 .bss           0x00223674       0x58 ../ulib/libuserxe.a(libuserxe_a-uviom.o)
 .bss           0x002236cc      0x508 ../ulib/libuserxe.a(libuserxe_a-uviol.o)
 .bss           0x00223bd4        0xc ../ulib/libuserxe.a(libuserxe_a-u3270.o)
 .bss           0x00223be0       0x10 ../ulib/libuserxe.a(libuserxe_a-u32702.o)
 .bss           0x00223bf0     0x1208 ../ulib/libuserxe.a(libuserxe_a-u32703.o)
 .bss           0x00224df8        0x0 ../ulib/libuserxe.a(libuserxe_a-uabend.o)
 .bss           0x00224df8        0x0 ../ulib/libuserxe.a(libuserxe_a-ucalc2.o)
 .bss           0x00224df8      0x268 ../ulib/libuserxe.a(libuserxe_a-uedit2.o)
 .bss           0x00225060       0x64 ../ulib/libuserxe.a(libuserxe_a-uehl.o)
 .bss           0x002250c4       0x18 ../ulib/libuserxe.a(libuserxe_a-uproc22.o)
 .bss           0x002250dc       0x10 ../ulib/libuserxe.a(libuserxe_a-uproc3.o)
 .bss           0x002250ec      0x114 ../ulib/libuserxe.a(libuserxe_a-ucalc.o)
 .bss           0x00225200        0x0 /usr/lib/gcc/arm-linux-gnueabihf/8/libgcc.a(_divsi3.o)
 .bss           0x00225200        0x0 /usr/lib/gcc/arm-linux-gnueabihf/8/libgcc.a(_aeabi_ldivmod.o)
 .bss           0x00225200        0x0 /usr/lib/gcc/arm-linux-gnueabihf/8/libgcc.a(_dvmd_lnx.o)
 .bss           0x00225200        0x0 /usr/lib/gcc/arm-linux-gnueabihf/8/libgcc.a(_udivmoddi4.o)
 .bss           0x00225200        0x0 //usr/lib/arm-linux-gnueabihf/libc_nonshared.a(elf-init.oS)
 .bss           0x00225200        0x0 //usr/lib/arm-linux-gnueabihf/libc_nonshared.a(stat64.oS)
 .bss           0x00225200        0x0 //usr/lib/arm-linux-gnueabihf/libc_nonshared.a(fstat64.oS)
 .bss           0x00225200        0x0 //usr/lib/arm-linux-gnueabihf/libc_nonshared.a(lstat64.oS)
 .bss           0x00225200        0x0 /usr/lib/gcc/arm-linux-gnueabihf/8/crtend.o
 .bss           0x00225200        0x0 /usr/lib/gcc/arm-linux-gnueabihf/8/../../../arm-linux-gnueabihf/crtn.o
 *(COMMON)
 COMMON         0x00225200     0x2d9c gxp-xprint.o
                0x00225200                listgensw
                0x00225204                poswkbuffc
                0x00225208                pagerange
                0x002252a8                recordszV0
                0x002252ac                databuffc
                0x002252b0                headers
                0x002254c0                header0ucs
                0x00225d00                Gmsgfile
                0x00225d04                GeoloffsV
                0x00225d08                Gutf8vhexlen
                0x00225d0c                conddate
                0x00225d10                Gcmdlineparms
                0x00225d14                phase2sw
                0x00225d18                swsw2
                0x00225d1c                modeparm
                0x00225d20                vhexlinex1
                0x00225d24                pageoutlen
                0x00225d28                docname
                0x00225e28                Gxpotheropt
                0x00225e2c                Linehexdpos
                0x00225e30                vhexlinex2
                0x00225e34                Gebcorgcode
                0x00225e38                readcount
                0x00225e3c                swsw4
                0x00225e3e                conddate2
                0x00225e40                pageposucs
                0x00225e44                Greccolomnold
                0x00225e48                line
                0x00225e4c                esccmdlen
                0x00225e50                fastpathsw
                0x00225e54                condtime2
                0x00225e58                header0ucsctr
                0x00225e5c                headersucs
                0x0022669c                pagefilesw
                0x002266a0                Ghdrfnm
                0x002266a4                Gebcctype
                0x002266a8                header0
                0x002268b8                Geolprintcol
                0x002268bc                cmdfile
                0x002268c0                swgetarchive
                0x002268c4                pagesw
                0x002268c8                flist
                0x002268cc                onceputsw
                0x002268d0                vfmtparm
                0x002268d4                actualmaxc
                0x002268d8                puthexfsw
                0x002268dc                vhexreadline
                0x002268e0                pagepos
                0x002268e4                poswkfsw
                0x002268e8                condcode
                0x002268ec                swsw1
                0x002268f0                recordprintwidth
                0x002268f4                condtime
                0x002268f8                reccolomn
                0x002268fc                recorddumpcopyoffs
                0x00226900                vhexdump
                0x00226904                despagecntsw
                0x00226908                eolV
                0x0022690c                jobname
                0x00226910                databuffl
                0x00226914                GoffsV
                0x00226918                input
                0x0022691c                Linecharpos
                0x00226920                textmodevhexsw
                0x00226924                rcount
                0x00226928                printdumpfsw
                0x0022692c                swsw3
                0x00226930                eolprintfmt
                0x00226934                recordszparm
                0x00226938                dbcsenv
                0x0022693c                header0utf8
                0x00226b4c                condcode2
                0x00226b50                Gptrtfnm
                0x00226b54                flistc
                0x00226b58                recordszV
                0x00226b5c                pagebuffc
                0x00226b60                Gqparm
                0x00226b64                Gparmfname
                0x00226b68                rmax
                0x00226b6c                swsw5
                0x00226b70                databuffsw
                0x00226b74                vhexrmax
                0x00226b78                pagefsw
                0x00226b7c                headersucsctr
                0x00226b80                recordszVEOL
                0x00226b84                Gdefaultlocalecode
                0x00226bc4                pagefile
                0x00226bc8                vhexrcount
                0x00226bcc                Gvhexlineoffs
                0x00226bd0                Gpapersizeparm
                0x00226bd4                Gebccfgfname
                0x00226bd8                Gxpebchandle
                0x00226bdc                realpage
                0x00226be0                headersutf8
                0x00226df0                pagerangectr
                0x00226df4                linespwk
                0x00226dfc                Sunixexpandfnm
                0x00226e00                inputrangeopt
                0x00226e04                Gvhexlinelenhhex
                0x00226e08                vhexlinech
                0x00226e10                fstat3
                0x00227f88                multifile
                0x00227f8c                Gdatalinenosz
                0x00227f90                vfmt
                0x00227f94                databufft
                0x00227f98                Gtraceopt
 COMMON         0x00227f9c      0x128 gxp-xpesc.o
                0x00227f9c                esccmd
                0x0022809c                topcmd
                0x002280bc                topcmdlen
                0x002280c0                endjobreq
 COMMON         0x002280c4      0x420 gxp-xphex.o
                0x002280c4                Hexline2
                0x002282d4                Hexline1
 COMMON         0x002284e4      0x230 gxp-xppf.o
                0x002284e4                page
                0x002284e8                header1len
                0x002284ec                GtabonTab
                0x002284f0                Gtabonlocale
                0x002284f4                GtabonTabskip
                0x002284f8                Gebctrt
                0x002284fc                GtabonDBCSspace
                0x00228500                Gtabonutf8
                0x00228504                header1
 COMMON         0x00228714     0x39c8 gxp-xputf.o
                0x00228714                Gcolumnucs
                0x00228718                Gbuffutf
                0x0022b898                Gxputfstat
                0x0022b89c                Gbuffucs
 *fill*         0x0022c0dc        0x4 
 COMMON         0x0022c0e0       0x58 gxp-xplnxp.o
                0x0022c0e0                Sparmmarginl
                0x0022c0e8                Shardmargint
                0x0022c0f0                Shardmarginb
                0x0022c0f8                Shardmarginr
                0x0022c100                Sparmmarginb
                0x0022c108                Sparmmarginr
                0x0022c110                Syshift
                0x0022c118                Gdrawpagectr
                0x0022c120                Sparmmargint
                0x0022c128                Sxshift
                0x0022c130                Shardmarginl
 COMMON         0x0022c138        0x8 ../ulib/libuserxe.a(libuserxe_a-uallocl.o)
                0x0022c138                Gualloc_amount
                0x0022c13c                Gualloc16_amount
 COMMON         0x0022c140     0x9c48 ../ulib/libuserxe.a(libuserxe_a-ucvebc.o)
                0x0022c140                Gucvebchctr
                0x0022c144                Gucvebch
                0x00235d84                Gucvebc_stat
 COMMON         0x00235d88       0x10 ../ulib/libuserxe.a(libuserxe_a-ucvebc2.o)
                0x00235d88                Snewoldctr
                0x00235d8c                Se2stctr
                0x00235d90                Sduptctr
                0x00235d94                Ss2etctr
 COMMON         0x00235d98        0xc ../ulib/libuserxe.a(libuserxe_a-udbcschk.o)
                0x00235d98                Gudbcschk_flag
                0x00235d9c                Gudbcschk_width0top
                0x00235da0                Sdbcschk_hkopt
 COMMON         0x00235da4        0x5 ../ulib/libuserxe.a(libuserxe_a-uerr.o)
                0x00235da4                Guerropt2
                0x00235da8                Guerropt
 *fill*         0x00235da9        0x3 
 COMMON         0x00235dac        0x8 ../ulib/libuserxe.a(libuserxe_a-ufile.o)
                0x00235dac                Gufile_opt
                0x00235db0                Gufile_nomsg
 COMMON         0x00235db4       0x88 ../ulib/libuserxe.a(libuserxe_a-uftp2.o)
                0x00235db4                Gftperr
                0x00235db8                Gftpopt
                0x00235dbc                Gftpclient
 COMMON         0x00235e3c        0x8 ../ulib/libuserxe.a(libuserxe_a-ukbdl.o)
                0x00235e3c                Sphiconv
                0x00235e40                Gukbdl_flag
 COMMON         0x00235e44        0x8 ../ulib/libuserxe.a(libuserxe_a-uproc.o)
                0x00235e44                Sfdpiper
                0x00235e48                Sfdpipew
 COMMON         0x00235e4c        0xc ../ulib/libuserxe.a(libuserxe_a-utf.o)
                0x00235e4c                Gulibutfmode
                0x00235e50                Gutfrc
                0x00235e54                Gutfcombaltch
 COMMON         0x00235e58    0x60000 ../ulib/libuserxe.a(libuserxe_a-utf22.o)
                0x00235e58                Gucs2ddmap_i2u
                0x00255e58                Gucs2ddmap
 COMMON         0x00295e58      0x104 ../ulib/libuserxe.a(libuserxe_a-utrace.o)
                0x00295e58                Gtracehdr
                0x00295f58                Slockhandle
 COMMON         0x00295f5c       0x24 ../ulib/libuserxe.a(libuserxe_a-uviom.o)
                0x00295f5c                Guviombuffu
                0x00295f60                Guviomopt
                0x00295f64                Guviomoptstr
                0x00295f68                Guviomopt2
                0x00295f6c                Gw95buffopt
                0x00295f70                Guviomoptstrucs
 COMMON         0x00295f80        0x4 ../ulib/libuserxe.a(libuserxe_a-uviol.o)
                0x00295f80                Guviol_flag
 COMMON         0x00295f84      0x140 ../ulib/libuserxe.a(libuserxe_a-ucalc.o)
                0x00295f84                Gucalc_result
                0x002960c4                . = ALIGN ((. != 0x0)?0x4:0x1)
                0x002960c4                _bss_end__ = .
                0x002960c4                __bss_end__ = .
                0x002960c4                . = ALIGN (0x4)
                0x002960c4                . = SEGMENT_START ("ldata-segment", .)
                0x002960c4                . = ALIGN (0x4)
                0x002960c4                __end__ = .
                0x002960c4                _end = .
                [!provide]                PROVIDE (end = .)
                0x002960c4                . = DATA_SEGMENT_END (.)

.stab
 *(.stab)

.stabstr
 *(.stabstr)

.stab.excl
 *(.stab.excl)

.stab.exclstr
 *(.stab.exclstr)

.stab.index
 *(.stab.index)

.stab.indexstr
 *(.stab.indexstr)

.comment        0x00000000       0x23
 *(.comment)
 .comment       0x00000000       0x23 /usr/lib/gcc/arm-linux-gnueabihf/8/crtbegin.o
                                 0x24 (size before relaxing)
 .comment       0x00000023       0x24 gxp-xprint.o
 .comment       0x00000023       0x24 gxp-xp2p.o
 .comment       0x00000023       0x24 gxp-xpdesp.o
 .comment       0x00000023       0x24 gxp-xpebc.o
 .comment       0x00000023       0x24 gxp-xpesc.o
 .comment       0x00000023       0x24 gxp-xphex.o
 .comment       0x00000023       0x24 gxp-xphlp.o
 .comment       0x00000023       0x24 gxp-xpinp.o
 .comment       0x00000023       0x24 gxp-xpmult.o
 .comment       0x00000023       0x24 gxp-xppf.o
 .comment       0x00000023       0x24 gxp-xpsub1.o
 .comment       0x00000023       0x24 gxp-xputf.o
 .comment       0x00000023       0x24 gxp-xplnxp.o
 .comment       0x00000023       0x24 ../ulib/libuserxe.a(libuserxe_a-uallocl.o)
 .comment       0x00000023       0x24 ../ulib/libuserxe.a(libuserxe_a-ucvebc.o)
 .comment       0x00000023       0x24 ../ulib/libuserxe.a(libuserxe_a-ucvebc2.o)
 .comment       0x00000023       0x24 ../ulib/libuserxe.a(libuserxe_a-ucvebc3.o)
 .comment       0x00000023       0x24 ../ulib/libuserxe.a(libuserxe_a-ucvebc32.o)
 .comment       0x00000023       0x24 ../ulib/libuserxe.a(libuserxe_a-ucvebc4.o)
 .comment       0x00000023       0x24 ../ulib/libuserxe.a(libuserxe_a-ucvebct.o)
 .comment       0x00000023       0x24 ../ulib/libuserxe.a(libuserxe_a-ucvext.o)
 .comment       0x00000023       0x24 ../ulib/libuserxe.a(libuserxe_a-ucvext12.o)
 .comment       0x00000023       0x24 ../ulib/libuserxe.a(libuserxe_a-ucvext2.o)
 .comment       0x00000023       0x24 ../ulib/libuserxe.a(libuserxe_a-ucvucs.o)
 .comment       0x00000023       0x24 ../ulib/libuserxe.a(libuserxe_a-ucvucst.o)
 .comment       0x00000023       0x24 ../ulib/libuserxe.a(libuserxe_a-udbcschk.o)
 .comment       0x00000023       0x24 ../ulib/libuserxe.a(libuserxe_a-udbcsck2.o)
 .comment       0x00000023       0x24 ../ulib/libuserxe.a(libuserxe_a-udos2.o)
 .comment       0x00000023       0x24 ../ulib/libuserxe.a(libuserxe_a-uedit.o)
 .comment       0x00000023       0x24 ../ulib/libuserxe.a(libuserxe_a-uerr.o)
 .comment       0x00000023       0x24 ../ulib/libuserxe.a(libuserxe_a-ufemsg.o)
 .comment       0x00000023       0x24 ../ulib/libuserxe.a(libuserxe_a-ufile.o)
 .comment       0x00000023       0x24 ../ulib/libuserxe.a(libuserxe_a-ufile1f.o)
 .comment       0x00000023       0x24 ../ulib/libuserxe.a(libuserxe_a-ufile1l.o)
 .comment       0x00000023       0x24 ../ulib/libuserxe.a(libuserxe_a-ufile1l2.o)
 .comment       0x00000023       0x24 ../ulib/libuserxe.a(libuserxe_a-ufile2.o)
 .comment       0x00000023       0x24 ../ulib/libuserxe.a(libuserxe_a-ufile2f.o)
 .comment       0x00000023       0x24 ../ulib/libuserxe.a(libuserxe_a-ufile2l.o)
 .comment       0x00000023       0x24 ../ulib/libuserxe.a(libuserxe_a-ufile2l2.o)
 .comment       0x00000023       0x24 ../ulib/libuserxe.a(libuserxe_a-ufile3.o)
 .comment       0x00000023       0x24 ../ulib/libuserxe.a(libuserxe_a-ufile3f.o)
 .comment       0x00000023       0x24 ../ulib/libuserxe.a(libuserxe_a-ufile4.o)
 .comment       0x00000023       0x24 ../ulib/libuserxe.a(libuserxe_a-ufile5.o)
 .comment       0x00000023       0x24 ../ulib/libuserxe.a(libuserxe_a-uftp.o)
 .comment       0x00000023       0x24 ../ulib/libuserxe.a(libuserxe_a-uftp2.o)
 .comment       0x00000023       0x24 ../ulib/libuserxe.a(libuserxe_a-uftp3.o)
 .comment       0x00000023       0x24 ../ulib/libuserxe.a(libuserxe_a-ugcclib.o)
 .comment       0x00000023       0x24 ../ulib/libuserxe.a(libuserxe_a-ukbdl.o)
 .comment       0x00000023       0x24 ../ulib/libuserxe.a(libuserxe_a-ukbdlnxc.o)
 .comment       0x00000023       0x24 ../ulib/libuserxe.a(libuserxe_a-ukbdlnxm.o)
 .comment       0x00000023       0x24 ../ulib/libuserxe.a(libuserxe_a-uparse.o)
 .comment       0x00000023       0x24 ../ulib/libuserxe.a(libuserxe_a-uproc.o)
 .comment       0x00000023       0x24 ../ulib/libuserxe.a(libuserxe_a-uproc2.o)
 .comment       0x00000023       0x24 ../ulib/libuserxe.a(libuserxe_a-uproc4.o)
 .comment       0x00000023       0x24 ../ulib/libuserxe.a(libuserxe_a-uque.o)
 .comment       0x00000023       0x24 ../ulib/libuserxe.a(libuserxe_a-ustrcpy.o)
 .comment       0x00000023       0x24 ../ulib/libuserxe.a(libuserxe_a-ustring.o)
 .comment       0x00000023       0x24 ../ulib/libuserxe.a(libuserxe_a-utf.o)
 .comment       0x00000023       0x24 ../ulib/libuserxe.a(libuserxe_a-utf2.o)
 .comment       0x00000023       0x24 ../ulib/libuserxe.a(libuserxe_a-utf22.o)
 .comment       0x00000023       0x24 ../ulib/libuserxe.a(libuserxe_a-utf3.o)
 .comment       0x00000023       0x24 ../ulib/libuserxe.a(libuserxe_a-utf4.o)
 .comment       0x00000023       0x24 ../ulib/libuserxe.a(libuserxe_a-utrace.o)
 .comment       0x00000023       0x24 ../ulib/libuserxe.a(libuserxe_a-uunxsub.o)
 .comment       0x00000023       0x24 ../ulib/libuserxe.a(libuserxe_a-uviom.o)
 .comment       0x00000023       0x24 ../ulib/libuserxe.a(libuserxe_a-uviol.o)
 .comment       0x00000023       0x24 ../ulib/libuserxe.a(libuserxe_a-u3270.o)
 .comment       0x00000023       0x24 ../ulib/libuserxe.a(libuserxe_a-u32702.o)
 .comment       0x00000023       0x24 ../ulib/libuserxe.a(libuserxe_a-u32703.o)
 .comment       0x00000023       0x24 ../ulib/libuserxe.a(libuserxe_a-uabend.o)
 .comment       0x00000023       0x24 ../ulib/libuserxe.a(libuserxe_a-ucalc2.o)
 .comment       0x00000023       0x24 ../ulib/libuserxe.a(libuserxe_a-uedit2.o)
 .comment       0x00000023       0x24 ../ulib/libuserxe.a(libuserxe_a-uehl.o)
 .comment       0x00000023       0x24 ../ulib/libuserxe.a(libuserxe_a-uproc22.o)
 .comment       0x00000023       0x24 ../ulib/libuserxe.a(libuserxe_a-uproc3.o)
 .comment       0x00000023       0x24 ../ulib/libuserxe.a(libuserxe_a-ucalc.o)
 .comment       0x00000023       0x24 /usr/lib/gcc/arm-linux-gnueabihf/8/crtend.o

.ARM.attributes
                0x00000000       0x2f
 .ARM.attributes
                0x00000000       0x2f /usr/lib/gcc/arm-linux-gnueabihf/8/../../../arm-linux-gnueabihf/crt1.o
 .ARM.attributes
                0x0000002f       0x23 /usr/lib/gcc/arm-linux-gnueabihf/8/../../../arm-linux-gnueabihf/crti.o
 .ARM.attributes
                0x00000052       0x2f /usr/lib/gcc/arm-linux-gnueabihf/8/crtbegin.o
 .ARM.attributes
                0x00000081       0x2f gxp-xprint.o
 .ARM.attributes
                0x000000b0       0x2f gxp-xp2p.o
 .ARM.attributes
                0x000000df       0x2f gxp-xpdesp.o
 .ARM.attributes
                0x0000010e       0x2f gxp-xpebc.o
 .ARM.attributes
                0x0000013d       0x2f gxp-xpesc.o
 .ARM.attributes
                0x0000016c       0x2f gxp-xphex.o
 .ARM.attributes
                0x0000019b       0x2f gxp-xphlp.o
 .ARM.attributes
                0x000001ca       0x2f gxp-xpinp.o
 .ARM.attributes
                0x000001f9       0x2f gxp-xpmult.o
 .ARM.attributes
                0x00000228       0x2f gxp-xppf.o
 .ARM.attributes
                0x00000257       0x2f gxp-xpsub1.o
 .ARM.attributes
                0x00000286       0x2f gxp-xputf.o
 .ARM.attributes
                0x000002b5       0x2f gxp-xplnxp.o
 .ARM.attributes
                0x000002e4       0x2f ../ulib/libuserxe.a(libuserxe_a-uallocl.o)
 .ARM.attributes
                0x00000313       0x2f ../ulib/libuserxe.a(libuserxe_a-ucvebc.o)
 .ARM.attributes
                0x00000342       0x2f ../ulib/libuserxe.a(libuserxe_a-ucvebc2.o)
 .ARM.attributes
                0x00000371       0x2f ../ulib/libuserxe.a(libuserxe_a-ucvebc3.o)
 .ARM.attributes
                0x000003a0       0x2f ../ulib/libuserxe.a(libuserxe_a-ucvebc32.o)
 .ARM.attributes
                0x000003cf       0x2f ../ulib/libuserxe.a(libuserxe_a-ucvebc4.o)
 .ARM.attributes
                0x000003fe       0x2f ../ulib/libuserxe.a(libuserxe_a-ucvebct.o)
 .ARM.attributes
                0x0000042d       0x2f ../ulib/libuserxe.a(libuserxe_a-ucvext.o)
 .ARM.attributes
                0x0000045c       0x2f ../ulib/libuserxe.a(libuserxe_a-ucvext12.o)
 .ARM.attributes
                0x0000048b       0x2f ../ulib/libuserxe.a(libuserxe_a-ucvext2.o)
 .ARM.attributes
                0x000004ba       0x2f ../ulib/libuserxe.a(libuserxe_a-ucvucs.o)
 .ARM.attributes
                0x000004e9       0x2f ../ulib/libuserxe.a(libuserxe_a-ucvucst.o)
 .ARM.attributes
                0x00000518       0x2f ../ulib/libuserxe.a(libuserxe_a-udbcschk.o)
 .ARM.attributes
                0x00000547       0x2f ../ulib/libuserxe.a(libuserxe_a-udbcsck2.o)
 .ARM.attributes
                0x00000576       0x2f ../ulib/libuserxe.a(libuserxe_a-udos2.o)
 .ARM.attributes
                0x000005a5       0x2f ../ulib/libuserxe.a(libuserxe_a-uedit.o)
 .ARM.attributes
                0x000005d4       0x2f ../ulib/libuserxe.a(libuserxe_a-uerr.o)
 .ARM.attributes
                0x00000603       0x2f ../ulib/libuserxe.a(libuserxe_a-ufemsg.o)
 .ARM.attributes
                0x00000632       0x2f ../ulib/libuserxe.a(libuserxe_a-ufile.o)
 .ARM.attributes
                0x00000661       0x2f ../ulib/libuserxe.a(libuserxe_a-ufile1f.o)
 .ARM.attributes
                0x00000690       0x2f ../ulib/libuserxe.a(libuserxe_a-ufile1l.o)
 .ARM.attributes
                0x000006bf       0x2f ../ulib/libuserxe.a(libuserxe_a-ufile1l2.o)
 .ARM.attributes
                0x000006ee       0x2f ../ulib/libuserxe.a(libuserxe_a-ufile2.o)
 .ARM.attributes
                0x0000071d       0x2f ../ulib/libuserxe.a(libuserxe_a-ufile2f.o)
 .ARM.attributes
                0x0000074c       0x2f ../ulib/libuserxe.a(libuserxe_a-ufile2l.o)
 .ARM.attributes
                0x0000077b       0x2f ../ulib/libuserxe.a(libuserxe_a-ufile2l2.o)
 .ARM.attributes
                0x000007aa       0x2f ../ulib/libuserxe.a(libuserxe_a-ufile3.o)
 .ARM.attributes
                0x000007d9       0x2f ../ulib/libuserxe.a(libuserxe_a-ufile3f.o)
 .ARM.attributes
                0x00000808       0x2f ../ulib/libuserxe.a(libuserxe_a-ufile4.o)
 .ARM.attributes
                0x00000837       0x2f ../ulib/libuserxe.a(libuserxe_a-ufile5.o)
 .ARM.attributes
                0x00000866       0x2f ../ulib/libuserxe.a(libuserxe_a-uftp.o)
 .ARM.attributes
                0x00000895       0x2f ../ulib/libuserxe.a(libuserxe_a-uftp2.o)
 .ARM.attributes
                0x000008c4       0x2f ../ulib/libuserxe.a(libuserxe_a-uftp3.o)
 .ARM.attributes
                0x000008f3       0x2f ../ulib/libuserxe.a(libuserxe_a-ugcclib.o)
 .ARM.attributes
                0x00000922       0x2f ../ulib/libuserxe.a(libuserxe_a-ukbdl.o)
 .ARM.attributes
                0x00000951       0x2f ../ulib/libuserxe.a(libuserxe_a-ukbdlnxc.o)
 .ARM.attributes
                0x00000980       0x2f ../ulib/libuserxe.a(libuserxe_a-ukbdlnxm.o)
 .ARM.attributes
                0x000009af       0x2f ../ulib/libuserxe.a(libuserxe_a-uparse.o)
 .ARM.attributes
                0x000009de       0x2f ../ulib/libuserxe.a(libuserxe_a-uproc.o)
 .ARM.attributes
                0x00000a0d       0x2f ../ulib/libuserxe.a(libuserxe_a-uproc2.o)
 .ARM.attributes
                0x00000a3c       0x2f ../ulib/libuserxe.a(libuserxe_a-uproc4.o)
 .ARM.attributes
                0x00000a6b       0x2f ../ulib/libuserxe.a(libuserxe_a-uque.o)
 .ARM.attributes
                0x00000a9a       0x2f ../ulib/libuserxe.a(libuserxe_a-ustrcpy.o)
 .ARM.attributes
                0x00000ac9       0x2f ../ulib/libuserxe.a(libuserxe_a-ustring.o)
 .ARM.attributes
                0x00000af8       0x2f ../ulib/libuserxe.a(libuserxe_a-utf.o)
 .ARM.attributes
                0x00000b27       0x2f ../ulib/libuserxe.a(libuserxe_a-utf2.o)
 .ARM.attributes
                0x00000b56       0x2f ../ulib/libuserxe.a(libuserxe_a-utf22.o)
 .ARM.attributes
                0x00000b85       0x2f ../ulib/libuserxe.a(libuserxe_a-utf3.o)
 .ARM.attributes
                0x00000bb4       0x2f ../ulib/libuserxe.a(libuserxe_a-utf4.o)
 .ARM.attributes
                0x00000be3       0x2f ../ulib/libuserxe.a(libuserxe_a-utrace.o)
 .ARM.attributes
                0x00000c12       0x2f ../ulib/libuserxe.a(libuserxe_a-uunxsub.o)
 .ARM.attributes
                0x00000c41       0x2f ../ulib/libuserxe.a(libuserxe_a-uviom.o)
 .ARM.attributes
                0x00000c70       0x2f ../ulib/libuserxe.a(libuserxe_a-uviol.o)
 .ARM.attributes
                0x00000c9f       0x2f ../ulib/libuserxe.a(libuserxe_a-u3270.o)
 .ARM.attributes
                0x00000cce       0x2f ../ulib/libuserxe.a(libuserxe_a-u32702.o)
 .ARM.attributes
                0x00000cfd       0x2f ../ulib/libuserxe.a(libuserxe_a-u32703.o)
 .ARM.attributes
                0x00000d2c       0x2f ../ulib/libuserxe.a(libuserxe_a-uabend.o)
 .ARM.attributes
                0x00000d5b       0x2f ../ulib/libuserxe.a(libuserxe_a-ucalc2.o)
 .ARM.attributes
                0x00000d8a       0x2f ../ulib/libuserxe.a(libuserxe_a-uedit2.o)
 .ARM.attributes
                0x00000db9       0x2f ../ulib/libuserxe.a(libuserxe_a-uehl.o)
 .ARM.attributes
                0x00000de8       0x2f ../ulib/libuserxe.a(libuserxe_a-uproc22.o)
 .ARM.attributes
                0x00000e17       0x2f ../ulib/libuserxe.a(libuserxe_a-uproc3.o)
 .ARM.attributes
                0x00000e46       0x2f ../ulib/libuserxe.a(libuserxe_a-ucalc.o)
 .ARM.attributes
                0x00000e75       0x1d /usr/lib/gcc/arm-linux-gnueabihf/8/libgcc.a(_divsi3.o)
 .ARM.attributes
                0x00000e92       0x1d /usr/lib/gcc/arm-linux-gnueabihf/8/libgcc.a(_aeabi_ldivmod.o)
 .ARM.attributes
                0x00000eaf       0x1d /usr/lib/gcc/arm-linux-gnueabihf/8/libgcc.a(_dvmd_lnx.o)
 .ARM.attributes
                0x00000ecc       0x2f /usr/lib/gcc/arm-linux-gnueabihf/8/libgcc.a(_udivmoddi4.o)
 .ARM.attributes
                0x00000efb       0x31 //usr/lib/arm-linux-gnueabihf/libc_nonshared.a(elf-init.oS)
 .ARM.attributes
                0x00000f2c       0x31 //usr/lib/arm-linux-gnueabihf/libc_nonshared.a(stat64.oS)
 .ARM.attributes
                0x00000f5d       0x31 //usr/lib/arm-linux-gnueabihf/libc_nonshared.a(fstat64.oS)
 .ARM.attributes
                0x00000f8e       0x31 //usr/lib/arm-linux-gnueabihf/libc_nonshared.a(lstat64.oS)
 .ARM.attributes
                0x00000fbf       0x2f /usr/lib/gcc/arm-linux-gnueabihf/8/crtend.o
 .ARM.attributes
                0x00000fee       0x23 /usr/lib/gcc/arm-linux-gnueabihf/8/../../../arm-linux-gnueabihf/crtn.o

.debug
 *(.debug)

.line
 *(.line)

.debug_srcinfo
 *(.debug_srcinfo)

.debug_sfnames
 *(.debug_sfnames)

.debug_aranges
 *(.debug_aranges)

.debug_pubnames
 *(.debug_pubnames)

.debug_info
 *(.debug_info .gnu.linkonce.wi.*)

.debug_abbrev
 *(.debug_abbrev)

.debug_line
 *(.debug_line .debug_line.* .debug_line_end)

.debug_frame
 *(.debug_frame)

.debug_str
 *(.debug_str)

.debug_loc
 *(.debug_loc)

.debug_macinfo
 *(.debug_macinfo)

.debug_weaknames
 *(.debug_weaknames)

.debug_funcnames
 *(.debug_funcnames)

.debug_typenames
 *(.debug_typenames)

.debug_varnames
 *(.debug_varnames)

.debug_pubtypes
 *(.debug_pubtypes)

.debug_ranges
 *(.debug_ranges)

.debug_macro
 *(.debug_macro)

.debug_addr
 *(.debug_addr)

.gnu.attributes
 *(.gnu.attributes)

.note.gnu.arm.ident
 *(.note.gnu.arm.ident)

/DISCARD/
 *(.note.GNU-stack)
 *(.gnu_debuglink)
 *(.gnu.lto_*)
OUTPUT(gxp elf32-littlearm)
