Archive member included to satisfy reference by file (symbol)

../ulib/libuserxe.a(libuserxe_a-uallocl.o)
                              xprint-xpebc.o (umalloc)
../ulib/libuserxe.a(libuserxe_a-ucvebc.o)
                              xprint-xpebc.o (Gucvebc_stat)
../ulib/libuserxe.a(libuserxe_a-ucvebc2.o)
                              ../ulib/libuserxe.a(libuserxe_a-ucvebc.o) (ucvebc2_stre2s)
../ulib/libuserxe.a(libuserxe_a-ucvebc3.o)
                              xprint-xpebc.o (ucvebc3_init)
../ulib/libuserxe.a(libuserxe_a-ucvebc32.o)
                              xprint-xpebc.o (ucvebc_b2afld)
../ulib/libuserxe.a(libuserxe_a-ucvebc4.o)
                              xprint-xpebc.o (ucvebc4_createhandle)
../ulib/libuserxe.a(libuserxe_a-ucvebct.o)
                              ../ulib/libuserxe.a(libuserxe_a-ucvebc2.o) (ucvebc2gettbl)
../ulib/libuserxe.a(libuserxe_a-ucvext.o)
                              ../ulib/libuserxe.a(libuserxe_a-ucvebc3.o) (ucvext_mapinit)
../ulib/libuserxe.a(libuserxe_a-ucvext12.o)
                              ../ulib/libuserxe.a(libuserxe_a-ucvext.o) (ucvext12_init)
../ulib/libuserxe.a(libuserxe_a-ucvext2.o)
                              ../ulib/libuserxe.a(libuserxe_a-ucvext.o) (ucvext_iconvmapinit)
../ulib/libuserxe.a(libuserxe_a-ucvucs.o)
                              ../ulib/libuserxe.a(libuserxe_a-ucvebc3.o) (uccvsjis2ucs)
../ulib/libuserxe.a(libuserxe_a-ucvucst.o)
                              ../ulib/libuserxe.a(libuserxe_a-ucvucs.o) (ugetcp932tbl)
../ulib/libuserxe.a(libuserxe_a-udbcschk.o)
                              xprint-xprint.o (Gudbcschk_flag)
../ulib/libuserxe.a(libuserxe_a-udbcsck2.o)
                              xprint-xppf.o (usjis2jis)
../ulib/libuserxe.a(libuserxe_a-udos2.o)
                              ../ulib/libuserxe.a(libuserxe_a-ucvext.o) (udos_setenv)
../ulib/libuserxe.a(libuserxe_a-uedit.o)
                              xprint-xppf.o (ugethex)
../ulib/libuserxe.a(libuserxe_a-uerr.o)
                              xprint-xprint.o (Guerropt)
../ulib/libuserxe.a(libuserxe_a-ufemsg.o)
                              ../ulib/libuserxe.a(libuserxe_a-uallocl.o) (ufileapierr)
../ulib/libuserxe.a(libuserxe_a-ufile.o)
                              ../ulib/libuserxe.a(libuserxe_a-udos2.o) (Gufile_opt)
../ulib/libuserxe.a(libuserxe_a-ufile1f.o)
                              ../ulib/libuserxe.a(libuserxe_a-ufile.o) (uftpdirlistsub)
../ulib/libuserxe.a(libuserxe_a-ufile1l.o)
                              xprint-xprint.o (ufstat)
../ulib/libuserxe.a(libuserxe_a-ufile1l2.o)
                              ../ulib/libuserxe.a(libuserxe_a-ufile1l.o) (ufstat_mdos)
../ulib/libuserxe.a(libuserxe_a-ufile2.o)
                              ../ulib/libuserxe.a(libuserxe_a-uerr.o) (uremove)
../ulib/libuserxe.a(libuserxe_a-ufile2f.o)
                              ../ulib/libuserxe.a(libuserxe_a-ufile2.o) (uftpremove)
../ulib/libuserxe.a(libuserxe_a-ufile2l.o)
                              ../ulib/libuserxe.a(libuserxe_a-ufile2.o) (urmdir)
../ulib/libuserxe.a(libuserxe_a-ufile2l2.o)
                              ../ulib/libuserxe.a(libuserxe_a-ufile2l.o) (umkdir_mdos)
../ulib/libuserxe.a(libuserxe_a-ufile3.o)
                              ../ulib/libuserxe.a(libuserxe_a-ufile2l2.o) (udoscopy)
../ulib/libuserxe.a(libuserxe_a-ufile3f.o)
                              ../ulib/libuserxe.a(libuserxe_a-ufile3.o) (uftpxmove)
../ulib/libuserxe.a(libuserxe_a-ufile4.o)
                              ../ulib/libuserxe.a(libuserxe_a-ufile2l2.o) (utempnam)
../ulib/libuserxe.a(libuserxe_a-ufile5.o)
                              xprint-xpebc.o (ufgetsinit)
../ulib/libuserxe.a(libuserxe_a-uftp.o)
                              ../ulib/libuserxe.a(libuserxe_a-ufile1f.o) (uftpfstatudl)
../ulib/libuserxe.a(libuserxe_a-uftp2.o)
                              ../ulib/libuserxe.a(libuserxe_a-uftp.o) (Gftpopt)
../ulib/libuserxe.a(libuserxe_a-uftp3.o)
                              ../ulib/libuserxe.a(libuserxe_a-uftp.o) (uftp3setssh)
../ulib/libuserxe.a(libuserxe_a-ugcclib.o)
                              xprint-xprint.o (strupr)
../ulib/libuserxe.a(libuserxe_a-ukbdl.o)
                              ../ulib/libuserxe.a(libuserxe_a-ugcclib.o) (ukbdl_getch_init)
../ulib/libuserxe.a(libuserxe_a-ukbdlnxc.o)
                              ../ulib/libuserxe.a(libuserxe_a-ukbdl.o) (ukbdlnxc_init)
../ulib/libuserxe.a(libuserxe_a-ukbdlnxm.o)
                              ../ulib/libuserxe.a(libuserxe_a-ukbdlnxc.o) (ukbdlnxm_mouseinit)
../ulib/libuserxe.a(libuserxe_a-uparse.o)
                              ../ulib/libuserxe.a(libuserxe_a-uftp.o) (uparsev)
../ulib/libuserxe.a(libuserxe_a-uproc.o)
                              ../ulib/libuserxe.a(libuserxe_a-ukbdl.o) (uproc_getpsinfo)
../ulib/libuserxe.a(libuserxe_a-uproc2.o)
                              ../ulib/libuserxe.a(libuserxe_a-ufile2f.o) (uproc_rsh)
../ulib/libuserxe.a(libuserxe_a-uproc4.o)
                              ../ulib/libuserxe.a(libuserxe_a-ukbdlnxc.o) (uproc_select)
../ulib/libuserxe.a(libuserxe_a-uque.o)
                              ../ulib/libuserxe.a(libuserxe_a-uftp.o) (uenq)
../ulib/libuserxe.a(libuserxe_a-ustrcpy.o)
                              xprint-xp2p.o (ustring_memcpy)
../ulib/libuserxe.a(libuserxe_a-ustring.o)
                              ../ulib/libuserxe.a(libuserxe_a-ucvebc32.o) (ustrnlen)
../ulib/libuserxe.a(libuserxe_a-utf.o)
                              ../ulib/libuserxe.a(libuserxe_a-udbcschk.o) (Gulibutfmode)
../ulib/libuserxe.a(libuserxe_a-utf2.o)
                              xprint-xphex.o (utfcvf2u)
../ulib/libuserxe.a(libuserxe_a-utf22.o)
                              ../ulib/libuserxe.a(libuserxe_a-udbcschk.o) (utfucsmapinit)
../ulib/libuserxe.a(libuserxe_a-utf3.o)
                              ../ulib/libuserxe.a(libuserxe_a-utf2.o) (utfmb2wc)
../ulib/libuserxe.a(libuserxe_a-utf4.o)
                              ../ulib/libuserxe.a(libuserxe_a-utf3.o) (mk_wcwidth)
../ulib/libuserxe.a(libuserxe_a-utrace.o)
                              ../ulib/libuserxe.a(libuserxe_a-uftp2.o) (Gtracehdr)
../ulib/libuserxe.a(libuserxe_a-uunxsub.o)
                              ../ulib/libuserxe.a(libuserxe_a-ufile2l.o) (ugetugid)
../ulib/libuserxe.a(libuserxe_a-uviom.o)
                              ../ulib/libuserxe.a(libuserxe_a-udbcschk.o) (uvio_wcinit)
../ulib/libuserxe.a(libuserxe_a-uviol.o)
                              ../ulib/libuserxe.a(libuserxe_a-uerr.o) (Guviol_flag)
../ulib/libuserxe.a(libuserxe_a-u3270.o)
                              ../ulib/libuserxe.a(libuserxe_a-ufile1f.o) (u3270fstat)
../ulib/libuserxe.a(libuserxe_a-u32702.o)
                              ../ulib/libuserxe.a(libuserxe_a-ufile2f.o) (u3270mkdir)
../ulib/libuserxe.a(libuserxe_a-u32703.o)
                              ../ulib/libuserxe.a(libuserxe_a-ufile3.o) (u3270xmove)
../ulib/libuserxe.a(libuserxe_a-uabend.o)
                              ../ulib/libuserxe.a(libuserxe_a-ukbdl.o) (uabend)
../ulib/libuserxe.a(libuserxe_a-ucalc2.o)
                              ../ulib/libuserxe.a(libuserxe_a-uftp2.o) (ucalc_ld2dw)
../ulib/libuserxe.a(libuserxe_a-uedit2.o)
                              ../ulib/libuserxe.a(libuserxe_a-ufemsg.o) (ueditfattr)
../ulib/libuserxe.a(libuserxe_a-uehl.o)
                              ../ulib/libuserxe.a(libuserxe_a-ukbdlnxc.o) (uehl_setsh)
../ulib/libuserxe.a(libuserxe_a-uproc22.o)
                              ../ulib/libuserxe.a(libuserxe_a-utrace.o) (ucriticalsection)
../ulib/libuserxe.a(libuserxe_a-uproc3.o)
                              ../ulib/libuserxe.a(libuserxe_a-uproc4.o) (usleepms)
../ulib/libuserxe.a(libuserxe_a-ucalc.o)
                              ../ulib/libuserxe.a(libuserxe_a-ucalc2.o) (ucalc_binop)
/usr/lib/gcc/arm-linux-gnueabihf/8/libgcc.a(_divsi3.o)
                              xprint-xprint.o (__aeabi_idiv)
/usr/lib/gcc/arm-linux-gnueabihf/8/libgcc.a(_aeabi_ldivmod.o)
                              ../ulib/libuserxe.a(libuserxe_a-u32703.o) (__aeabi_ldivmod)
/usr/lib/gcc/arm-linux-gnueabihf/8/libgcc.a(_dvmd_lnx.o)
                              /usr/lib/gcc/arm-linux-gnueabihf/8/libgcc.a(_aeabi_ldivmod.o) (__aeabi_ldiv0)
/usr/lib/gcc/arm-linux-gnueabihf/8/libgcc.a(_udivmoddi4.o)
                              /usr/lib/gcc/arm-linux-gnueabihf/8/libgcc.a(_aeabi_ldivmod.o) (__udivmoddi4)
//usr/lib/arm-linux-gnueabihf/libc_nonshared.a(elf-init.oS)
                              /usr/lib/gcc/arm-linux-gnueabihf/8/../../../arm-linux-gnueabihf/crt1.o (__libc_csu_init)
//usr/lib/arm-linux-gnueabihf/libc_nonshared.a(stat64.oS)
                              ../ulib/libuserxe.a(libuserxe_a-ufile1l.o) (stat64)
//usr/lib/arm-linux-gnueabihf/libc_nonshared.a(fstat64.oS)
                              xprint-xpmult.o (fstat64)
//usr/lib/arm-linux-gnueabihf/libc_nonshared.a(lstat64.oS)
                              ../ulib/libuserxe.a(libuserxe_a-ufile1l.o) (lstat64)

Allocating common symbols
Common symbol       size              file

listgensw           0x4               xprint-xprint.o
page                0x4               xprint-xppf.o
Gucs2ddmap_i2u      0x20000           ../ulib/libuserxe.a(libuserxe_a-utf22.o)
Guviombuffu         0x4               ../ulib/libuserxe.a(libuserxe_a-uviom.o)
poswkbuffc          0x4               xprint-xprint.o
pagerange           0xa0              xprint-xprint.o
recordszV0          0x4               xprint-xprint.o
databuffc           0x4               xprint-xprint.o
headers             0x210             xprint-xprint.o
esccmd              0x100             xprint-xpesc.o
Gufile_opt          0x4               ../ulib/libuserxe.a(libuserxe_a-ufile.o)
header1len          0x4               xprint-xppf.o
topcmd              0x20              xprint-xpesc.o
GtabonTab           0x4               xprint-xppf.o
Gmsgfile            0x4               xprint-xprint.o
GeoloffsV           0x4               xprint-xprint.o
Gutf8vhexlen        0x4               xprint-xprint.o
Sphiconv            0x4               ../ulib/libuserxe.a(libuserxe_a-ukbdl.o)
conddate            0x2               xprint-xprint.o
Snewoldctr          0x4               ../ulib/libuserxe.a(libuserxe_a-ucvebc2.o)
Gftperr             0x4               ../ulib/libuserxe.a(libuserxe_a-uftp2.o)
Gcmdlineparms       0x4               xprint-xprint.o
phase2sw            0x4               xprint-xprint.o
swsw2               0x1               xprint-xprint.o
Gulibutfmode        0x4               ../ulib/libuserxe.a(libuserxe_a-utf.o)
Hexline2            0x210             xprint-xphex.o
modeparm            0x4               xprint-xprint.o
vhexlinex1          0x4               xprint-xprint.o
Se2stctr            0x4               ../ulib/libuserxe.a(libuserxe_a-ucvebc2.o)
pageoutlen          0x4               xprint-xprint.o
Gtracehdr           0x100             ../ulib/libuserxe.a(libuserxe_a-utrace.o)
docname             0x100             xprint-xprint.o
Gxpotheropt         0x4               xprint-xprint.o
Linehexdpos         0x4               xprint-xprint.o
Sfdpiper            0x4               ../ulib/libuserxe.a(libuserxe_a-uproc.o)
Gutfrc              0x4               ../ulib/libuserxe.a(libuserxe_a-utf.o)
vhexlinex2          0x4               xprint-xprint.o
Gebcorgcode         0x4               xprint-xprint.o
readcount           0x4               xprint-xprint.o
Gualloc_amount      0x4               ../ulib/libuserxe.a(libuserxe_a-uallocl.o)
Guviomopt           0x4               ../ulib/libuserxe.a(libuserxe_a-uviom.o)
Slockhandle         0x4               ../ulib/libuserxe.a(libuserxe_a-utrace.o)
Gucvebchctr         0x4               ../ulib/libuserxe.a(libuserxe_a-ucvebc.o)
swsw4               0x1               xprint-xprint.o
Gudbcschk_flag      0x4               ../ulib/libuserxe.a(libuserxe_a-udbcschk.o)
conddate2           0x2               xprint-xprint.o
Guerropt2           0x4               ../ulib/libuserxe.a(libuserxe_a-uerr.o)
Sduptctr            0x4               ../ulib/libuserxe.a(libuserxe_a-ucvebc2.o)
Gtabonlocale        0x4               xprint-xppf.o
Gukbdl_flag         0x4               ../ulib/libuserxe.a(libuserxe_a-ukbdl.o)
GtabonTabskip       0x4               xprint-xppf.o
Greccolomnold       0x4               xprint-xprint.o
line                0x4               xprint-xprint.o
esccmdlen           0x4               xprint-xprint.o
fastpathsw          0x4               xprint-xprint.o
condtime2           0x2               xprint-xprint.o
Ss2etctr            0x4               ../ulib/libuserxe.a(libuserxe_a-ucvebc2.o)
pagefilesw          0x4               xprint-xprint.o
Ghdrfnm             0x4               xprint-xprint.o
Gebcctype           0x4               xprint-xprint.o
header0             0x210             xprint-xprint.o
Geolprintcol        0x4               xprint-xprint.o
cmdfile             0x4               xprint-xprint.o
swgetarchive        0x4               xprint-xprint.o
pagesw              0x4               xprint-xprint.o
flist               0x4               xprint-xprint.o
onceputsw           0x4               xprint-xprint.o
vfmtparm            0x4               xprint-xprint.o
actualmaxc          0x4               xprint-xprint.o
puthexfsw           0x4               xprint-xprint.o
vhexreadline        0x4               xprint-xprint.o
pagepos             0x4               xprint-xprint.o
poswkfsw            0x4               xprint-xprint.o
condcode            0x4               xprint-xprint.o
swsw1               0x1               xprint-xprint.o
recordprintwidth    0x4               xprint-xprint.o
Gcolumnucs          0x4               xprint-xputf.o
condtime            0x2               xprint-xprint.o
reccolomn           0x4               xprint-xprint.o
recorddumpcopyoffs  0x4               xprint-xprint.o
vhexdump            0x4               xprint-xprint.o
despagecntsw        0x4               xprint-xprint.o
eolV                0x4               xprint-xprint.o
jobname             0x4               xprint-xprint.o
databuffl           0x4               xprint-xprint.o
Gucvebch            0x9c40            ../ulib/libuserxe.a(libuserxe_a-ucvebc.o)
topcmdlen           0x4               xprint-xpesc.o
Gbuffutf            0x3180            xprint-xputf.o
GoffsV              0x4               xprint-xprint.o
input               0x4               xprint-xprint.o
Linecharpos         0x4               xprint-xprint.o
textmodevhexsw      0x4               xprint-xprint.o
rcount              0x4               xprint-xprint.o
printdumpfsw        0x4               xprint-xprint.o
Gucalc_result       0x140             ../ulib/libuserxe.a(libuserxe_a-ucalc.o)
swsw3               0x1               xprint-xprint.o
eolprintfmt         0x4               xprint-xprint.o
recordszparm        0x4               xprint-xprint.o
Guviol_flag         0x4               ../ulib/libuserxe.a(libuserxe_a-uviol.o)
dbcsenv             0x4               xprint-xprint.o
Guviomoptstr        0x4               ../ulib/libuserxe.a(libuserxe_a-uviom.o)
condcode2           0x4               xprint-xprint.o
Gptrtfnm            0x4               xprint-xprint.o
Gftpopt             0x4               ../ulib/libuserxe.a(libuserxe_a-uftp2.o)
flistc              0x4               xprint-xprint.o
recordszV           0x4               xprint-xprint.o
pagebuffc           0x4               xprint-xprint.o
Gxputfstat          0x4               xprint-xputf.o
Gparmfname          0x4               xprint-xprint.o
rmax                0x4               xprint-xprint.o
swsw5               0x1               xprint-xprint.o
databuffsw          0x4               xprint-xprint.o
Gufile_nomsg        0x4               ../ulib/libuserxe.a(libuserxe_a-ufile.o)
Gebctrt             0x4               xprint-xppf.o
vhexrmax            0x4               xprint-xprint.o
Gualloc16_amount    0x4               ../ulib/libuserxe.a(libuserxe_a-uallocl.o)
GtabonDBCSspace     0x4               xprint-xppf.o
pagefsw             0x4               xprint-xprint.o
Gudbcschk_width0top
                    0x4               ../ulib/libuserxe.a(libuserxe_a-udbcschk.o)
Gucvebc_stat        0x4               ../ulib/libuserxe.a(libuserxe_a-ucvebc.o)
Gftpclient          0x80              ../ulib/libuserxe.a(libuserxe_a-uftp2.o)
recordszVEOL        0x4               xprint-xprint.o
Gtabonutf8          0x4               xprint-xppf.o
Guviomopt2          0x4               ../ulib/libuserxe.a(libuserxe_a-uviom.o)
Gdefaultlocalecode  0x40              xprint-xprint.o
pagefile            0x4               xprint-xprint.o
vhexrcount          0x4               xprint-xprint.o
Gvhexlineoffs       0x4               xprint-xprint.o
Sdbcschk_hkopt      0x4               ../ulib/libuserxe.a(libuserxe_a-udbcschk.o)
Hexline1            0x210             xprint-xphex.o
Gebccfgfname        0x4               xprint-xprint.o
Gxpebchandle        0x4               xprint-xprint.o
endjobreq           0x4               xprint-xpesc.o
realpage            0x4               xprint-xprint.o
Gbuffucs            0x840             xprint-xputf.o
Gutfcombaltch       0x4               ../ulib/libuserxe.a(libuserxe_a-utf.o)
Gucs2ddmap          0x40000           ../ulib/libuserxe.a(libuserxe_a-utf22.o)
Gw95buffopt         0x4               ../ulib/libuserxe.a(libuserxe_a-uviom.o)
Guerropt            0x1               ../ulib/libuserxe.a(libuserxe_a-uerr.o)
pagerangectr        0x4               xprint-xprint.o
Guviomoptstrucs     0x10              ../ulib/libuserxe.a(libuserxe_a-uviom.o)
header1             0x210             xprint-xppf.o
linespwk            0x8               xprint-xprint.o
Sunixexpandfnm      0x4               xprint-xprint.o
inputrangeopt       0x4               xprint-xprint.o
Gvhexlinelenhhex    0x4               xprint-xprint.o
vhexlinech          0x4               xprint-xprint.o
fstat3              0x1178            xprint-xprint.o
multifile           0x4               xprint-xprint.o
Gdatalinenosz       0x4               xprint-xprint.o
vfmt                0x4               xprint-xprint.o
Sfdpipew            0x4               ../ulib/libuserxe.a(libuserxe_a-uproc.o)
databufft           0x4               xprint-xprint.o
Gtraceopt           0x4               xprint-xprint.o

Discarded input sections

 .note.GNU-stack
                0x00000000        0x0 /usr/lib/gcc/arm-linux-gnueabihf/8/../../../arm-linux-gnueabihf/crt1.o
 .note.GNU-stack
                0x00000000        0x0 /usr/lib/gcc/arm-linux-gnueabihf/8/../../../arm-linux-gnueabihf/crti.o
 .note.GNU-stack
                0x00000000        0x0 /usr/lib/gcc/arm-linux-gnueabihf/8/crtbegin.o
 .note.GNU-stack
                0x00000000        0x0 xprint-xprint.o
 .note.GNU-stack
                0x00000000        0x0 xprint-xp2p.o
 .note.GNU-stack
                0x00000000        0x0 xprint-xpdesp.o
 .note.GNU-stack
                0x00000000        0x0 xprint-xpebc.o
 .note.GNU-stack
                0x00000000        0x0 xprint-xpesc.o
 .note.GNU-stack
                0x00000000        0x0 xprint-xphex.o
 .note.GNU-stack
                0x00000000        0x0 xprint-xphlp.o
 .note.GNU-stack
                0x00000000        0x0 xprint-xpinp.o
 .note.GNU-stack
                0x00000000        0x0 xprint-xpmult.o
 .note.GNU-stack
                0x00000000        0x0 xprint-xppf.o
 .note.GNU-stack
                0x00000000        0x0 xprint-xpsub1.o
 .note.GNU-stack
                0x00000000        0x0 xprint-xputf.o
 .note.GNU-stack
                0x00000000        0x0 ../ulib/libuserxe.a(libuserxe_a-uallocl.o)
 .note.GNU-stack
                0x00000000        0x0 ../ulib/libuserxe.a(libuserxe_a-ucvebc.o)
 .note.GNU-stack
                0x00000000        0x0 ../ulib/libuserxe.a(libuserxe_a-ucvebc2.o)
 .note.GNU-stack
                0x00000000        0x0 ../ulib/libuserxe.a(libuserxe_a-ucvebc3.o)
 .note.GNU-stack
                0x00000000        0x0 ../ulib/libuserxe.a(libuserxe_a-ucvebc32.o)
 .note.GNU-stack
                0x00000000        0x0 ../ulib/libuserxe.a(libuserxe_a-ucvebc4.o)
 .note.GNU-stack
                0x00000000        0x0 ../ulib/libuserxe.a(libuserxe_a-ucvebct.o)
 .note.GNU-stack
                0x00000000        0x0 ../ulib/libuserxe.a(libuserxe_a-ucvext.o)
 .note.GNU-stack
                0x00000000        0x0 ../ulib/libuserxe.a(libuserxe_a-ucvext12.o)
 .note.GNU-stack
                0x00000000        0x0 ../ulib/libuserxe.a(libuserxe_a-ucvext2.o)
 .note.GNU-stack
                0x00000000        0x0 ../ulib/libuserxe.a(libuserxe_a-ucvucs.o)
 .note.GNU-stack
                0x00000000        0x0 ../ulib/libuserxe.a(libuserxe_a-ucvucst.o)
 .note.GNU-stack
                0x00000000        0x0 ../ulib/libuserxe.a(libuserxe_a-udbcschk.o)
 .note.GNU-stack
                0x00000000        0x0 ../ulib/libuserxe.a(libuserxe_a-udbcsck2.o)
 .note.GNU-stack
                0x00000000        0x0 ../ulib/libuserxe.a(libuserxe_a-udos2.o)
 .note.GNU-stack
                0x00000000        0x0 ../ulib/libuserxe.a(libuserxe_a-uedit.o)
 .note.GNU-stack
                0x00000000        0x0 ../ulib/libuserxe.a(libuserxe_a-uerr.o)
 .note.GNU-stack
                0x00000000        0x0 ../ulib/libuserxe.a(libuserxe_a-ufemsg.o)
 .note.GNU-stack
                0x00000000        0x0 ../ulib/libuserxe.a(libuserxe_a-ufile.o)
 .note.GNU-stack
                0x00000000        0x0 ../ulib/libuserxe.a(libuserxe_a-ufile1f.o)
 .note.GNU-stack
                0x00000000        0x0 ../ulib/libuserxe.a(libuserxe_a-ufile1l.o)
 .note.GNU-stack
                0x00000000        0x0 ../ulib/libuserxe.a(libuserxe_a-ufile1l2.o)
 .note.GNU-stack
                0x00000000        0x0 ../ulib/libuserxe.a(libuserxe_a-ufile2.o)
 .note.GNU-stack
                0x00000000        0x0 ../ulib/libuserxe.a(libuserxe_a-ufile2f.o)
 .note.GNU-stack
                0x00000000        0x0 ../ulib/libuserxe.a(libuserxe_a-ufile2l.o)
 .note.GNU-stack
                0x00000000        0x0 ../ulib/libuserxe.a(libuserxe_a-ufile2l2.o)
 .note.GNU-stack
                0x00000000        0x0 ../ulib/libuserxe.a(libuserxe_a-ufile3.o)
 .note.GNU-stack
                0x00000000        0x0 ../ulib/libuserxe.a(libuserxe_a-ufile3f.o)
 .note.GNU-stack
                0x00000000        0x0 ../ulib/libuserxe.a(libuserxe_a-ufile4.o)
 .note.GNU-stack
                0x00000000        0x0 ../ulib/libuserxe.a(libuserxe_a-ufile5.o)
 .note.GNU-stack
                0x00000000        0x0 ../ulib/libuserxe.a(libuserxe_a-uftp.o)
 .note.GNU-stack
                0x00000000        0x0 ../ulib/libuserxe.a(libuserxe_a-uftp2.o)
 .note.GNU-stack
                0x00000000        0x0 ../ulib/libuserxe.a(libuserxe_a-uftp3.o)
 .note.GNU-stack
                0x00000000        0x0 ../ulib/libuserxe.a(libuserxe_a-ugcclib.o)
 .note.GNU-stack
                0x00000000        0x0 ../ulib/libuserxe.a(libuserxe_a-ukbdl.o)
 .note.GNU-stack
                0x00000000        0x0 ../ulib/libuserxe.a(libuserxe_a-ukbdlnxc.o)
 .note.GNU-stack
                0x00000000        0x0 ../ulib/libuserxe.a(libuserxe_a-ukbdlnxm.o)
 .note.GNU-stack
                0x00000000        0x0 ../ulib/libuserxe.a(libuserxe_a-uparse.o)
 .note.GNU-stack
                0x00000000        0x0 ../ulib/libuserxe.a(libuserxe_a-uproc.o)
 .note.GNU-stack
                0x00000000        0x0 ../ulib/libuserxe.a(libuserxe_a-uproc2.o)
 .note.GNU-stack
                0x00000000        0x0 ../ulib/libuserxe.a(libuserxe_a-uproc4.o)
 .note.GNU-stack
                0x00000000        0x0 ../ulib/libuserxe.a(libuserxe_a-uque.o)
 .note.GNU-stack
                0x00000000        0x0 ../ulib/libuserxe.a(libuserxe_a-ustrcpy.o)
 .note.GNU-stack
                0x00000000        0x0 ../ulib/libuserxe.a(libuserxe_a-ustring.o)
 .note.GNU-stack
                0x00000000        0x0 ../ulib/libuserxe.a(libuserxe_a-utf.o)
 .note.GNU-stack
                0x00000000        0x0 ../ulib/libuserxe.a(libuserxe_a-utf2.o)
 .note.GNU-stack
                0x00000000        0x0 ../ulib/libuserxe.a(libuserxe_a-utf22.o)
 .note.GNU-stack
                0x00000000        0x0 ../ulib/libuserxe.a(libuserxe_a-utf3.o)
 .note.GNU-stack
                0x00000000        0x0 ../ulib/libuserxe.a(libuserxe_a-utf4.o)
 .note.GNU-stack
                0x00000000        0x0 ../ulib/libuserxe.a(libuserxe_a-utrace.o)
 .note.GNU-stack
                0x00000000        0x0 ../ulib/libuserxe.a(libuserxe_a-uunxsub.o)
 .note.GNU-stack
                0x00000000        0x0 ../ulib/libuserxe.a(libuserxe_a-uviom.o)
 .note.GNU-stack
                0x00000000        0x0 ../ulib/libuserxe.a(libuserxe_a-uviol.o)
 .note.GNU-stack
                0x00000000        0x0 ../ulib/libuserxe.a(libuserxe_a-u3270.o)
 .note.GNU-stack
                0x00000000        0x0 ../ulib/libuserxe.a(libuserxe_a-u32702.o)
 .note.GNU-stack
                0x00000000        0x0 ../ulib/libuserxe.a(libuserxe_a-u32703.o)
 .note.GNU-stack
                0x00000000        0x0 ../ulib/libuserxe.a(libuserxe_a-uabend.o)
 .note.GNU-stack
                0x00000000        0x0 ../ulib/libuserxe.a(libuserxe_a-ucalc2.o)
 .note.GNU-stack
                0x00000000        0x0 ../ulib/libuserxe.a(libuserxe_a-uedit2.o)
 .note.GNU-stack
                0x00000000        0x0 ../ulib/libuserxe.a(libuserxe_a-uehl.o)
 .note.GNU-stack
                0x00000000        0x0 ../ulib/libuserxe.a(libuserxe_a-uproc22.o)
 .note.GNU-stack
                0x00000000        0x0 ../ulib/libuserxe.a(libuserxe_a-uproc3.o)
 .note.GNU-stack
                0x00000000        0x0 ../ulib/libuserxe.a(libuserxe_a-ucalc.o)
 .note.GNU-stack
                0x00000000        0x0 /usr/lib/gcc/arm-linux-gnueabihf/8/libgcc.a(_divsi3.o)
 .note.GNU-stack
                0x00000000        0x0 /usr/lib/gcc/arm-linux-gnueabihf/8/libgcc.a(_aeabi_ldivmod.o)
 .note.GNU-stack
                0x00000000        0x0 /usr/lib/gcc/arm-linux-gnueabihf/8/libgcc.a(_dvmd_lnx.o)
 .note.GNU-stack
                0x00000000        0x0 /usr/lib/gcc/arm-linux-gnueabihf/8/libgcc.a(_udivmoddi4.o)
 .note.GNU-stack
                0x00000000        0x0 //usr/lib/arm-linux-gnueabihf/libc_nonshared.a(elf-init.oS)
 .note.GNU-stack
                0x00000000        0x0 //usr/lib/arm-linux-gnueabihf/libc_nonshared.a(stat64.oS)
 .note.GNU-stack
                0x00000000        0x0 //usr/lib/arm-linux-gnueabihf/libc_nonshared.a(fstat64.oS)
 .note.GNU-stack
                0x00000000        0x0 //usr/lib/arm-linux-gnueabihf/libc_nonshared.a(lstat64.oS)
 .note.GNU-stack
                0x00000000        0x0 /usr/lib/gcc/arm-linux-gnueabihf/8/crtend.o
 .note.GNU-stack
                0x00000000        0x0 /usr/lib/gcc/arm-linux-gnueabihf/8/../../../arm-linux-gnueabihf/crtn.o

Memory Configuration

Name             Origin             Length             Attributes
*default*        0x00000000         0xffffffff

Linker script and memory map

LOAD /usr/lib/gcc/arm-linux-gnueabihf/8/../../../arm-linux-gnueabihf/crt1.o
LOAD /usr/lib/gcc/arm-linux-gnueabihf/8/../../../arm-linux-gnueabihf/crti.o
LOAD /usr/lib/gcc/arm-linux-gnueabihf/8/crtbegin.o
LOAD xprint-xprint.o
LOAD xprint-xp2p.o
LOAD xprint-xpdesp.o
LOAD xprint-xpebc.o
LOAD xprint-xpesc.o
LOAD xprint-xphex.o
LOAD xprint-xphlp.o
LOAD xprint-xpinp.o
LOAD xprint-xpmult.o
LOAD xprint-xppf.o
LOAD xprint-xpsub1.o
LOAD xprint-xputf.o
LOAD ../ulib/libuserxe.a
LOAD /usr/lib/gcc/arm-linux-gnueabihf/8/../../../arm-linux-gnueabihf/libgnomeui-2.so
LOAD /usr/lib/gcc/arm-linux-gnueabihf/8/../../../arm-linux-gnueabihf/libSM.so
LOAD /usr/lib/gcc/arm-linux-gnueabihf/8/../../../arm-linux-gnueabihf/libICE.so
LOAD /usr/lib/gcc/arm-linux-gnueabihf/8/../../../arm-linux-gnueabihf/libbonoboui-2.so
LOAD /usr/lib/gcc/arm-linux-gnueabihf/8/../../../arm-linux-gnueabihf/libgnome-2.so
LOAD /usr/lib/gcc/arm-linux-gnueabihf/8/../../../arm-linux-gnueabihf/libpopt.so
LOAD /usr/lib/gcc/arm-linux-gnueabihf/8/../../../arm-linux-gnueabihf/libbonobo-2.so
LOAD /usr/lib/gcc/arm-linux-gnueabihf/8/../../../arm-linux-gnueabihf/libbonobo-activation.so
LOAD /usr/lib/gcc/arm-linux-gnueabihf/8/../../../arm-linux-gnueabihf/libORBit-2.so
LOAD /usr/lib/gcc/arm-linux-gnueabihf/8/../../../arm-linux-gnueabihf/libgnomecanvas-2.so
LOAD /usr/lib/gcc/arm-linux-gnueabihf/8/../../../arm-linux-gnueabihf/libart_lgpl_2.so
LOAD /usr/lib/gcc/arm-linux-gnueabihf/8/../../../arm-linux-gnueabihf/libgnomevfs-2.so
LOAD /usr/lib/gcc/arm-linux-gnueabihf/8/../../../arm-linux-gnueabihf/libgconf-2.so
LOAD /usr/lib/gcc/arm-linux-gnueabihf/8/../../../arm-linux-gnueabihf/libgthread-2.0.so
LOAD /usr/lib/gcc/arm-linux-gnueabihf/8/../../../arm-linux-gnueabihf/libgmodule-2.0.so
LOAD /usr/lib/gcc/arm-linux-gnueabihf/8/../../../arm-linux-gnueabihf/libgtk-x11-2.0.so
LOAD /usr/lib/gcc/arm-linux-gnueabihf/8/../../../arm-linux-gnueabihf/libgdk-x11-2.0.so
LOAD /usr/lib/gcc/arm-linux-gnueabihf/8/../../../arm-linux-gnueabihf/libpangocairo-1.0.so
LOAD /usr/lib/gcc/arm-linux-gnueabihf/8/../../../arm-linux-gnueabihf/libatk-1.0.so
LOAD /usr/lib/gcc/arm-linux-gnueabihf/8/../../../arm-linux-gnueabihf/libcairo.so
LOAD /usr/lib/gcc/arm-linux-gnueabihf/8/../../../arm-linux-gnueabihf/libgdk_pixbuf-2.0.so
LOAD /usr/lib/gcc/arm-linux-gnueabihf/8/../../../arm-linux-gnueabihf/libgio-2.0.so
LOAD /usr/lib/gcc/arm-linux-gnueabihf/8/../../../arm-linux-gnueabihf/libpangoft2-1.0.so
LOAD /usr/lib/gcc/arm-linux-gnueabihf/8/../../../arm-linux-gnueabihf/libpango-1.0.so
LOAD /usr/lib/gcc/arm-linux-gnueabihf/8/../../../arm-linux-gnueabihf/libgobject-2.0.so
LOAD /usr/lib/gcc/arm-linux-gnueabihf/8/../../../arm-linux-gnueabihf/libglib-2.0.so
LOAD /usr/lib/gcc/arm-linux-gnueabihf/8/../../../arm-linux-gnueabihf/libfontconfig.so
LOAD /usr/lib/gcc/arm-linux-gnueabihf/8/../../../arm-linux-gnueabihf/libfreetype.so
LOAD /usr/lib/gcc/arm-linux-gnueabihf/8/../../../arm-linux-gnueabihf/libdl.so
LOAD /usr/lib/gcc/arm-linux-gnueabihf/8/../../../arm-linux-gnueabihf/libncursesw.so
LOAD /lib/arm-linux-gnueabihf/libncursesw.so.6
LOAD /usr/lib/gcc/arm-linux-gnueabihf/8/../../../arm-linux-gnueabihf/libtinfo.so
LOAD /usr/lib/gcc/arm-linux-gnueabihf/8/../../../arm-linux-gnueabihf/libcups.so
LOAD /usr/lib/gcc/arm-linux-gnueabihf/8/libgcc.a
LOAD /usr/lib/gcc/arm-linux-gnueabihf/8/libgcc_s.so
START GROUP
LOAD /usr/lib/gcc/arm-linux-gnueabihf/8/libgcc_s.so.1
LOAD /usr/lib/gcc/arm-linux-gnueabihf/8/libgcc.a
END GROUP
LOAD /usr/lib/gcc/arm-linux-gnueabihf/8/../../../arm-linux-gnueabihf/libpthread.so
LOAD /usr/lib/gcc/arm-linux-gnueabihf/8/../../../arm-linux-gnueabihf/libc.so
START GROUP
LOAD //lib/arm-linux-gnueabihf/libc.so.6
LOAD //usr/lib/arm-linux-gnueabihf/libc_nonshared.a
LOAD //lib/arm-linux-gnueabihf/ld-linux-armhf.so.3
END GROUP
LOAD /usr/lib/gcc/arm-linux-gnueabihf/8/libgcc.a
LOAD /usr/lib/gcc/arm-linux-gnueabihf/8/libgcc_s.so
START GROUP
LOAD /usr/lib/gcc/arm-linux-gnueabihf/8/libgcc_s.so.1
LOAD /usr/lib/gcc/arm-linux-gnueabihf/8/libgcc.a
END GROUP
LOAD /usr/lib/gcc/arm-linux-gnueabihf/8/crtend.o
LOAD /usr/lib/gcc/arm-linux-gnueabihf/8/../../../arm-linux-gnueabihf/crtn.o
                [!provide]                PROVIDE (__executable_start = SEGMENT_START ("text-segment", 0x10000))
                0x00010154                . = (SEGMENT_START ("text-segment", 0x10000) + SIZEOF_HEADERS)

.interp         0x00010154       0x19
 *(.interp)
 .interp        0x00010154       0x19 /usr/lib/gcc/arm-linux-gnueabihf/8/../../../arm-linux-gnueabihf/crt1.o

.note.ABI-tag   0x00010170       0x20
 .note.ABI-tag  0x00010170       0x20 /usr/lib/gcc/arm-linux-gnueabihf/8/../../../arm-linux-gnueabihf/crt1.o

.note.gnu.build-id
                0x00010190       0x24
 *(.note.gnu.build-id)
 .note.gnu.build-id
                0x00010190       0x24 linker stubs

.hash
 *(.hash)

.gnu.hash       0x000101b4      0x74c
 *(.gnu.hash)
 .gnu.hash      0x000101b4      0x74c /usr/lib/gcc/arm-linux-gnueabihf/8/../../../arm-linux-gnueabihf/crt1.o

.dynsym         0x00010900      0xce0
 *(.dynsym)
 .dynsym        0x00010900      0xce0 /usr/lib/gcc/arm-linux-gnueabihf/8/../../../arm-linux-gnueabihf/crt1.o

.dynstr         0x000115e0      0x9d9
 *(.dynstr)
 .dynstr        0x000115e0      0x9d9 /usr/lib/gcc/arm-linux-gnueabihf/8/../../../arm-linux-gnueabihf/crt1.o

.gnu.version    0x00011fba      0x19c
 *(.gnu.version)
 .gnu.version   0x00011fba      0x19c /usr/lib/gcc/arm-linux-gnueabihf/8/../../../arm-linux-gnueabihf/crt1.o

.gnu.version_d  0x00012158        0x0
 *(.gnu.version_d)
 .gnu.version_d
                0x00012158        0x0 /usr/lib/gcc/arm-linux-gnueabihf/8/../../../arm-linux-gnueabihf/crt1.o

.gnu.version_r  0x00012158       0xc0
 *(.gnu.version_r)
 .gnu.version_r
                0x00012158       0xc0 /usr/lib/gcc/arm-linux-gnueabihf/8/../../../arm-linux-gnueabihf/crt1.o

.rel.dyn        0x00012218       0x60
 *(.rel.init)
 *(.rel.text .rel.text.* .rel.gnu.linkonce.t.*)
 *(.rel.fini)
 *(.rel.rodata .rel.rodata.* .rel.gnu.linkonce.r.*)
 *(.rel.data.rel.ro .rel.data.rel.ro.* .rel.gnu.linkonce.d.rel.ro.*)
 .rel.data.rel.ro
                0x00012218        0x0 /usr/lib/gcc/arm-linux-gnueabihf/8/../../../arm-linux-gnueabihf/crt1.o
 *(.rel.data .rel.data.* .rel.gnu.linkonce.d.*)
 *(.rel.tdata .rel.tdata.* .rel.gnu.linkonce.td.*)
 *(.rel.tbss .rel.tbss.* .rel.gnu.linkonce.tb.*)
 *(.rel.ctors)
 *(.rel.dtors)
 *(.rel.got)
 .rel.got       0x00012218        0x8 /usr/lib/gcc/arm-linux-gnueabihf/8/../../../arm-linux-gnueabihf/crt1.o
 *(.rel.bss .rel.bss.* .rel.gnu.linkonce.b.*)
 .rel.bss       0x00012220       0x58 /usr/lib/gcc/arm-linux-gnueabihf/8/../../../arm-linux-gnueabihf/crt1.o
                [!provide]                PROVIDE (__rel_iplt_start = .)
 *(.rel.iplt)
 .rel.iplt      0x00012278        0x0 /usr/lib/gcc/arm-linux-gnueabihf/8/../../../arm-linux-gnueabihf/crt1.o
                [!provide]                PROVIDE (__rel_iplt_end = .)

.rela.dyn       0x00012278        0x0
 *(.rela.init)
 *(.rela.text .rela.text.* .rela.gnu.linkonce.t.*)
 *(.rela.fini)
 *(.rela.rodata .rela.rodata.* .rela.gnu.linkonce.r.*)
 *(.rela.data .rela.data.* .rela.gnu.linkonce.d.*)
 *(.rela.tdata .rela.tdata.* .rela.gnu.linkonce.td.*)
 *(.rela.tbss .rela.tbss.* .rela.gnu.linkonce.tb.*)
 *(.rela.ctors)
 *(.rela.dtors)
 *(.rela.got)
 *(.rela.bss .rela.bss.* .rela.gnu.linkonce.b.*)
                [!provide]                PROVIDE (__rela_iplt_start = .)
 *(.rela.iplt)
                [!provide]                PROVIDE (__rela_iplt_end = .)

.rel.plt        0x00012278      0x5c0
 *(.rel.plt)
 .rel.plt       0x00012278      0x5c0 /usr/lib/gcc/arm-linux-gnueabihf/8/../../../arm-linux-gnueabihf/crt1.o

.rela.plt
 *(.rela.plt)

.init           0x00012838        0xc
 *(SORT_NONE(.init))
 .init          0x00012838        0x8 /usr/lib/gcc/arm-linux-gnueabihf/8/../../../arm-linux-gnueabihf/crti.o
                0x00012838                _init
 .init          0x00012840        0x4 /usr/lib/gcc/arm-linux-gnueabihf/8/../../../arm-linux-gnueabihf/crtn.o

.plt            0x00012844      0x8b4
 *(.plt)
 .plt           0x00012844      0x8b4 /usr/lib/gcc/arm-linux-gnueabihf/8/../../../arm-linux-gnueabihf/crt1.o
                0x00012858                gethostname@@GLIBC_2.4
                0x00012864                ftell@@GLIBC_2.4
                0x00012870                getuid@@GLIBC_2.4
                0x0001287c                fopen64@@GLIBC_2.4
                0x00012888                endwin@@NCURSESW6_5.1.20000708
                0x00012894                fwrite@@GLIBC_2.4
                0x000128a0                mbrtowc@@GLIBC_2.4
                0x000128ac                toupper@@GLIBC_2.4
                0x000128b8                __isoc99_sscanf@@GLIBC_2.7
                0x000128c4                fprintf@@GLIBC_2.4
                0x000128d0                waddnstr@@NCURSESW6_5.1.20000708
                0x000128dc                strstr@@GLIBC_2.4
                0x000128e8                isatty@@GLIBC_2.4
                0x000128f4                getppid@@GLIBC_2.4
                0x00012900                wbkgdset@@NCURSESW6_5.1.20000708
                0x0001290c                execvp@@GLIBC_2.4
                0x00012918                write@@GLIBC_2.4
                0x00012924                wctomb@@GLIBC_2.4
                0x00012930                can_change_color@@NCURSESW6_5.1.20000708
                0x0001293c                opendir@@GLIBC_2.4
                0x00012948                printf@@GLIBC_2.4
                0x00012954                gnome_vfs_mime_get_default_application
                0x00012960                bsearch@@GLIBC_2.4
                0x0001296c                fclose@@GLIBC_2.4
                0x00012978                atoll@@GLIBC_2.4
                0x00012984                qsort@@GLIBC_2.4
                0x00012990                getgid@@GLIBC_2.4
                0x0001299c                wclear@@NCURSESW6_5.1.20000708
                0x000129a8                __ctype_b_loc@@GLIBC_2.4
                0x000129b4                strnlen@@GLIBC_2.4
                0x000129c0                nonl@@NCURSESW6_5.1.20000708
                0x000129cc                getmntent@@GLIBC_2.4
                0x000129d8                iconv@@GLIBC_2.4
                0x000129e4                fputc@@GLIBC_2.4
                0x000129f0                dlclose@@GLIBC_2.4
                0x000129fc                beep@@NCURSESW6_5.1.20000708
                0x00012a08                __xstat64@@GLIBC_2.4
                0x00012a14                chown@@GLIBC_2.4
                0x00012a20                strpbrk@@GLIBC_2.4
                0x00012a2c                fseek@@GLIBC_2.4
                0x00012a38                strerror@@GLIBC_2.4
                0x00012a44                color_content@@NCURSESW6_5.1.20000708
                0x00012a50                tolower@@GLIBC_2.4
                0x00012a5c                putchar@@GLIBC_2.4
                0x00012a68                has_colors@@NCURSESW6_5.1.20000708
                0x00012a74                puts@@GLIBC_2.4
                0x00012a80                init_pair@@NCURSESW6_5.1.20000708
                0x00012a8c                __libc_start_main@@GLIBC_2.4
                0x00012aa4                setupterm@@NCURSES6_TINFO_5.0.19991023
                0x00012ab0                strchr@@GLIBC_2.4
                0x00012abc                __errno_location@@GLIBC_2.4
                0x00012ac8                keypad@@NCURSES6_TINFO_5.0.19991023
                0x00012ad4                lutimes@@GLIBC_2.4
                0x00012ae0                atol@@GLIBC_2.4
                0x00012aec                ftello64@@GLIBC_2.4
                0x00012af8                tcsetattr@@GLIBC_2.4
                0x00012b04                curs_set@@NCURSES6_TINFO_5.0.19991023
                0x00012b10                symlink@@GLIBC_2.4
                0x00012b1c                setenv@@GLIBC_2.4
                0x00012b28                mkdir@@GLIBC_2.4
                0x00012b34                pthread_mutex_lock@@GLIBC_2.4
                0x00012b40                pipe@@GLIBC_2.4
                0x00012b4c                noecho@@NCURSESW6_5.1.20000708
                0x00012b58                gnome_vfs_get_mime_type
                0x00012b64                remove@@GLIBC_2.4
                0x00012b70                waddchnstr@@NCURSESW6_5.1.20000708
                0x00012b7c                pthread_cond_wait@@GLIBC_2.4
                0x00012b88                free@@GLIBC_2.4
                0x00012b94                iconv_close@@GLIBC_2.4
                0x00012ba0                wcwidth@@GLIBC_2.4
                0x00012bac                close@@GLIBC_2.4
                0x00012bb8                clearok@@NCURSESW6_5.1.20000708
                0x00012bc4                memcpy@@GLIBC_2.4
                0x00012bd0                wcstombs@@GLIBC_2.4
                0x00012bdc                iconv_open@@GLIBC_2.4
                0x00012be8                memmove@@GLIBC_2.4
                0x00012bf4                strncpy@@GLIBC_2.4
                0x00012c00                winchnstr@@NCURSESW6_5.1.20000708
                0x00012c0c                win_wchnstr@@NCURSESW6_5.3.20021019
                0x00012c18                access@@GLIBC_2.4
                0x00012c24                unlink@@GLIBC_2.4
                0x00012c30                ferror@@GLIBC_2.4
                0x00012c3c                strcpy@@GLIBC_2.4
                0x00012c48                execv@@GLIBC_2.4
                0x00012c54                raise@@GLIBC_2.4
                0x00012c60                getgrgid@@GLIBC_2.4
                0x00012c6c                start_color@@NCURSESW6_5.1.20000708
                0x00012c78                atoi@@GLIBC_2.4
                0x00012c84                dlsym@@GLIBC_2.4
                0x00012c90                ftime@@GLIBC_2.4
                0x00012c9c                fork@@GLIBC_2.4
                0x00012ca8                signal@@GLIBC_2.4
                0x00012cb4                gettimeofday@@GLIBC_2.4
                0x00012cc0                getpwuid@@GLIBC_2.4
                0x00012ccc                system@@GLIBC_2.4
                0x00012cd8                malloc@@GLIBC_2.4
                0x00012ce4                localtime@@GLIBC_2.4
                0x00012cf0                getcwd@@GLIBC_2.4
                0x00012cfc                tcgetattr@@GLIBC_2.4
                0x00012d08                pthread_cond_init@@GLIBC_2.4
                0x00012d14                kill@@GLIBC_2.4
                0x00012d20                strdup@@GLIBC_2.4
                0x00012d2c                strlen@@GLIBC_2.4
                0x00012d38                pthread_mutex_destroy@@GLIBC_2.4
                0x00012d44                chdir@@GLIBC_2.4
                0x00012d50                chmod@@GLIBC_2.4
                0x00012d5c                __fxstat64@@GLIBC_2.4
                0x00012d68                mktime@@GLIBC_2.4
                0x00012d74                wadd_wchnstr@@NCURSESW6_5.3.20021019
                0x00012d80                closedir@@GLIBC_2.4
                0x00012d8c                getpid@@GLIBC_2.4
                0x00012d98                winnstr@@NCURSESW6_5.1.20000708
                0x00012da4                __lxstat64@@GLIBC_2.4
                0x00012db0                select@@GLIBC_2.4
                0x00012dbc                readlink@@GLIBC_2.4
                0x00012dc8                iswalpha@@GLIBC_2.4
                0x00012dd4                fseeko64@@GLIBC_2.4
                0x00012de0                dup@@GLIBC_2.4
                0x00012dec                sprintf@@GLIBC_2.4
                0x00012df8                snprintf@@GLIBC_2.4
                0x00012e04                fflush@@GLIBC_2.4
                0x00012e10                mbtowc@@GLIBC_2.4
                0x00012e1c                curses_version@@NCURSES6_TINFO_5.0.19991023
                0x00012e28                perror@@GLIBC_2.4
                0x00012e34                setlocale@@GLIBC_2.4
                0x00012e40                vfprintf@@GLIBC_2.4
                0x00012e4c                mousemask@@NCURSESW6_5.1.20000708
                0x00012e58                gnome_vfs_mime_application_free
                0x00012e64                strcmp@@GLIBC_2.4
                0x00012e70                initscr@@NCURSESW6_5.1.20000708
                0x00012e7c                memcmp@@GLIBC_2.4
                0x00012e88                memset@@GLIBC_2.4
                0x00012e94                wrefresh@@NCURSESW6_5.1.20000708
                0x00012ea0                getenv@@GLIBC_2.4
                0x00012eac                rename@@GLIBC_2.4
                0x00012eb8                flock@@GLIBC_2.4
                0x00012ec4                mkfifo@@GLIBC_2.4
                0x00012ed0                time@@GLIBC_2.4
                0x00012edc                meta@@NCURSES6_TINFO_5.0.19991023
                0x00012ee8                wait@@GLIBC_2.4
                0x00012ef4                statfs64@@GLIBC_2.4
                0x00012f00                pthread_cond_broadcast@@GLIBC_2.4
                0x00012f0c                fread@@GLIBC_2.4
                0x00012f18                gnome_vfs_init
                0x00012f24                pthread_create@@GLIBC_2.4
                0x00012f30                strcat@@GLIBC_2.4
                0x00012f3c                abort@@GLIBC_2.4
                0x00012f48                init_color@@NCURSESW6_5.1.20000708
                0x00012f54                gnome_vfs_get_uri_from_local_path
                0x00012f60                waitpid@@GLIBC_2.4
                0x00012f6c                gnome_vfs_get_file_info
                0x00012f78                pthread_cond_timedwait@@GLIBC_2.4
                0x00012f84                exit@@GLIBC_2.4
                0x00012f90                calloc@@GLIBC_2.4
                0x00012f9c                setmntent@@GLIBC_2.4
                0x00012fa8                rmdir@@GLIBC_2.4
                0x00012fb4                strrchr@@GLIBC_2.4
                0x00012fc0                wmove@@NCURSESW6_5.1.20000708
                0x00012fcc                dup2@@GLIBC_2.4
                0x00012fd8                getmntent_r@@GLIBC_2.4
                0x00012fe4                fgets@@GLIBC_2.4
                0x00012ff0                raw@@NCURSES6_TINFO_5.0.19991023
                0x00012ffc                utimes@@GLIBC_2.4
                0x00013008                endmntent@@GLIBC_2.4
                0x00013014                fgetc@@GLIBC_2.4
                0x00013020                memchr@@GLIBC_2.4
                0x0001302c                read@@GLIBC_2.4
                0x00013038                readdir64@@GLIBC_2.4
                0x00013044                pthread_mutex_unlock@@GLIBC_2.4
                0x00013050                wcrtomb@@GLIBC_2.4
                0x0001305c                nl_langinfo@@GLIBC_2.4
                0x00013068                pthread_mutex_init@@GLIBC_2.4
                0x00013074                fileno@@GLIBC_2.4
                0x00013080                mkstemp64@@GLIBC_2.4
                0x0001308c                strspn@@GLIBC_2.4
                0x00013098                open64@@GLIBC_2.4
                0x000130a4                ioctl@@GLIBC_2.4
                0x000130b0                fputs@@GLIBC_2.4
                0x000130bc                nanosleep@@GLIBC_2.4
                0x000130c8                iswprint@@GLIBC_2.4
                0x000130d4                putenv@@GLIBC_2.4
                0x000130e0                ttyname@@GLIBC_2.4
                0x000130ec                dlopen@@GLIBC_2.4

.iplt           0x000130f8        0x0
 *(.iplt)
 .iplt          0x000130f8        0x0 /usr/lib/gcc/arm-linux-gnueabihf/8/../../../arm-linux-gnueabihf/crt1.o

.text           0x000130f8    0xc653c
 *(.text.unlikely .text.*_unlikely .text.unlikely.*)
 *(.text.exit .text.exit.*)
 *(.text.startup .text.startup.*)
 *(.text.hot .text.hot.*)
 *(.text .stub .text.* .gnu.linkonce.t.*)
 .text          0x000130f8       0x3c /usr/lib/gcc/arm-linux-gnueabihf/8/../../../arm-linux-gnueabihf/crt1.o
                0x000130f8                _start
 .text          0x00013134       0x24 /usr/lib/gcc/arm-linux-gnueabihf/8/../../../arm-linux-gnueabihf/crti.o
 .text          0x00013158       0x90 /usr/lib/gcc/arm-linux-gnueabihf/8/crtbegin.o
 .text          0x000131e8     0x53a0 xprint-xprint.o
                0x000131e8                main
                0x000180bc                openoutput
                0x00018188                uexit
                0x0001826c                dos_endjob
                0x00018334                parmprechk
                0x0001848c                AllocCmdlineParmSave
                0x00018534                SaveToCmdlineParmSave
 .text          0x00018588      0xc18 xprint-xp2p.o
                0x00018588                get2pwidth
                0x00018720                newpage2p
                0x00018a14                closepage2p
                0x00018bc4                closedoc2p
                0x00018bd8                putline2p
 .text          0x000191a0      0xb58 xprint-xpdesp.o
                0x000191a0                deswkfwrite
                0x0001960c                despageout
 .text          0x00019cf8     0x258c xprint-xpebc.o
                0x00019cf8                xpebc_getparmcvname
                0x00019da0                xpebc_init
                0x00019ffc                xpebc_setupcp
                0x0001a2ac                xpebc_open
                0x0001a364                xpebc_fgets
                0x0001a6a8                xpebc_fgetc
                0x0001ac04                xpebc_fread
                0x0001aedc                xpebc_freadnext
                0x0001aff0                xpebc_b2dd
                0x0001b3fc                xpebc_b2m_cmt
                0x0001b484                xpebc_b2m
                0x0001b6d0                xpebc_setucsline
                0x0001bb84                xpebc_b2u
                0x0001bd40                xpebc_setucslinesamechk
                0x0001bef0                xpebc_b2ddrecord
                0x0001c028                xpebc_b2ddrecord_copy
                0x0001c124                xpebc_setdbcsspacealtch
 .text          0x0001c284     0x2608 xprint-xpesc.o
                0x0001c284                escformchk
                0x0001c408                escdefaultmax
                0x0001c96c                esccmdsetup
                0x0001d628                canonfontset
                0x0001dc5c                getescdata
                0x0001df20                gethexvalue
                0x0001e06c                escfontchk
                0x0001e6b0                escprntyp
 .text          0x0001e88c     0x1d38 xprint-xphex.o
                0x0001e88c                setprintucsline
                0x0001e8f4                printdump
                0x0001ed2c                puthexline
                0x0001f91c                printdump3
                0x0001faa0                putsameline
                0x0001fc80                datapxline
                0x0001fd50                datapxline_ucs
                0x0001fe68                datapxline_ucsebc
                0x0001ff64                pxline
                0x000200bc                pxline_ucsebc
                0x00020390                xphexresetboundary
 .text          0x000205c4     0x1d3c xprint-xphlp.o
                0x000205c4                helpabridge
                0x00022258                hline
                0x00022298                titlemsg
 .text          0x00022300     0x3054 xprint-xpinp.o
                0x00022300                listgen
                0x000229f4                pathcomp
                0x00022a64                fullpathcomp
                0x00022b28                compare
                0x00022e78                openinput
                0x00023ec0                findfile2
                0x00023f0c                findfile
                0x00023fc0                notfound
                0x000240f8                archoff
                0x00024110                getpath
                0x000241ac                fdatechkmain
                0x000242b0                fdatechk
                0x000244b0                getinput
                0x00024dd4                fileconfirm
                0x000251f0                xpfnmcomp
                0x00025220                xpparsehdrfnm
 .text          0x00025354     0x149c xprint-xpmult.o
                0x00025354                uindirect
                0x000259cc                umultifnlist
                0x00025c14                xpsrchsepc
                0x00025d3c                xpmultdir
                0x00025f4c                xpmult_indirectopt
                0x00026088                xpmult_chkindirectopt
 .text          0x000267f0     0x596c xprint-xppf.o
                0x000267f0                printfile
                0x0002a594                printsubhdr
                0x0002a8b8                header0edit
                0x0002aafc                printhdr
                0x0002afa0                pagenoedit
                0x0002b040                datapline
                0x0002b130                datapline_ucs
                0x0002b1f8                datapline_ucsebc
                0x0002b324                pline
                0x0002b4b0                ufwrite
                0x0002ba8c                keisenconv
                0x0002bb74                getTabon
                0x0002becc                chkTabon
                0x0002c0e4                getTabonAltch
 .text          0x0002c15c      0xc7c xprint-xpsub1.o
                0x0002c15c                getcondts
                0x0002c508                escstopmsg
                0x0002c59c                escstopmsg2
                0x0002c6ac                optionerr
                0x0002c750                os2init
                0x0002c768                breakchk
                0x0002c820                kbdinp
                0x0002c864                dbcsenvchk
                0x0002c898                setupcp
                0x0002ca5c                chkvfmtparm
                0x0002cac8                errexclusive
                0x0002cb14                sub1freadVinit
                0x0002cb98                sub1freadVinitphase
                0x0002cbe4                sub1freadV
 .text          0x0002cdd8      0xee0 xprint-xputf.o
                0x0002cdd8                xputf_open
                0x0002cef8                xputf_getinputfrombuff
                0x0002cfbc                xputf_putinputtobuff
                0x0002d048                xputf_getinput
                0x0002da68                utf_fwrite
 .text          0x0002dcb8      0xe50 ../ulib/libuserxe.a(libuserxe_a-uallocl.o)
                0x0002dcb8                ualloc_init
                0x0002df0c                ugetallocdata
                0x0002e044                ualloc_chk
                0x0002e20c                umalloc
                0x0002e450                ucalloc
                0x0002e6c0                ufree
                0x0002e8f0                uallocsz
                0x0002e93c                ufreesz
                0x0002e98c                uallocmapset
                0x0002eaa0                ufreesizeerr
                0x0002ead4                umallocsizeerr
 .text          0x0002eb08     0x1ad0 ../ulib/libuserxe.a(libuserxe_a-ucvebc.o)
                0x0002eb08                ucvebcinite2uJ
                0x0002ec5c                ucvebc
                0x0002ec74                ucvebc_gettrte2a
                0x0002ec94                ucvebc2asc_handle
                0x0002ed34                ucvasc2ebc_handle
                0x0002edd4                ucvebc2asc
                0x0002f1ec                ucvebc2asc1sbcsJ
                0x0002f36c                ucvebc2ucs1sbcsJ
                0x0002f500                ucvasc2ebc
                0x0002faa8                ucvebc_defaultremap
                0x0002fd88                ucvebcinita2e
                0x0002fef4                ucvkandl
                0x000300e4                ucvebcinitkandl
                0x00030208                ucvebc2_chkprintsbcs
                0x000304e4                ucvebc_chkeolopt
 .text          0x000305d8     0x1718 ../ulib/libuserxe.a(libuserxe_a-ucvebc2.o)
                0x000305d8                ucvebc2
                0x000305f0                ucvebc2_init
                0x00030660                ucvebc2_codecomp
                0x000306a8                ucvebc2_s2e
                0x00030744                ucvebc2_e2s
                0x000307dc                ucvebc2_chkprint
                0x00030aa4                ucvebc2_chkprintnewold
                0x00030d1c                ucvebc2_chkprintdup
                0x00030ec8                ucvebc2_e2ssub
                0x00031108                ucvebc2_s2esub
                0x000311c0                ucvebc2_stre2s
                0x00031470                ucvebc2_ebc2asc1dbcsJ
                0x0003150c                ucvebc2_strs2e
                0x00031ac0                ucvebc2_setsi
                0x00031be4                ucvebc2_setso
 .text          0x00031cf0     0x54c8 ../ulib/libuserxe.a(libuserxe_a-ucvebc3.o)
                0x00031cf0                ucvebc3_getcfgparmconverter
                0x00031ef4                ucvebc3_init_xcv
                0x00031f34                ucvebc3_getconvertersubchar
                0x00031fa8                ucvebc3_setletter
                0x000328dc                ucvebc3_init
                0x00032b50                ucvebc3_cfgerr
                0x00032b78                ucvebc3_b2uSbcs1
                0x00032e60                ucvebc3_b2ddSbcs1
                0x00033050                ucvebc3_b2ddSbcs
                0x00033510                ucvebc3_b2uDbcs1
                0x0003372c                ucvebc3_b2ddDbcs1
                0x0003394c                ucvebc3_b2ddDbcsstr
                0x00033b4c                ucvebc3_b2ddDbcs
                0x00034278                ucvebc3_b2dd
                0x0003436c                ucvebc3_u2b1map
                0x000344ac                ucvebc3_u2b1
                0x00034850                ucvebc3_m2b1Sbcs1
                0x00034a0c                ucvebc3_m2b1
                0x00034d44                ucvebc3_m2b
                0x00035254                ucvebc3_f2b
                0x000358ec                ucvebc3_dd2b
                0x00035fbc                ucvebc3_b2mSbcs
                0x00036688                ucvebc3_b2mDbcsstr
                0x00036928                ucvebc3_b2m
                0x00036e00                ucvebc3_setdbcstbl
                0x00036fa0                ucvebc3_getebc3opt
                0x00037090                ucvebc3_b2f
                0x0003712c                ucvebc3_f2bcmd
 .text          0x000371b8     0x1ee8 ../ulib/libuserxe.a(libuserxe_a-ucvebc32.o)
                0x000371b8                ucvebc_umemspnc
                0x000372a8                ucvebc_umemrspnc
                0x00037398                ucvebc_umemchr
                0x000374cc                ucvebc_umemrchr
                0x000375dc                ucvebc_memcmp_banda
                0x000377b0                ucvebc_memicmp
                0x0003780c                ucvebc_memcmp
                0x00037a6c                ucvebc_umemmemi
                0x00037d58                ucvebc_umemmem
                0x00037ee4                ucvebc_umemrmemi
                0x0003818c                ucvebc_umemrmem
                0x0003831c                ucvebc_unumlen
                0x00038644                ucvebc_asciilen
                0x0003876c                ucvebc_issbcsstr
                0x0003880c                ucvebc_uispunct
                0x00038928                ucvebc_uatoin
                0x00038a54                ucvebc_a2bfld
                0x00038b78                ucvebc_b2afld
                0x00038cb4                ucvebc_umempbrk
                0x00038d9c                ucvebc_umemrpbrk
                0x00038e9c                ucvebc_umemspn
                0x00038f9c                ucvebc_umemrspn
 .text          0x000390a0     0x1c0c ../ulib/libuserxe.a(libuserxe_a-ucvebc4.o)
                0x000390a0                ucvebc4_init
                0x0003912c                ucvebc4_compbyname
                0x00039184                ucvebc4_compbyhandle
                0x000391d4                ucvebc4_srchcveh
                0x00039328                ucvebc4_gethandle
                0x00039418                ucvebc4_getpucveh
                0x00039498                ucvebc4_getcvname
                0x000394fc                ucvebc4_getcvtype
                0x00039680                ucvebc4_createhandle
                0x000397bc                ucvebc4_getparmconverter
                0x000398ec                ucvebc4_chkdbcsconverter
                0x00039a04                ucvebc4_setuphandle
                0x00039b14                ucvebc4_setletter
                0x0003a270                ucvebc4_b2uSbcs1
                0x0003a38c                ucvebc4_b2mSbcs
                0x0003a7b8                ucvebc4_setupsubch
 .text          0x0003acac       0xa8 ../ulib/libuserxe.a(libuserxe_a-ucvebct.o)
                0x0003acac                ucvebc2gettbl
 .text          0x0003ad54     0x6c18 ../ulib/libuserxe.a(libuserxe_a-ucvext.o)
                0x0003ad54                ucvext_cfglineerr
                0x0003ad90                ucvext_cfgdupoption
                0x0003adcc                ucvext_ux2s
                0x0003aeb4                ucvext_cfgmap
                0x0003b02c                ucvext_getcfg
                0x0003be20                ucvext_setdefaultlocalcv
                0x0003bf64                ucvext_getarmso1
                0x0003c1c4                ucvext_getarmso
                0x0003c450                ucvext_getarmdata1
                0x0003c5c0                ucvext_getarmdata
                0x0003c770                chkapiver
                0x0003c92c                ucvext_icuinit_env
                0x0003cbc8                setdatadir
                0x0003cc94                ucvext_mapinit
                0x0003d678                ucvext_setupsubch
                0x0003dc4c                ucvext_loaddll_icudata
                0x0003dee0                ucvext_loaddll
                0x0003df90                ucvext_icuinit
                0x0003e6b4                ucvext_icuenumcvname
                0x0003ea84                ucvext_icuuerrname
                0x0003eaf4                ucvext_icugetdefaultconvertername2
                0x0003ec10                ucvext_getstdcharset
                0x0003efe8                ucvext_icugetdefaultconvertername
                0x0003f128                ucvext_icugetconvertertype
                0x0003f34c                ucvext_icugetsubchars
                0x0003f4d0                ucvext_icusetsubchars
                0x0003f5c4                ucvext_icugetstarter
                0x0003f750                ucvext_icugetconverter
                0x0003fd60                ucvext_getparmconverter
                0x0003ffe4                ucvext_openparmconverter
                0x00040164                ucvext_getcvoption
                0x000404d0                set_internal_CP037
                0x000405b8                ucvext_mapinitsetdefault
                0x000407f4                ucvext_setlocalconverter
                0x000408f0                ucvext_icusubcharchk
                0x00040ca4                ucvext_isdbcs1st
                0x00040d28                chk_converter_is_ebcdic
                0x00040e1c                ucvext_handle0init
                0x00041060                ucvext_icuclose
                0x000410c8                ucvext_icureset
                0x00041130                ucvext_icugetmbconverter
                0x00041210                ucvext_icumbinit12
                0x00041270                ucvext_icumbinit
                0x0004153c                ucvext_setdefaultlocale
                0x0004162c                chkicuversion
                0x000418b8                ucvext_getConverterCfg
 .text          0x0004196c     0x49f4 ../ulib/libuserxe.a(libuserxe_a-ucvext12.o)
                0x0004196c                ucvext12_init
                0x00041ad0                ucvext_icuebc2ucs1
                0x00041d8c                ucvext_iculocal2ucs1
                0x00042080                ucvext_icuucs2ebc1
                0x00042398                ucvext_icuucs2local1
                0x00042664                ucvext_icuebc2mb1
                0x00042ac4                ucvext_icumb2ebc1
                0x00042f84                ucvext_icuebc2mbs_handle
                0x00043004                ucvext_icuebc2mbs
                0x0004330c                ucvext_icumb2ebcdbcs
                0x000438cc                ucvext_icumb2ebcs_handle
                0x0004394c                ucvext_icumb2ebcs
                0x00043e4c                ucvext_icuebc2mbf
                0x00044334                ucvext_icumb2ebcf
                0x00044ad0                ucvext_icumb2ucs1
                0x00044cdc                ucvext_icuucs2mb1
                0x00044f04                ucvext_icuutf2mb1
                0x000450b0                ucvext_icumb2utf1
                0x000452ac                ucvext_icumb2utf
                0x00045554                ucvext_icuisprint
                0x000455f4                ucvext_locale1ICU
                0x000456d8                ucvext_getparmconvertermbICU
                0x00045b10                ucvext_icua2ainit
                0x00045bd4                ucvext_icua2aterm
                0x00045c4c                ucvext_icua2as
                0x0004630c                ucvext_icusubcharchk_handle
 .text          0x00046360     0x1ec0 ../ulib/libuserxe.a(libuserxe_a-ucvext2.o)
                0x00046360                ucvext_iconvmapinit
                0x000463ac                ucvext_iconvgetstarter
                0x00046510                ucvext_iconvgetconvertertype
                0x0004658c                ucvext_iconvgetconverter
                0x000466d0                ucvext_iconvgetparmconverter
                0x000468d8                ucvext_iconvebc2ucs1
                0x00046a48                ucvext_iconvlocal2ucs1
                0x00046d08                ucvext_iconvucs2ebc1
                0x00046e7c                ucvext_iconvucs2local1
                0x00046fe4                ucvext_iconva2as
                0x000475f8                ucvext_iconvb2bs
                0x000477a4                ucvext_iconva2af
                0x00047eb4                ucvext_iconva2ainit
                0x00047fd4                ucvext_iconva2acont
 .text          0x00048220     0x4f64 ../ulib/libuserxe.a(libuserxe_a-ucvucs.o)
                0x00048220                ucp932init
                0x000487a8                ucp932term
                0x00048850                ucp932sjis2ucs
                0x00048920                ucp932ucs2sjis
                0x00048aa4                uccvsjis2ucs
                0x00048bd8                uccvucs2sjis
                0x00048c08                uccvucs2utf
                0x00048e3c                uccvutf2ucs
                0x000491e0                uccvucss2utf
                0x000492c4                uccvutf2ucss
                0x00049490                uccvsjis2ucss
                0x00049510                uccvucss2sjis
                0x00049554                uccvsjis2utf
                0x00049638                uccvutf2sjis
                0x00049704                ucvsucs2utf
                0x00049aa8                ucvsescucs2utf
                0x00049e6c                ucvssjis2utf
                0x0004a238                ucvsmb2utf
                0x0004a598                ucvsutf2ucs
                0x0004a8fc                ucvsutf2sjis
                0x0004ad98                ucvsutf2mb
                0x0004b178                ucvssjis2ucs
                0x0004b49c                ucvsucs2sjis
                0x0004b83c                ucvsescucs2sjis
                0x0004bbc0                ucvfsjis2ucs
                0x0004bde0                ucvfucs2sjis
                0x0004bfe4                ucvfutf2ucs
                0x0004c280                ucvfucs2utf
                0x0004c4ec                ucvfsjis2utf
                0x0004c758                ucvfutf2sjis
                0x0004c9f4                ucvbomchk
                0x0004cb9c                ucvbomset
                0x0004ccf8                ucvsetucss
                0x0004cf28                ucvgetucss
                0x0004d064                ucverrutf
                0x0004d0c4                ucverrucs
                0x0004d124                ucverrsjis
 .text          0x0004d184       0x38 ../ulib/libuserxe.a(libuserxe_a-ucvucst.o)
                0x0004d184                ugetcp932tbl
 .text          0x0004d1bc     0x3084 ../ulib/libuserxe.a(libuserxe_a-udbcschk.o)
                0x0004d1bc                udbcschk_wcinit
                0x0004d55c                udbcschk_getbaseconverter
                0x0004d604                udbcschk_setunprintable
                0x0004d79c                udbcschk_wclocaleinit
                0x0004d908                udbcschk_wclocalereset
                0x0004dd1c                udbcschk_chklocale
                0x0004dddc                udbcschk_getlinuxleadbyte
                0x0004df44                udbcschk
                0x0004e0d0                udbcschk_hk
                0x0004e1bc                udbcschk_getmblen
                0x0004e47c                udbcschk_mblen
                0x0004e54c                udbcschk_mb2nd
                0x0004e6d4                udbcschk_isvalidmbchar
                0x0004e7b8                udbcschk_locale_topbyte
                0x0004e8bc                udbcschk_getdbcs1st
                0x0004e9b0                udbcschk_ismbdbcs1st
                0x0004ea10                udbcschk_locale1
                0x0004ecfc                udbcschk_mb2ucs1
                0x0004ee68                udbcschk_ucs2mb1
                0x0004ef94                udbcschk_forceenglish
                0x0004f000                udbcschkcp
                0x0004f16c                ugetcp
                0x0004f250                udbcsenv
                0x0004f290                udosquerydbcsenv
                0x0004f404                udbcschk2
                0x0004f4c8                udbcschk_pos2offs
                0x0004f6a4                usetdbcstbl
                0x0004fa08                usetdbcstblmb
                0x0004fe78                udbcschk_setlocale
                0x000500c8                udbcschk_setdbcstype
                0x000501e0                udbcschk_icugetlocalconverter
 .text          0x00050240     0x2e38 ../ulib/libuserxe.a(libuserxe_a-udbcsck2.o)
                0x00050240                ujischkx208
                0x00050310                usjischkx208
                0x000503f0                usjis2jis
                0x000504f8                ujis2sjis
                0x000505e8                ustrjis2sjis
                0x00050b00                ustrsjis2jis
                0x00051008                ushift2euc
                0x00051540                ushift2euc1
                0x0005171c                ushift2euccount
                0x0005195c                usjischk
                0x00051c10                ueuc2shift1SS3
                0x00051c40                ueuc2shift
                0x000523cc                ueucchk
                0x00052808                ueuc2shift1
                0x00052a7c                ueuc2shift1c
                0x00052c30                uhan2zen
                0x00052ef4                udbcschktty
                0x00052f78                udbcschk_srchSS2
 .text          0x00053078      0x3dc ../ulib/libuserxe.a(libuserxe_a-udos2.o)
                0x00053078                udos2
                0x00053090                ugetdriveidlist
                0x00053184                ugetdrivelist
                0x00053224                ugetdrivetype
                0x0005334c                udos_setenv
 .text          0x00053454     0x3fe8 ../ulib/libuserxe.a(libuserxe_a-uedit.o)
                0x00053454                uedit
                0x0005346c                unumedit
                0x000537a4                utimeedit
                0x0005431c                uitoa10
                0x00054350                ucmdparmedit
                0x00054a78                ueditenv
                0x00054ea4                uwordrep
                0x00055550                ugethex
                0x000556b0                ugethexdump
                0x00055890                ux2FILESZ
                0x000558c0                ux2l
                0x00055a54                ux2ll
                0x00055b3c                ua2ll
                0x00055b6c                ux2s
                0x00055cc8                ugetnumrange3
                0x00055e40                ugetnumrange2
                0x00055f3c                ugetnumrange2XFILESZ
                0x00056010                ugetnumrange
                0x0005621c                ugetxnumrange
                0x00056640                ugetxnumrangeLL
                0x00056a6c                unumlen
                0x00056cac                uatoin
                0x00056d2c                getKMGTB
                0x00056eb4                ueditFILESZ
                0x00057128                ueditLONGHANDLE
                0x00057330                ueditKMG
 .text          0x0005743c     0x29f8 ../ulib/libuserxe.a(libuserxe_a-uerr.o)
                0x0005743c                uerr
                0x00057454                ubell_init
                0x00057494                ubell_init2
                0x000574c4                ubell
                0x000575dc                uerrexit_init
                0x000576a4                uerrexit_optinit
                0x000576d4                uerrsetopt2
                0x00057738                uerrexit
                0x00057930                uerrmsg_init
                0x00057b10                uerrmsg
                0x00057d20                uerrmsg2
                0x00057ea0                uerrmsgcat
                0x00057fac                uerrsprintf
                0x00058098                uerrfprintfutf
                0x00058504                uerrhelpmsg
                0x000589f0                uerrscrheight
                0x00058aa0                useterrmsg
                0x00058b14                ugeterrmsg
                0x00058b60                ugeterrmsg2
                0x00058ba0                uerrmsgedit
                0x00059534                uconfirmmsg
                0x0005984c                uerrornomsg
                0x00059874                ugeterrdescription
                0x000598f8                uerrapi1
                0x00059940                uerrapi1x
                0x00059984                uerrapi0
                0x000599c0                uerrapi0x
                0x000599f8                uerrapi1t
                0x00059a68                uerrapi1nt
                0x00059abc                uerrapi1tx
                0x00059b28                uerrapi0t
                0x00059b90                uerrapi0tx
                0x00059bf4                uerrnotsupported
                0x00059c38                uerrmsg_initstart
                0x00059cfc                uerrmsg_initstack
                0x00059d60                uerrmsg_initcomp
 *fill*         0x00059e34        0x4 
 .text          0x00059e38      0xec0 ../ulib/libuserxe.a(libuserxe_a-ufemsg.o)
                0x00059e38                ufemsg
                0x00059e50                ufilenotfound
                0x00059e8c                ufilenotfoundotherexist
                0x00059ec8                ufilepatherr
                0x00059f04                ufileapierr
                0x00059f4c                ufileapierr_str
                0x00059fa4                ufiledelpath
                0x00059fe0                ufilereadonly
                0x0005a01c                ufilereadonly2
                0x0005a05c                ufiledeleted
                0x0005a18c                ufileshare
                0x0005a1c8                ufileexist
                0x0005a204                ufileexistcopy
                0x0005a240                ufileexist2
                0x0005a284                ufileexistdir
                0x0005a2c0                ufilenotdir
                0x0005a2fc                ufilediskfull
                0x0005a340                ufilewildtarget
                0x0005a374                ufilewildcarderr
                0x0005a3a8                ufilewildpatherr
                0x0005a3dc                ufileroot
                0x0005a418                ufileapierr2
                0x0005a46c                ufiledirna
                0x0005a4b8                ufileerrdir
                0x0005a4f4                ufilenotvfat
                0x0005a51c                ufilenopermission
                0x0005a560                ufileslinkloop
                0x0005a5b8                ufileerrspecialfile
                0x0005a5f4                ufileerrnotnormal
                0x0005a630                ufileerrdir2file
                0x0005a660                ufileerrnoentry
                0x0005a698                ufileerrnofileentry
                0x0005a6d0                ufileTooLongFullpathName
                0x0005a728                ufileTooLongFullpathName2
                0x0005a888                ufileeditsz
                0x0005ac20                ufileslinktargeterr
                0x0005ac64                ufileopenerrInvalidargument
                0x0005acc0                ufileErrInvalidName
 .text          0x0005acf8     0x3508 ../ulib/libuserxe.a(libuserxe_a-ufile.o)
                0x0005acf8                ufile
                0x0005ad10                ufullpathwildexp
                0x0005b3c4                ufullpathresolvespecialdirid
                0x0005b580                ufilegetpathdir
                0x0005b76c                udirlistnomsg
                0x0005b7cc                udirlist
                0x0005b980                udirlistsub
                0x0005be74                udirlist_set_slinkname
                0x0005bfc8                ufile_udirlist_copy
                0x0005c224                ufile_udirlist_swap
                0x0005c408                ufile_udirlist_alloc1
                0x0005c49c                ufile_udirlist_free
                0x0005c598                udircompare_pointer
                0x0005c608                udirlistsort
                0x0005c7cc                udircomp
                0x0005c810                udircompare
                0x0005d290                udircompsub
                0x0005d3b8                uredirect
                0x0005d800                uredirectrestore
                0x0005d91c                ufdateedit
                0x0005dc5c                uftimeedit
                0x0005de94                uftimeedit_1sec
                0x0005def0                udirlist_chk_max_entry
                0x0005df58                udirlist_setname
                0x0005e134                udirlist_setname_cat
 .text          0x0005e200     0x1b00 ../ulib/libuserxe.a(libuserxe_a-ufile1f.o)
                0x0005e200                uftpfstat
                0x0005e520                uftpwinchk
                0x0005e64c                uftpfullpathnorid
                0x0005e6ac                uftpfullpath
                0x0005ed74                uftppathlen
                0x0005edc4                uftpgetcwd
                0x0005eec4                uftpgethome
                0x0005ef44                uftpgethomesub
                0x0005f118                uftpchdir
                0x0005f2e4                uftpchdirsub
                0x0005f4b4                uftplchdirrespchk
                0x0005f6c0                uftpdirlistsub
                0x0005faa0                uftpfindfirst
                0x0005fbf0                uftpfindfirstfile
                0x0005fc78                uftpfindnext
 .text          0x0005fd00     0x4344 ../ulib/libuserxe.a(libuserxe_a-ufile1l.o)
                0x0005fd00                ufstat
                0x00060570                ufilechkwildmultiple
                0x0006080c                ufstat_wild
                0x0006089c                ufilefscomp
                0x00060914                ufilegetfsid
                0x000609f4                ufilegetftime
                0x00060b04                ufullpath
                0x0006150c                upathlen
                0x0006155c                ugetcwd
                0x00061588                uchdir
                0x000616b4                udosfindfirstnomsg
                0x00061724                udosfindfirst
                0x00061ea0                udosfindnext
                0x00061f10                udosfindnextmsg
                0x00062314                ufilelnxwildselect
                0x00062380                ufilelnxattrselect
                0x00062558                ufilelnxgetmembfstat
                0x00062784                ufilelnxsavehdir
                0x000628b4                ufilelnxsrchhdir
                0x000629bc                ufilelnxclosehdir
                0x00062afc                ufilemode2attr
                0x00062ca8                ufilemktime
                0x00062d60                ufilerepwildname
                0x00062e60                errwildname
                0x00063068                filesrchmountpoint
                0x00063240                filegetdevt
                0x000634c4                filegetdevicename
                0x00063670                filegetdevicemntent
                0x00063790                filegetmntent
                0x00063964                filegetmntoption
                0x00063ac8                ufilegetiocharset
                0x00063bcc                ufilefnmcvcs
                0x00063e10                ufullpathCP
 .text          0x00064044     0x1f08 ../ulib/libuserxe.a(libuserxe_a-ufile1l2.o)
                0x00064044                mtoolsinit
                0x00064070                ufstat_mdos
                0x000645bc                ufilegetmdosattr
                0x000646c0                uopendir_mdos
                0x000649bc                ureaddir_mdos
                0x00064c00                ufilegetmdosdl
                0x00065160                ufilegetmdosattrlist
                0x00065358                ugetcwd_mdos
                0x000654d4                uchdir_mdos
                0x00065570                ustatfs_mdos
                0x000657b0                uminfo
                0x00065a8c                ufilegetnum
                0x00065b90                ufilemdoscmd
                0x00065de8                ufilemdoserrchk
 .text          0x00065f4c     0x4588 ../ulib/libuserxe.a(libuserxe_a-ufile2.o)
                0x00065f4c                ufile2
                0x00065f64                uxddpchk
                0x000663b4                uxddsub
                0x00066c04                uxdelete
                0x00067984                ufilewildxdel
                0x00067bb8                uxdelsub
                0x00068560                uremovenomsg
                0x000685b4                uremove
                0x00068814                urenamenomsg
                0x0006886c                urename2
                0x000688c4                urename
                0x00068fc8                ufilewildrename
                0x00069000                uwildfunc
                0x000693fc                ufilecdirchk
                0x00069794                ufilespfnchk
                0x000697bc                wildchk
                0x00069954                ufilechkwildmemb
                0x00069a84                ufilechkwildname
                0x00069c18                ufileopenexclusivewrite
                0x00069cd4                ufiledelifnotopened
                0x00069db0                ufile2quietmsg
                0x00069ee0                ugetmoveavailablepath
                0x0006a3cc                uwildfunc_LongName
 .text          0x0006a4d4     0x47cc ../ulib/libuserxe.a(libuserxe_a-ufile2f.o)
                0x0006a4d4                uftpmkdir
                0x0006aacc                uftprmdir
                0x0006aed8                uftpremove
                0x0006b31c                uftprename
                0x0006b6c8                uftprenamesub
                0x0006ba9c                uftpwildrename
                0x0006baec                uftpattrib
                0x0006bdf8                uftpattrxon
                0x0006be40                uftpattrxchk
                0x0006c018                uftpgetftime
                0x0006c16c                uftpgetftime_1sec
                0x0006c2e4                uftpsetftime
                0x0006c35c                uftpsetftime2
                0x0006c3d4                uftpcopypathinfo
                0x0006c4fc                uftpsetown
                0x0006c574                uftpsetmod
                0x0006ca54                uftpwildfunc
                0x0006cc80                uftpwildfunc2
                0x0006cff8                uftpmultidel
                0x0006d110                uftpmultirename
                0x0006d228                uftpwildxdel
                0x0006d564                uftpmultidelsub
                0x0006d6f0                uftpmultirenamesub
                0x0006d930                uftpbypassreason
                0x0006d9bc                uftpxdelrchk
                0x0006ddc8                uftpmultidelrchk
                0x0006e064                uftpmultirenamerchk
                0x0006e30c                ufile2putstmt
                0x0006e44c                uftpnotsupported
                0x0006e4a4                uftpnotsupportedforlocal
                0x0006e4fc                uftpdelsubdir
                0x0006e77c                ufile3xdeleteinit
                0x0006e808                uxdelsubftp
                0x0006ec58                errtoolongname
 .text          0x0006eca0     0x19d8 ../ulib/libuserxe.a(libuserxe_a-ufile2l.o)
                0x0006eca0                umkdir
                0x0006ed0c                umkdirmode
                0x0006f040                urmdir
                0x0006f4e4                uattrib
                0x0006f830                uattrxon
                0x0006f8a8                uattrxchk
                0x0006fa88                ugetftime
                0x0006fbc0                ugetftime_1sec
                0x0006fd40                usetftime
                0x0006febc                usetftime_1sec
                0x0006ff18                usetftime2
                0x00070074                ucopypathinfo
                0x00070480                ufilesetown
                0x00070578                ufilesetmod
 .text          0x00070678      0xbc8 ../ulib/libuserxe.a(libuserxe_a-ufile2l2.o)
                0x00070678                umkdir_mdos
                0x00070744                urmdir_mdos
                0x00070858                uattrib_mdos
                0x00070a5c                uremove_mdos
                0x00070b70                urename_mdos
                0x00070c08                ucopy_mdos
                0x00070e9c                uappend_mdos
                0x000711e4                ufilemdoscopyerr
 .text          0x00071240     0x4dd0 ../ulib/libuserxe.a(libuserxe_a-ufile3.o)
                0x00071240                ufile3
                0x00071258                invalidtargetfilename
                0x00071290                uxcopy
                0x00072180                ufilecreateparmproc
                0x000728ec                ufilecpymvflags
                0x00072bb8                ufilewildcopy
                0x00072e58                ucopysub_slinktarget
                0x00072ff8                ucopysub_slink
                0x000732f0                ucopysub
                0x00073a14                udoscopy
                0x00073dcc                uxmove
                0x000747e4                ufilewildmove
                0x00074974                umovesub_slink
                0x000750b0                umovesub
                0x000757e0                ufilecopytschk
                0x000758f8                ufilechkslinkpath
                0x00075b40                ufilegetslinkfinaltarget
                0x00075cc8                ufilesymlink
                0x00075d4c                ufilesymlink_copyfiletime
                0x00075e44                ufilesymlink_copy
                0x00075ef0                ufileerrdirandfile
                0x00075f30                ufileerrslinktarget
                0x00075f74                ufileerrslinkappend
                0x00075fb4                ufileerrnotargetslink
 .text          0x00076010     0x539c ../ulib/libuserxe.a(libuserxe_a-ufile3f.o)
                0x00076010                uftpxmove
                0x000761d8                uftpxcopy
                0x000764d0                uftpxcopyr2r
                0x00076754                uftpupload
                0x00076df4                uftpdownload
                0x00077444                uftptargetflag
                0x000777cc                uftpsourceflag
                0x00077b84                uftps2tchk
                0x00078178                uftpcreateparmproc
                0x000785bc                uftpmoveparmproc
                0x00078870                uftpupdownctl
                0x00079174                uftpgetdirlist
                0x00079248                uftpexistchk1
                0x000794a4                uftpexistchkm
                0x00079a04                uftpcopycallback
                0x0007a228                uftpcopyrchk
                0x0007a9bc                uftpputstmt
                0x0007ab00                uftpputstmt2
                0x0007aca0                uftpcopyftime
                0x0007afec                ufileftpcopytschk
                0x0007b228                uftpmktdir
                0x0007b288                uftperrsourceisroot
                0x0007b2b0                uftperrtargetisnotdir
                0x0007b2e4                uftperrdir2file
                0x0007b324                uftpfileanddir
                0x0007b370                uftpappenddir2dir
 .text          0x0007b3ac     0x2acc ../ulib/libuserxe.a(libuserxe_a-ufile4.o)
                0x0007b3ac                ufile4
                0x0007b3c4                utempnam
                0x0007b6a4                utempnamd
                0x0007b6fc                ufgetpos
                0x0007b72c                udirwalk
                0x0007be64                udirwalksub
                0x0007cf14                ufileslinkoutoflinkchk
                0x0007d3b4                ufileslinkloopchk
                0x0007d858                ufileslinkloopchk2
                0x0007d968                ugetdiskfree
                0x0007dafc                ufileisvfat
                0x0007db30                ufileisntfs
                0x0007db54                ufileisvfatMounted
                0x0007dbd4                ufileisntfsMounted
                0x0007dc54                ufileisMSMounted
                0x0007dd00                ufsetlock
                0x0007dd68                uflock
 .text          0x0007de78     0x4e20 ../ulib/libuserxe.a(libuserxe_a-ufile5.o)
                0x0007de78                ufile5
                0x0007de90                ufgetsinit
                0x0007e2ac                ufgetscurpos
                0x0007e2d4                ufgets_setcurpos
                0x0007e358                ufgets
                0x0007e71c                ufgetssub
                0x0007ed04                ufgetsbinchk_utf8
                0x0007efdc                ufgetsbinchk_ebc
                0x0007f1fc                ufgetsbinchk
                0x0007f6b4                isSameU8c
                0x0007f8fc                udoseditname
                0x000801c0                ufileeditname
                0x00080688                ufilewildcomp
                0x00080a08                ufilewildcompsub
                0x00080bd8                ufilecomp
                0x000810b0                ufilecomptextmode
                0x00081458                ufilecomptextmodefixed
                0x000816e4                ufilecomptextmodesub
                0x00081828                ufreads
                0x00081b08                ufgetsVHeader
                0x00081d90                ufgetsVRecord
                0x00082088                ufgetsV
                0x00082308                ufile5chkvfmt
                0x00082468                ufile5getVfmtstr
                0x0008252c                ufseek
                0x00082568                uftell
                0x00082598                fileeditname_copypath
                0x00082bb4                fileeditname_copypath_err
                0x00082c18                filetouch
 .text          0x00082c98     0x4f50 ../ulib/libuserxe.a(libuserxe_a-uftp.o)
                0x00082c98                uftpfstatroot
                0x00082d40                uftplshome
                0x00082ea8                uftpfstatudl
                0x000831ec                uftpisexist
                0x00083308                uftpopendir
                0x000838e0                uftpreaddir
                0x00083a44                uftpattrselect
                0x00083c0c                uftpgetslinkattr
                0x00083fec                uftpdirlistslink
                0x000845dc                uftpsortslink
                0x00084634                uftpslinkcomp
                0x000846b8                uftpslinklscmd
                0x000849f0                uftplsoutchk
                0x00084d64                uftpmodtimerchk
                0x00085240                uftpmodtimeerr
                0x00085294                uftplsoutchkslinkerrskip
                0x000853c0                uftplsoutchkslink
                0x000854c0                uftpsavehdir
                0x00085608                uftpsrchhdir
                0x000856b4                uftpclosehdir
                0x00085718                uftpmode2attr
                0x00085894                uftpudl2ffb3
                0x00085a44                uftpgetpathname
                0x00085b0c                uftpnodesrch
                0x00085bbc                uftpnodeadd
                0x00085c74                uftpnodedel
                0x00085cd0                uftpnodeclear
                0x00085cec                uftpgethostqhaddr
                0x00085d0c                uftphoststbinit
                0x0008602c                uftpgethostsdata
                0x00087098                uftgetstringopd
                0x00087318                uftpipachk
                0x00087538                uftpgetportno
                0x000875c4                uftpisremote
                0x00087750                uftpisrootdir
                0x000877d4                uftphostscrypt
                0x00087ab0                uftptempnam
                0x00087b0c                uftp_mempswd
                0x00087ba4                uftp_udirlist_setname
 .text          0x00087be8     0x2c2c ../ulib/libuserxe.a(libuserxe_a-uftp2.o)
                0x00087be8                uftpinit
                0x00087d38                uftpterm
                0x00087d80                uftplog
                0x00088154                uftpnodeinit
                0x0008833c                uftpcmd
                0x00088a74                uftpcmdrespchk
                0x00088b80                uftpcmdresphdrchk
                0x00088ca8                uftpcmdsrchrespid
                0x00088f08                uftpsimplerespchk
                0x00088fe0                uftpnextstdo
                0x000890b0                uftpsrchfname
                0x00089278                uftpsrchfnameslink
                0x00089500                uftpgetdl
                0x00089820                uftpgetdl1
                0x00089f28                uftpgetmode
                0x0008a270                uftpgetdlftime
                0x0008a414                uftpgetmonth
                0x0008a490                uftpgetwday
                0x0008a508                uftpajustjst
                0x0008a764                uftpmktempwd
                0x0008a7b0                uftpdeltempwd
 .text          0x0008a814     0x5ab0 ../ulib/libuserxe.a(libuserxe_a-uftp3.o)
                0x0008a814                uftp3setssh
                0x0008aad4                uftp3editpsftpcmd
                0x0008ac14                uftp3cmdrespchk
                0x0008ad30                uftp3cmdresphdrchk
                0x0008ae84                uftp3srchcmdecho
                0x0008afd8                uftp3gethomesub
                0x0008b138                uftp3simplerespchk
                0x0008b2a4                uftp3simplerespchkOK
                0x0008b440                uftp3simplerespchkCHNG
                0x0008b5d0                uftp3lchdirrespchk
                0x0008b63c                uftp3getputrespchk
                0x0008b758                uftp3cdrespchk
                0x0008b894                uftp3setsmb
                0x0008b950                uftp3smb_setcmd
                0x0008bdd0                uftp3smb_editcmdline
                0x0008c088                uftp3smb_nodeinit
                0x0008c134                uftp3smbcmd
                0x0008c1b8                uftp3smb_cmd
                0x0008c6c0                uftp3smb_chkstatuserr
                0x0008c908                uftp3smb_srchresp
                0x0008cb30                uftp3smb_stderrlog
                0x0008cba8                uftp3smb_getdltime
                0x0008cd4c                uftp3smb_getdltimestat
                0x0008ce9c                uftp3smb_setdltime
                0x0008cfcc                uftp3smb_getmode
                0x0008d1fc                uftp3smb_getdirlistctr
                0x0008d244                uftp3smb_getdl1
                0x0008d4b8                uftp3smb_fstatudl
                0x0008d7c8                uftp3smb_fstatudl_byls
                0x0008d9f8                uftp3smb_fstatudl_byls_root
                0x0008dc94                uftp3smb_lsoutchk
                0x0008de18                uftp3smb_getdlattr
                0x0008df10                uftp3smb_fstatdircallback
                0x0008e1b0                uftp3smb_fstatdirrchk
                0x0008e5f8                uftp3smb_fstatoutchk
                0x0008eafc                uftp3smb_putstmt
                0x0008f0a4                uftp3smb_respchk_srchnext
                0x0008f3dc                uftp3smb_respchk
                0x0008f804                uftp3smb_lchdirrespchk
                0x0008f854                uftp3smb_strfname
                0x0008fb04                uftp3smb_enclosefnm
                0x0008fc44                uftp3smb_editcmdparm
                0x0008fde4                uftp3smb_dirnameforlist
                0x0008feb4                uftp3smb_mode2attr_winsub
                0x0008ff44                uftp3smb_mode2attr_win
                0x0008ff94                uftp3smb_strattr
                0x0009007c                uftp3smb_setmod_win
 .text          0x000902c4      0x4b0 ../ulib/libuserxe.a(libuserxe_a-ugcclib.o)
                0x000902c4                strupr
                0x0009032c                strlwr
                0x00090394                memicmp
                0x00090460                stricmp
                0x000904f0                itoa
                0x00090584                kbhit
                0x0009059c                getch_nc
                0x000905bc                getche
                0x000905dc                spawnvp
                0x00090634                spawnv
 .text          0x00090774     0x1d30 ../ulib/libuserxe.a(libuserxe_a-ukbdl.o)
                0x00090774                ukbdpeek
                0x000907a0                ukbdcharin
                0x00090948                ukbdl_init
                0x00090a34                ukbdl_term
                0x00090a4c                ukbdl_setkbmode
                0x00090ad4                ukbdl_shellmode
                0x00090be0                ukbdl_setgetchmode
                0x00090ca0                ukbdl_tcgetattr
                0x00090d40                ukbdl_tcsetattr
                0x00090de4                ukbdl_getch_init
                0x00090e38                ukbdl_getche_init
                0x00090e8c                ukbdl_getch_term
                0x00090ed8                ukbdl_getche_term
                0x00090f24                ukbdl_kbhit
                0x00090f74                ukbdl_getch
                0x00091014                ukbdl_getche
                0x000910b4                ukbdl_gettermid
                0x000911f8                ukbdl_gettermsim
                0x00091730                ukbdl_editstring
                0x000917f8                ukbdsetstatus
                0x000918b0                ukbdl_wcinit
                0x000919b0                ukbdl_readutf8
                0x00091fa4                ukbdl_readdbcs
                0x000922ac                ukbd_simutf8_f2l
 .text          0x000924a4     0x8020 ../ulib/libuserxe.a(libuserxe_a-ukbdlnxc.o)
                0x000924a4                ukbdlnxc_gettbl
                0x00092540                ukbdlnxc_init
                0x000926f0                ukbdlnxc_term
                0x0009276c                ukbdlnxc_getnext
                0x000927f4                ukbdlnxc_read
                0x000929a8                ukbdlnxc_readkbd
                0x0009383c                ukbdlnxc_optproc
                0x000939b8                ukbdlnxc_setupckt
                0x0009407c                ukbdlnxc_setupcktsub
                0x000942e8                ukbdlnxc_setupcktx
                0x000969a4                cktovferr
                0x00096a20                ukbdlnxc_addstrtbl
                0x00096cf8                ukbdlnxc_dupstrchk
                0x00097054                ukbdlnxc_cleanup
                0x000970dc                ukbdlnxc_termexit
                0x00097110                ukbdlnxc_getplainsym
                0x000973e4                ukbdlnxc_chkothersym
                0x00097450                ukbdlnxc_xbsdel
                0x00097554                ukbdlnxc_delopt
                0x00097638                ukbdlnxc_setfunckey
                0x0009781c                ukbdlnxc_setfuncstr
                0x00097c00                ukbdlnxc_setcompose
                0x00097c98                ukbdlnxc_getkeysym
                0x00097d78                ukbdlnxc_setkeysym
                0x00097e58                ukbdlnxc_getstring
                0x00097f28                ukbdlnxc_setstring
                0x00098020                ukbdlnxc_getdiacr
                0x000980cc                ukbdlnxc_setdiacr
                0x00098178                ukbdlnxc_setmetamode
                0x00098384                ukbdlnxc_getconsole
                0x00098508                ukbdlnxc_getptty
                0x00098644                ukbdlnxc_open
                0x000986cc                ukbdlnxc_chkconsole
                0x000986f4                ukbdlnxc_save1st
                0x00098a90                ukbdlnxc_restorelast
                0x0009904c                ukbdlnxc_lockfwrite
                0x000990d0                ukbdlnxc_lockfread
                0x00099154                ukbdlnxc_pidsetlock
                0x00099240                ukbdlnxc_pidresetlock
                0x000992e0                ukbdlnxc_pidchklock
                0x00099398                ukbdlnxc_chngttkey
                0x00099f64                ukbdlnxc_setrctl
                0x0009a098                ukbdlnxc_setrctlstr
                0x0009a49c                uttyname
 .text          0x0009a4c4      0x848 ../ulib/libuserxe.a(libuserxe_a-ukbdlnxm.o)
                0x0009a4c4                ukbdlnxm_mouseopt
                0x0009a5d4                ukbdlnxm_mouseinit
                0x0009a63c                ukbdlnxm_mouseterm
                0x0009a69c                ukbdlnxm_getmouse
                0x0009aaf4                clickchk
 .text          0x0009ad0c     0x22e0 ../ulib/libuserxe.a(libuserxe_a-uparse.o)
                0x0009ad0c                uparsein
                0x0009afb4                uparseindir
                0x0009b128                uparsev
                0x0009b2f0                uparse2
                0x0009b42c                uparse
                0x0009c134                uparsefname
                0x0009c2c0                uparsecmd
                0x0009ca30                uparsecmdin
                0x0009cc88                uparsegetopt
 .text          0x0009cfec     0x3754 ../ulib/libuserxe.a(libuserxe_a-uproc.o)
                0x0009cfec                usystem2
                0x0009d128                usystem
                0x0009d23c                uspawnl
                0x0009d368                uspawnlp
                0x0009d494                uspawnvp
                0x0009d590                uprocopt
                0x0009d65c                uspawnrc
                0x0009d884                uprocerrmem
                0x0009d8c0                uprocerrnotf
                0x0009d8fc                uexecchk
                0x0009dd04                uextdirsrch
                0x0009dd44                ucmdnmcomp
                0x0009dec0                ugetexepath
                0x0009dee4                uproc_getpsinfo
                0x0009e43c                uproc_srchpsinfo
                0x0009e5cc                uproc_freepsinfo
                0x0009e63c                usystem_redirect
                0x0009e924                uspawn_redirect
                0x0009ecfc                uproc_redirectoutchk
                0x0009f678                uspawnvp_pipe
                0x0009facc                uspawnvp_pipeclose
                0x0009fb98                usystem_cmdserverinit
                0x0009fc3c                usystem_cmdserverterm
                0x0009fd78                usystem_cmdserversetup
                0x000a01e8                usystem_cmdtocmdserver
                0x000a0274                usystem_cmdserverreq
                0x000a0680                usystem_cmdserverreqwithoutbuff
                0x000a0714                usystem_pidalivechk
 .text          0x000a0740     0x142c ../ulib/libuserxe.a(libuserxe_a-uproc2.o)
                0x000a0740                uprocparseredirect
                0x000a0b48                uproc_rsh
                0x000a1268                uproc_redirectrewrite
                0x000a1390                uproc_rshlog
                0x000a1460                ugetpid
                0x000a14ac                uprocredirectchk
                0x000a14fc                uproc_loaddllpath
                0x000a1764                uproc_loaddll
                0x000a1914                uproc_getdllproc
                0x000a1a00                uproc_freedll
                0x000a1a5c                uproc_getprocaddr
 .text          0x000a1b6c     0x11dc ../ulib/libuserxe.a(libuserxe_a-uproc4.o)
                0x000a1b6c                uproc_shcmd
                0x000a1c74                uproc_shserverinit
                0x000a1d18                uproc_shserverterm
                0x000a1df0                uproc_shserversetup
                0x000a22b0                uproc_shserverreq
                0x000a26f4                uproc_srchprocessw
                0x000a27b8                uproc_srchprocess
                0x000a289c                uproc_select
                0x000a2c60                uproc4_fdset
                0x000a2cd0                uproc4_fdisset
 .text          0x000a2d48      0x9d4 ../ulib/libuserxe.a(libuserxe_a-uque.o)
                0x000a2d48                uque
                0x000a2d60                uenq
                0x000a3034                udeq
                0x000a3310                uqscan
                0x000a3434                uqfree
                0x000a348c                uqufree
                0x000a34e4                uenqchain
                0x000a35fc                uenqent
                0x000a369c                uqhmove
 .text          0x000a371c      0x274 ../ulib/libuserxe.a(libuserxe_a-ustrcpy.o)
                0x000a371c                ustring_memcpy
                0x000a37d8                ustring_strncpy
                0x000a38f8                ustring_strcpy
 .text          0x000a3990     0x2778 ../ulib/libuserxe.a(libuserxe_a-ustring.o)
                0x000a3990                ustring
                0x000a39a8                ustrnchr
                0x000a3a30                ustrnpbrk
                0x000a3b0c                ustrnspn
                0x000a3c08                ustrrspn
                0x000a3ca8                ustrnrspn
                0x000a3d58                umemrspn
                0x000a3e10                umemspnc
                0x000a3e9c                umemspn_spacetab
                0x000a3f2c                umemrspnc
                0x000a3fbc                ustrnstr
                0x000a40c4                ustrrstr
                0x000a4154                ustrnrstr
                0x000a4240                ustrstri
                0x000a4398                ustrnstri
                0x000a448c                ustrrstri
                0x000a451c                ustrnrstri
                0x000a4608                ustrnrchr
                0x000a46fc                umemchr_utf
                0x000a4898                ustrchr2
                0x000a49e0                ustrnchr2
                0x000a4a2c                umemchr2
                0x000a4b6c                ustrrchr2
                0x000a4cac                ustrnrchr2
                0x000a4cf8                umemrchr2
                0x000a4e0c                umemrchr
                0x000a4e8c                umempbrk
                0x000a4f58                umemrpbrk
                0x000a5028                ustrnlen
                0x000a507c                umemstr
                0x000a50c0                umemstri
                0x000a5104                umemrstr
                0x000a5148                umemrstri
                0x000a518c                umemmem
                0x000a527c                umemmemi
                0x000a547c                umemrmem
                0x000a5574                umemrmemi
                0x000a5758                ustrncpyz
                0x000a57fc                uispunct
                0x000a58c4                uispunctdbcs
                0x000a5ad0                ustrdup
                0x000a5b9c                umemtrim
                0x000a5de8                umemicmpdbcs
                0x000a5ee4                umemstridbcs
                0x000a6004                umemrstridbcs
 .text          0x000a6108       0x70 ../ulib/libuserxe.a(libuserxe_a-utf.o)
                0x000a6108                utf_init
 .text          0x000a6178     0x5ba0 ../ulib/libuserxe.a(libuserxe_a-utf2.o)
                0x000a6178                umbtowc
                0x000a6234                utfpos2offs
                0x000a64c4                utfctr2offs
                0x000a67dc                utfstrchkmbr2wc
                0x000a6c5c                utfcvf2u
                0x000a7164                utfcvl2fmix
                0x000a743c                utfcvl2f
                0x000a7b08                utfcvl2ftab
                0x000a7cc4                utfsetdbcstbl
                0x000a7fc8                utfisvalidutf8
                0x000a80cc                utfgetstrwidth
                0x000a8194                utfisvalidutf8char
                0x000a8324                utfstrvalidate
                0x000a8490                utfgetutf8strlen
                0x000a8608                utfsplitchk
                0x000a882c                utfcvl2fany
                0x000a90b4                utfcvf2l1
                0x000a929c                utfcvf2l
                0x000a9738                utfcvf2lany
                0x000a9cd4                utfcvl2fany1
                0x000a9f38                utfcvl2fany1mb
                0x000aa09c                utfcvl2uany1mb
                0x000aa240                utfcvf2lany1
                0x000aa650                utfcvf2lany1mb
                0x000aa7d4                utfcvu2lany1mb
                0x000aa938                utfcvlocaleinit
                0x000aab64                utfcvsetdefaultlocale
                0x000aacd4                utfcvsetparmlocale
                0x000aae30                utfgetcharset_std
                0x000ab15c                utfgetcharset
                0x000ab380                utflocalechk
                0x000ab400                utfcvlocaleopen
                0x000ab518                utfcvlocaleclose
                0x000ab544                utfcvlocaletclose
                0x000ab584                utfcviconvdbcschk_topbyte
                0x000ab6c0                utfcviconvdbcschk1
                0x000ab82c                utfcvlocaleinitICU
                0x000ab894                utfcvf2lany1ICU
                0x000aba10                utfcvl2fany1ICU
                0x000abbb4                utfcvsetdefaultlocaleICU
                0x000abbf8                utflocalechkICU
                0x000abc60                utfgetstrlenHK
 .text          0x000abd18     0x7bb0 ../ulib/libuserxe.a(libuserxe_a-utf22.o)
                0x000abd18                utfwwapichk
                0x000abf80                utfddflag2sbcsid
                0x000ac018                utfddgetlenflag
                0x000ac2d8                utf22_mapwidth0_rounddown
                0x000ac414                utf22_mapwidth0
                0x000ac62c                utfucsmapinit
                0x000acb3c                utf22setworkdir
                0x000accd4                utf22versionchk
                0x000acecc                utfucsloadmap
                0x000ad0c4                utfucssavemap
                0x000ad258                utfucsmapinit_remap
                0x000ad5e8                utfucsmapmodify
                0x000ad760                utfmapucs2dd
                0x000ad818                utfmapdd2ucs
                0x000ad89c                utfddsetsbcs
                0x000ad964                utfddgetsbcs
                0x000ad9c8                utfgetwcw
                0x000adb08                utfcvu2dd1w
                0x000addd4                utfcvu2dd1
                0x000aded0                utfcvf2dd
                0x000ae1bc                utfdd2u1
                0x000ae228                utfdd2u1vio
                0x000ae304                utfdd2u1chsz
                0x000ae4f8                utfdd2u
                0x000aea24                utfucs42utf16
                0x000aebf0                utfddgetucsctr
                0x000aed6c                utfu2dd
                0x000aef80                utfddcmp
                0x000af87c                utfddicmp
                0x000af9c0                utfcvdd2f
                0x000b0054                utfchkdd
                0x000b013c                utfddisasciistr
                0x000b02b0                utfddissbcsstr
                0x000b0368                utfddasciilen
                0x000b03b0                utfddpos2offs
                0x000b05e8                utfddoffs2pos
                0x000b091c                utfddispunct
                0x000b0b14                utfddmemspnc
                0x000b0c18                utfddmemrspnc
                0x000b0d38                utfddstrnlen
                0x000b0e20                utfddstrlen
                0x000b0ed0                utfddstrnspn
                0x000b0f58                utfddmemspn
                0x000b108c                utfddmemrspn
                0x000b11c4                utfddmemchr
                0x000b12f4                utfddmemchr_nonascii
                0x000b13e8                utfddmemrchr
                0x000b14d0                utfddmemrchr_nonascii
                0x000b1580                utfddmempbrk
                0x000b1660                utfddmempbrk_nonascii
                0x000b1764                utfddmemrpbrk
                0x000b1860                utfddmemrpbrk_nonascii
                0x000b1980                utfddcmpdbcstab
                0x000b1a90                utfddmemmem
                0x000b1d14                utfddmemrmem
                0x000b1e00                utfddnumlen
                0x000b20c4                utfddgetdbcslr
                0x000b2204                utfddgetcsrposbca
                0x000b2598                utfgetvisiblealtch
                0x000b295c                utfgetvisiblealtchprint
                0x000b29f8                utf_setsubchar_dbcs
                0x000b2bfc                utf_subcharcmp
                0x000b2d78                utfmemrchrDD
                0x000b2e34                utfmemchrDD
                0x000b2f10                isASCIIstr
                0x000b2f78                isPrintableASCIIstr
                0x000b2ff0                isPrintableASCIImem
                0x000b307c                utf22_setunpucsvio
                0x000b31b8                utf22_setdbcsspacealt
                0x000b3274                utfsetvisiblealtch
                0x000b33cc                utf22_iswidth0Ovf
                0x000b34c0                utf22_iswidth0DBCS
                0x000b3598                utf_iswidth0
                0x000b36d8                utf_iscombinable
                0x000b3814                utf_iscombining
 .text          0x000b38c8     0x178c ../ulib/libuserxe.a(libuserxe_a-utf3.o)
                0x000b38c8                utfmb2wc
                0x000b3b24                utfwcwidth
                0x000b3db0                utfwcwidthNoMap
                0x000b3f50                utfwcwidthsub
                0x000b4190                utfwcwidthsubNoMap
                0x000b43bc                utfiswide
                0x000b43f4                utfisprint
                0x000b45f8                utfgetwc
                0x000b4694                utftbinit
                0x000b4c0c                utftbfhelp
                0x000b4c2c                utftbterm
                0x000b4c80                utftbsrch
                0x000b4dfc                utftbsrch_jeuc
                0x000b4e68                utftbsrch_cjk
                0x000b4fb0                utf3_wcwidthXXE
 .text          0x000b5054      0xad0 ../ulib/libuserxe.a(libuserxe_a-utf4.o)
                0x000b5158                mk_wcwidth_combining
                0x000b51a4                mk_wcwidth
                0x000b5468                mk_wcwidth_cjk
                0x000b55a4                mk_wcswidth_cjk
                0x000b563c                mk_wcwidth_adjsbcs
                0x000b583c                utf4_isSpacingCombiningMark
                0x000b58f8                utf4_isAmbiguous
                0x000b5a04                utf4_isAmbiguous_XXE
                0x000b5a84                utf4_isFormat
                0x000b5ad8                mk_wcwidth_combining2SCM
 .text          0x000b5b24     0x1754 ../ulib/libuserxe.a(libuserxe_a-utrace.o)
                0x000b5b24                utrace_initmt
                0x000b5b80                utrace_init
                0x000b5de4                utracepop
                0x000b5f50                utracepopf
                0x000b6104                utracepnop
                0x000b6124                utrace_ebc
                0x000b621c                utrace
                0x000b6600                utracectime
                0x000b6824                utraceopen_force
                0x000b69f4                utraceocmsg_force
                0x000b7198                utrace_term
 .text          0x000b7278      0x5b8 ../ulib/libuserxe.a(libuserxe_a-uunxsub.o)
                0x000b7278                ugetugid
                0x000b731c                ugetusername
                0x000b73b4                ugetgroupname
                0x000b744c                usrchugname
                0x000b74b8                uaddugname
                0x000b75ac                unc_setupterm
                0x000b7620                unx_fsetlock
                0x000b76e4                unx_fresetlock
                0x000b7740                unx_fchklock
                0x000b77fc                ugethostname
 .text          0x000b7830     0x65fc ../ulib/libuserxe.a(libuserxe_a-uviom.o)
                0x000b7830                uviom_init
                0x000b7ac8                uviom_setopt2
                0x000b7dc4                uviom_notify
                0x000b7e8c                uvio_wcinit
                0x000b7eec                uviom_savecell
                0x000b7f94                uviom_readcell
                0x000b803c                uvio_mvaddchnstrF
                0x000b86e8                uviom_mvaddwchnstr
                0x000b8758                uvio_mvaddchnstrW_ligature
                0x000b8aac                uvio_mvaddchnstrW_combine
                0x000b90ac                uvio_mvaddchnstrW
                0x000b9370                uviom_cht2cchar
                0x000ba36c                uviom_setcchar_itself
                0x000ba3f4                uviom_setcchar_shadow
                0x000ba4cc                uviom_setcombine1
                0x000ba92c                uviom_setcombine
                0x000bb144                uviom_setcombineSCM
                0x000bb364                uvio_ddcht2cchar
                0x000bc090                uvio_ddcht2cchar_ligature
                0x000bce24                uvio_getcombinectr
                0x000bcf88                uviom_escrep
                0x000bd174                uviom_set_padattr
                0x000bd1d8                uviom_fillattrspace
                0x000bd2f4                uviom_setunpucs
                0x000bd6c4                uviom_attr_itself
                0x000bd768                uviom_ISUCSWIDTH0
                0x000bd8e8                uviom_iscombining
                0x000bdad0                uviom_spaceclear
                0x000bdb28                uviom_clearscr
                0x000bdbc8                uviom_getcombaltchUcs
                0x000bdc50                uviom_getcombaltchU8
 .text          0x000bde2c     0x3914 ../ulib/libuserxe.a(libuserxe_a-uviol.o)
                0x000bde2c                uviol_cell2attr
                0x000bdf6c                uviol_attr2cell
                0x000be048                uviol_repfg
                0x000be0c8                uviol_altcharset
                0x000be210                uvio_initparm
                0x000be268                uviogetmode
                0x000be3fc                uviol_init
                0x000be938                uviol_acssetup
                0x000bea88                uviol_init2
                0x000beab8                uviol_konchk
                0x000bebac                uviol_konchk2
                0x000bec1c                uviol_colorinit
                0x000bee34                uviol_termexit
                0x000bee64                uviol_cleanup
                0x000bef74                uviol_term
                0x000beff8                uviol_beep
                0x000bf034                uviosetmode
                0x000bf06c                uvioreadcellstr
                0x000bf200                uviowrtcellstr
                0x000bf42c                uvioreadcharstr
                0x000bf548                uviowrtcharstr
                0x000bf650                uviowrtcharstratt
                0x000bf84c                uviowrtnattr
                0x000bfa5c                uviowrtncell
                0x000bfbb8                uviowrtnchar
                0x000bfd18                uviogetcurpos
                0x000bfe04                uviosetcurpos
                0x000bff60                uviogetcurtype
                0x000c0010                uviosetcurtype
                0x000c0144                uviowrttty
                0x000c0184                uviol_rgb2colorno
                0x000c039c                uviol_colorno2rgb
                0x000c04f4                uviogetstate
                0x000c07a8                uviosetstate
                0x000c0988                uvioscrolldn
                0x000c0cb4                uvioscrollup
                0x000c0fe0                uviol_clear
                0x000c1018                uviol_clearok
                0x000c1064                uviol_refresh
                0x000c108c                uviol_mvaddchnstr
                0x000c1228                uviol_attrupdate
                0x000c16c0                uviol_set_padattrsub
 .text          0x000c1740     0x3778 ../ulib/libuserxe.a(libuserxe_a-u3270.o)
                0x000c1740                u3270init
                0x000c17a8                u3270fstat
                0x000c1d9c                u3270findfile
                0x000c1fd0                u3270fullpathistso
                0x000c205c                u3270getcwd
                0x000c20e4                u3270chdir
                0x000c2180                u3270fullpath
                0x000c245c                u3270fullpathwildexp
                0x000c2978                u3270getmembname
                0x000c2b1c                u3270chkmembname
                0x000c2c64                u3270getlastname
                0x000c2d3c                u3270getnthname
                0x000c2e44                u3270concatfilename
                0x000c312c                u3270editname
                0x000c34d4                u3270parsedsn
                0x000c3570                u3270parentdsn
                0x000c3710                u3270getsetdsnwild
                0x000c3a30                u3270pathlen
                0x000c3b80                u3270sethostuser
                0x000c3c34                u3270cmdrequest
                0x000c3eac                u3270editrespmsg
                0x000c3fc4                u3270dirlistsub
                0x000c4280                u3270setdirlist
                0x000c4740                u3270srchdirlist
                0x000c480c                u3270setdirlistdsn
                0x000c4ad8                u3270setattr
                0x000c4bf4                u3270getattrstr
                0x000c4e80                u3270errdsnpath
 .text          0x000c4eb8     0x152c ../ulib/libuserxe.a(libuserxe_a-u32702.o)
                0x000c4eb8                u3270mkdir
                0x000c4ef0                u3270rmdir
                0x000c4f20                u3270xddsub
                0x000c50a0                u3270xdelete
                0x000c52b0                u3270wildxdel
                0x000c52e8                u3270xdelsub
                0x000c53f0                u3270remove
                0x000c5554                u3270rename
                0x000c57a4                u3270renamesub
                0x000c5878                u3270wildrename
                0x000c58c8                u3270spfupdate
                0x000c5a98                u3270spfsetparm
                0x000c5fd4                u3270attrib
                0x000c600c                u3270attrxchk
                0x000c6040                u3270getftime
                0x000c6078                u3270setftime
                0x000c60b0                u3270setftime2
                0x000c60e8                u3270copypathinfo
                0x000c6120                u3270setown
                0x000c6158                u3270setmod
                0x000c618c                u3270wildfunc
                0x000c6394                u3270errnotsupported
 .text          0x000c63e4     0x3ab0 ../ulib/libuserxe.a(libuserxe_a-u32703.o)
                0x000c63e4                u3270xmove
                0x000c6554                u3270xcopyr2r
                0x000c681c                u3270xcopy
                0x000c69e4                u3270xcopyget
                0x000c74a0                u3270xcopyput
                0x000c7f54                u3270filecreateparmproc
                0x000c81f8                u3270filecpymvflags
                0x000c874c                u3270filewildcopyget
                0x000c8994                u3270filewildcopyput
                0x000c8cd4                u3270copysubget
                0x000c8f30                u3270copysubput
                0x000c93bc                u3270transfer
                0x000c9920                u3270srcdupchk
                0x000c9b64                u3270copyspfupdate
                0x000c9e08                u3270setftpparm
 .text          0x000c9e94       0x40 ../ulib/libuserxe.a(libuserxe_a-uabend.o)
                0x000c9e94                uabend
 .text          0x000c9ed4     0x417c ../ulib/libuserxe.a(libuserxe_a-ucalc2.o)
                0x000c9ed4                bc_getxdw
                0x000ca028                bc_getld
                0x000ca278                bc_dwbinop
                0x000ca830                bc_twbinop
                0x000cad50                bc_edittod
                0x000caec4                bc_dweditnum64
                0x000caf2c                bc_dweditnum
                0x000cb248                bc_dwupeditnum
                0x000cb410                ucalc_dwmult
                0x000cb664                ucalc_twmult
                0x000cbb2c                ucalc_dwdiv
                0x000cbe0c                ucalc_dwdiv2
                0x000cc144                ucalc_twdiv
                0x000cc2cc                ucalc_twdivbyup
                0x000cc410                ucalc_twshiftup
                0x000cc52c                ucalc_dwshiftdown
                0x000cc65c                ucalc_ltime
                0x000cca7c                ucalc_getdate
                0x000ccc68                ucalc_nextday
                0x000ccf18                ucalc_ld2dw
                0x000cd4b0                ucalc_dw2ld
                0x000cd5bc                ucalc_nsadd
                0x000cd824                ucalc_ldedit
                0x000cd964                ucalc_dwupinit
                0x000cd9c4                ucalc_dwupset
                0x000cdaf4                bc_numfmt2dw
                0x000cdba4                bc_dw2numfmt
                0x000cdc7c                ucalc_dwup2dwandup
                0x000cde20                bc_dword2word
                0x000cdf1c                ucalc_dw2err
                0x000cdf54                ucalc_dw2errresidual
                0x000cdfc8                ucalc_dwuperr
                0x000cdff0                ucalc_dwmaxerr
                0x000ce028                ucalcerrdwordovf
 .text          0x000ce050     0x2890 ../ulib/libuserxe.a(libuserxe_a-uedit2.o)
                0x000ce050                uedit2
                0x000ce068                uasciidump
                0x000ce284                uasciidump_utf
                0x000ce53c                uucsdump
                0x000ce888                ub2x
                0x000ce9b8                ueditfattr
                0x000ced90                ueditfattrspf
                0x000cee64                ueditfattr_mdos
                0x000cefe4                uxdumpline
                0x000cf9e4                xdlputs
                0x000cfa90                ugetdtparm
                0x000cfb8c                ugetdateparm
                0x000cfc00                ugettimeparm
                0x000cfc74                ueditgetftnum
                0x000cff44                ueditsetfdateUSHORT
                0x000cffd8                ueditsetfdate
                0x000d00b8                ueditsetftimeUSHORT
                0x000d014c                ueditsetftime
                0x000d0244                uxdumpstr
                0x000d046c                ueditNowFileTime
                0x000d059c                ueditescrep
 .text          0x000d08e0      0x354 ../ulib/libuserxe.a(libuserxe_a-uehl.o)
                0x000d08e0                useteh
                0x000d09ac                uehl_setsh
                0x000d0a00                ureseteh
                0x000d0ac8                uehl_resetsh
                0x000d0b04                usighandler
 .text          0x000d0c34      0xd74 ../ulib/libuserxe.a(libuserxe_a-uproc22.o)
                0x000d0c34                ukillpid
                0x000d0cd0                uthread
                0x000d0d48                uevent
                0x000d0fb4                uevent_wait1
                0x000d1180                uevent_post1
                0x000d1284                uevent_waitm
                0x000d1468                uevent_postm
                0x000d15a8                uevent_reset1
                0x000d163c                uevent_setuplist
                0x000d17d0                uevent_resetlist
                0x000d1880                ucriticalsection
 .text          0x000d19a8     0x19c4 ../ulib/libuserxe.a(libuserxe_a-uproc3.o)
                0x000d19a8                uproc_gvfsinit
                0x000d1a0c                ushellexec
                0x000d1ec0                ushellexecsub
                0x000d2194                ulnxlgettermpgmopt
                0x000d2318                ulnxlgetshellpgm
                0x000d23e4                ulnxxgettermpgmopt
                0x000d26f8                uproc3pgmchk
                0x000d279c                usystemlnxterm
                0x000d2878                usleepms
                0x000d291c                uprocconnect
                0x000d2bd8                uprocdisconnect
                0x000d2c84                uprocpipeio
                0x000d2e90                startserver
                0x000d2f0c                uprocpiperead
                0x000d2fa0                uprocpiperecevmsg
                0x000d311c                uprocpipeiodata
 .text          0x000d336c     0x5de8 ../ulib/libuserxe.a(libuserxe_a-ucalc.o)
                0x000d336c                ucalc_bcmain
                0x000d41ec                bc_opdchk
                0x000d50d0                getvarname
                0x000d51b0                ucalc_chkvrparm
                0x000d533c                bc_getvalue
                0x000d5a30                ucalc_vrajust
                0x000d5d54                ucalc_o2l
                0x000d5e3c                ucalc_gettimevalue
                0x000d6264                ucalc_getunderpointdata
                0x000d63c8                bc_opdcopy
                0x000d6688                bc_putwordordword
                0x000d6760                bc_expand2dword
                0x000d67fc                ucalc_binop
                0x000d6d98                ucalc_binopsub
                0x000d784c                ucalc_underpoint
                0x000d7b34                ucalc_editnum
                0x000d7cfc                ucalc_editevenhex
                0x000d7d88                ucalc_dwtime
                0x000d7f70                ucalc_time
                0x000d8468                ucalc_timeedit
                0x000d87f8                ucalc_shiftdown
                0x000d8944                ucalc_shiftup
                0x000d8a84                bc_getbase
                0x000d8ac8                calcuperr1
                0x000d8af0                calcuperr2
                0x000d8b18                calcuperr3
                0x000d8b40                calcerrinvalid
                0x000d8b78                calcerrinvalid_dw
                0x000d8bb0                calcerrformat
                0x000d8bd8                calcerrunderflow
                0x000d8c04                calcerrwordovf
                0x000d8c48                calcerrminus
                0x000d8c70                calcerr0div
                0x000d8c98                calcerrtimeop
                0x000d8cc0                bc_getvalue3
                0x000d8f74                bc_setconvtype3
 .text          0x000d9154      0x240 /usr/lib/gcc/arm-linux-gnueabihf/8/libgcc.a(_divsi3.o)
                0x000d9154                __divsi3
                0x000d9154                __aeabi_idiv
                0x000d9374                __aeabi_idivmod
 .text          0x000d9394       0xd4 /usr/lib/gcc/arm-linux-gnueabihf/8/libgcc.a(_aeabi_ldivmod.o)
                0x000d9394                __aeabi_ldivmod
 .text          0x000d9468       0x10 /usr/lib/gcc/arm-linux-gnueabihf/8/libgcc.a(_dvmd_lnx.o)
                0x000d9468                __aeabi_idiv0
                0x000d9468                __aeabi_ldiv0
 .text          0x000d9478      0x128 /usr/lib/gcc/arm-linux-gnueabihf/8/libgcc.a(_udivmoddi4.o)
                0x000d9478                __udivmoddi4
 .text          0x000d95a0       0x64 //usr/lib/arm-linux-gnueabihf/libc_nonshared.a(elf-init.oS)
                0x000d95a0                __libc_csu_init
                0x000d9600                __libc_csu_fini
 .text          0x000d9604       0x10 //usr/lib/arm-linux-gnueabihf/libc_nonshared.a(stat64.oS)
                0x000d9604                stat64
 .text          0x000d9614       0x10 //usr/lib/arm-linux-gnueabihf/libc_nonshared.a(fstat64.oS)
                0x000d9614                fstat64
 .text          0x000d9624       0x10 //usr/lib/arm-linux-gnueabihf/libc_nonshared.a(lstat64.oS)
                0x000d9624                lstat64
 .text          0x000d9634        0x0 /usr/lib/gcc/arm-linux-gnueabihf/8/crtend.o
 .text          0x000d9634        0x0 /usr/lib/gcc/arm-linux-gnueabihf/8/../../../arm-linux-gnueabihf/crtn.o
 *(.gnu.warning)
 *(.glue_7t)
 .glue_7t       0x000d9634        0x0 linker stubs
 *(.glue_7)
 .glue_7        0x000d9634        0x0 linker stubs
 *(.vfp11_veneer)
 .vfp11_veneer  0x000d9634        0x0 linker stubs
 *(.v4_bx)
 .v4_bx         0x000d9634        0x0 linker stubs

.fini           0x000d9634        0x8
 *(SORT_NONE(.fini))
 .fini          0x000d9634        0x4 /usr/lib/gcc/arm-linux-gnueabihf/8/../../../arm-linux-gnueabihf/crti.o
                0x000d9634                _fini
 .fini          0x000d9638        0x4 /usr/lib/gcc/arm-linux-gnueabihf/8/../../../arm-linux-gnueabihf/crtn.o
                [!provide]                PROVIDE (__etext = .)
                [!provide]                PROVIDE (_etext = .)
                [!provide]                PROVIDE (etext = .)

.rodata         0x000d963c    0x11ba1
 *(.rodata .rodata.* .gnu.linkonce.r.*)
 .rodata.cst4   0x000d963c        0x4 /usr/lib/gcc/arm-linux-gnueabihf/8/../../../arm-linux-gnueabihf/crt1.o
                0x000d963c                _IO_stdin_used
 .rodata        0x000d9640     0x1254 xprint-xprint.o
 .rodata        0x000da894       0xe5 xprint-xpdesp.o
 *fill*         0x000da979        0x3 
 .rodata        0x000da97c      0x12d xprint-xpebc.o
 *fill*         0x000daaa9        0x3 
 .rodata        0x000daaac      0x6e5 xprint-xpesc.o
 *fill*         0x000db191        0x3 
 .rodata        0x000db194       0x9e xprint-xphex.o
 *fill*         0x000db232        0x2 
 .rodata        0x000db234     0x34bc xprint-xphlp.o
 .rodata        0x000de6f0      0x7e0 xprint-xpinp.o
 .rodata        0x000deed0      0x271 xprint-xpmult.o
 *fill*         0x000df141        0x3 
 .rodata        0x000df144      0x46d xprint-xppf.o
 *fill*         0x000df5b1        0x3 
 .rodata        0x000df5b4      0x2a3 xprint-xpsub1.o
 *fill*         0x000df857        0x1 
 .rodata        0x000df858      0x120 xprint-xputf.o
 .rodata        0x000df978      0x571 ../ulib/libuserxe.a(libuserxe_a-uallocl.o)
 *fill*         0x000dfee9        0x3 
 .rodata        0x000dfeec      0x88e ../ulib/libuserxe.a(libuserxe_a-ucvebc.o)
 *fill*         0x000e077a        0x2 
 .rodata        0x000e077c      0x221 ../ulib/libuserxe.a(libuserxe_a-ucvebc2.o)
 *fill*         0x000e099d        0x3 
 .rodata        0x000e09a0       0x8f ../ulib/libuserxe.a(libuserxe_a-ucvebc3.o)
 *fill*         0x000e0a2f        0x1 
 .rodata        0x000e0a30       0xac ../ulib/libuserxe.a(libuserxe_a-ucvebc4.o)
 .rodata        0x000e0adc      0x8e8 ../ulib/libuserxe.a(libuserxe_a-ucvext.o)
 .rodata        0x000e13c4       0xca ../ulib/libuserxe.a(libuserxe_a-ucvext12.o)
 *fill*         0x000e148e        0x2 
 .rodata        0x000e1490      0x172 ../ulib/libuserxe.a(libuserxe_a-ucvext2.o)
 *fill*         0x000e1602        0x2 
 .rodata        0x000e1604       0xa2 ../ulib/libuserxe.a(libuserxe_a-ucvucs.o)
 *fill*         0x000e16a6        0x2 
 .rodata        0x000e16a8      0x10c ../ulib/libuserxe.a(libuserxe_a-udbcschk.o)
 .rodata        0x000e17b4        0xc ../ulib/libuserxe.a(libuserxe_a-udbcsck2.o)
 .rodata        0x000e17c0       0x47 ../ulib/libuserxe.a(libuserxe_a-udos2.o)
 *fill*         0x000e1807        0x1 
 .rodata        0x000e1808       0xed ../ulib/libuserxe.a(libuserxe_a-uedit.o)
 *fill*         0x000e18f5        0x3 
 .rodata        0x000e18f8      0x30d ../ulib/libuserxe.a(libuserxe_a-uerr.o)
 *fill*         0x000e1c05        0x3 
 .rodata        0x000e1c08      0x8b9 ../ulib/libuserxe.a(libuserxe_a-ufemsg.o)
 *fill*         0x000e24c1        0x3 
 .rodata        0x000e24c4      0x113 ../ulib/libuserxe.a(libuserxe_a-ufile.o)
 *fill*         0x000e25d7        0x1 
 .rodata        0x000e25d8      0x12b ../ulib/libuserxe.a(libuserxe_a-ufile1f.o)
 *fill*         0x000e2703        0x1 
 .rodata        0x000e2704      0x6a3 ../ulib/libuserxe.a(libuserxe_a-ufile1l.o)
 *fill*         0x000e2da7        0x1 
 .rodata        0x000e2da8      0x10f ../ulib/libuserxe.a(libuserxe_a-ufile1l2.o)
 *fill*         0x000e2eb7        0x1 
 .rodata        0x000e2eb8      0x7e4 ../ulib/libuserxe.a(libuserxe_a-ufile2.o)
 .rodata        0x000e369c      0x357 ../ulib/libuserxe.a(libuserxe_a-ufile2f.o)
 *fill*         0x000e39f3        0x1 
 .rodata        0x000e39f4       0xf6 ../ulib/libuserxe.a(libuserxe_a-ufile2l.o)
 *fill*         0x000e3aea        0x2 
 .rodata        0x000e3aec       0xfc ../ulib/libuserxe.a(libuserxe_a-ufile2l2.o)
 .rodata        0x000e3be8      0x4da ../ulib/libuserxe.a(libuserxe_a-ufile3.o)
 *fill*         0x000e40c2        0x2 
 .rodata        0x000e40c4      0x476 ../ulib/libuserxe.a(libuserxe_a-ufile3f.o)
 *fill*         0x000e453a        0x2 
 .rodata        0x000e453c      0x234 ../ulib/libuserxe.a(libuserxe_a-ufile4.o)
 .rodata        0x000e4770      0x1a6 ../ulib/libuserxe.a(libuserxe_a-ufile5.o)
 *fill*         0x000e4916        0x2 
 .rodata        0x000e4918      0x619 ../ulib/libuserxe.a(libuserxe_a-uftp.o)
 *fill*         0x000e4f31        0x3 
 .rodata        0x000e4f34      0x45c ../ulib/libuserxe.a(libuserxe_a-uftp2.o)
 .rodata        0x000e5390      0x512 ../ulib/libuserxe.a(libuserxe_a-uftp3.o)
 *fill*         0x000e58a2        0x2 
 .rodata        0x000e58a4        0xb ../ulib/libuserxe.a(libuserxe_a-ugcclib.o)
 *fill*         0x000e58af        0x1 
 .rodata        0x000e58b0       0xef ../ulib/libuserxe.a(libuserxe_a-ukbdl.o)
 *fill*         0x000e599f        0x1 
 .rodata        0x000e59a0      0xf2a ../ulib/libuserxe.a(libuserxe_a-ukbdlnxc.o)
 *fill*         0x000e68ca        0x2 
 .rodata        0x000e68cc       0x2d ../ulib/libuserxe.a(libuserxe_a-uparse.o)
 *fill*         0x000e68f9        0x3 
 .rodata        0x000e68fc      0x4fd ../ulib/libuserxe.a(libuserxe_a-uproc.o)
 *fill*         0x000e6df9        0x3 
 .rodata        0x000e6dfc      0x168 ../ulib/libuserxe.a(libuserxe_a-uproc2.o)
 .rodata        0x000e6f64      0x341 ../ulib/libuserxe.a(libuserxe_a-uproc4.o)
 *fill*         0x000e72a5        0x3 
 .rodata        0x000e72a8      0x384 ../ulib/libuserxe.a(libuserxe_a-uque.o)
 .rodata        0x000e762c       0x7e ../ulib/libuserxe.a(libuserxe_a-ustrcpy.o)
 *fill*         0x000e76aa        0x2 
 .rodata        0x000e76ac        0x4 ../ulib/libuserxe.a(libuserxe_a-ustring.o)
 .rodata        0x000e76b0      0x1cc ../ulib/libuserxe.a(libuserxe_a-utf2.o)
 .rodata        0x000e787c      0x325 ../ulib/libuserxe.a(libuserxe_a-utf22.o)
 *fill*         0x000e7ba1        0x3 
 .rodata        0x000e7ba4      0x133 ../ulib/libuserxe.a(libuserxe_a-utf3.o)
 *fill*         0x000e7cd7        0x1 
 .rodata        0x000e7cd8     0x19d0 ../ulib/libuserxe.a(libuserxe_a-utf4.o)
 .rodata        0x000e96a8      0x161 ../ulib/libuserxe.a(libuserxe_a-utrace.o)
 *fill*         0x000e9809        0x3 
 .rodata        0x000e980c       0x98 ../ulib/libuserxe.a(libuserxe_a-uunxsub.o)
 .rodata        0x000e98a4        0x2 ../ulib/libuserxe.a(libuserxe_a-uviom.o)
 *fill*         0x000e98a6        0x2 
 .rodata        0x000e98a8       0x7a ../ulib/libuserxe.a(libuserxe_a-uviol.o)
 *fill*         0x000e9922        0x2 
 .rodata        0x000e9924      0x161 ../ulib/libuserxe.a(libuserxe_a-u3270.o)
 *fill*         0x000e9a85        0x3 
 .rodata        0x000e9a88      0x1ad ../ulib/libuserxe.a(libuserxe_a-u32702.o)
 *fill*         0x000e9c35        0x3 
 .rodata        0x000e9c38      0x395 ../ulib/libuserxe.a(libuserxe_a-u32703.o)
 *fill*         0x000e9fcd        0x3 
 .rodata        0x000e9fd0       0x30 ../ulib/libuserxe.a(libuserxe_a-uabend.o)
 .rodata        0x000ea000      0x7c3 ../ulib/libuserxe.a(libuserxe_a-ucalc2.o)
 *fill*         0x000ea7c3        0x1 
 .rodata        0x000ea7c4       0xbd ../ulib/libuserxe.a(libuserxe_a-uedit2.o)
 *fill*         0x000ea881        0x3 
 .rodata        0x000ea884       0x33 ../ulib/libuserxe.a(libuserxe_a-uehl.o)
 *fill*         0x000ea8b7        0x1 
 .rodata        0x000ea8b8       0x66 ../ulib/libuserxe.a(libuserxe_a-uproc22.o)
 *fill*         0x000ea91e        0x2 
 .rodata        0x000ea920      0x410 ../ulib/libuserxe.a(libuserxe_a-uproc3.o)
 .rodata        0x000ead30      0x4ad ../ulib/libuserxe.a(libuserxe_a-ucalc.o)

.rodata1
 *(.rodata1)

.ARM.extab      0x000eb1dd        0x0
 *(.ARM.extab* .gnu.linkonce.armextab.*)
 .ARM.extab     0x000eb1dd        0x0 /usr/lib/gcc/arm-linux-gnueabihf/8/../../../arm-linux-gnueabihf/crt1.o
 .ARM.extab     0x000eb1dd        0x0 /usr/lib/gcc/arm-linux-gnueabihf/8/libgcc.a(_udivmoddi4.o)
                [!provide]                PROVIDE (__exidx_start = .)

.ARM.exidx      0x000eb1e0        0x8
 *(.ARM.exidx* .gnu.linkonce.armexidx.*)
 .ARM.exidx     0x000eb1e0        0x8 /usr/lib/gcc/arm-linux-gnueabihf/8/../../../arm-linux-gnueabihf/crt1.o
 .ARM.exidx     0x000eb1e8        0x0 /usr/lib/gcc/arm-linux-gnueabihf/8/libgcc.a(_udivmoddi4.o)
                                  0x8 (size before relaxing)
                [!provide]                PROVIDE (__exidx_end = .)

.eh_frame_hdr
 *(.eh_frame_hdr)
 *(.eh_frame_entry .eh_frame_entry.*)

.eh_frame       0x000eb1e8        0x4
 *(.eh_frame)
 .eh_frame      0x000eb1e8        0x4 /usr/lib/gcc/arm-linux-gnueabihf/8/crtend.o
 *(.eh_frame.*)

.gcc_except_table
 *(.gcc_except_table .gcc_except_table.*)

.gnu_extab
 *(.gnu_extab*)

.exception_ranges
 *(.exception_ranges .exception_ranges*)
                0x000fbe08                . = DATA_SEGMENT_ALIGN (CONSTANT (MAXPAGESIZE), CONSTANT (COMMONPAGESIZE))

.eh_frame
 *(.eh_frame)
 *(.eh_frame.*)

.gnu_extab
 *(.gnu_extab)

.gcc_except_table
 *(.gcc_except_table .gcc_except_table.*)

.exception_ranges
 *(.exception_ranges .exception_ranges*)

.tdata          0x000fbe08        0x0
                [!provide]                PROVIDE (__tdata_start = .)
 *(.tdata .tdata.* .gnu.linkonce.td.*)

.tbss
 *(.tbss .tbss.* .gnu.linkonce.tb.*)
 *(.tcommon)

.preinit_array  0x000fbe08        0x0
                [!provide]                PROVIDE (__preinit_array_start = .)
 *(.preinit_array)
                [!provide]                PROVIDE (__preinit_array_end = .)

.init_array     0x000fbe08        0x4
                0x000fbe08                PROVIDE (__init_array_start = .)
 *(SORT_BY_INIT_PRIORITY(.init_array.*) SORT_BY_INIT_PRIORITY(.ctors.*))
 *(.init_array EXCLUDE_FILE(*crtend?.o *crtend.o *crtbegin?.o *crtbegin.o) .ctors)
 .init_array    0x000fbe08        0x4 /usr/lib/gcc/arm-linux-gnueabihf/8/crtbegin.o
                0x000fbe0c                PROVIDE (__init_array_end = .)

.fini_array     0x000fbe0c        0x4
                [!provide]                PROVIDE (__fini_array_start = .)
 *(SORT_BY_INIT_PRIORITY(.fini_array.*) SORT_BY_INIT_PRIORITY(.dtors.*))
 *(.fini_array EXCLUDE_FILE(*crtend?.o *crtend.o *crtbegin?.o *crtbegin.o) .dtors)
 .fini_array    0x000fbe0c        0x4 /usr/lib/gcc/arm-linux-gnueabihf/8/crtbegin.o
                [!provide]                PROVIDE (__fini_array_end = .)

.ctors
 *crtbegin.o(.ctors)
 *crtbegin?.o(.ctors)
 *(EXCLUDE_FILE(*crtend?.o *crtend.o) .ctors)
 *(SORT_BY_NAME(.ctors.*))
 *(.ctors)

.dtors
 *crtbegin.o(.dtors)
 *crtbegin?.o(.dtors)
 *(EXCLUDE_FILE(*crtend?.o *crtend.o) .dtors)
 *(SORT_BY_NAME(.dtors.*))
 *(.dtors)

.jcr
 *(.jcr)

.data.rel.ro    0x000fbe10        0x0
 *(.data.rel.ro.local* .gnu.linkonce.d.rel.ro.local.*)
 *(.data.rel.ro .data.rel.ro.* .gnu.linkonce.d.rel.ro.*)
 .data.rel.ro   0x000fbe10        0x0 /usr/lib/gcc/arm-linux-gnueabihf/8/../../../arm-linux-gnueabihf/crt1.o

.dynamic        0x000fbe10      0x1f0
 *(.dynamic)
 .dynamic       0x000fbe10      0x1f0 /usr/lib/gcc/arm-linux-gnueabihf/8/../../../arm-linux-gnueabihf/crt1.o
                0x000fbe10                _DYNAMIC
                0x000fc000                . = DATA_SEGMENT_RELRO_END (., 0x0)

.got            0x000fc000      0x2f0
 *(.got.plt)
 .got.plt       0x000fc000      0x2ec /usr/lib/gcc/arm-linux-gnueabihf/8/../../../arm-linux-gnueabihf/crt1.o
                0x000fc000                _GLOBAL_OFFSET_TABLE_
 *(.igot.plt)
 .igot.plt      0x000fc2ec        0x0 /usr/lib/gcc/arm-linux-gnueabihf/8/../../../arm-linux-gnueabihf/crt1.o
 *(.got)
 .got           0x000fc2ec        0x4 /usr/lib/gcc/arm-linux-gnueabihf/8/../../../arm-linux-gnueabihf/crt1.o
 *(.igot)

.data           0x000fc2f0    0x2bbcc
                [!provide]                PROVIDE (__data_start = .)
 *(.data .data.* .gnu.linkonce.d.*)
 .data          0x000fc2f0        0x4 /usr/lib/gcc/arm-linux-gnueabihf/8/../../../arm-linux-gnueabihf/crt1.o
                0x000fc2f0                __data_start
                0x000fc2f0                data_start
 .data          0x000fc2f4        0x0 /usr/lib/gcc/arm-linux-gnueabihf/8/../../../arm-linux-gnueabihf/crti.o
 .data          0x000fc2f4        0x4 /usr/lib/gcc/arm-linux-gnueabihf/8/crtbegin.o
                0x000fc2f4                __dso_handle
 .data          0x000fc2f8     0x207c xprint-xprint.o
                0x000fc2f8                pgmid
                0x000fc300                ver
                0x000fc308                tabskip
                0x000fc30c                os
                0x000fc310                Gzoomh
                0x000fc314                Gzoomw
                0x000fc318                maxcol
                0x000fc31c                maxline
                0x000fc320                escsw
                0x000fc324                lineprefixsw
                0x000fc328                ordertype
                0x000fc32c                ordersw
                0x000fc330                prn
                0x000fc334                inputrange2
                0x000fc338                multiprintjob
                0x000fc33c                dumpmode
                0x000fc340                swconfirm
                0x000fc344                outdevprn
                0x000fc348                samechk
                0x000fc34c                dumpwidth
                0x000fc350                pagestart
                0x000fc354                pageend
                0x000fc358                header1outsw
                0x000fc35c                header0outsw
                0x000fc360                inputrangep
                0x000fc364                ffrepl
                0x000fc368                skip1stff
                0x000fc36c                prntyp
                0x000fc370                docnamesw
                0x000fc374                deswkfnpage
                0x000fd374                deswkfnpos
 .data          0x000fe374        0xc xprint-xp2p.o
 .data          0x000fe380        0x0 xprint-xpdesp.o
 .data          0x000fe380        0x0 xprint-xpebc.o
 .data          0x000fe380      0x37c xprint-xpesc.o
                0x000fe380                Gformtype
                0x000fe384                colmax1
 .data          0x000fe6fc       0x11 xprint-xphex.o
 .data          0x000fe70d        0x0 xprint-xphlp.o
 .data          0x000fe70d        0x1 xprint-xpinp.o
 *fill*         0x000fe70e        0x2 
 .data          0x000fe710        0x4 xprint-xpmult.o
 .data          0x000fe714     0x215c xprint-xppf.o
 .data          0x00100870       0x18 xprint-xpsub1.o
 .data          0x00100888        0x0 xprint-xputf.o
 .data          0x00100888     0x1000 ../ulib/libuserxe.a(libuserxe_a-uallocl.o)
 .data          0x00101888      0x248 ../ulib/libuserxe.a(libuserxe_a-ucvebc.o)
 .data          0x00101ad0        0x0 ../ulib/libuserxe.a(libuserxe_a-ucvebc2.o)
 .data          0x00101ad0        0x8 ../ulib/libuserxe.a(libuserxe_a-ucvebc3.o)
 .data          0x00101ad8        0x0 ../ulib/libuserxe.a(libuserxe_a-ucvebc32.o)
 .data          0x00101ad8        0x0 ../ulib/libuserxe.a(libuserxe_a-ucvebc4.o)
 .data          0x00101ad8     0xed30 ../ulib/libuserxe.a(libuserxe_a-ucvebct.o)
 .data          0x00110808      0x316 ../ulib/libuserxe.a(libuserxe_a-ucvext.o)
 .data          0x00110b1e        0x6 ../ulib/libuserxe.a(libuserxe_a-ucvext12.o)
 .data          0x00110b24        0x0 ../ulib/libuserxe.a(libuserxe_a-ucvext2.o)
 .data          0x00110b24       0x28 ../ulib/libuserxe.a(libuserxe_a-ucvucs.o)
 .data          0x00110b4c     0x7cb0 ../ulib/libuserxe.a(libuserxe_a-ucvucst.o)
                0x00110b4c                Scp932tb
 .data          0x001187fc        0x8 ../ulib/libuserxe.a(libuserxe_a-udbcschk.o)
                0x001187fc                Gpdbcstbl
 .data          0x00118804     0x1148 ../ulib/libuserxe.a(libuserxe_a-udbcsck2.o)
 .data          0x0011994c        0x0 ../ulib/libuserxe.a(libuserxe_a-udos2.o)
 .data          0x0011994c        0x0 ../ulib/libuserxe.a(libuserxe_a-uedit.o)
 .data          0x0011994c        0xd ../ulib/libuserxe.a(libuserxe_a-uerr.o)
 .data          0x00119959        0x0 ../ulib/libuserxe.a(libuserxe_a-ufemsg.o)
 *fill*         0x00119959        0x3 
 .data          0x0011995c        0xc ../ulib/libuserxe.a(libuserxe_a-ufile.o)
 .data          0x00119968        0x0 ../ulib/libuserxe.a(libuserxe_a-ufile1f.o)
 .data          0x00119968        0x0 ../ulib/libuserxe.a(libuserxe_a-ufile1l.o)
 .data          0x00119968       0x2c ../ulib/libuserxe.a(libuserxe_a-ufile1l2.o)
 .data          0x00119994        0x0 ../ulib/libuserxe.a(libuserxe_a-ufile2.o)
 .data          0x00119994        0x0 ../ulib/libuserxe.a(libuserxe_a-ufile2f.o)
 .data          0x00119994        0x0 ../ulib/libuserxe.a(libuserxe_a-ufile2l.o)
 .data          0x00119994        0x0 ../ulib/libuserxe.a(libuserxe_a-ufile2l2.o)
 .data          0x00119994        0x0 ../ulib/libuserxe.a(libuserxe_a-ufile3.o)
 .data          0x00119994        0x0 ../ulib/libuserxe.a(libuserxe_a-ufile3f.o)
 .data          0x00119994        0x0 ../ulib/libuserxe.a(libuserxe_a-ufile4.o)
 .data          0x00119994        0x0 ../ulib/libuserxe.a(libuserxe_a-ufile5.o)
 .data          0x00119994       0x10 ../ulib/libuserxe.a(libuserxe_a-uftp.o)
 .data          0x001199a4       0x50 ../ulib/libuserxe.a(libuserxe_a-uftp2.o)
 .data          0x001199f4        0x4 ../ulib/libuserxe.a(libuserxe_a-uftp3.o)
 .data          0x001199f8        0x0 ../ulib/libuserxe.a(libuserxe_a-ugcclib.o)
 .data          0x001199f8        0x0 ../ulib/libuserxe.a(libuserxe_a-ukbdl.o)
 .data          0x001199f8     0xb6bc ../ulib/libuserxe.a(libuserxe_a-ukbdlnxc.o)
 .data          0x001250b4       0x10 ../ulib/libuserxe.a(libuserxe_a-ukbdlnxm.o)
 .data          0x001250c4        0x0 ../ulib/libuserxe.a(libuserxe_a-uparse.o)
 .data          0x001250c4       0x20 ../ulib/libuserxe.a(libuserxe_a-uproc.o)
 .data          0x001250e4        0x0 ../ulib/libuserxe.a(libuserxe_a-uproc2.o)
 .data          0x001250e4        0x0 ../ulib/libuserxe.a(libuserxe_a-uproc4.o)
 .data          0x001250e4        0x0 ../ulib/libuserxe.a(libuserxe_a-uque.o)
 .data          0x001250e4        0x0 ../ulib/libuserxe.a(libuserxe_a-ustrcpy.o)
 .data          0x001250e4       0xfb ../ulib/libuserxe.a(libuserxe_a-ustring.o)
 .data          0x001251df        0x0 ../ulib/libuserxe.a(libuserxe_a-utf.o)
 .data          0x001251df        0x0 ../ulib/libuserxe.a(libuserxe_a-utf2.o)
 *fill*         0x001251df        0x1 
 .data          0x001251e0      0x164 ../ulib/libuserxe.a(libuserxe_a-utf22.o)
 .data          0x00125344      0xe98 ../ulib/libuserxe.a(libuserxe_a-utf3.o)
 .data          0x001261dc        0x0 ../ulib/libuserxe.a(libuserxe_a-utf4.o)
 .data          0x001261dc     0x1928 ../ulib/libuserxe.a(libuserxe_a-utrace.o)
 .data          0x00127b04        0x0 ../ulib/libuserxe.a(libuserxe_a-uunxsub.o)
 .data          0x00127b04        0x4 ../ulib/libuserxe.a(libuserxe_a-uviom.o)
                0x00127b04                Guviomdbcspad
 .data          0x00127b08        0xc ../ulib/libuserxe.a(libuserxe_a-uviol.o)
 .data          0x00127b14        0x4 ../ulib/libuserxe.a(libuserxe_a-u3270.o)
 .data          0x00127b18        0x0 ../ulib/libuserxe.a(libuserxe_a-u32702.o)
 .data          0x00127b18        0x0 ../ulib/libuserxe.a(libuserxe_a-u32703.o)
 .data          0x00127b18        0x0 ../ulib/libuserxe.a(libuserxe_a-uabend.o)
 .data          0x00127b18      0x24c ../ulib/libuserxe.a(libuserxe_a-ucalc2.o)
 .data          0x00127d64       0x78 ../ulib/libuserxe.a(libuserxe_a-uedit2.o)
 .data          0x00127ddc       0x38 ../ulib/libuserxe.a(libuserxe_a-uehl.o)
 .data          0x00127e14        0x0 ../ulib/libuserxe.a(libuserxe_a-uproc22.o)
 .data          0x00127e14       0x54 ../ulib/libuserxe.a(libuserxe_a-uproc3.o)
 .data          0x00127e68       0x54 ../ulib/libuserxe.a(libuserxe_a-ucalc.o)
 .data          0x00127ebc        0x0 /usr/lib/gcc/arm-linux-gnueabihf/8/libgcc.a(_divsi3.o)
 .data          0x00127ebc        0x0 /usr/lib/gcc/arm-linux-gnueabihf/8/libgcc.a(_aeabi_ldivmod.o)
 .data          0x00127ebc        0x0 /usr/lib/gcc/arm-linux-gnueabihf/8/libgcc.a(_dvmd_lnx.o)
 .data          0x00127ebc        0x0 /usr/lib/gcc/arm-linux-gnueabihf/8/libgcc.a(_udivmoddi4.o)
 .data          0x00127ebc        0x0 //usr/lib/arm-linux-gnueabihf/libc_nonshared.a(elf-init.oS)
 .data          0x00127ebc        0x0 //usr/lib/arm-linux-gnueabihf/libc_nonshared.a(stat64.oS)
 .data          0x00127ebc        0x0 //usr/lib/arm-linux-gnueabihf/libc_nonshared.a(fstat64.oS)
 .data          0x00127ebc        0x0 //usr/lib/arm-linux-gnueabihf/libc_nonshared.a(lstat64.oS)
 .data          0x00127ebc        0x0 /usr/lib/gcc/arm-linux-gnueabihf/8/crtend.o
 .data          0x00127ebc        0x0 /usr/lib/gcc/arm-linux-gnueabihf/8/../../../arm-linux-gnueabihf/crtn.o

.tm_clone_table
                0x00127ebc        0x0
 .tm_clone_table
                0x00127ebc        0x0 /usr/lib/gcc/arm-linux-gnueabihf/8/crtbegin.o
 .tm_clone_table
                0x00127ebc        0x0 /usr/lib/gcc/arm-linux-gnueabihf/8/crtend.o

.data1
 *(.data1)
                0x00127ebc                _edata = .
                [!provide]                PROVIDE (edata = .)
                0x00127ebc                . = .
                0x00127ebc                __bss_start = .
                0x00127ebc                __bss_start__ = .

.bss            0x00127ec0   0x15c7b0
 *(.dynbss)
 .dynbss        0x00127ec0      0x230 /usr/lib/gcc/arm-linux-gnueabihf/8/../../../arm-linux-gnueabihf/crt1.o
                0x00127ec0                COLORS@@NCURSESW6_5.1.20000708
                0x00127ec4                LINES@@NCURSES6_TINFO_5.0.19991023
                0x00127ec8                acs_map@@NCURSES6_TINFO_5.0.19991023
                0x001280c8                stdscr@@NCURSES6_TINFO_5.0.19991023
                0x001280cc                cur_term@@NCURSES6_TINFO_5.0.19991023
                0x001280d0                COLS@@NCURSES6_TINFO_5.0.19991023
                0x001280d4                stdout@@GLIBC_2.4
                0x001280d8                COLOR_PAIRS@@NCURSESW6_5.1.20000708
                0x001280e0                stdin@@GLIBC_2.4
                0x001280e8                stderr@@GLIBC_2.4
                0x001280ec                newscr@@NCURSES6_TINFO_5.0.19991023
 *(.bss .bss.* .gnu.linkonce.b.*)
 .bss           0x001280f0        0x0 /usr/lib/gcc/arm-linux-gnueabihf/8/../../../arm-linux-gnueabihf/crt1.o
 .bss           0x001280f0        0x0 /usr/lib/gcc/arm-linux-gnueabihf/8/../../../arm-linux-gnueabihf/crti.o
 .bss           0x001280f0        0x1 /usr/lib/gcc/arm-linux-gnueabihf/8/crtbegin.o
 *fill*         0x001280f1        0x3 
 .bss           0x001280f4       0x78 xprint-xprint.o
                0x001280f4                colomnspec
                0x001280f8                linespec
                0x001280fc                cpitch
                0x00128100                lpitch
                0x00128104                fontstyle
                0x00128108                inputrange1
                0x0012810c                os2sw
                0x00128110                recordsz
                0x00128114                output
                0x00128118                lineskip
                0x0012811c                inputrange1b
                0x00128120                Gcontpageno
                0x00128124                nocrlfsw
                0x00128128                asciimode
                0x0012812c                keisenconvsw
                0x00128130                Gebcdictype
                0x00128134                totfile
                0x00128138                totline
                0x0012813c                totpage
                0x00128140                despagesw
                0x00128144                swsetarchive
                0x00128148                minprnc
                0x0012814c                skip1stff2
                0x00128150                hexdump
                0x00128154                pagebufft
                0x00128158                poswkbufft
 .bss           0x0012816c      0x140 xprint-xp2p.o
 .bss           0x001282ac       0x14 xprint-xpdesp.o
                0x001282ac                despageno
 .bss           0x001282c0     0xcc5c xprint-xpebc.o
 .bss           0x00134f1c       0x10 xprint-xpesc.o
 .bss           0x00134f2c     0x10a0 xprint-xphex.o
 .bss           0x00135fcc        0x0 xprint-xphlp.o
 .bss           0x00135fcc     0x3050 xprint-xpinp.o
 .bss           0x0013901c       0x28 xprint-xpmult.o
 .bss           0x00139044      0x36c xprint-xppf.o
                0x00139044                breakpage
                0x00139048                Gpage2p
                0x0013904c                Gtrailersw
                0x00139050                hdr0linesw
 .bss           0x001393b0     0x1110 xprint-xpsub1.o
 .bss           0x0013a4c0       0x10 xprint-xputf.o
 .bss           0x0013a4d0       0x84 ../ulib/libuserxe.a(libuserxe_a-uallocl.o)
 .bss           0x0013a554      0x790 ../ulib/libuserxe.a(libuserxe_a-ucvebc.o)
 .bss           0x0013ace4       0x10 ../ulib/libuserxe.a(libuserxe_a-ucvebc2.o)
 .bss           0x0013acf4       0x34 ../ulib/libuserxe.a(libuserxe_a-ucvebc3.o)
 .bss           0x0013ad28        0x0 ../ulib/libuserxe.a(libuserxe_a-ucvebc32.o)
 .bss           0x0013ad28        0x4 ../ulib/libuserxe.a(libuserxe_a-ucvebc4.o)
 .bss           0x0013ad2c        0x0 ../ulib/libuserxe.a(libuserxe_a-ucvebct.o)
 .bss           0x0013ad2c     0x1cd4 ../ulib/libuserxe.a(libuserxe_a-ucvext.o)
 .bss           0x0013ca00       0x24 ../ulib/libuserxe.a(libuserxe_a-ucvext12.o)
 .bss           0x0013ca24        0xc ../ulib/libuserxe.a(libuserxe_a-ucvext2.o)
 .bss           0x0013ca30        0xc ../ulib/libuserxe.a(libuserxe_a-ucvucs.o)
 .bss           0x0013ca3c        0x0 ../ulib/libuserxe.a(libuserxe_a-ucvucst.o)
 .bss           0x0013ca3c      0x2f9 ../ulib/libuserxe.a(libuserxe_a-udbcschk.o)
 .bss           0x0013cd35        0x0 ../ulib/libuserxe.a(libuserxe_a-udbcsck2.o)
 .bss           0x0013cd35        0x0 ../ulib/libuserxe.a(libuserxe_a-udos2.o)
 *fill*         0x0013cd35        0x3 
 .bss           0x0013cd38       0xd8 ../ulib/libuserxe.a(libuserxe_a-uedit.o)
 .bss           0x0013ce10     0x40e4 ../ulib/libuserxe.a(libuserxe_a-uerr.o)
 .bss           0x00140ef4       0x20 ../ulib/libuserxe.a(libuserxe_a-ufemsg.o)
 .bss           0x00140f14       0x18 ../ulib/libuserxe.a(libuserxe_a-ufile.o)
 .bss           0x00140f2c        0x4 ../ulib/libuserxe.a(libuserxe_a-ufile1f.o)
 .bss           0x00140f30    0x64658 ../ulib/libuserxe.a(libuserxe_a-ufile1l.o)
 .bss           0x001a5588        0x4 ../ulib/libuserxe.a(libuserxe_a-ufile1l2.o)
 *fill*         0x001a558c        0x4 
 .bss           0x001a5590       0x34 ../ulib/libuserxe.a(libuserxe_a-ufile2.o)
 .bss           0x001a55c4       0x20 ../ulib/libuserxe.a(libuserxe_a-ufile2f.o)
 .bss           0x001a55e4        0x4 ../ulib/libuserxe.a(libuserxe_a-ufile2l.o)
 .bss           0x001a55e8        0x0 ../ulib/libuserxe.a(libuserxe_a-ufile2l2.o)
 .bss           0x001a55e8        0x8 ../ulib/libuserxe.a(libuserxe_a-ufile3.o)
 .bss           0x001a55f0     0x100d ../ulib/libuserxe.a(libuserxe_a-ufile3f.o)
 *fill*         0x001a65fd        0x3 
 .bss           0x001a6600     0x1034 ../ulib/libuserxe.a(libuserxe_a-ufile4.o)
 *fill*         0x001a7634        0x4 
 .bss           0x001a7638       0x5d ../ulib/libuserxe.a(libuserxe_a-ufile5.o)
 *fill*         0x001a7695        0x3 
 .bss           0x001a7698    0x64d00 ../ulib/libuserxe.a(libuserxe_a-uftp.o)
 .bss           0x0020c398        0x8 ../ulib/libuserxe.a(libuserxe_a-uftp2.o)
 .bss           0x0020c3a0        0x0 ../ulib/libuserxe.a(libuserxe_a-uftp3.o)
 .bss           0x0020c3a0        0x4 ../ulib/libuserxe.a(libuserxe_a-ugcclib.o)
 .bss           0x0020c3a4       0xf4 ../ulib/libuserxe.a(libuserxe_a-ukbdl.o)
                0x0020c3a4                Swcstat
 .bss           0x0020c498     0x5808 ../ulib/libuserxe.a(libuserxe_a-ukbdlnxc.o)
 .bss           0x00211ca0        0x8 ../ulib/libuserxe.a(libuserxe_a-ukbdlnxm.o)
 .bss           0x00211ca8      0x205 ../ulib/libuserxe.a(libuserxe_a-uparse.o)
 *fill*         0x00211ead        0x3 
 .bss           0x00211eb0       0x1c ../ulib/libuserxe.a(libuserxe_a-uproc.o)
                0x00211eb0                Sserverstat
                0x00211eb4                Scmdservercallback
                0x00211eb8                Scallbackparm
                0x00211ebc                Scmdserverchildpid
 .bss           0x00211ecc        0x4 ../ulib/libuserxe.a(libuserxe_a-uproc2.o)
 .bss           0x00211ed0       0x1c ../ulib/libuserxe.a(libuserxe_a-uproc4.o)
 .bss           0x00211eec        0x0 ../ulib/libuserxe.a(libuserxe_a-uque.o)
 .bss           0x00211eec        0x0 ../ulib/libuserxe.a(libuserxe_a-ustrcpy.o)
 .bss           0x00211eec        0x0 ../ulib/libuserxe.a(libuserxe_a-ustring.o)
 .bss           0x00211eec        0x0 ../ulib/libuserxe.a(libuserxe_a-utf.o)
 .bss           0x00211eec       0x98 ../ulib/libuserxe.a(libuserxe_a-utf2.o)
 .bss           0x00211f84       0x14 ../ulib/libuserxe.a(libuserxe_a-utf22.o)
 .bss           0x00211f98        0x8 ../ulib/libuserxe.a(libuserxe_a-utf3.o)
 .bss           0x00211fa0        0x4 ../ulib/libuserxe.a(libuserxe_a-utf4.o)
 .bss           0x00211fa4     0x1170 ../ulib/libuserxe.a(libuserxe_a-utrace.o)
 .bss           0x00213114       0x20 ../ulib/libuserxe.a(libuserxe_a-uunxsub.o)
 .bss           0x00213134       0x58 ../ulib/libuserxe.a(libuserxe_a-uviom.o)
 .bss           0x0021318c      0x508 ../ulib/libuserxe.a(libuserxe_a-uviol.o)
 .bss           0x00213694        0xc ../ulib/libuserxe.a(libuserxe_a-u3270.o)
 .bss           0x002136a0       0x10 ../ulib/libuserxe.a(libuserxe_a-u32702.o)
 .bss           0x002136b0     0x1208 ../ulib/libuserxe.a(libuserxe_a-u32703.o)
 .bss           0x002148b8        0x0 ../ulib/libuserxe.a(libuserxe_a-uabend.o)
 .bss           0x002148b8        0x0 ../ulib/libuserxe.a(libuserxe_a-ucalc2.o)
 .bss           0x002148b8      0x268 ../ulib/libuserxe.a(libuserxe_a-uedit2.o)
 .bss           0x00214b20       0x64 ../ulib/libuserxe.a(libuserxe_a-uehl.o)
 .bss           0x00214b84       0x18 ../ulib/libuserxe.a(libuserxe_a-uproc22.o)
 .bss           0x00214b9c       0x10 ../ulib/libuserxe.a(libuserxe_a-uproc3.o)
 .bss           0x00214bac      0x114 ../ulib/libuserxe.a(libuserxe_a-ucalc.o)
 .bss           0x00214cc0        0x0 /usr/lib/gcc/arm-linux-gnueabihf/8/libgcc.a(_divsi3.o)
 .bss           0x00214cc0        0x0 /usr/lib/gcc/arm-linux-gnueabihf/8/libgcc.a(_aeabi_ldivmod.o)
 .bss           0x00214cc0        0x0 /usr/lib/gcc/arm-linux-gnueabihf/8/libgcc.a(_dvmd_lnx.o)
 .bss           0x00214cc0        0x0 /usr/lib/gcc/arm-linux-gnueabihf/8/libgcc.a(_udivmoddi4.o)
 .bss           0x00214cc0        0x0 //usr/lib/arm-linux-gnueabihf/libc_nonshared.a(elf-init.oS)
 .bss           0x00214cc0        0x0 //usr/lib/arm-linux-gnueabihf/libc_nonshared.a(stat64.oS)
 .bss           0x00214cc0        0x0 //usr/lib/arm-linux-gnueabihf/libc_nonshared.a(fstat64.oS)
 .bss           0x00214cc0        0x0 //usr/lib/arm-linux-gnueabihf/libc_nonshared.a(lstat64.oS)
 .bss           0x00214cc0        0x0 /usr/lib/gcc/arm-linux-gnueabihf/8/crtend.o
 .bss           0x00214cc0        0x0 /usr/lib/gcc/arm-linux-gnueabihf/8/../../../arm-linux-gnueabihf/crtn.o
 *(COMMON)
 COMMON         0x00214cc0     0x18e4 xprint-xprint.o
                0x00214cc0                listgensw
                0x00214cc4                poswkbuffc
                0x00214cc8                pagerange
                0x00214d68                recordszV0
                0x00214d6c                databuffc
                0x00214d70                headers
                0x00214f80                Gmsgfile
                0x00214f84                GeoloffsV
                0x00214f88                Gutf8vhexlen
                0x00214f8c                conddate
                0x00214f90                Gcmdlineparms
                0x00214f94                phase2sw
                0x00214f98                swsw2
                0x00214f9c                modeparm
                0x00214fa0                vhexlinex1
                0x00214fa4                pageoutlen
                0x00214fa8                docname
                0x002150a8                Gxpotheropt
                0x002150ac                Linehexdpos
                0x002150b0                vhexlinex2
                0x002150b4                Gebcorgcode
                0x002150b8                readcount
                0x002150bc                swsw4
                0x002150be                conddate2
                0x002150c0                Greccolomnold
                0x002150c4                line
                0x002150c8                esccmdlen
                0x002150cc                fastpathsw
                0x002150d0                condtime2
                0x002150d4                pagefilesw
                0x002150d8                Ghdrfnm
                0x002150dc                Gebcctype
                0x002150e0                header0
                0x002152f0                Geolprintcol
                0x002152f4                cmdfile
                0x002152f8                swgetarchive
                0x002152fc                pagesw
                0x00215300                flist
                0x00215304                onceputsw
                0x00215308                vfmtparm
                0x0021530c                actualmaxc
                0x00215310                puthexfsw
                0x00215314                vhexreadline
                0x00215318                pagepos
                0x0021531c                poswkfsw
                0x00215320                condcode
                0x00215324                swsw1
                0x00215328                recordprintwidth
                0x0021532c                condtime
                0x00215330                reccolomn
                0x00215334                recorddumpcopyoffs
                0x00215338                vhexdump
                0x0021533c                despagecntsw
                0x00215340                eolV
                0x00215344                jobname
                0x00215348                databuffl
                0x0021534c                GoffsV
                0x00215350                input
                0x00215354                Linecharpos
                0x00215358                textmodevhexsw
                0x0021535c                rcount
                0x00215360                printdumpfsw
                0x00215364                swsw3
                0x00215368                eolprintfmt
                0x0021536c                recordszparm
                0x00215370                dbcsenv
                0x00215374                condcode2
                0x00215378                Gptrtfnm
                0x0021537c                flistc
                0x00215380                recordszV
                0x00215384                pagebuffc
                0x00215388                Gparmfname
                0x0021538c                rmax
                0x00215390                swsw5
                0x00215394                databuffsw
                0x00215398                vhexrmax
                0x0021539c                pagefsw
                0x002153a0                recordszVEOL
                0x002153a4                Gdefaultlocalecode
                0x002153e4                pagefile
                0x002153e8                vhexrcount
                0x002153ec                Gvhexlineoffs
                0x002153f0                Gebccfgfname
                0x002153f4                Gxpebchandle
                0x002153f8                realpage
                0x002153fc                pagerangectr
                0x00215400                linespwk
                0x00215408                Sunixexpandfnm
                0x0021540c                inputrangeopt
                0x00215410                Gvhexlinelenhhex
                0x00215414                vhexlinech
                0x00215418                fstat3
                0x00216590                multifile
                0x00216594                Gdatalinenosz
                0x00216598                vfmt
                0x0021659c                databufft
                0x002165a0                Gtraceopt
 COMMON         0x002165a4      0x128 xprint-xpesc.o
                0x002165a4                esccmd
                0x002166a4                topcmd
                0x002166c4                topcmdlen
                0x002166c8                endjobreq
 COMMON         0x002166cc      0x420 xprint-xphex.o
                0x002166cc                Hexline2
                0x002168dc                Hexline1
 COMMON         0x00216aec      0x230 xprint-xppf.o
                0x00216aec                page
                0x00216af0                header1len
                0x00216af4                GtabonTab
                0x00216af8                Gtabonlocale
                0x00216afc                GtabonTabskip
                0x00216b00                Gebctrt
                0x00216b04                GtabonDBCSspace
                0x00216b08                Gtabonutf8
                0x00216b0c                header1
 COMMON         0x00216d1c     0x39c8 xprint-xputf.o
                0x00216d1c                Gcolumnucs
                0x00216d20                Gbuffutf
                0x00219ea0                Gxputfstat
                0x00219ea4                Gbuffucs
 COMMON         0x0021a6e4        0x8 ../ulib/libuserxe.a(libuserxe_a-uallocl.o)
                0x0021a6e4                Gualloc_amount
                0x0021a6e8                Gualloc16_amount
 COMMON         0x0021a6ec     0x9c48 ../ulib/libuserxe.a(libuserxe_a-ucvebc.o)
                0x0021a6ec                Gucvebchctr
                0x0021a6f0                Gucvebch
                0x00224330                Gucvebc_stat
 COMMON         0x00224334       0x10 ../ulib/libuserxe.a(libuserxe_a-ucvebc2.o)
                0x00224334                Snewoldctr
                0x00224338                Se2stctr
                0x0022433c                Sduptctr
                0x00224340                Ss2etctr
 COMMON         0x00224344        0xc ../ulib/libuserxe.a(libuserxe_a-udbcschk.o)
                0x00224344                Gudbcschk_flag
                0x00224348                Gudbcschk_width0top
                0x0022434c                Sdbcschk_hkopt
 COMMON         0x00224350        0x5 ../ulib/libuserxe.a(libuserxe_a-uerr.o)
                0x00224350                Guerropt2
                0x00224354                Guerropt
 *fill*         0x00224355        0x3 
 COMMON         0x00224358        0x8 ../ulib/libuserxe.a(libuserxe_a-ufile.o)
                0x00224358                Gufile_opt
                0x0022435c                Gufile_nomsg
 COMMON         0x00224360       0x88 ../ulib/libuserxe.a(libuserxe_a-uftp2.o)
                0x00224360                Gftperr
                0x00224364                Gftpopt
                0x00224368                Gftpclient
 COMMON         0x002243e8        0x8 ../ulib/libuserxe.a(libuserxe_a-ukbdl.o)
                0x002243e8                Sphiconv
                0x002243ec                Gukbdl_flag
 COMMON         0x002243f0        0x8 ../ulib/libuserxe.a(libuserxe_a-uproc.o)
                0x002243f0                Sfdpiper
                0x002243f4                Sfdpipew
 COMMON         0x002243f8        0xc ../ulib/libuserxe.a(libuserxe_a-utf.o)
                0x002243f8                Gulibutfmode
                0x002243fc                Gutfrc
                0x00224400                Gutfcombaltch
 COMMON         0x00224404    0x60000 ../ulib/libuserxe.a(libuserxe_a-utf22.o)
                0x00224404                Gucs2ddmap_i2u
                0x00244404                Gucs2ddmap
 COMMON         0x00284404      0x104 ../ulib/libuserxe.a(libuserxe_a-utrace.o)
                0x00284404                Gtracehdr
                0x00284504                Slockhandle
 COMMON         0x00284508       0x24 ../ulib/libuserxe.a(libuserxe_a-uviom.o)
                0x00284508                Guviombuffu
                0x0028450c                Guviomopt
                0x00284510                Guviomoptstr
                0x00284514                Guviomopt2
                0x00284518                Gw95buffopt
                0x0028451c                Guviomoptstrucs
 COMMON         0x0028452c        0x4 ../ulib/libuserxe.a(libuserxe_a-uviol.o)
                0x0028452c                Guviol_flag
 COMMON         0x00284530      0x140 ../ulib/libuserxe.a(libuserxe_a-ucalc.o)
                0x00284530                Gucalc_result
                0x00284670                . = ALIGN ((. != 0x0)?0x4:0x1)
                0x00284670                _bss_end__ = .
                0x00284670                __bss_end__ = .
                0x00284670                . = ALIGN (0x4)
                0x00284670                . = SEGMENT_START ("ldata-segment", .)
                0x00284670                . = ALIGN (0x4)
                0x00284670                __end__ = .
                0x00284670                _end = .
                [!provide]                PROVIDE (end = .)
                0x00284670                . = DATA_SEGMENT_END (.)

.stab
 *(.stab)

.stabstr
 *(.stabstr)

.stab.excl
 *(.stab.excl)

.stab.exclstr
 *(.stab.exclstr)

.stab.index
 *(.stab.index)

.stab.indexstr
 *(.stab.indexstr)

.comment        0x00000000       0x23
 *(.comment)
 .comment       0x00000000       0x23 /usr/lib/gcc/arm-linux-gnueabihf/8/crtbegin.o
                                 0x24 (size before relaxing)
 .comment       0x00000023       0x24 xprint-xprint.o
 .comment       0x00000023       0x24 xprint-xp2p.o
 .comment       0x00000023       0x24 xprint-xpdesp.o
 .comment       0x00000023       0x24 xprint-xpebc.o
 .comment       0x00000023       0x24 xprint-xpesc.o
 .comment       0x00000023       0x24 xprint-xphex.o
 .comment       0x00000023       0x24 xprint-xphlp.o
 .comment       0x00000023       0x24 xprint-xpinp.o
 .comment       0x00000023       0x24 xprint-xpmult.o
 .comment       0x00000023       0x24 xprint-xppf.o
 .comment       0x00000023       0x24 xprint-xpsub1.o
 .comment       0x00000023       0x24 xprint-xputf.o
 .comment       0x00000023       0x24 ../ulib/libuserxe.a(libuserxe_a-uallocl.o)
 .comment       0x00000023       0x24 ../ulib/libuserxe.a(libuserxe_a-ucvebc.o)
 .comment       0x00000023       0x24 ../ulib/libuserxe.a(libuserxe_a-ucvebc2.o)
 .comment       0x00000023       0x24 ../ulib/libuserxe.a(libuserxe_a-ucvebc3.o)
 .comment       0x00000023       0x24 ../ulib/libuserxe.a(libuserxe_a-ucvebc32.o)
 .comment       0x00000023       0x24 ../ulib/libuserxe.a(libuserxe_a-ucvebc4.o)
 .comment       0x00000023       0x24 ../ulib/libuserxe.a(libuserxe_a-ucvebct.o)
 .comment       0x00000023       0x24 ../ulib/libuserxe.a(libuserxe_a-ucvext.o)
 .comment       0x00000023       0x24 ../ulib/libuserxe.a(libuserxe_a-ucvext12.o)
 .comment       0x00000023       0x24 ../ulib/libuserxe.a(libuserxe_a-ucvext2.o)
 .comment       0x00000023       0x24 ../ulib/libuserxe.a(libuserxe_a-ucvucs.o)
 .comment       0x00000023       0x24 ../ulib/libuserxe.a(libuserxe_a-ucvucst.o)
 .comment       0x00000023       0x24 ../ulib/libuserxe.a(libuserxe_a-udbcschk.o)
 .comment       0x00000023       0x24 ../ulib/libuserxe.a(libuserxe_a-udbcsck2.o)
 .comment       0x00000023       0x24 ../ulib/libuserxe.a(libuserxe_a-udos2.o)
 .comment       0x00000023       0x24 ../ulib/libuserxe.a(libuserxe_a-uedit.o)
 .comment       0x00000023       0x24 ../ulib/libuserxe.a(libuserxe_a-uerr.o)
 .comment       0x00000023       0x24 ../ulib/libuserxe.a(libuserxe_a-ufemsg.o)
 .comment       0x00000023       0x24 ../ulib/libuserxe.a(libuserxe_a-ufile.o)
 .comment       0x00000023       0x24 ../ulib/libuserxe.a(libuserxe_a-ufile1f.o)
 .comment       0x00000023       0x24 ../ulib/libuserxe.a(libuserxe_a-ufile1l.o)
 .comment       0x00000023       0x24 ../ulib/libuserxe.a(libuserxe_a-ufile1l2.o)
 .comment       0x00000023       0x24 ../ulib/libuserxe.a(libuserxe_a-ufile2.o)
 .comment       0x00000023       0x24 ../ulib/libuserxe.a(libuserxe_a-ufile2f.o)
 .comment       0x00000023       0x24 ../ulib/libuserxe.a(libuserxe_a-ufile2l.o)
 .comment       0x00000023       0x24 ../ulib/libuserxe.a(libuserxe_a-ufile2l2.o)
 .comment       0x00000023       0x24 ../ulib/libuserxe.a(libuserxe_a-ufile3.o)
 .comment       0x00000023       0x24 ../ulib/libuserxe.a(libuserxe_a-ufile3f.o)
 .comment       0x00000023       0x24 ../ulib/libuserxe.a(libuserxe_a-ufile4.o)
 .comment       0x00000023       0x24 ../ulib/libuserxe.a(libuserxe_a-ufile5.o)
 .comment       0x00000023       0x24 ../ulib/libuserxe.a(libuserxe_a-uftp.o)
 .comment       0x00000023       0x24 ../ulib/libuserxe.a(libuserxe_a-uftp2.o)
 .comment       0x00000023       0x24 ../ulib/libuserxe.a(libuserxe_a-uftp3.o)
 .comment       0x00000023       0x24 ../ulib/libuserxe.a(libuserxe_a-ugcclib.o)
 .comment       0x00000023       0x24 ../ulib/libuserxe.a(libuserxe_a-ukbdl.o)
 .comment       0x00000023       0x24 ../ulib/libuserxe.a(libuserxe_a-ukbdlnxc.o)
 .comment       0x00000023       0x24 ../ulib/libuserxe.a(libuserxe_a-ukbdlnxm.o)
 .comment       0x00000023       0x24 ../ulib/libuserxe.a(libuserxe_a-uparse.o)
 .comment       0x00000023       0x24 ../ulib/libuserxe.a(libuserxe_a-uproc.o)
 .comment       0x00000023       0x24 ../ulib/libuserxe.a(libuserxe_a-uproc2.o)
 .comment       0x00000023       0x24 ../ulib/libuserxe.a(libuserxe_a-uproc4.o)
 .comment       0x00000023       0x24 ../ulib/libuserxe.a(libuserxe_a-uque.o)
 .comment       0x00000023       0x24 ../ulib/libuserxe.a(libuserxe_a-ustrcpy.o)
 .comment       0x00000023       0x24 ../ulib/libuserxe.a(libuserxe_a-ustring.o)
 .comment       0x00000023       0x24 ../ulib/libuserxe.a(libuserxe_a-utf.o)
 .comment       0x00000023       0x24 ../ulib/libuserxe.a(libuserxe_a-utf2.o)
 .comment       0x00000023       0x24 ../ulib/libuserxe.a(libuserxe_a-utf22.o)
 .comment       0x00000023       0x24 ../ulib/libuserxe.a(libuserxe_a-utf3.o)
 .comment       0x00000023       0x24 ../ulib/libuserxe.a(libuserxe_a-utf4.o)
 .comment       0x00000023       0x24 ../ulib/libuserxe.a(libuserxe_a-utrace.o)
 .comment       0x00000023       0x24 ../ulib/libuserxe.a(libuserxe_a-uunxsub.o)
 .comment       0x00000023       0x24 ../ulib/libuserxe.a(libuserxe_a-uviom.o)
 .comment       0x00000023       0x24 ../ulib/libuserxe.a(libuserxe_a-uviol.o)
 .comment       0x00000023       0x24 ../ulib/libuserxe.a(libuserxe_a-u3270.o)
 .comment       0x00000023       0x24 ../ulib/libuserxe.a(libuserxe_a-u32702.o)
 .comment       0x00000023       0x24 ../ulib/libuserxe.a(libuserxe_a-u32703.o)
 .comment       0x00000023       0x24 ../ulib/libuserxe.a(libuserxe_a-uabend.o)
 .comment       0x00000023       0x24 ../ulib/libuserxe.a(libuserxe_a-ucalc2.o)
 .comment       0x00000023       0x24 ../ulib/libuserxe.a(libuserxe_a-uedit2.o)
 .comment       0x00000023       0x24 ../ulib/libuserxe.a(libuserxe_a-uehl.o)
 .comment       0x00000023       0x24 ../ulib/libuserxe.a(libuserxe_a-uproc22.o)
 .comment       0x00000023       0x24 ../ulib/libuserxe.a(libuserxe_a-uproc3.o)
 .comment       0x00000023       0x24 ../ulib/libuserxe.a(libuserxe_a-ucalc.o)
 .comment       0x00000023       0x24 /usr/lib/gcc/arm-linux-gnueabihf/8/crtend.o

.ARM.attributes
                0x00000000       0x2f
 .ARM.attributes
                0x00000000       0x2f /usr/lib/gcc/arm-linux-gnueabihf/8/../../../arm-linux-gnueabihf/crt1.o
 .ARM.attributes
                0x0000002f       0x23 /usr/lib/gcc/arm-linux-gnueabihf/8/../../../arm-linux-gnueabihf/crti.o
 .ARM.attributes
                0x00000052       0x2f /usr/lib/gcc/arm-linux-gnueabihf/8/crtbegin.o
 .ARM.attributes
                0x00000081       0x2f xprint-xprint.o
 .ARM.attributes
                0x000000b0       0x2f xprint-xp2p.o
 .ARM.attributes
                0x000000df       0x2f xprint-xpdesp.o
 .ARM.attributes
                0x0000010e       0x2f xprint-xpebc.o
 .ARM.attributes
                0x0000013d       0x2f xprint-xpesc.o
 .ARM.attributes
                0x0000016c       0x2f xprint-xphex.o
 .ARM.attributes
                0x0000019b       0x2f xprint-xphlp.o
 .ARM.attributes
                0x000001ca       0x2f xprint-xpinp.o
 .ARM.attributes
                0x000001f9       0x2f xprint-xpmult.o
 .ARM.attributes
                0x00000228       0x2f xprint-xppf.o
 .ARM.attributes
                0x00000257       0x2f xprint-xpsub1.o
 .ARM.attributes
                0x00000286       0x2f xprint-xputf.o
 .ARM.attributes
                0x000002b5       0x2f ../ulib/libuserxe.a(libuserxe_a-uallocl.o)
 .ARM.attributes
                0x000002e4       0x2f ../ulib/libuserxe.a(libuserxe_a-ucvebc.o)
 .ARM.attributes
                0x00000313       0x2f ../ulib/libuserxe.a(libuserxe_a-ucvebc2.o)
 .ARM.attributes
                0x00000342       0x2f ../ulib/libuserxe.a(libuserxe_a-ucvebc3.o)
 .ARM.attributes
                0x00000371       0x2f ../ulib/libuserxe.a(libuserxe_a-ucvebc32.o)
 .ARM.attributes
                0x000003a0       0x2f ../ulib/libuserxe.a(libuserxe_a-ucvebc4.o)
 .ARM.attributes
                0x000003cf       0x2f ../ulib/libuserxe.a(libuserxe_a-ucvebct.o)
 .ARM.attributes
                0x000003fe       0x2f ../ulib/libuserxe.a(libuserxe_a-ucvext.o)
 .ARM.attributes
                0x0000042d       0x2f ../ulib/libuserxe.a(libuserxe_a-ucvext12.o)
 .ARM.attributes
                0x0000045c       0x2f ../ulib/libuserxe.a(libuserxe_a-ucvext2.o)
 .ARM.attributes
                0x0000048b       0x2f ../ulib/libuserxe.a(libuserxe_a-ucvucs.o)
 .ARM.attributes
                0x000004ba       0x2f ../ulib/libuserxe.a(libuserxe_a-ucvucst.o)
 .ARM.attributes
                0x000004e9       0x2f ../ulib/libuserxe.a(libuserxe_a-udbcschk.o)
 .ARM.attributes
                0x00000518       0x2f ../ulib/libuserxe.a(libuserxe_a-udbcsck2.o)
 .ARM.attributes
                0x00000547       0x2f ../ulib/libuserxe.a(libuserxe_a-udos2.o)
 .ARM.attributes
                0x00000576       0x2f ../ulib/libuserxe.a(libuserxe_a-uedit.o)
 .ARM.attributes
                0x000005a5       0x2f ../ulib/libuserxe.a(libuserxe_a-uerr.o)
 .ARM.attributes
                0x000005d4       0x2f ../ulib/libuserxe.a(libuserxe_a-ufemsg.o)
 .ARM.attributes
                0x00000603       0x2f ../ulib/libuserxe.a(libuserxe_a-ufile.o)
 .ARM.attributes
                0x00000632       0x2f ../ulib/libuserxe.a(libuserxe_a-ufile1f.o)
 .ARM.attributes
                0x00000661       0x2f ../ulib/libuserxe.a(libuserxe_a-ufile1l.o)
 .ARM.attributes
                0x00000690       0x2f ../ulib/libuserxe.a(libuserxe_a-ufile1l2.o)
 .ARM.attributes
                0x000006bf       0x2f ../ulib/libuserxe.a(libuserxe_a-ufile2.o)
 .ARM.attributes
                0x000006ee       0x2f ../ulib/libuserxe.a(libuserxe_a-ufile2f.o)
 .ARM.attributes
                0x0000071d       0x2f ../ulib/libuserxe.a(libuserxe_a-ufile2l.o)
 .ARM.attributes
                0x0000074c       0x2f ../ulib/libuserxe.a(libuserxe_a-ufile2l2.o)
 .ARM.attributes
                0x0000077b       0x2f ../ulib/libuserxe.a(libuserxe_a-ufile3.o)
 .ARM.attributes
                0x000007aa       0x2f ../ulib/libuserxe.a(libuserxe_a-ufile3f.o)
 .ARM.attributes
                0x000007d9       0x2f ../ulib/libuserxe.a(libuserxe_a-ufile4.o)
 .ARM.attributes
                0x00000808       0x2f ../ulib/libuserxe.a(libuserxe_a-ufile5.o)
 .ARM.attributes
                0x00000837       0x2f ../ulib/libuserxe.a(libuserxe_a-uftp.o)
 .ARM.attributes
                0x00000866       0x2f ../ulib/libuserxe.a(libuserxe_a-uftp2.o)
 .ARM.attributes
                0x00000895       0x2f ../ulib/libuserxe.a(libuserxe_a-uftp3.o)
 .ARM.attributes
                0x000008c4       0x2f ../ulib/libuserxe.a(libuserxe_a-ugcclib.o)
 .ARM.attributes
                0x000008f3       0x2f ../ulib/libuserxe.a(libuserxe_a-ukbdl.o)
 .ARM.attributes
                0x00000922       0x2f ../ulib/libuserxe.a(libuserxe_a-ukbdlnxc.o)
 .ARM.attributes
                0x00000951       0x2f ../ulib/libuserxe.a(libuserxe_a-ukbdlnxm.o)
 .ARM.attributes
                0x00000980       0x2f ../ulib/libuserxe.a(libuserxe_a-uparse.o)
 .ARM.attributes
                0x000009af       0x2f ../ulib/libuserxe.a(libuserxe_a-uproc.o)
 .ARM.attributes
                0x000009de       0x2f ../ulib/libuserxe.a(libuserxe_a-uproc2.o)
 .ARM.attributes
                0x00000a0d       0x2f ../ulib/libuserxe.a(libuserxe_a-uproc4.o)
 .ARM.attributes
                0x00000a3c       0x2f ../ulib/libuserxe.a(libuserxe_a-uque.o)
 .ARM.attributes
                0x00000a6b       0x2f ../ulib/libuserxe.a(libuserxe_a-ustrcpy.o)
 .ARM.attributes
                0x00000a9a       0x2f ../ulib/libuserxe.a(libuserxe_a-ustring.o)
 .ARM.attributes
                0x00000ac9       0x2f ../ulib/libuserxe.a(libuserxe_a-utf.o)
 .ARM.attributes
                0x00000af8       0x2f ../ulib/libuserxe.a(libuserxe_a-utf2.o)
 .ARM.attributes
                0x00000b27       0x2f ../ulib/libuserxe.a(libuserxe_a-utf22.o)
 .ARM.attributes
                0x00000b56       0x2f ../ulib/libuserxe.a(libuserxe_a-utf3.o)
 .ARM.attributes
                0x00000b85       0x2f ../ulib/libuserxe.a(libuserxe_a-utf4.o)
 .ARM.attributes
                0x00000bb4       0x2f ../ulib/libuserxe.a(libuserxe_a-utrace.o)
 .ARM.attributes
                0x00000be3       0x2f ../ulib/libuserxe.a(libuserxe_a-uunxsub.o)
 .ARM.attributes
                0x00000c12       0x2f ../ulib/libuserxe.a(libuserxe_a-uviom.o)
 .ARM.attributes
                0x00000c41       0x2f ../ulib/libuserxe.a(libuserxe_a-uviol.o)
 .ARM.attributes
                0x00000c70       0x2f ../ulib/libuserxe.a(libuserxe_a-u3270.o)
 .ARM.attributes
                0x00000c9f       0x2f ../ulib/libuserxe.a(libuserxe_a-u32702.o)
 .ARM.attributes
                0x00000cce       0x2f ../ulib/libuserxe.a(libuserxe_a-u32703.o)
 .ARM.attributes
                0x00000cfd       0x2f ../ulib/libuserxe.a(libuserxe_a-uabend.o)
 .ARM.attributes
                0x00000d2c       0x2f ../ulib/libuserxe.a(libuserxe_a-ucalc2.o)
 .ARM.attributes
                0x00000d5b       0x2f ../ulib/libuserxe.a(libuserxe_a-uedit2.o)
 .ARM.attributes
                0x00000d8a       0x2f ../ulib/libuserxe.a(libuserxe_a-uehl.o)
 .ARM.attributes
                0x00000db9       0x2f ../ulib/libuserxe.a(libuserxe_a-uproc22.o)
 .ARM.attributes
                0x00000de8       0x2f ../ulib/libuserxe.a(libuserxe_a-uproc3.o)
 .ARM.attributes
                0x00000e17       0x2f ../ulib/libuserxe.a(libuserxe_a-ucalc.o)
 .ARM.attributes
                0x00000e46       0x1d /usr/lib/gcc/arm-linux-gnueabihf/8/libgcc.a(_divsi3.o)
 .ARM.attributes
                0x00000e63       0x1d /usr/lib/gcc/arm-linux-gnueabihf/8/libgcc.a(_aeabi_ldivmod.o)
 .ARM.attributes
                0x00000e80       0x1d /usr/lib/gcc/arm-linux-gnueabihf/8/libgcc.a(_dvmd_lnx.o)
 .ARM.attributes
                0x00000e9d       0x2f /usr/lib/gcc/arm-linux-gnueabihf/8/libgcc.a(_udivmoddi4.o)
 .ARM.attributes
                0x00000ecc       0x31 //usr/lib/arm-linux-gnueabihf/libc_nonshared.a(elf-init.oS)
 .ARM.attributes
                0x00000efd       0x31 //usr/lib/arm-linux-gnueabihf/libc_nonshared.a(stat64.oS)
 .ARM.attributes
                0x00000f2e       0x31 //usr/lib/arm-linux-gnueabihf/libc_nonshared.a(fstat64.oS)
 .ARM.attributes
                0x00000f5f       0x31 //usr/lib/arm-linux-gnueabihf/libc_nonshared.a(lstat64.oS)
 .ARM.attributes
                0x00000f90       0x2f /usr/lib/gcc/arm-linux-gnueabihf/8/crtend.o
 .ARM.attributes
                0x00000fbf       0x23 /usr/lib/gcc/arm-linux-gnueabihf/8/../../../arm-linux-gnueabihf/crtn.o

.debug
 *(.debug)

.line
 *(.line)

.debug_srcinfo
 *(.debug_srcinfo)

.debug_sfnames
 *(.debug_sfnames)

.debug_aranges
 *(.debug_aranges)

.debug_pubnames
 *(.debug_pubnames)

.debug_info
 *(.debug_info .gnu.linkonce.wi.*)

.debug_abbrev
 *(.debug_abbrev)

.debug_line
 *(.debug_line .debug_line.* .debug_line_end)

.debug_frame
 *(.debug_frame)

.debug_str
 *(.debug_str)

.debug_loc
 *(.debug_loc)

.debug_macinfo
 *(.debug_macinfo)

.debug_weaknames
 *(.debug_weaknames)

.debug_funcnames
 *(.debug_funcnames)

.debug_typenames
 *(.debug_typenames)

.debug_varnames
 *(.debug_varnames)

.debug_pubtypes
 *(.debug_pubtypes)

.debug_ranges
 *(.debug_ranges)

.debug_macro
 *(.debug_macro)

.debug_addr
 *(.debug_addr)

.gnu.attributes
 *(.gnu.attributes)

.note.gnu.arm.ident
 *(.note.gnu.arm.ident)

/DISCARD/
 *(.note.GNU-stack)
 *(.gnu_debuglink)
 *(.gnu.lto_*)
OUTPUT(xprint elf32-littlearm)
