Archive member included to satisfy reference by file (symbol)

../ulib/libuserxe.a(libuserxe_a-u3270.o)
                              xe-xetso.o (u3270init)
../ulib/libuserxe.a(libuserxe_a-u32702.o)
                              xe-xedlcmd3.o (u3270spfupdate)
../ulib/libuserxe.a(libuserxe_a-u32703.o)
                              xe-xetso.o (u3270xcopy)
../ulib/libuserxe.a(libuserxe_a-uabend.o)
                              xe-xe.o (uabend)
../ulib/libuserxe.a(libuserxe_a-uallocl.o)
                              xe-xe.o (ualloc_init)
../ulib/libuserxe.a(libuserxe_a-ucalc.o)
                              xe-xecalc.o (Gucalc_result)
../ulib/libuserxe.a(libuserxe_a-ucalc2.o)
                              xe-xecalc22.o (bc_getxdw)
../ulib/libuserxe.a(libuserxe_a-ucvebc.o)
                              xe-xecalc21.o (Gucvebch)
../ulib/libuserxe.a(libuserxe_a-ucvebc2.o)
                              ../ulib/libuserxe.a(libuserxe_a-ucvebc.o) (ucvebc2_stre2s)
../ulib/libuserxe.a(libuserxe_a-ucvebc3.o)
                              xe-xeebc.o (ucvebc3_init)
../ulib/libuserxe.a(libuserxe_a-ucvebc32.o)
                              xe-xecalc22.o (ucvebc_umemspnc)
../ulib/libuserxe.a(libuserxe_a-ucvebc4.o)
                              xe-xeebc.o (ucvebc4_createhandle)
../ulib/libuserxe.a(libuserxe_a-ucvebct.o)
                              ../ulib/libuserxe.a(libuserxe_a-ucvebc2.o) (ucvebc2gettbl)
../ulib/libuserxe.a(libuserxe_a-ucvext.o)
                              ../ulib/libuserxe.a(libuserxe_a-ucvebc3.o) (ucvext_mapinit)
../ulib/libuserxe.a(libuserxe_a-ucvext12.o)
                              ../ulib/libuserxe.a(libuserxe_a-ucvext.o) (ucvext12_init)
../ulib/libuserxe.a(libuserxe_a-ucvext2.o)
                              ../ulib/libuserxe.a(libuserxe_a-ucvext.o) (ucvext_iconvmapinit)
../ulib/libuserxe.a(libuserxe_a-ucvucs.o)
                              xe-xefcmd5.o (ucp932init)
../ulib/libuserxe.a(libuserxe_a-ucvucst.o)
                              ../ulib/libuserxe.a(libuserxe_a-ucvucs.o) (ugetcp932tbl)
../ulib/libuserxe.a(libuserxe_a-udbcschk.o)
                              xe-xe.o (Gudbcschk_flag)
../ulib/libuserxe.a(libuserxe_a-udbcsck2.o)
                              xe-xefcmd5.o (ustrjis2sjis)
../ulib/libuserxe.a(libuserxe_a-udos2.o)
                              xe-xe.o (ugetdriveidlist)
../ulib/libuserxe.a(libuserxe_a-uedit.o)
                              xe-xedir2.o (unumedit)
../ulib/libuserxe.a(libuserxe_a-uedit2.o)
                              xe-xefile22.o (ub2x)
../ulib/libuserxe.a(libuserxe_a-uehl.o)
                              xe-xe.o (useteh)
../ulib/libuserxe.a(libuserxe_a-uerr.o)
                              xe-xedlcmd6.o (Guerropt)
../ulib/libuserxe.a(libuserxe_a-ufemsg.o)
                              xe-xedcmd.o (ufilenotfound)
../ulib/libuserxe.a(libuserxe_a-ufile.o)
                              ../ulib/libuserxe.a(libuserxe_a-u32702.o) (Gufile_nomsg)
../ulib/libuserxe.a(libuserxe_a-ufile12.o)
                              xe-xedlcmd6.o (ufilegetlastname)
../ulib/libuserxe.a(libuserxe_a-ufile1f.o)
                              xe-xedcmd2.o (uftpfstat)
../ulib/libuserxe.a(libuserxe_a-ufile1l.o)
                              xe-xe.o (ufstat)
../ulib/libuserxe.a(libuserxe_a-ufile1l2.o)
                              ../ulib/libuserxe.a(libuserxe_a-ufile1l.o) (ufstat_mdos)
../ulib/libuserxe.a(libuserxe_a-ufile2.o)
                              xe-xedcmd.o (uxddpchk)
../ulib/libuserxe.a(libuserxe_a-ufile2f.o)
                              ../ulib/libuserxe.a(libuserxe_a-ufile2.o) (uftpremove)
../ulib/libuserxe.a(libuserxe_a-ufile2l.o)
                              xe-xe.o (umkdir)
../ulib/libuserxe.a(libuserxe_a-ufile2l2.o)
                              ../ulib/libuserxe.a(libuserxe_a-ufile2l.o) (umkdir_mdos)
../ulib/libuserxe.a(libuserxe_a-ufile3.o)
                              xe-xedcmd.o (uxcopy)
../ulib/libuserxe.a(libuserxe_a-ufile3f.o)
                              ../ulib/libuserxe.a(libuserxe_a-ufile3.o) (uftpxmove)
../ulib/libuserxe.a(libuserxe_a-ufile4.o)
                              xe-xe.o (utempnam)
../ulib/libuserxe.a(libuserxe_a-ufile5.o)
                              xe-xefcmd.o (ufgetsinit)
../ulib/libuserxe.a(libuserxe_a-uftp.o)
                              ../ulib/libuserxe.a(libuserxe_a-ufile1f.o) (uftpfstatudl)
../ulib/libuserxe.a(libuserxe_a-uftp2.o)
                              xe-xeftp.o (Gftpopt)
../ulib/libuserxe.a(libuserxe_a-uftp3.o)
                              ../ulib/libuserxe.a(libuserxe_a-uftp.o) (uftp3setssh)
../ulib/libuserxe.a(libuserxe_a-ugcclib.o)
                              xe-xecsr.o (strupr)
../ulib/libuserxe.a(libuserxe_a-ukbdl.o)
                              xe-xekbd.o (ukbdpeek)
../ulib/libuserxe.a(libuserxe_a-ukbdlnxc.o)
                              ../ulib/libuserxe.a(libuserxe_a-ukbdl.o) (ukbdlnxc_init)
../ulib/libuserxe.a(libuserxe_a-ukbdlnxm.o)
                              xe-xemainl.o (ukbdlnxm_mouseopt)
../ulib/libuserxe.a(libuserxe_a-uparse.o)
                              xe-xedcmd3.o (uparsein)
../ulib/libuserxe.a(libuserxe_a-uproc.o)
                              xe-xesyn2.o (usystem2)
../ulib/libuserxe.a(libuserxe_a-uproc2.o)
                              xe-xedcmd2.o (uprocparseredirect)
../ulib/libuserxe.a(libuserxe_a-uproc3.o)
                              xe-xedlcmd6.o (ushellexec)
../ulib/libuserxe.a(libuserxe_a-uproc4.o)
                              xe-xesyn2.o (uproc_shcmd)
../ulib/libuserxe.a(libuserxe_a-uque.o)
                              xe-xedir.o (uenq)
../ulib/libuserxe.a(libuserxe_a-ustrcpy.o)
                              xe-xe.o (ustring_memcpy)
../ulib/libuserxe.a(libuserxe_a-ustring.o)
                              xe-xechar12.o (ustrnlen)
../ulib/libuserxe.a(libuserxe_a-utf.o)
                              xe-xefile23.o (Gulibutfmode)
../ulib/libuserxe.a(libuserxe_a-utf2.o)
                              xe-xechar12.o (utfpos2offs)
../ulib/libuserxe.a(libuserxe_a-utf22.o)
                              ../ulib/libuserxe.a(libuserxe_a-udbcschk.o) (utfucsmapinit)
../ulib/libuserxe.a(libuserxe_a-utf3.o)
                              ../ulib/libuserxe.a(libuserxe_a-utf2.o) (utfmb2wc)
../ulib/libuserxe.a(libuserxe_a-utf4.o)
                              ../ulib/libuserxe.a(libuserxe_a-utf3.o) (mk_wcwidth)
../ulib/libuserxe.a(libuserxe_a-utrace.o)
                              ../ulib/libuserxe.a(libuserxe_a-uftp2.o) (Gtracehdr)
../ulib/libuserxe.a(libuserxe_a-uunxsub.o)
                              xe-xe.o (ugetugid)
../ulib/libuserxe.a(libuserxe_a-uviom.o)
                              xe-xeopt2.o (Guviomdbcspad)
../ulib/libuserxe.a(libuserxe_a-uviol.o)
                              ../ulib/libuserxe.a(libuserxe_a-uerr.o) (Guviol_flag)
../ulib/libuserxe.a(libuserxe_a-uproc22.o)
                              ../ulib/libuserxe.a(libuserxe_a-utrace.o) (ucriticalsection)
/usr/lib/gcc/arm-linux-gnueabihf/8/libgcc.a(_udivsi3.o)
                              xe-xescr.o (__aeabi_uidiv)
/usr/lib/gcc/arm-linux-gnueabihf/8/libgcc.a(_divsi3.o)
                              xe-xefcmd.o (__aeabi_idiv)
/usr/lib/gcc/arm-linux-gnueabihf/8/libgcc.a(_aeabi_ldivmod.o)
                              xe-xetso.o (__aeabi_ldivmod)
/usr/lib/gcc/arm-linux-gnueabihf/8/libgcc.a(_dvmd_lnx.o)
                              /usr/lib/gcc/arm-linux-gnueabihf/8/libgcc.a(_aeabi_ldivmod.o) (__aeabi_ldiv0)
/usr/lib/gcc/arm-linux-gnueabihf/8/libgcc.a(_udivmoddi4.o)
                              /usr/lib/gcc/arm-linux-gnueabihf/8/libgcc.a(_aeabi_ldivmod.o) (__udivmoddi4)
//usr/lib/arm-linux-gnueabihf/libc_nonshared.a(elf-init.oS)
                              /usr/lib/gcc/arm-linux-gnueabihf/8/../../../arm-linux-gnueabihf/crt1.o (__libc_csu_init)
//usr/lib/arm-linux-gnueabihf/libc_nonshared.a(stat64.oS)
                              ../ulib/libuserxe.a(libuserxe_a-ufile1l.o) (stat64)
//usr/lib/arm-linux-gnueabihf/libc_nonshared.a(lstat64.oS)
                              ../ulib/libuserxe.a(libuserxe_a-ufile1l.o) (lstat64)

Allocating common symbols
Common symbol       size              file

Sescsrchchar2       0xf0              xe-xefcmd2.o
Gucs2ddmap_i2u      0x20000           ../ulib/libuserxe.a(libuserxe_a-utf22.o)
Gdcmd2wxeshellcmd   0x4               xe-xe.o
Guviombuffu         0x4               ../ulib/libuserxe.a(libuserxe_a-uviom.o)
Gopteol             0x1               xe-xeopt.o
Scolorfoffs         0x4               xe-xesyn2.o
Gcappcw             0x4               xe-xe.o
Gdcmdtempf          0x4               xe-xedcmd4.o
Sphasesw            0x1               xe-xefcmd2.o
Grepwordebcdbcs     0xf0              xe-xefcmd2.o
Scolorfsz           0x4               xe-xesyn2.o
Gcapplh2            0x4               xe-xe.o
Gsrchebcdata2       0xf0              xe-xefcmd2.o
Gopt2_fc43          0x4               xe-xefcmd43.o
Ggrepcmd            0x4               xe-xegbl.o
Slinerangesw        0x4               xe-xefcmd2.o
Srepwordlen         0x4               xe-xefcmd2.o
Gufile_opt          0x4               ../ulib/libuserxe.a(libuserxe_a-ufile.o)
Gunpdispchartble    0x4               xe-xe.o
Gcmdbuffsz_row      0x4               xe-xedcmd2.o
Gopteol2            0x1               xe-xeopt.o
Stabsrchsw2         0x1               xe-xefcmd2.o
Gvalidchartbl       0x4               xe-xe.o
Sphiconv            0x4               ../ulib/libuserxe.a(libuserxe_a-ukbdl.o)
Stabsrchsw          0x1               xe-xefcmd2.o
Snewoldctr          0x4               ../ulib/libuserxe.a(libuserxe_a-ucvebc2.o)
Gftperr             0x4               ../ulib/libuserxe.a(libuserxe_a-uftp2.o)
Gfiletabdisp1       0x1               xe-xe.o
Sescreplen          0x1               xe-xefcmd2.o
Ghelpdir            0x1000            xe-xe.o
Gscrheight          0x4               xe-xe.o
Gcmdstack           0x10              xe-xe.o
Giniopt             0x1               xe-xe.o
Sutilcolstart       0x4               xe-xepan23.o
Gnxsw               0x4               xe-xefcmd2.o
Gscrconfreqid       0x4               xe-xe.o
Gcalcplh2           0x4               xe-xe.o
Gulibutfmode        0x4               ../ulib/libuserxe.a(libuserxe_a-utf.o)
Gopt4               0x1               xe-xe.o
Se2stctr            0x4               ../ulib/libuserxe.a(libuserxe_a-ucvebc2.o)
Gcmdbuffdbcs        0x13c2            xe-xe.o
Gtracehdr           0x100             ../ulib/libuserxe.a(libuserxe_a-utrace.o)
GfindcmdSplit       0xc               xe-xefcmd2.o
Ggroupid            0x4               xe-xegbl.o
Gebcstat            0x4               xe-xeebc.o
Sfdpiper            0x4               ../ulib/libuserxe.a(libuserxe_a-uproc.o)
Guserid             0x4               xe-xegbl.o
Gutfrc              0x4               ../ulib/libuserxe.a(libuserxe_a-utf.o)
Sdirsrchlen         0x4               xe-xefcmd26.o
Sexcludesw          0x1               xe-xefcmd2.o
Gscrdbcstbl         0x4               xe-xe.o
Gfhwidthtxt         0x2               xe-xe.o
Srepword            0xf0              xe-xefcmd2.o
Gcapplh1            0x4               xe-xe.o
Gcmdbuffct          0x13c2            xe-xe.o
Sescsrchlen2        0x1               xe-xefcmd2.o
Gualloc_amount      0x4               ../ulib/libuserxe.a(libuserxe_a-uallocl.o)
Ssrchword           0xf0              xe-xefcmd2.o
Guviomopt           0x4               ../ulib/libuserxe.a(libuserxe_a-uviom.o)
Slockhandle         0x4               ../ulib/libuserxe.a(libuserxe_a-utrace.o)
Supctrsw            0x1               xe-xefcmd2.o
Gcmdbuff            0x13c2            xe-xe.o
Sindexfsz           0x4               xe-xesyn2.o
Gucvebchctr         0x4               ../ulib/libuserxe.a(libuserxe_a-ucvebc.o)
Gfilebuff2          0x4               xe-xe.o
Gudbcschk_flag      0x4               ../ulib/libuserxe.a(libuserxe_a-udbcschk.o)
Guerropt2           0x4               ../ulib/libuserxe.a(libuserxe_a-uerr.o)
Sduptctr            0x4               ../ulib/libuserxe.a(libuserxe_a-ucvebc2.o)
Gversion            0x4               xe-xe.o
Gpallassigntbl      0x16              xe-xe.o
Gopt2               0x1               xe-xe.o
Ssetlabel           0x8               xe-xefcmd2.o
Gukbdl_flag         0x4               ../ulib/libuserxe.a(libuserxe_a-ukbdl.o)
Ghostname2          0x20              xe-xegbl.o
Gkbdsckt            0x258             xe-xekbd.o
Ginifiletabskip     0x4               xe-xe.o
Gfhxwidth           0x2               xe-xe.o
Gxdconfindex        0x4               xe-xe.o
Goptopt3            0x1               xe-xeopt.o
Gmaxcolor           0x4               xe-xegbl.o
Srangeplhe2         0x4               xe-xefcmd2.o
Gxprintcmd          0x4               xe-xe.o
Ss2etctr            0x4               ../ulib/libuserxe.a(libuserxe_a-ucvebc2.o)
Gcompctr            0x4               xe-xedlcmd.o
Gprintcmd           0x4               xe-xe.o
Gscrsplitv          0x4               xe-xe.o
Gattrtbl            0x18              xe-xe.o
Scasesensesw        0x4               xe-xefcmd2.o
Grepworddbcs        0xf0              xe-xefcmd2.o
Gfhwidthtxtedit     0x2               xe-xe.o
Gswutf8file_fc43    0x4               xe-xefcmd43.o
Gdir3status         0x4               xe-xedir3.o
Gunpdispchartble_wxe
                    0x4               xe-xe.o
Gcmdbufflclen       0x4               xe-xe.o
Gebccfgfnm          0x4               xe-xeebc.o
Gcalcpcw            0x4               xe-xe.o
Glocalhostsw        0x4               xe-xegbl.o
Gunxflag            0x4               xe-xegbl.o
Ghexctl             0xc               xe-xe.o
Gswebcfile_fc43     0x4               xe-xefcmd43.o
Gsrchwordforini     0x80              xe-xefcmd2.o
Gunpdispchar        0x4               xe-xe.o
Gsrchebcdbcs        0xf0              xe-xefcmd2.o
Gfhwidth            0x2               xe-xe.o
Gcmdbufflc          0x13c2            xe-xe.o
Gsrchdd             0xf0              xe-xefcmd2.o
Gucvebch            0x9c40            ../ulib/libuserxe.a(libuserxe_a-ucvebc.o)
Gxprintcmd0         0x4               xe-xe.o
Gsyncfg             0xb4              xe-xesyn2.o
Gopt                0x1               xe-xe.o
Gscrcurclient       0x4               xe-xe.o
Sescsrchlen         0x1               xe-xefcmd2.o
Gsrchebcdata        0xf0              xe-xefcmd2.o
Gfiletabdisp2       0x1               xe-xe.o
Ssrch2              0xf0              xe-xefcmd2.o
Gworkdir            0x1000            xe-xe.o
Gucalc_result       0x140             ../ulib/libuserxe.a(libuserxe_a-ucalc.o)
Gcsrposy            0x4               xe-xe.o
Guviol_flag         0x4               ../ulib/libuserxe.a(libuserxe_a-uviol.o)
Gfunctbl            0x4               xe-xe.o
Gshellicmd0         0x4               xe-xe.o
Ghostname           0x20              xe-xegbl.o
Guviomoptstr        0x4               ../ulib/libuserxe.a(libuserxe_a-uviom.o)
Gopt5               0x1               xe-xe.o
Gcomparecmdd        0x4               xe-xegbl.o
Grepwordebcdata     0xf0              xe-xefcmd2.o
Gverdate            0x4               xe-xe.o
Gshellicmd          0x4               xe-xe.o
Gcmdbuffsz_col      0x4               xe-xedcmd2.o
Gftpopt             0x4               ../ulib/libuserxe.a(libuserxe_a-uftp2.o)
Stabrepsw           0x1               xe-xefcmd2.o
Ssrch               0xf0              xe-xefcmd2.o
Gcsrposx            0x4               xe-xe.o
Gutfmode            0x4               xe-xeutf.o
Gopteolcont2        0x1               xe-xeopt.o
Gcmdbuffu8          0x13c2            xe-xe.o
Gdefpallette        0x10              xe-xe.o
Gscrstatus          0x1               xe-xe.o
Gscrconfactid       0x4               xe-xe.o
Srangeplhe          0x4               xe-xefcmd2.o
Gkeyshiftname       0x4               xe-xe.o
Gchspace_fc43       0x4               xe-xefcmd43.o
Glastsono           0x1               xe-xe.o
Gsubgblopt          0x4               xe-xesub.o
Gufile_nomsg        0x4               ../ulib/libuserxe.a(libuserxe_a-ufile.o)
Gualloc16_amount    0x4               ../ulib/libuserxe.a(libuserxe_a-uallocl.o)
Gopt3               0x1               xe-xe.o
Gcomparecmdf        0x4               xe-xegbl.o
Gcapcbpcw           0x4               xe-xe.o
Gscrsplith          0x4               xe-xe.o
Gotherstatus        0x4               xe-xe.o
Gudbcschk_width0top
                    0x4               ../ulib/libuserxe.a(libuserxe_a-udbcschk.o)
Gucvebc_stat        0x4               ../ulib/libuserxe.a(libuserxe_a-ucvebc.o)
Gftpclient          0x80              ../ulib/libuserxe.a(libuserxe_a-uftp2.o)
Ssrchwordlen        0x4               xe-xefcmd2.o
Sescrepchar         0xf0              xe-xefcmd2.o
Gwxestat            0x4               xe-xemousel.o
Gunpdispchartblj    0x4               xe-xe.o
Gkbdinpctr          0x4               xe-xe.o
Gunpdispchartblj_wxe
                    0x4               xe-xe.o
Gfixcidid           0x10              xe-xe.o
Guviomopt2          0x4               ../ulib/libuserxe.a(libuserxe_a-uviom.o)
Ginitscroll         0x14              xe-xe.o
Gdefaultlocalecode  0x40              xe-xeopt.o
Gstrinputdbcs       0x64              xe-xefunct.o
Glocalecode         0x40              xe-xeopt.o
Gstrinputlen        0x4               xe-xefunct.o
Gotheropt_fc43      0x4               xe-xefcmd43.o
Gsrchebcdbcs2       0xf0              xe-xefcmd2.o
Gotheropt           0x4               xe-xe.o
Sdbcschk_hkopt      0x4               ../ulib/libuserxe.a(libuserxe_a-udbcschk.o)
Gpodelmt            0x4               xe-xe.o
Gxehostsfnm         0x4               xe-xeftp.o
Sescsrchchar        0xf0              xe-xefcmd2.o
Glinenosze          0x1               xe-xe.o
Gsrchdd2            0xf0              xe-xefcmd2.o
Gstrinput           0x64              xe-xefunct.o
Gproclastpft        0x4               xe-xe.o
Gpanfindopt         0x4               xe-xefcmd2.o
Gutfmode2           0x4               xe-xeutf.o
Gfilebuff           0x4               xe-xe.o
Gunpdispchartbl     0x4               xe-xe.o
Ggrepctr            0x4               xe-xedlcmd.o
Gsynopt             0x4               xe-xesyn.o
Gsrchdbcs           0xf0              xe-xefcmd2.o
Gutfcombaltch       0x4               ../ulib/libuserxe.a(libuserxe_a-utf.o)
Gucs2ddmap          0x40000           ../ulib/libuserxe.a(libuserxe_a-utf22.o)
Gscrwidth           0x4               xe-xe.o
Gprocstatus         0x1               xe-xe.o
Gw95buffopt         0x4               ../ulib/libuserxe.a(libuserxe_a-uviom.o)
Gopttabaltch        0xc               xe-xe.o
Glinenoszb          0x1               xe-xe.o
Guerropt            0x1               ../ulib/libuserxe.a(libuserxe_a-uerr.o)
Gtabdispchar        0x4               xe-xe.o
Swrapsw             0x1               xe-xefcmd2.o
Scmdbyspawn         0x4               xe-xedcmd2.o
Grepworddd          0xf0              xe-xefcmd2.o
Guviomoptstrucs     0x10              ../ulib/libuserxe.a(libuserxe_a-uviom.o)
Gkbdopt             0x4               xe-xe.o
Giniopt2            0x1               xe-xe.o
Gcalcplh1           0x4               xe-xe.o
Gopteolcont         0x1               xe-xeopt.o
Gkeytbl             0x4               xe-xe.o
Glinenoszc          0x1               xe-xe.o
Gparmlocalecode     0x40              xe-xeopt.o
Gunpdispchar3_after_inigetopt
                    0x1               xe-xe.o
Gsrchdbcs2          0xf0              xe-xefcmd2.o
Gpallette           0x10              xe-xe.o
Sfdpipew            0x4               ../ulib/libuserxe.a(libuserxe_a-uproc.o)

Discarded input sections

 .note.GNU-stack
                0x00000000        0x0 /usr/lib/gcc/arm-linux-gnueabihf/8/../../../arm-linux-gnueabihf/crt1.o
 .note.GNU-stack
                0x00000000        0x0 /usr/lib/gcc/arm-linux-gnueabihf/8/../../../arm-linux-gnueabihf/crti.o
 .note.GNU-stack
                0x00000000        0x0 /usr/lib/gcc/arm-linux-gnueabihf/8/crtbegin.o
 .note.GNU-stack
                0x00000000        0x0 xe-xe.o
 .note.GNU-stack
                0x00000000        0x0 xe-xecalc.o
 .note.GNU-stack
                0x00000000        0x0 xe-xecalc2.o
 .note.GNU-stack
                0x00000000        0x0 xe-xecalc21.o
 .note.GNU-stack
                0x00000000        0x0 xe-xecalc22.o
 .note.GNU-stack
                0x00000000        0x0 xe-xecalc3.o
 .note.GNU-stack
                0x00000000        0x0 xe-xecap.o
 .note.GNU-stack
                0x00000000        0x0 xe-xecap2.o
 .note.GNU-stack
                0x00000000        0x0 xe-xechar.o
 .note.GNU-stack
                0x00000000        0x0 xe-xechar12.o
 .note.GNU-stack
                0x00000000        0x0 xe-xechar13.o
 .note.GNU-stack
                0x00000000        0x0 xe-xechar2.o
 .note.GNU-stack
                0x00000000        0x0 xe-xecsr.o
 .note.GNU-stack
                0x00000000        0x0 xe-xedcmd.o
 .note.GNU-stack
                0x00000000        0x0 xe-xedcmd2.o
 .note.GNU-stack
                0x00000000        0x0 xe-xedcmd3.o
 .note.GNU-stack
                0x00000000        0x0 xe-xedcmd4.o
 .note.GNU-stack
                0x00000000        0x0 xe-xedir.o
 .note.GNU-stack
                0x00000000        0x0 xe-xedir2.o
 .note.GNU-stack
                0x00000000        0x0 xe-xedir3.o
 .note.GNU-stack
                0x00000000        0x0 xe-xedir4.o
 .note.GNU-stack
                0x00000000        0x0 xe-xedlcmd.o
 .note.GNU-stack
                0x00000000        0x0 xe-xedlcmd2.o
 .note.GNU-stack
                0x00000000        0x0 xe-xedlcmd3.o
 .note.GNU-stack
                0x00000000        0x0 xe-xedlcmd4.o
 .note.GNU-stack
                0x00000000        0x0 xe-xedlcmd5.o
 .note.GNU-stack
                0x00000000        0x0 xe-xedlcmd6.o
 .note.GNU-stack
                0x00000000        0x0 xe-xeebc.o
 .note.GNU-stack
                0x00000000        0x0 xe-xeerr.o
 .note.GNU-stack
                0x00000000        0x0 xe-xefcmd.o
 .note.GNU-stack
                0x00000000        0x0 xe-xefcmd2.o
 .note.GNU-stack
                0x00000000        0x0 xe-xefcmd22.o
 .note.GNU-stack
                0x00000000        0x0 xe-xefcmd23.o
 .note.GNU-stack
                0x00000000        0x0 xe-xefcmd24.o
 .note.GNU-stack
                0x00000000        0x0 xe-xefcmd25.o
 .note.GNU-stack
                0x00000000        0x0 xe-xefcmd26.o
 .note.GNU-stack
                0x00000000        0x0 xe-xefcmd27.o
 .note.GNU-stack
                0x00000000        0x0 xe-xefcmd3.o
 .note.GNU-stack
                0x00000000        0x0 xe-xefcmd4.o
 .note.GNU-stack
                0x00000000        0x0 xe-xefcmd42.o
 .note.GNU-stack
                0x00000000        0x0 xe-xefcmd43.o
 .note.GNU-stack
                0x00000000        0x0 xe-xefcmd5.o
 .note.GNU-stack
                0x00000000        0x0 xe-xefcmd6.o
 .note.GNU-stack
                0x00000000        0x0 xe-xefcmd7.o
 .note.GNU-stack
                0x00000000        0x0 xe-xefile.o
 .note.GNU-stack
                0x00000000        0x0 xe-xefile12.o
 .note.GNU-stack
                0x00000000        0x0 xe-xefile13.o
 .note.GNU-stack
                0x00000000        0x0 xe-xefile14.o
 .note.GNU-stack
                0x00000000        0x0 xe-xefile15.o
 .note.GNU-stack
                0x00000000        0x0 xe-xefile2.o
 .note.GNU-stack
                0x00000000        0x0 xe-xefile22.o
 .note.GNU-stack
                0x00000000        0x0 xe-xefile23.o
 .note.GNU-stack
                0x00000000        0x0 xe-xefile3.o
 .note.GNU-stack
                0x00000000        0x0 xe-xefile4.o
 .note.GNU-stack
                0x00000000        0x0 xe-xefile42.o
 .note.GNU-stack
                0x00000000        0x0 xe-xefile43.o
 .note.GNU-stack
                0x00000000        0x0 xe-xefile5.o
 .note.GNU-stack
                0x00000000        0x0 xe-xefile6.o
 .note.GNU-stack
                0x00000000        0x0 xe-xefile7.o
 .note.GNU-stack
                0x00000000        0x0 xe-xefsub.o
 .note.GNU-stack
                0x00000000        0x0 xe-xeftp.o
 .note.GNU-stack
                0x00000000        0x0 xe-xefunc.o
 .note.GNU-stack
                0x00000000        0x0 xe-xefunc2.o
 .note.GNU-stack
                0x00000000        0x0 xe-xefunct.o
 .note.GNU-stack
                0x00000000        0x0 xe-xefunct2.o
 .note.GNU-stack
                0x00000000        0x0 xe-xegbl.o
 .note.GNU-stack
                0x00000000        0x0 xe-xeini.o
 .note.GNU-stack
                0x00000000        0x0 xe-xeini2.o
 .note.GNU-stack
                0x00000000        0x0 xe-xeini3.o
 .note.GNU-stack
                0x00000000        0x0 xe-xekbd.o
 .note.GNU-stack
                0x00000000        0x0 xe-xelcmd.o
 .note.GNU-stack
                0x00000000        0x0 xe-xelcmd2.o
 .note.GNU-stack
                0x00000000        0x0 xe-xelcmd3.o
 .note.GNU-stack
                0x00000000        0x0 xe-xelcmd4.o
 .note.GNU-stack
                0x00000000        0x0 xe-xelcmd5.o
 .note.GNU-stack
                0x00000000        0x0 xe-xemainl.o
 .note.GNU-stack
                0x00000000        0x0 xe-xemousel.o
 .note.GNU-stack
                0x00000000        0x0 xe-xeopt.o
 .note.GNU-stack
                0x00000000        0x0 xe-xeopt2.o
 .note.GNU-stack
                0x00000000        0x0 xe-xepan.o
 .note.GNU-stack
                0x00000000        0x0 xe-xepan2.o
 .note.GNU-stack
                0x00000000        0x0 xe-xepan22.o
 .note.GNU-stack
                0x00000000        0x0 xe-xepan23.o
 .note.GNU-stack
                0x00000000        0x0 xe-xepan24.o
 .note.GNU-stack
                0x00000000        0x0 xe-xepan3.o
 .note.GNU-stack
                0x00000000        0x0 xe-xescr.o
 .note.GNU-stack
                0x00000000        0x0 xe-xescr2.o
 .note.GNU-stack
                0x00000000        0x0 xe-xesub.o
 .note.GNU-stack
                0x00000000        0x0 xe-xesub2.o
 .note.GNU-stack
                0x00000000        0x0 xe-xesyn.o
 .note.GNU-stack
                0x00000000        0x0 xe-xesyn2.o
 .note.GNU-stack
                0x00000000        0x0 xe-xetso.o
 .note.GNU-stack
                0x00000000        0x0 xe-xetso2.o
 .note.GNU-stack
                0x00000000        0x0 xe-xeundo.o
 .note.GNU-stack
                0x00000000        0x0 xe-xeutf.o
 .note.GNU-stack
                0x00000000        0x0 xe-xeutf2.o
 .note.GNU-stack
                0x00000000        0x0 ../ulib/libuserxe.a(libuserxe_a-u3270.o)
 .note.GNU-stack
                0x00000000        0x0 ../ulib/libuserxe.a(libuserxe_a-u32702.o)
 .note.GNU-stack
                0x00000000        0x0 ../ulib/libuserxe.a(libuserxe_a-u32703.o)
 .note.GNU-stack
                0x00000000        0x0 ../ulib/libuserxe.a(libuserxe_a-uabend.o)
 .note.GNU-stack
                0x00000000        0x0 ../ulib/libuserxe.a(libuserxe_a-uallocl.o)
 .note.GNU-stack
                0x00000000        0x0 ../ulib/libuserxe.a(libuserxe_a-ucalc.o)
 .note.GNU-stack
                0x00000000        0x0 ../ulib/libuserxe.a(libuserxe_a-ucalc2.o)
 .note.GNU-stack
                0x00000000        0x0 ../ulib/libuserxe.a(libuserxe_a-ucvebc.o)
 .note.GNU-stack
                0x00000000        0x0 ../ulib/libuserxe.a(libuserxe_a-ucvebc2.o)
 .note.GNU-stack
                0x00000000        0x0 ../ulib/libuserxe.a(libuserxe_a-ucvebc3.o)
 .note.GNU-stack
                0x00000000        0x0 ../ulib/libuserxe.a(libuserxe_a-ucvebc32.o)
 .note.GNU-stack
                0x00000000        0x0 ../ulib/libuserxe.a(libuserxe_a-ucvebc4.o)
 .note.GNU-stack
                0x00000000        0x0 ../ulib/libuserxe.a(libuserxe_a-ucvebct.o)
 .note.GNU-stack
                0x00000000        0x0 ../ulib/libuserxe.a(libuserxe_a-ucvext.o)
 .note.GNU-stack
                0x00000000        0x0 ../ulib/libuserxe.a(libuserxe_a-ucvext12.o)
 .note.GNU-stack
                0x00000000        0x0 ../ulib/libuserxe.a(libuserxe_a-ucvext2.o)
 .note.GNU-stack
                0x00000000        0x0 ../ulib/libuserxe.a(libuserxe_a-ucvucs.o)
 .note.GNU-stack
                0x00000000        0x0 ../ulib/libuserxe.a(libuserxe_a-ucvucst.o)
 .note.GNU-stack
                0x00000000        0x0 ../ulib/libuserxe.a(libuserxe_a-udbcschk.o)
 .note.GNU-stack
                0x00000000        0x0 ../ulib/libuserxe.a(libuserxe_a-udbcsck2.o)
 .note.GNU-stack
                0x00000000        0x0 ../ulib/libuserxe.a(libuserxe_a-udos2.o)
 .note.GNU-stack
                0x00000000        0x0 ../ulib/libuserxe.a(libuserxe_a-uedit.o)
 .note.GNU-stack
                0x00000000        0x0 ../ulib/libuserxe.a(libuserxe_a-uedit2.o)
 .note.GNU-stack
                0x00000000        0x0 ../ulib/libuserxe.a(libuserxe_a-uehl.o)
 .note.GNU-stack
                0x00000000        0x0 ../ulib/libuserxe.a(libuserxe_a-uerr.o)
 .note.GNU-stack
                0x00000000        0x0 ../ulib/libuserxe.a(libuserxe_a-ufemsg.o)
 .note.GNU-stack
                0x00000000        0x0 ../ulib/libuserxe.a(libuserxe_a-ufile.o)
 .note.GNU-stack
                0x00000000        0x0 ../ulib/libuserxe.a(libuserxe_a-ufile12.o)
 .note.GNU-stack
                0x00000000        0x0 ../ulib/libuserxe.a(libuserxe_a-ufile1f.o)
 .note.GNU-stack
                0x00000000        0x0 ../ulib/libuserxe.a(libuserxe_a-ufile1l.o)
 .note.GNU-stack
                0x00000000        0x0 ../ulib/libuserxe.a(libuserxe_a-ufile1l2.o)
 .note.GNU-stack
                0x00000000        0x0 ../ulib/libuserxe.a(libuserxe_a-ufile2.o)
 .note.GNU-stack
                0x00000000        0x0 ../ulib/libuserxe.a(libuserxe_a-ufile2f.o)
 .note.GNU-stack
                0x00000000        0x0 ../ulib/libuserxe.a(libuserxe_a-ufile2l.o)
 .note.GNU-stack
                0x00000000        0x0 ../ulib/libuserxe.a(libuserxe_a-ufile2l2.o)
 .note.GNU-stack
                0x00000000        0x0 ../ulib/libuserxe.a(libuserxe_a-ufile3.o)
 .note.GNU-stack
                0x00000000        0x0 ../ulib/libuserxe.a(libuserxe_a-ufile3f.o)
 .note.GNU-stack
                0x00000000        0x0 ../ulib/libuserxe.a(libuserxe_a-ufile4.o)
 .note.GNU-stack
                0x00000000        0x0 ../ulib/libuserxe.a(libuserxe_a-ufile5.o)
 .note.GNU-stack
                0x00000000        0x0 ../ulib/libuserxe.a(libuserxe_a-uftp.o)
 .note.GNU-stack
                0x00000000        0x0 ../ulib/libuserxe.a(libuserxe_a-uftp2.o)
 .note.GNU-stack
                0x00000000        0x0 ../ulib/libuserxe.a(libuserxe_a-uftp3.o)
 .note.GNU-stack
                0x00000000        0x0 ../ulib/libuserxe.a(libuserxe_a-ugcclib.o)
 .note.GNU-stack
                0x00000000        0x0 ../ulib/libuserxe.a(libuserxe_a-ukbdl.o)
 .note.GNU-stack
                0x00000000        0x0 ../ulib/libuserxe.a(libuserxe_a-ukbdlnxc.o)
 .note.GNU-stack
                0x00000000        0x0 ../ulib/libuserxe.a(libuserxe_a-ukbdlnxm.o)
 .note.GNU-stack
                0x00000000        0x0 ../ulib/libuserxe.a(libuserxe_a-uparse.o)
 .note.GNU-stack
                0x00000000        0x0 ../ulib/libuserxe.a(libuserxe_a-uproc.o)
 .note.GNU-stack
                0x00000000        0x0 ../ulib/libuserxe.a(libuserxe_a-uproc2.o)
 .note.GNU-stack
                0x00000000        0x0 ../ulib/libuserxe.a(libuserxe_a-uproc3.o)
 .note.GNU-stack
                0x00000000        0x0 ../ulib/libuserxe.a(libuserxe_a-uproc4.o)
 .note.GNU-stack
                0x00000000        0x0 ../ulib/libuserxe.a(libuserxe_a-uque.o)
 .note.GNU-stack
                0x00000000        0x0 ../ulib/libuserxe.a(libuserxe_a-ustrcpy.o)
 .note.GNU-stack
                0x00000000        0x0 ../ulib/libuserxe.a(libuserxe_a-ustring.o)
 .note.GNU-stack
                0x00000000        0x0 ../ulib/libuserxe.a(libuserxe_a-utf.o)
 .note.GNU-stack
                0x00000000        0x0 ../ulib/libuserxe.a(libuserxe_a-utf2.o)
 .note.GNU-stack
                0x00000000        0x0 ../ulib/libuserxe.a(libuserxe_a-utf22.o)
 .note.GNU-stack
                0x00000000        0x0 ../ulib/libuserxe.a(libuserxe_a-utf3.o)
 .note.GNU-stack
                0x00000000        0x0 ../ulib/libuserxe.a(libuserxe_a-utf4.o)
 .note.GNU-stack
                0x00000000        0x0 ../ulib/libuserxe.a(libuserxe_a-utrace.o)
 .note.GNU-stack
                0x00000000        0x0 ../ulib/libuserxe.a(libuserxe_a-uunxsub.o)
 .note.GNU-stack
                0x00000000        0x0 ../ulib/libuserxe.a(libuserxe_a-uviom.o)
 .note.GNU-stack
                0x00000000        0x0 ../ulib/libuserxe.a(libuserxe_a-uviol.o)
 .note.GNU-stack
                0x00000000        0x0 ../ulib/libuserxe.a(libuserxe_a-uproc22.o)
 .note.GNU-stack
                0x00000000        0x0 /usr/lib/gcc/arm-linux-gnueabihf/8/libgcc.a(_udivsi3.o)
 .note.GNU-stack
                0x00000000        0x0 /usr/lib/gcc/arm-linux-gnueabihf/8/libgcc.a(_divsi3.o)
 .note.GNU-stack
                0x00000000        0x0 /usr/lib/gcc/arm-linux-gnueabihf/8/libgcc.a(_aeabi_ldivmod.o)
 .note.GNU-stack
                0x00000000        0x0 /usr/lib/gcc/arm-linux-gnueabihf/8/libgcc.a(_dvmd_lnx.o)
 .note.GNU-stack
                0x00000000        0x0 /usr/lib/gcc/arm-linux-gnueabihf/8/libgcc.a(_udivmoddi4.o)
 .note.GNU-stack
                0x00000000        0x0 //usr/lib/arm-linux-gnueabihf/libc_nonshared.a(elf-init.oS)
 .note.GNU-stack
                0x00000000        0x0 //usr/lib/arm-linux-gnueabihf/libc_nonshared.a(stat64.oS)
 .note.GNU-stack
                0x00000000        0x0 //usr/lib/arm-linux-gnueabihf/libc_nonshared.a(lstat64.oS)
 .note.GNU-stack
                0x00000000        0x0 /usr/lib/gcc/arm-linux-gnueabihf/8/crtend.o
 .note.GNU-stack
                0x00000000        0x0 /usr/lib/gcc/arm-linux-gnueabihf/8/../../../arm-linux-gnueabihf/crtn.o

Memory Configuration

Name             Origin             Length             Attributes
*default*        0x00000000         0xffffffff

Linker script and memory map

LOAD /usr/lib/gcc/arm-linux-gnueabihf/8/../../../arm-linux-gnueabihf/crt1.o
LOAD /usr/lib/gcc/arm-linux-gnueabihf/8/../../../arm-linux-gnueabihf/crti.o
LOAD /usr/lib/gcc/arm-linux-gnueabihf/8/crtbegin.o
LOAD xe-xe.o
LOAD xe-xecalc.o
LOAD xe-xecalc2.o
LOAD xe-xecalc21.o
LOAD xe-xecalc22.o
LOAD xe-xecalc3.o
LOAD xe-xecap.o
LOAD xe-xecap2.o
LOAD xe-xechar.o
LOAD xe-xechar12.o
LOAD xe-xechar13.o
LOAD xe-xechar2.o
LOAD xe-xecsr.o
LOAD xe-xedcmd.o
LOAD xe-xedcmd2.o
LOAD xe-xedcmd3.o
LOAD xe-xedcmd4.o
LOAD xe-xedir.o
LOAD xe-xedir2.o
LOAD xe-xedir3.o
LOAD xe-xedir4.o
LOAD xe-xedlcmd.o
LOAD xe-xedlcmd2.o
LOAD xe-xedlcmd3.o
LOAD xe-xedlcmd4.o
LOAD xe-xedlcmd5.o
LOAD xe-xedlcmd6.o
LOAD xe-xeebc.o
LOAD xe-xeerr.o
LOAD xe-xefcmd.o
LOAD xe-xefcmd2.o
LOAD xe-xefcmd22.o
LOAD xe-xefcmd23.o
LOAD xe-xefcmd24.o
LOAD xe-xefcmd25.o
LOAD xe-xefcmd26.o
LOAD xe-xefcmd27.o
LOAD xe-xefcmd3.o
LOAD xe-xefcmd4.o
LOAD xe-xefcmd42.o
LOAD xe-xefcmd43.o
LOAD xe-xefcmd5.o
LOAD xe-xefcmd6.o
LOAD xe-xefcmd7.o
LOAD xe-xefile.o
LOAD xe-xefile12.o
LOAD xe-xefile13.o
LOAD xe-xefile14.o
LOAD xe-xefile15.o
LOAD xe-xefile2.o
LOAD xe-xefile22.o
LOAD xe-xefile23.o
LOAD xe-xefile3.o
LOAD xe-xefile4.o
LOAD xe-xefile42.o
LOAD xe-xefile43.o
LOAD xe-xefile5.o
LOAD xe-xefile6.o
LOAD xe-xefile7.o
LOAD xe-xefsub.o
LOAD xe-xeftp.o
LOAD xe-xefunc.o
LOAD xe-xefunc2.o
LOAD xe-xefunct.o
LOAD xe-xefunct2.o
LOAD xe-xegbl.o
LOAD xe-xeini.o
LOAD xe-xeini2.o
LOAD xe-xeini3.o
LOAD xe-xekbd.o
LOAD xe-xelcmd.o
LOAD xe-xelcmd2.o
LOAD xe-xelcmd3.o
LOAD xe-xelcmd4.o
LOAD xe-xelcmd5.o
LOAD xe-xemainl.o
LOAD xe-xemousel.o
LOAD xe-xeopt.o
LOAD xe-xeopt2.o
LOAD xe-xepan.o
LOAD xe-xepan2.o
LOAD xe-xepan22.o
LOAD xe-xepan23.o
LOAD xe-xepan24.o
LOAD xe-xepan3.o
LOAD xe-xescr.o
LOAD xe-xescr2.o
LOAD xe-xesub.o
LOAD xe-xesub2.o
LOAD xe-xesyn.o
LOAD xe-xesyn2.o
LOAD xe-xetso.o
LOAD xe-xetso2.o
LOAD xe-xeundo.o
LOAD xe-xeutf.o
LOAD xe-xeutf2.o
LOAD ../ulib/libuserxe.a
LOAD /usr/lib/gcc/arm-linux-gnueabihf/8/../../../arm-linux-gnueabihf/libgnomeui-2.so
LOAD /usr/lib/gcc/arm-linux-gnueabihf/8/../../../arm-linux-gnueabihf/libSM.so
LOAD /usr/lib/gcc/arm-linux-gnueabihf/8/../../../arm-linux-gnueabihf/libICE.so
LOAD /usr/lib/gcc/arm-linux-gnueabihf/8/../../../arm-linux-gnueabihf/libbonoboui-2.so
LOAD /usr/lib/gcc/arm-linux-gnueabihf/8/../../../arm-linux-gnueabihf/libgnome-2.so
LOAD /usr/lib/gcc/arm-linux-gnueabihf/8/../../../arm-linux-gnueabihf/libpopt.so
LOAD /usr/lib/gcc/arm-linux-gnueabihf/8/../../../arm-linux-gnueabihf/libbonobo-2.so
LOAD /usr/lib/gcc/arm-linux-gnueabihf/8/../../../arm-linux-gnueabihf/libbonobo-activation.so
LOAD /usr/lib/gcc/arm-linux-gnueabihf/8/../../../arm-linux-gnueabihf/libORBit-2.so
LOAD /usr/lib/gcc/arm-linux-gnueabihf/8/../../../arm-linux-gnueabihf/libgnomecanvas-2.so
LOAD /usr/lib/gcc/arm-linux-gnueabihf/8/../../../arm-linux-gnueabihf/libart_lgpl_2.so
LOAD /usr/lib/gcc/arm-linux-gnueabihf/8/../../../arm-linux-gnueabihf/libgnomevfs-2.so
LOAD /usr/lib/gcc/arm-linux-gnueabihf/8/../../../arm-linux-gnueabihf/libgconf-2.so
LOAD /usr/lib/gcc/arm-linux-gnueabihf/8/../../../arm-linux-gnueabihf/libgthread-2.0.so
LOAD /usr/lib/gcc/arm-linux-gnueabihf/8/../../../arm-linux-gnueabihf/libgmodule-2.0.so
LOAD /usr/lib/gcc/arm-linux-gnueabihf/8/../../../arm-linux-gnueabihf/libgtk-x11-2.0.so
LOAD /usr/lib/gcc/arm-linux-gnueabihf/8/../../../arm-linux-gnueabihf/libgdk-x11-2.0.so
LOAD /usr/lib/gcc/arm-linux-gnueabihf/8/../../../arm-linux-gnueabihf/libpangocairo-1.0.so
LOAD /usr/lib/gcc/arm-linux-gnueabihf/8/../../../arm-linux-gnueabihf/libatk-1.0.so
LOAD /usr/lib/gcc/arm-linux-gnueabihf/8/../../../arm-linux-gnueabihf/libcairo.so
LOAD /usr/lib/gcc/arm-linux-gnueabihf/8/../../../arm-linux-gnueabihf/libgdk_pixbuf-2.0.so
LOAD /usr/lib/gcc/arm-linux-gnueabihf/8/../../../arm-linux-gnueabihf/libgio-2.0.so
LOAD /usr/lib/gcc/arm-linux-gnueabihf/8/../../../arm-linux-gnueabihf/libpangoft2-1.0.so
LOAD /usr/lib/gcc/arm-linux-gnueabihf/8/../../../arm-linux-gnueabihf/libpango-1.0.so
LOAD /usr/lib/gcc/arm-linux-gnueabihf/8/../../../arm-linux-gnueabihf/libgobject-2.0.so
LOAD /usr/lib/gcc/arm-linux-gnueabihf/8/../../../arm-linux-gnueabihf/libglib-2.0.so
LOAD /usr/lib/gcc/arm-linux-gnueabihf/8/../../../arm-linux-gnueabihf/libfontconfig.so
LOAD /usr/lib/gcc/arm-linux-gnueabihf/8/../../../arm-linux-gnueabihf/libfreetype.so
LOAD /usr/lib/gcc/arm-linux-gnueabihf/8/../../../arm-linux-gnueabihf/libdl.so
LOAD /usr/lib/gcc/arm-linux-gnueabihf/8/../../../arm-linux-gnueabihf/libncursesw.so
LOAD /lib/arm-linux-gnueabihf/libncursesw.so.6
LOAD /usr/lib/gcc/arm-linux-gnueabihf/8/../../../arm-linux-gnueabihf/libtinfo.so
LOAD /usr/lib/gcc/arm-linux-gnueabihf/8/../../../arm-linux-gnueabihf/libncursesw.so
LOAD /lib/arm-linux-gnueabihf/libncursesw.so.6
LOAD /usr/lib/gcc/arm-linux-gnueabihf/8/../../../arm-linux-gnueabihf/libtinfo.so
LOAD /usr/lib/gcc/arm-linux-gnueabihf/8/../../../arm-linux-gnueabihf/libcups.so
LOAD /usr/lib/gcc/arm-linux-gnueabihf/8/libgcc.a
LOAD /usr/lib/gcc/arm-linux-gnueabihf/8/libgcc_s.so
START GROUP
LOAD /usr/lib/gcc/arm-linux-gnueabihf/8/libgcc_s.so.1
LOAD /usr/lib/gcc/arm-linux-gnueabihf/8/libgcc.a
END GROUP
LOAD /usr/lib/gcc/arm-linux-gnueabihf/8/../../../arm-linux-gnueabihf/libpthread.so
LOAD /usr/lib/gcc/arm-linux-gnueabihf/8/../../../arm-linux-gnueabihf/libc.so
START GROUP
LOAD //lib/arm-linux-gnueabihf/libc.so.6
LOAD //usr/lib/arm-linux-gnueabihf/libc_nonshared.a
LOAD //lib/arm-linux-gnueabihf/ld-linux-armhf.so.3
END GROUP
LOAD /usr/lib/gcc/arm-linux-gnueabihf/8/libgcc.a
LOAD /usr/lib/gcc/arm-linux-gnueabihf/8/libgcc_s.so
START GROUP
LOAD /usr/lib/gcc/arm-linux-gnueabihf/8/libgcc_s.so.1
LOAD /usr/lib/gcc/arm-linux-gnueabihf/8/libgcc.a
END GROUP
LOAD /usr/lib/gcc/arm-linux-gnueabihf/8/crtend.o
LOAD /usr/lib/gcc/arm-linux-gnueabihf/8/../../../arm-linux-gnueabihf/crtn.o
                [!provide]                PROVIDE (__executable_start = SEGMENT_START ("text-segment", 0x10000))
                0x00010154                . = (SEGMENT_START ("text-segment", 0x10000) + SIZEOF_HEADERS)

.interp         0x00010154       0x19
 *(.interp)
 .interp        0x00010154       0x19 /usr/lib/gcc/arm-linux-gnueabihf/8/../../../arm-linux-gnueabihf/crt1.o

.note.ABI-tag   0x00010170       0x20
 .note.ABI-tag  0x00010170       0x20 /usr/lib/gcc/arm-linux-gnueabihf/8/../../../arm-linux-gnueabihf/crt1.o

.note.gnu.build-id
                0x00010190       0x24
 *(.note.gnu.build-id)
 .note.gnu.build-id
                0x00010190       0x24 linker stubs

.hash
 *(.hash)

.gnu.hash       0x000101b4      0x74c
 *(.gnu.hash)
 .gnu.hash      0x000101b4      0x74c /usr/lib/gcc/arm-linux-gnueabihf/8/../../../arm-linux-gnueabihf/crt1.o

.dynsym         0x00010900      0xce0
 *(.dynsym)
 .dynsym        0x00010900      0xce0 /usr/lib/gcc/arm-linux-gnueabihf/8/../../../arm-linux-gnueabihf/crt1.o

.dynstr         0x000115e0      0x9ed
 *(.dynstr)
 .dynstr        0x000115e0      0x9ed /usr/lib/gcc/arm-linux-gnueabihf/8/../../../arm-linux-gnueabihf/crt1.o

.gnu.version    0x00011fce      0x19c
 *(.gnu.version)
 .gnu.version   0x00011fce      0x19c /usr/lib/gcc/arm-linux-gnueabihf/8/../../../arm-linux-gnueabihf/crt1.o

.gnu.version_d  0x0001216c        0x0
 *(.gnu.version_d)
 .gnu.version_d
                0x0001216c        0x0 /usr/lib/gcc/arm-linux-gnueabihf/8/../../../arm-linux-gnueabihf/crt1.o

.gnu.version_r  0x0001216c       0xc0
 *(.gnu.version_r)
 .gnu.version_r
                0x0001216c       0xc0 /usr/lib/gcc/arm-linux-gnueabihf/8/../../../arm-linux-gnueabihf/crt1.o

.rel.dyn        0x0001222c       0x60
 *(.rel.init)
 *(.rel.text .rel.text.* .rel.gnu.linkonce.t.*)
 *(.rel.fini)
 *(.rel.rodata .rel.rodata.* .rel.gnu.linkonce.r.*)
 *(.rel.data.rel.ro .rel.data.rel.ro.* .rel.gnu.linkonce.d.rel.ro.*)
 .rel.data.rel.ro
                0x0001222c        0x0 /usr/lib/gcc/arm-linux-gnueabihf/8/../../../arm-linux-gnueabihf/crt1.o
 *(.rel.data .rel.data.* .rel.gnu.linkonce.d.*)
 *(.rel.tdata .rel.tdata.* .rel.gnu.linkonce.td.*)
 *(.rel.tbss .rel.tbss.* .rel.gnu.linkonce.tb.*)
 *(.rel.ctors)
 *(.rel.dtors)
 *(.rel.got)
 .rel.got       0x0001222c        0x8 /usr/lib/gcc/arm-linux-gnueabihf/8/../../../arm-linux-gnueabihf/crt1.o
 *(.rel.bss .rel.bss.* .rel.gnu.linkonce.b.*)
 .rel.bss       0x00012234       0x58 /usr/lib/gcc/arm-linux-gnueabihf/8/../../../arm-linux-gnueabihf/crt1.o
                [!provide]                PROVIDE (__rel_iplt_start = .)
 *(.rel.iplt)
 .rel.iplt      0x0001228c        0x0 /usr/lib/gcc/arm-linux-gnueabihf/8/../../../arm-linux-gnueabihf/crt1.o
                [!provide]                PROVIDE (__rel_iplt_end = .)

.rela.dyn       0x0001228c        0x0
 *(.rela.init)
 *(.rela.text .rela.text.* .rela.gnu.linkonce.t.*)
 *(.rela.fini)
 *(.rela.rodata .rela.rodata.* .rela.gnu.linkonce.r.*)
 *(.rela.data .rela.data.* .rela.gnu.linkonce.d.*)
 *(.rela.tdata .rela.tdata.* .rela.gnu.linkonce.td.*)
 *(.rela.tbss .rela.tbss.* .rela.gnu.linkonce.tb.*)
 *(.rela.ctors)
 *(.rela.dtors)
 *(.rela.got)
 *(.rela.bss .rela.bss.* .rela.gnu.linkonce.b.*)
                [!provide]                PROVIDE (__rela_iplt_start = .)
 *(.rela.iplt)
                [!provide]                PROVIDE (__rela_iplt_end = .)

.rel.plt        0x0001228c      0x5c8
 *(.rel.plt)
 .rel.plt       0x0001228c      0x5c8 /usr/lib/gcc/arm-linux-gnueabihf/8/../../../arm-linux-gnueabihf/crt1.o

.rela.plt
 *(.rela.plt)

.init           0x00012854        0xc
 *(SORT_NONE(.init))
 .init          0x00012854        0x8 /usr/lib/gcc/arm-linux-gnueabihf/8/../../../arm-linux-gnueabihf/crti.o
                0x00012854                _init
 .init          0x0001285c        0x4 /usr/lib/gcc/arm-linux-gnueabihf/8/../../../arm-linux-gnueabihf/crtn.o

.plt            0x00012860      0x8c0
 *(.plt)
 .plt           0x00012860      0x8c0 /usr/lib/gcc/arm-linux-gnueabihf/8/../../../arm-linux-gnueabihf/crt1.o
                0x00012874                gethostname@@GLIBC_2.4
                0x00012880                getuid@@GLIBC_2.4
                0x0001288c                fopen64@@GLIBC_2.4
                0x00012898                endwin@@NCURSESW6_5.1.20000708
                0x000128a4                fwrite@@GLIBC_2.4
                0x000128b0                mbrtowc@@GLIBC_2.4
                0x000128bc                toupper@@GLIBC_2.4
                0x000128c8                __isoc99_sscanf@@GLIBC_2.7
                0x000128d4                fprintf@@GLIBC_2.4
                0x000128e0                waddnstr@@NCURSESW6_5.1.20000708
                0x000128ec                strstr@@GLIBC_2.4
                0x000128f8                isatty@@GLIBC_2.4
                0x00012904                getppid@@GLIBC_2.4
                0x00012910                wbkgdset@@NCURSESW6_5.1.20000708
                0x0001291c                execvp@@GLIBC_2.4
                0x00012928                write@@GLIBC_2.4
                0x00012934                wctomb@@GLIBC_2.4
                0x00012940                can_change_color@@NCURSESW6_5.1.20000708
                0x0001294c                opendir@@GLIBC_2.4
                0x00012958                printf@@GLIBC_2.4
                0x00012964                gnome_vfs_mime_get_default_application
                0x00012970                bsearch@@GLIBC_2.4
                0x0001297c                fclose@@GLIBC_2.4
                0x00012988                atoll@@GLIBC_2.4
                0x00012994                qsort@@GLIBC_2.4
                0x000129a0                getgid@@GLIBC_2.4
                0x000129ac                wclear@@NCURSESW6_5.1.20000708
                0x000129b8                __ctype_b_loc@@GLIBC_2.4
                0x000129c4                strnlen@@GLIBC_2.4
                0x000129d0                nonl@@NCURSESW6_5.1.20000708
                0x000129dc                getmntent@@GLIBC_2.4
                0x000129e8                iconv@@GLIBC_2.4
                0x000129f4                fputc@@GLIBC_2.4
                0x00012a00                dlclose@@GLIBC_2.4
                0x00012a0c                beep@@NCURSESW6_5.1.20000708
                0x00012a18                __xstat64@@GLIBC_2.4
                0x00012a24                chown@@GLIBC_2.4
                0x00012a30                strpbrk@@GLIBC_2.4
                0x00012a3c                fseek@@GLIBC_2.4
                0x00012a48                regfree@@GLIBC_2.4
                0x00012a54                strerror@@GLIBC_2.4
                0x00012a60                color_content@@NCURSESW6_5.1.20000708
                0x00012a6c                tolower@@GLIBC_2.4
                0x00012a78                putchar@@GLIBC_2.4
                0x00012a84                has_colors@@NCURSESW6_5.1.20000708
                0x00012a90                puts@@GLIBC_2.4
                0x00012a9c                init_pair@@NCURSESW6_5.1.20000708
                0x00012aa8                __libc_start_main@@GLIBC_2.4
                0x00012ac0                setupterm@@NCURSES6_TINFO_5.0.19991023
                0x00012acc                strchr@@GLIBC_2.4
                0x00012ad8                __errno_location@@GLIBC_2.4
                0x00012ae4                feof@@GLIBC_2.4
                0x00012af0                keypad@@NCURSES6_TINFO_5.0.19991023
                0x00012afc                lutimes@@GLIBC_2.4
                0x00012b08                atol@@GLIBC_2.4
                0x00012b14                ftello64@@GLIBC_2.4
                0x00012b20                tcsetattr@@GLIBC_2.4
                0x00012b2c                curs_set@@NCURSES6_TINFO_5.0.19991023
                0x00012b38                symlink@@GLIBC_2.4
                0x00012b44                setenv@@GLIBC_2.4
                0x00012b50                mkdir@@GLIBC_2.4
                0x00012b5c                pthread_mutex_lock@@GLIBC_2.4
                0x00012b68                pipe@@GLIBC_2.4
                0x00012b74                noecho@@NCURSESW6_5.1.20000708
                0x00012b80                gnome_vfs_get_mime_type
                0x00012b8c                waddchnstr@@NCURSESW6_5.1.20000708
                0x00012b98                pthread_cond_wait@@GLIBC_2.4
                0x00012ba4                free@@GLIBC_2.4
                0x00012bb0                iconv_close@@GLIBC_2.4
                0x00012bbc                wcwidth@@GLIBC_2.4
                0x00012bc8                close@@GLIBC_2.4
                0x00012bd4                re_search@@GLIBC_2.4
                0x00012be0                clearok@@NCURSESW6_5.1.20000708
                0x00012bec                memcpy@@GLIBC_2.4
                0x00012bf8                wcstombs@@GLIBC_2.4
                0x00012c04                iconv_open@@GLIBC_2.4
                0x00012c10                memmove@@GLIBC_2.4
                0x00012c1c                strncpy@@GLIBC_2.4
                0x00012c28                winchnstr@@NCURSESW6_5.1.20000708
                0x00012c34                win_wchnstr@@NCURSESW6_5.3.20021019
                0x00012c40                access@@GLIBC_2.4
                0x00012c4c                unlink@@GLIBC_2.4
                0x00012c58                ferror@@GLIBC_2.4
                0x00012c64                re_set_syntax@@GLIBC_2.4
                0x00012c70                strcpy@@GLIBC_2.4
                0x00012c7c                execv@@GLIBC_2.4
                0x00012c88                raise@@GLIBC_2.4
                0x00012c94                getgrgid@@GLIBC_2.4
                0x00012ca0                start_color@@NCURSESW6_5.1.20000708
                0x00012cac                atoi@@GLIBC_2.4
                0x00012cb8                dlsym@@GLIBC_2.4
                0x00012cc4                ftime@@GLIBC_2.4
                0x00012cd0                fork@@GLIBC_2.4
                0x00012cdc                signal@@GLIBC_2.4
                0x00012ce8                gettimeofday@@GLIBC_2.4
                0x00012cf4                getpwuid@@GLIBC_2.4
                0x00012d00                system@@GLIBC_2.4
                0x00012d0c                malloc@@GLIBC_2.4
                0x00012d18                localtime@@GLIBC_2.4
                0x00012d24                getcwd@@GLIBC_2.4
                0x00012d30                tcgetattr@@GLIBC_2.4
                0x00012d3c                pthread_cond_init@@GLIBC_2.4
                0x00012d48                kill@@GLIBC_2.4
                0x00012d54                strdup@@GLIBC_2.4
                0x00012d60                re_compile_pattern@@GLIBC_2.4
                0x00012d6c                strlen@@GLIBC_2.4
                0x00012d78                pthread_mutex_destroy@@GLIBC_2.4
                0x00012d84                chdir@@GLIBC_2.4
                0x00012d90                chmod@@GLIBC_2.4
                0x00012d9c                mktime@@GLIBC_2.4
                0x00012da8                wadd_wchnstr@@NCURSESW6_5.3.20021019
                0x00012db4                closedir@@GLIBC_2.4
                0x00012dc0                getpid@@GLIBC_2.4
                0x00012dcc                winnstr@@NCURSESW6_5.1.20000708
                0x00012dd8                __lxstat64@@GLIBC_2.4
                0x00012de4                select@@GLIBC_2.4
                0x00012df0                readlink@@GLIBC_2.4
                0x00012dfc                iswalpha@@GLIBC_2.4
                0x00012e08                fseeko64@@GLIBC_2.4
                0x00012e14                dup@@GLIBC_2.4
                0x00012e20                sprintf@@GLIBC_2.4
                0x00012e2c                snprintf@@GLIBC_2.4
                0x00012e38                fflush@@GLIBC_2.4
                0x00012e44                mbtowc@@GLIBC_2.4
                0x00012e50                curses_version@@NCURSES6_TINFO_5.0.19991023
                0x00012e5c                perror@@GLIBC_2.4
                0x00012e68                setlocale@@GLIBC_2.4
                0x00012e74                vfprintf@@GLIBC_2.4
                0x00012e80                mousemask@@NCURSESW6_5.1.20000708
                0x00012e8c                gnome_vfs_mime_application_free
                0x00012e98                strcmp@@GLIBC_2.4
                0x00012ea4                initscr@@NCURSESW6_5.1.20000708
                0x00012eb0                memcmp@@GLIBC_2.4
                0x00012ebc                memset@@GLIBC_2.4
                0x00012ec8                wrefresh@@NCURSESW6_5.1.20000708
                0x00012ed4                getenv@@GLIBC_2.4
                0x00012ee0                rename@@GLIBC_2.4
                0x00012eec                flock@@GLIBC_2.4
                0x00012ef8                mkfifo@@GLIBC_2.4
                0x00012f04                time@@GLIBC_2.4
                0x00012f10                meta@@NCURSES6_TINFO_5.0.19991023
                0x00012f1c                wait@@GLIBC_2.4
                0x00012f28                statfs64@@GLIBC_2.4
                0x00012f34                pthread_cond_broadcast@@GLIBC_2.4
                0x00012f40                fread@@GLIBC_2.4
                0x00012f4c                gnome_vfs_init
                0x00012f58                pthread_create@@GLIBC_2.4
                0x00012f64                strcat@@GLIBC_2.4
                0x00012f70                abort@@GLIBC_2.4
                0x00012f7c                init_color@@NCURSESW6_5.1.20000708
                0x00012f88                gnome_vfs_get_uri_from_local_path
                0x00012f94                waitpid@@GLIBC_2.4
                0x00012fa0                gnome_vfs_get_file_info
                0x00012fac                pthread_cond_timedwait@@GLIBC_2.4
                0x00012fb8                exit@@GLIBC_2.4
                0x00012fc4                calloc@@GLIBC_2.4
                0x00012fd0                setmntent@@GLIBC_2.4
                0x00012fdc                rmdir@@GLIBC_2.4
                0x00012fe8                strrchr@@GLIBC_2.4
                0x00012ff4                wmove@@NCURSESW6_5.1.20000708
                0x00013000                dup2@@GLIBC_2.4
                0x0001300c                getmntent_r@@GLIBC_2.4
                0x00013018                fgets@@GLIBC_2.4
                0x00013024                raw@@NCURSES6_TINFO_5.0.19991023
                0x00013030                utimes@@GLIBC_2.4
                0x0001303c                endmntent@@GLIBC_2.4
                0x00013048                memchr@@GLIBC_2.4
                0x00013054                read@@GLIBC_2.4
                0x00013060                readdir64@@GLIBC_2.4
                0x0001306c                pthread_mutex_unlock@@GLIBC_2.4
                0x00013078                wcrtomb@@GLIBC_2.4
                0x00013084                nl_langinfo@@GLIBC_2.4
                0x00013090                pthread_mutex_init@@GLIBC_2.4
                0x0001309c                fileno@@GLIBC_2.4
                0x000130a8                mkstemp64@@GLIBC_2.4
                0x000130b4                strspn@@GLIBC_2.4
                0x000130c0                open64@@GLIBC_2.4
                0x000130cc                ioctl@@GLIBC_2.4
                0x000130d8                fputs@@GLIBC_2.4
                0x000130e4                nanosleep@@GLIBC_2.4
                0x000130f0                iswprint@@GLIBC_2.4
                0x000130fc                putenv@@GLIBC_2.4
                0x00013108                ttyname@@GLIBC_2.4
                0x00013114                dlopen@@GLIBC_2.4

.iplt           0x00013120        0x0
 *(.iplt)
 .iplt          0x00013120        0x0 /usr/lib/gcc/arm-linux-gnueabihf/8/../../../arm-linux-gnueabihf/crt1.o

.text           0x00013120   0x223548
 *(.text.unlikely .text.*_unlikely .text.unlikely.*)
 *(.text.exit .text.exit.*)
 *(.text.startup .text.startup.*)
 *(.text.hot .text.hot.*)
 *(.text .stub .text.* .gnu.linkonce.t.*)
 .text          0x00013120       0x3c /usr/lib/gcc/arm-linux-gnueabihf/8/../../../arm-linux-gnueabihf/crt1.o
                0x00013120                _start
 .text          0x0001315c       0x24 /usr/lib/gcc/arm-linux-gnueabihf/8/../../../arm-linux-gnueabihf/crti.o
 .text          0x00013180       0x90 /usr/lib/gcc/arm-linux-gnueabihf/8/crtbegin.o
 .text          0x00013210     0x3b58 xe-xe.o
                0x00013210                xemain
                0x00013a50                uexitfunc
                0x00013ae8                uehexit
                0x00013b94                xecreateworkdir
                0x00013e08                xegetworkdir
                0x00014110                xecleartrcfile
                0x0001442c                xetraceinit
                0x00014704                parmproc00
                0x00014e90                parmproc0
                0x00015420                parmproc
                0x000160f4                numchk
                0x0001616c                titlemsg
                0x000161dc                help
 .text          0x00016d68      0x1d0 xe-xecalc.o
                0x00016d68                func_bc
 .text          0x00016f38     0x2ca0 xe-xecalc2.o
                0x00016f38                tc_blocksave
                0x00016f78                func_tc
                0x00017218                tc_help
                0x0001739c                tc_opdchk
                0x00018710                tc_fldnochk
                0x00018984                tc_getopd
                0x00018dd0                tc_getnumrange_f
                0x00018f58                tc_opdchk2
                0x00019428                tc_chkdatatype
                0x000194d0                tc_setplherr
                0x00019538                tc_calc
                0x000198b0                calc_m2bconststr
                0x00019a64                tcerrdatawidth
                0x00019a90                tcerrnorec
                0x00019ad8                tcerrinvalidforcount
                0x00019b00                tc_help0
                0x00019b24                tc_help1
                0x00019b48                tc_helpsum
                0x00019b6c                tc_help2
                0x00019b90                tc_help3
                0x00019bb4                tc_helpf
 .text          0x00019bd8     0x3998 xe-xecalc21.o
                0x00019bd8                tc_ft1
                0x0001a338                tc_ft1sum
                0x0001a5e8                tc_ft1sumdatatype
                0x0001a6a8                tc_ft1sumtotal
                0x0001a888                tc_ft1sumnobreak
                0x0001af68                tc_ft1sumdelplh
                0x0001aff4                tc_ft1sumchksumline
                0x0001b13c                tc_getisrtpos
                0x0001b2fc                tc_ft1sumkey
                0x0001c334                tc_ft1isrtsum
                0x0001ca1c                tc_ft1outsumline
                0x0001cf38                tc_updateprofile
                0x0001d01c                tc_editsumm
 .text          0x0001d570     0x42ec xe-xecalc22.o
                0x0001d570                tc_ft2
                0x0001e0bc                tc_ft2count
                0x0001f204                tc_getplhdata
                0x000200b0                tc_getlinedata
                0x00020610                tc_getlinedatanum
                0x000208ec                tc_setlinedata3
                0x00020988                tc_setlinedata
                0x00021104                tc_setlinedatacopy
 .text          0x0002185c     0x55a8 xe-xecalc3.o
                0x0002185c                tc_format
                0x00021938                tc_fmtopdchk
                0x00022280                tc_fmtopdchk2
                0x000226dc                tc_fmtopdchk3
                0x00022b34                tc_fmtmain
                0x00023248                tc_getplh
                0x000233a0                tc_chkfieldwidth
                0x00023b1c                tc_getfieldendaddr
                0x00024360                tc_getfieldendaddrquote
                0x00024acc                tc_chknonfmtfieldwidth
                0x00024d14                tc_fmtdata
                0x000259b8                tc_isrthdr
                0x00025d38                tc_ishdrline
                0x00026088                tc_chkhdr
                0x0002681c                tc_helpfmt
                0x00026840                chkhexdelm
                0x00026a14                xecalc3_tabchkDelmstr
                0x00026b44                xecalc3_umempbrk_nonascii_TABCHK
 .text          0x00026e04     0x95ac xe-xecap.o
                0x00026e04                capreset
                0x00026f94                capresetcalc
                0x00026fe0                capsavecsrpos
                0x000271ac                caplinechk
                0x00027378                capblockchk
                0x000277dc                func_copytocb_file
                0x00027860                func_lmark_file
                0x000278cc                func_stdcpregion_file
                0x00027ba0                func_block_file
                0x00027eb8                capselectallfilecmdstd
                0x00028080                capselectallfilecmdblocksub
                0x000282b4                func_copyword
                0x000288e8                capfilesavelcctforerrmsg
                0x00028958                func_copywordcmd_file
                0x000290d0                func_blockdel_file
                0x000290fc                func_blockclear_file
                0x00029128                capdel
                0x00029500                func_blockcutmove_file
                0x0002952c                func_blockclearmove_file
                0x00029558                capmove
                0x0002976c                capmovesub
                0x00029b90                capmoveovchk
                0x00029f84                func_blockrep_file
                0x00029fb0                func_blockrep_pan
                0x0002a030                func_blockins_file
                0x0002a084                func_blockins_pan
                0x0002a104                func_stdcppaste_pan
                0x0002a12c                func_stdcppaste_file
                0x0002a2c4                capcopy
                0x0002a5c8                captocmdline
                0x0002a65c                captopanfld
                0x0002a850                captofld
                0x0002b14c                capcopysub
                0x0002b3a4                capfcmdi
                0x0002b5f0                capfcmdi2
                0x0002b714                capfcmdi3
                0x0002b79c                func_lineexclude_file
                0x0002b91c                func_lineinclude_file
                0x0002b9f4                capgetdata
                0x0002bb38                capgetpfh
                0x0002beec                capsavedata
                0x0002d310                capsavedataword
                0x0002d700                xecapcvcb
                0x0002d908                capcut
                0x0002ddac                capclear
                0x0002e088                capgetpoint
                0x0002e244                capgetmouseword
                0x0002e6a8                capsavepoint
                0x0002eb04                capsavepointselectall
                0x0002ed2c                capsavepointselectallblock
                0x0002ef3c                capchkmergin
                0x0002f070                capsortpoint
                0x0002f2f4                capsortpointselectall
                0x0002f428                capgetcsrplh
                0x0002f4ac                capchkboxwidth
                0x0002f56c                cap_savecalcinfo
                0x0002f6f8                cap_calcrev
                0x0002f990                cap_getcalcprevinfo
                0x0002fa94                cap_getcalccurinfo
                0x0002fb7c                capcberr
                0x0002fba4                capmsgsaved
                0x0002fbc8                capnoblockerr
                0x0002fbf0                capchkcsrpos
                0x0002fe68                func_copywordcmd_dir
                0x00030080                capselectallfilecmdhelp
                0x000300b0                capselectallfilecmdblock
                0x000301c4                capselectallfilecmd
 .text          0x000303b0     0x2018 xe-xecap2.o
                0x000303b0                capcutregion
                0x00030adc                capclearregion
                0x00030d80                capstdpaste
                0x00031be0                capstdpasteblockline
                0x00032050                capcbstatr
                0x00032178                capcbstatw
                0x000323a0                caperrregionmode
 .text          0x000323c8     0x6388 xe-xechar.o
                0x000323c8                func_char_pan
                0x00032414                func_char_file
                0x00032460                charpan
                0x00032e4c                charfile
                0x0003376c                charcaps
                0x000337fc                charjoinchk
                0x00033d3c                charlcmdjoin
                0x00034014                charfldedit
                0x00037d2c                chartabexp
                0x00037f58                charjoinsetdbcstbl
                0x000380bc                charmaxovererr
                0x00038124                charfixlenovererr
                0x0003815c                charmerginerr
                0x00038194                helpchlcmd
                0x000381c4                charsetchlcmd
                0x000383bc                charfldeditchl
 .text          0x00038750     0x17c4 xe-xechar12.o
                0x00038750                charfieldfullerr
                0x00038778                chartabclear
                0x00038958                charcleartabdbcs
                0x000389dc                chargettablen
                0x00038a58                chargetkbdutf8
                0x00038ca0                charfldeditu8
                0x00039db4                cmdlinepos2offs
 .text          0x00039f14     0x213c xe-xechar13.o
                0x00039f14                charfldeditebc
 .text          0x0003c050     0x6740 xe-xechar2.o
                0x0003c050                func_del_pan
                0x0003c07c                func_del_file
                0x0003c0a8                func_eraseeol_pan
                0x0003c0d4                func_eraseeol_file
                0x0003c178                func_bs_pan
                0x0003c20c                func_bs_file
                0x0003c510                funcbschk
                0x0003c59c                func_erasetol_pan
                0x0003c5fc                func_erasetol_file
                0x0003c788                func_cleartol_pan
                0x0003c7b4                func_cleartol_file
                0x0003c858                func_splitline_file
                0x0003d2e8                charlcmdsplit
                0x0003d918                func_delline_file
                0x0003da84                func_insline_file
                0x0003dbc8                func_repline_file
                0x0003dd48                func_nexttab_file
                0x0003e9dc                char2tabstopchk
                0x0003eca8                func_prevtab_file
                0x0003f76c                charcap
                0x00041108                chartabrep
                0x000411e4                charcaponundoprep
                0x00041290                charcap2
                0x000424d8                charcaprev
                0x00042624                charsplitline
                0x000426d4                charconcatline
 .text          0x00042790     0x32d8 xe-xecsr.o
                0x00042790                csrinit
                0x000428f4                csrterm
                0x00042910                csrwrite
                0x00042988                csrforcewritereq
                0x000429c4                csrsetdbcstbl
                0x00042b90                csrsetdbcstbl2
                0x00042c28                csrresetobdbcs
                0x00042d08                csrcleardbcstbl
                0x00042d6c                csrchangetype
                0x00042de4                csrsetwait
                0x00042e58                csrhomepos
                0x00042ff4                csrtopleft
                0x00043034                csrlastpos
                0x0004314c                csronthefld
                0x00043260                csronthefldchk
                0x00043368                csrfldchksub
                0x00043444                csrrestore
                0x000434bc                csrloctogbl
                0x00043538                func_up
                0x000438f0                func_down
                0x00043d18                csrchardown
                0x00043d54                func_left
                0x00044124                func_right
                0x000444c0                csrcharright
                0x000444fc                prevposchk
                0x00044bc0                func_home
                0x00044c74                func_nextline
                0x00044f00                func_prevline
                0x000450d0                csrnexttaboftheline
                0x00045118                func_nexttab_pan
                0x0004533c                func_prevtab_pan
                0x000454ac                srchprevfld
                0x00045600                func_csrstep
                0x00045794                func_pos_pan
 .text          0x00045a68     0x5570 xe-xedcmd.o
                0x00045a68                dcmdinit
                0x00045a8c                dcmdrestoreconsolemode
                0x00045ab8                func_dos
                0x00045ea4                dcmd_drive
                0x00045edc                dcmd_pwd
                0x00045f24                dcmd_cd
                0x000467d0                dcmddrawcdir
                0x00046908                dcmd_xdd
                0x00046a14                dcmd_xdelete
                0x00046c3c                dcmddelxdd
                0x0004732c                dcmdxdconf
                0x000473d4                dcmdxdelete
                0x00047650                dcmd_rmdir
                0x000477ac                dcmdrmdir
                0x00047880                dcmd_mkdir
                0x00047aec                dcmdmkdir
                0x00047c5c                dcmd_rename
                0x00047e10                dcmdrename
                0x00048200                dcmd_xcopy
                0x000489d8                dcmd_append
                0x00048a3c                dcmdxcopy
                0x00048f48                dcmd_xmove
                0x000497f4                dcmd_chmod
                0x00049840                dcmd_attribute
                0x00049f14                dcmdattrchk
                0x0004a200                dcmdwildattr
                0x0004a2a4                dcmdattrchng
                0x0004a5f0                dcmdattrchng_ftp
                0x0004a634                dcmdattrchngunix
                0x0004a824                dcmdfullpathwild
                0x0004a8f8                dcmdfullpath
                0x0004acdc                dcmdexefullpath
                0x0004ad78                dcmddeleted
                0x0004adb0                dcmdconfallmemb
                0x0004ae44                dcmdhelpcopy
                0x0004ae68                dcmdhelpmove
                0x0004ae8c                dcmdhelpappend
                0x0004aeb0                dcmdattribhelp
                0x0004aef8                dcmdwildconf
 .text          0x0004afd8     0x4a00 xe-xedcmd2.o
                0x0004afd8                dcmd_xprint
                0x0004b038                dcmd_xprintsub
                0x0004b5ac                dcmd_print
                0x0004b64c                dcmdlongcmd
                0x0004b8cc                dcmdsystemcall_intf
                0x0004b9f8                dcmd_spawn
                0x0004bb38                dcmd_system
                0x0004bf00                dcmdsystemcall_spawn
                0x0004bf5c                dcmdsystemcall
                0x0004c87c                dcmdscrfnmedit
                0x0004ce64                dcmdwkdiredit
                0x0004d000                dcmdparseredirect
                0x0004d1e8                dcmdeditredirect
                0x0004d3e8                dcmdxpsetebcparm
                0x0004d6e8                dcmdxpfnmchk
                0x0004e96c                dcmdcpgetremotecopy
                0x0004ed24                dcmderrcurfile
                0x0004ed4c                dcmdsolast
                0x0004eee4                dcmd_system2
                0x0004f0c8                dcmdgetsofname
                0x0004f2fc                dcmdputcmdlog
                0x0004f45c                dcmdgetsofname2
                0x0004f5d8                dcmdterm
                0x0004f624                dcmdappendso
                0x0004f8ec                dcmdfresetlock2
                0x0004f928                dcmdextnmerr
                0x0004f960                dcmdnowork
                0x0004f988                dcmdxprlblerr
                0x0004f9b0                dcmdredirectparmerr
 .text          0x0004f9d8     0x3400 xe-xedcmd3.o
                0x0004f9d8                func_submit
                0x00050d14                func_rsh
                0x00051934                dcmdrshlocalfile
                0x00051c88                dcmdrshgetuseridparm
                0x00051d98                dcmdrshcreatetempshell
                0x00051f10                dcmdrloginsetup
                0x0005218c                dcmd_rlogin
                0x000522ac                dcmdrloginlog
                0x00052474                dcmd_rshhelp
                0x00052498                dcmd_hostiderr
                0x000524d4                dcmd_xenv
                0x0005271c                dcmdxenvvar
                0x00052968                dcmdxenvfile
                0x00052c84                dcmdenvinit
                0x00052d90                dcmdxenvhelp
                0x00052db4                dcmdsubmithelp
 .text          0x00052dd8     0x1a34 xe-xedcmd4.o
                0x00052dd8                dcmdstrchk
                0x00052f64                dcmd_grep
                0x00053a50                dcmd_grepdlcmd
                0x00053b80                dcmd_comparedlcmd
                0x00053c48                dcmdwritehdrline
                0x00053da0                dcmdgetgrepresult
                0x00054190                dcmdgrephighlight
                0x00054470                dcmdwdclear
 .text          0x0005480c     0x2c24 xe-xedir.o
                0x0005480c                func_end_dir
                0x000548f8                func_cancel_dir
                0x000549dc                dirload
                0x00055934                dirplhfail
                0x00055964                dirgetlist
                0x00055af4                dirgetfstat
                0x00055d28                dirsetdata
                0x00055f78                dirsetdatasub
                0x00056370                dirsetdatasub2
                0x000565bc                dirresetftpfiletime
                0x000566f8                dirclosefree
                0x00056854                dirclosefree2
                0x00056968                diralloclh
                0x00056c24                dirfree
                0x00056c7c                dirfreeplh
                0x00056e28                dirlvlfname0
                0x00056ecc                dirlvlfname
                0x000570fc                dirrenum
                0x000571b8                dirnexttab
                0x00057250                dirupdatename
 .text          0x00057430     0x8004 xe-xedir2.o
                0x00057430                dirregist
                0x00057780                dirresize
                0x000578f8                dirwakeup
                0x00057924                func_draw_dir
                0x00058938                dirddsetup2
                0x00058980                dirddsetup
                0x0005a7b8                dirlineattr
                0x0005b378                dirlineattrrenamefld
                0x0005b5c8                dirlineattrdescfld
                0x0005b808                dirgetfldpos
                0x0005b994                dirgetflddata
                0x0005ba54                dirsetflddata
                0x0005bbcc                dirgetfldoffs
                0x0005bc68                dirsetflddataDDFMT
                0x0005be50                dirsetflddataDDFMT2
                0x0005c054                dirsetdescdata
                0x0005c0f8                dirsavename
                0x0005c248                dirgetflddata_l2f
                0x0005c438                dirsetflddata_f2l
                0x0005c650                dirsavename_byutf8
                0x0005c7c0                dirsavename_byu8lc
                0x0005c984                dirsavenameDDFMT2
                0x0005c9b8                dirsetflderr
                0x0005ca1c                dirattrbit
                0x0005cc00                dirattrbit_mdos
                0x0005cd28                dirugidedit
                0x0005d070                dirsetdbcssplit
                0x0005d464                dirsetdbcstbl
                0x0005d5d8                dirsetdbcstblDDFMT
                0x0005dc04                dirgetnameslink
                0x0005e09c                dirgetword
                0x0005e478                dirvsplitshift
                0x0005ea50                drawrenameDDFMT
                0x0005ecbc                drawrenameDDFMT2
                0x0005edb0                dirgetmixstropt
                0x0005ee20                dirsethdrhex
                0x0005eed0                dirgethexdata
                0x0005f0e4                dirdisplayhex
 .text          0x0005f434     0x3bf0 xe-xedir3.o
                0x0005f434                func_exec_dir
                0x0005f570                func_dlcmdcut_dir
                0x0005fb68                xedirsetuprenamedraw
                0x0005fd04                func_dlcmdpaste_dir
                0x0005fec0                dirpasterenamefld
                0x000604f8                func_dlcmdchngsz_dir
                0x00060690                func_dlcmduidorsz_dir
                0x000608a8                func_dlcmdlfn_dir
                0x00060958                dirddresetall
                0x00060b08                dirddresetallsub
                0x00060c08                func_selecttext
                0x00060c54                func_selectbin
                0x00060ca0                func_selectspf
                0x00060cec                func_selectspfcob
                0x00060d38                func_selectspfcobnum
                0x00060d84                func_selectspfcob2
                0x00060dd0                func_selectspfcob2num
                0x00060e1c                func_selectf80
                0x00060e68                func_selecthex_file
                0x00060eb4                func_select
                0x00061470                func_select_filefuncid
                0x000615f4                dirfunccall
                0x00061670                dirlocate
                0x000618e4                func_locate_dir
                0x00061d04                dirlocateparmchk
                0x00061de8                func_pathup
                0x00062398                func_pathdown
                0x000627ec                dirpatherr
                0x00062824                func_linetop_dir
                0x000629a8                func_lineend_dir
                0x00062bb4                func_sort_dir
                0x00062d44                getdefaultentry
                0x00062e18                getlinenumbername
 .text          0x00063024     0x189c xe-xedir4.o
                0x00063024                func_desc_dir
                0x00063150                dirgetdesc
                0x00063630                dirgetdescDDFMT
                0x00063958                dirgetstream
                0x00063984                dirgetdescfromfile
                0x00063be8                dirdescdbcschk
                0x00063d0c                dirdescdbcschkDDFMT
                0x00063d8c                dirsetlocalename
                0x00064138                dirgetfstatforpath
                0x0006421c                dirsetlocalenameforpath
                0x000643c0                dircharcsr
                0x00064478                dirsetddfmtname
                0x0006473c                dirsetddfmtname_renamesv
 .text          0x000648c0     0x4304 xe-xedlcmd.o
                0x000648c0                dlcmdmain
                0x00064d54                dlcsaveviewpcw
                0x00064d7c                dlcsavepend
                0x000651e0                dlcmdreset
                0x000653b0                dlcmdsetlcmd
                0x00065620                dlcmddndselect
                0x0006564c                dlcmddndset
                0x000657b0                dlcmddndreset
                0x00065998                dlcmddndgetpendctr
                0x00065aa4                dlccleardeleted
                0x00065be4                dlcsrchplh
                0x00065cc0                dlcclearplcdeleted
                0x00065d60                dlcotherclient
                0x0006622c                dlcproc
                0x00066ae4                dlcsamechk
                0x00066ca0                dlccallfunc
                0x00066e00                dlcresultset
                0x00066ec4                dlcgetlinecmd
                0x00067014                dlcsrchcmdtbl
                0x00067094                dlclinenocomp
                0x000671f4                dlcmdfe
                0x00067898                dlcmdupctr
                0x00067a84                dlcprinted
                0x00067b3c                dlcftpaddentry
                0x00067d04                dlcftpmultidel
                0x000682a0                dlcftpmultdelgetrc
                0x000683e0                dlcftpfree
                0x00068470                dlcrooterr
                0x00068498                dlcverberr
                0x000684f0                dlcerrrecord
                0x00068530                dlcerrmixed
                0x00068570                dlcfuncdescription
 .text          0x00068bc4     0x4abc xe-xedlcmd2.o
                0x00068bc4                dlcmdselect
                0x00068c24                dlcmdselecttext
                0x00068ca0                dlcmdopen
                0x00068d7c                dlcmdbrowse
                0x00068ee0                dlcmdbrowse2
                0x00068f18                dlcmdedit2
                0x00068f50                dlcmdedit3
                0x00068fd4                dlcmdbinbe3
                0x00069050                dlcmdeditf80
                0x000690cc                dlcmdbinbe
                0x00069438                dlcmdbinbefuncid
                0x000696dc                dlcmdedit
                0x0006983c                dlcmdviewb
                0x0006999c                dlcmdviewe
                0x00069afc                dlcmdhex
                0x00069b38                dlcmdcobnum
                0x00069b74                dlcmdcobspace
                0x00069bb0                dlcmdspfcobnum
                0x00069bec                dlcmdspfcobspace
                0x00069c28                dlcmdspf
                0x00069c64                dlcmdbecmdid
                0x00069cf4                dlcmdotherbecmd
                0x00069d98                dlcmdotherbecmdfuncid
                0x00069e5c                dlcmddeqpfc
                0x0006a018                dlcmdresetdata
                0x0006a254                dlcmdfree
                0x0006a2d4                dlcmdfreesub
                0x0006a390                dlcmdcd
                0x0006a5a8                dlcmdexpandall
                0x0006a6a0                func_dlcmdrefresh
                0x0006a934                dlcmdexpand
                0x0006acfc                dlcmdexpandbysort
                0x0006b120                dlcmdrefreshsub
                0x0006b460                dlcmdexpand1
                0x0006bbd8                dlcmdgetexpopt
                0x0006be2c                dlcmdunexpand
                0x0006bf4c                dlcmdpath
                0x0006c268                dlcmdexclude
                0x0006c458                dlcmdunexclude
                0x0006c548                dlcmdsetszorlc
                0x0006c7b4                dlcmdsetszorlcsub
                0x0006cad4                dlcmdresetparentsz
                0x0006cd04                dlcmdlvlclear
                0x0006cf34                dlcgetdirlistfname
                0x0006d06c                dlcgetfullname
                0x0006d39c                dlcgetfullnameenclose
                0x0006d574                dlcslinkerrmsg
                0x0006d5f0                dlcgetfullnamefilejunctiontarget
 .text          0x0006d680     0x3bc4 xe-xedlcmd3.o
                0x0006d680                dlcmddeleter
                0x0006d6c4                dlcmddeletez
                0x0006d708                dlcmddeletezr
                0x0006d74c                dlcmddelete
                0x0006dd8c                dlcmdresetwildmultiple
                0x0006dfc4                dlcmddelflag
                0x0006e024                dlcmddelview
                0x0006e088                dlcmdrename
                0x0006e594                dlcmdcopymove
                0x0006f28c                dlcmdcopymoveeditrenamefld
                0x0006f504                dlcmdmoveflag
                0x0006f578                dlcmdattrib
                0x0006f9b8                dlcmdattribtso
                0x0006fc54                dlcmdprint
                0x0006ff40                dlcmdxpflist
                0x00070568                dlcmdappendwildcard
                0x000709ec                dlcxpgettmpdir
                0x00070ad4                dlcxpsetremotefname
                0x00070fa0                dlcxpdelremotetemp
                0x00071040                dlcfsiupdate
                0x0007111c                dlcmdnoattrerr
                0x00071144                dlcmdnodesterr
                0x0007116c                erronsinglescreen
                0x000711ac                dlcloadchk
 .text          0x00071244     0x3c20 xe-xedlcmd4.o
                0x00071244                dlcmdundelinit
                0x00071448                dlcmdtbitchk
                0x00071538                dlcmdundelterm
                0x000717cc                dlcmdgetdirname
                0x00071894                dlcmdwildrenamemsg
                0x000718cc                dlcmdundelete
                0x00071fcc                dlcmdundelfromsave
                0x00072718                dlcmdtsoundelfromsave
                0x00072d30                dlcmdftpundelfromsave
                0x00073104                dlcmdsrchindexf
                0x00073308                dlcmdsrchundel
                0x000733dc                dlcmdundelprep
                0x000737b4                dlcmdtsoundelprepdir
                0x000739b4                dlcmdftpundelprepdir
                0x00073b0c                dlcmdftpundelprechk
                0x00073ba0                dlcmdftpundelnamechk
                0x00073c5c                dlcmdftpundelname
                0x00073d1c                dlcmdftpundelprep
                0x00073e58                dlcmdftpclearundelsave
                0x00074118                dlcftpmultidelterm
                0x00074310                dlcmdgetunddir
                0x00074628                dlcmdgetunddirsub
                0x00074700                dlcmdgetindex
                0x00074838                dlcmdchngname
                0x00074994                getundeldate
                0x000749cc                errnodata
                0x000749f4                errinvaliddata
                0x00074a1c                dlcUndelPrepRenameLongname
                0x00074c94                dlcmdftpclearundelsaveDeleted
                0x00074e14                dlcmdftpclearundelsaveDeletedDir
 .text          0x00074e64     0x29b8 xe-xedlcmd5.o
                0x00074e64                dlcmdeditenq
                0x00074f48                dlcmdeditenq2
                0x000750f4                dlcmdeditenq3
                0x000751b8                dlcmdseteditlc
                0x000753b4                dlcpdhsrch
                0x000757ac                dlcpdhsrch2
                0x00075bf4                dlcpdhsrchts
                0x00075f00                dlcisrtpdh
                0x000764e0                dlcmdviewscrswap1
                0x000765fc                dlcmdviewscrswap2
                0x000766bc                dlcunexsub
                0x0007678c                dlcchngfh
                0x00076c08                dlclvlmerge
                0x00077020                dlclvlmerge2
                0x000773a8                dlcdelentry
                0x000776b8                dlcfncomp
                0x000777f4                errnotdir
 .text          0x0007781c     0x3ffc xe-xedlcmd6.o
                0x0007781c                dlcmdaclist
                0x00077b04                dlcmdaclisttso
                0x00077f24                dlcmdgetcmdstr
                0x0007821c                dlcmdgetcmdstrtso
                0x00078590                dlcmdappcmdedit
                0x00078aac                dlcmdsubrshcmdedit
                0x00078bc0                dlcmdappcmd
                0x00079064                dlcmdappasync
                0x00079328                dlcmdtsosub
                0x00079620                dlcmdsubrshcmd
                0x0007965c                dlcmdspawn
                0x000797b8                dlcmdopenwith
                0x0007988c                dlcmdopenwithsub
                0x00079920                dlcmdassocchk_fnamelist
                0x000799ec                dlcmdassocchk_dirlist
                0x00079aa4                dlcmdgrep
                0x0007a098                dlcmdcompare
                0x0007ab40                dlccompchkfiletype
                0x0007afe4                dlcmdgetcmdparm
                0x0007b2f8                func_sendins_dir
                0x0007b324                func_sendrep_dir
                0x0007b350                func_senddel_dir
                0x0007b37c                func_sendup_dir
                0x0007b3a8                func_senddown_dir
                0x0007b3d4                funcsenddir
                0x0007b4d4                dlcmdsend
                0x0007b544                dlcmdsendsub
                0x0007b690                dlcmdsenddnd
 .text          0x0007b818     0x61d4 xe-xeebc.o
                0x0007b818                xeebc_init
                0x0007bb1c                xeebc_term
                0x0007bb60                xeebc_ucs2ebc1
                0x0007bbdc                xeebc_m2b1
                0x0007bc6c                xeebc_ascii2b
                0x0007bd9c                xeebc_m2ddebc
                0x0007bf80                xeebc_m2bsrchstr
                0x0007c134                xeebc_dropsosi
                0x0007c290                xeebc_f2bsetdbcs
                0x0007c3f4                xeebc_m2bsetdbcs
                0x0007c700                xeebc_b2ddtab
                0x0007ca0c                xeebc_b2mgetiblen
                0x0007cc34                xeebc_b2mdbcschk
                0x0007cd88                xeebc_b2mpsd
                0x0007cf08                xeebc_b2msetdbcs
                0x0007d3f0                xeebc_b2b
                0x0007d5e8                xeebc_b2fl
                0x0007d78c                xeebc_b2f
                0x0007d884                xeebc_f2b
                0x0007d970                xeebc_linechk
                0x0007d9ec                xeebc_setdbcstblplh
                0x0007db98                xeebc_b2syn
                0x0007dd60                xeebc_setdbcstbl
                0x0007de38                xeebc_chargetkbd
                0x0007e230                xeebc_filesetsosi
                0x0007e938                xeebc_getdbcssplitctr
                0x0007ec60                xeebc_cvdatawb
                0x0007ee78                xeebc_modechng
                0x0007f0ac                xeebc_umemmem_bandl
                0x0007f180                xeebc_cvmemcmp
                0x0007f854                xeebc_cvmemcmpb2b
                0x0007fa0c                xeebc_createhandle
                0x0007fadc                xeebc_filesetsosiplhupdate
                0x0007fd00                xeebc_filesetsosiplh
                0x0007ffb0                xeebc_filesetsosibnds
                0x00080774                xeebc_setdbcssplitsetsosiR
                0x00080a30                xeebc_setdbcssplitsetsosiL
                0x00080d3c                xeebc_getdbcssplitctrL
                0x00080f60                xeebc_setdbcssplitsetsosi
                0x0008102c                xeebc_setdbcssplitsetsosiOB
                0x000811b4                xeebc_dbcssplitlen
                0x00081404                xeebc_filesetsosistr
 .text          0x000819ec     0x1154 xe-xeerr.o
                0x000819ec                xeerr_seterrmsgct
                0x00081dd8                xeerrmsg
                0x0008258c                errmissing
                0x000825b4                errtoomany
                0x000825dc                errinvalid
                0x000826bc                errdbcsinput
                0x000826e4                errnotnumeric
                0x0008270c                errnotascii
                0x00082734                errtoolong
                0x0008275c                errlcmd
                0x00082784                erralready
                0x000827ac                errbrowsemode
                0x000827d4                errcsrpos
                0x000827fc                errdir
                0x00082834                errformat
                0x0008286c                errovermax
                0x000828c4                errprotected
                0x000828ec                errmarginboundary
                0x00082914                errconflict
                0x0008297c                errscrtype
                0x000829b4                errnotsupported
                0x000829f4                errscrnotsplited
                0x00082a2c                err2ndscrisnotfile
                0x00082a64                errnotvalidhexchar
                0x00082a8c                erroptionforbinfile
                0x00082ac8                errutf8andnonutf8
                0x00082b04                errwildnamemultiple
 .text          0x00082b40     0x481c xe-xefcmd.o
                0x00082b40                func_save_file
                0x00082df4                func_repl_file
                0x00082e20                func_cut_file
                0x00082e4c                func_create_file
                0x00082e78                func_append_file
                0x00082ea4                fcmdfileout
                0x000835f4                fcmdfilefind
                0x00083690                fcmdfilefind2
                0x0008370c                fcmdoutfnmedit
                0x0008387c                fcmdcalllcmd
                0x00083940                fcmdoutrange
                0x00083a40                fcmdoutrangebs
                0x00083b2c                fcmddisptabaltch
                0x00083cb8                fcmdgetaltchUCS
                0x00084124                fcmdgettabaltch
                0x00084650                func_tabctr_file
                0x00084c00                fcmdcopyoptchk
                0x000850d0                func_copy_file
                0x00085554                func_paste_file
                0x000856a4                addifline0
                0x00085800                fcmdaddslh
                0x000859bc                fcmdcvf2l
                0x00085c90                fcmdgetcopyline
                0x00086118                func_locate_file
 .text          0x0008735c     0x2528 xe-xefcmd2.o
                0x0008735c                func_find_file
                0x000873a8                func_ifind_file
                0x000873f4                fcmd2saverestorx
                0x00087514                func_exclude_file
                0x00087568                func_iexclude_file
                0x000875bc                func_findnx_file
                0x00087608                func_ifindnx_file
                0x00087654                func_rfind_file
                0x00087684                func_revrfind_file
                0x000876fc                func_change_file
                0x00087748                func_changenx_file
                0x00087794                func_ichange_file
                0x000877e0                func_ichangenx_file
                0x0008782c                func_rchange_file
                0x0008785c                func_revrchange_file
                0x0008788c                func_findwordF_file
                0x000878e8                func_findwordB_file
                0x00087944                func_ifindwordF_file
                0x000879a0                func_ifindwordB_file
                0x000879fc                func_findPSF
                0x00087a38                func_findPSP
                0x00087a74                func_revfindPSP
                0x00087ab0                func_revfindPSF
                0x00087aec                func_displayPS
                0x00087b14                fcmdwfparm
                0x0008839c                fcmdrfparm
                0x00088e44                fcmdescsrch
                0x00088f20                fcmdsrcherr
                0x000897ec                fcmdothererrmsgcat
 .text          0x00089884     0x4eac xe-xefcmd22.o
                0x00089884                fcmdgetfindoption
                0x0008a180                fcmdgetcsropt
                0x0008a45c                fcmdoperandrearange
                0x0008af94                fcmdsetrange
                0x0008b324                srchsubcmd
                0x0008b3b0                fcmdchkucsopt
                0x0008b514                fcmdscrollpage
                0x0008b9cc                fcmdscrollpagemid
                0x0008ba1c                fcmdfindscroll
                0x0008bc70                fcmdfindscrollvhexline
                0x0008be34                fcmdcountvhexline
                0x0008bf74                fcmdtabsrch
                0x0008c544                fcmdutf8echsrch
                0x0008c788                fcmdchkescseq
                0x0008c930                fcmdsetabrange
                0x0008cd50                fcmdxall
                0x0008d100                fcmdsetfoundlinelabel
                0x0008d37c                fcmdlabelerr
                0x0008d3b4                fcmdfindhelp
                0x0008d494                fcmdrestorePS
                0x0008d52c                fcmderrPSotheropd
                0x0008d568                fcmderrPSNootheropd
                0x0008d5a4                fcmderrPSnotsaved
                0x0008d630                fcmddisplayPS
                0x0008d6e0                fcmddisplayPSall
                0x0008d81c                fcmdexecutePS
                0x0008d890                fcmdrestorePScmdline
                0x0008d8d0                fcmdsetPSopdpos
                0x0008d9b4                fcmdcreatepufc
                0x0008da60                fcmdgetfindoptionPScmd
                0x0008dc38                fcmdgetfindoptionPS
                0x0008dee8                fcmdgetfindoptionPSstd
                0x0008df34                fcmd2term
                0x0008df9c                fcmdrestoreforfindPS
                0x0008dfc8                fcmdrgetpufcPStype
                0x0008e064                fcmdchkPS
                0x0008e09c                fcmdcallrfind
                0x0008e128                fcmdsrchPSPPSF
                0x0008e208                fcmdsrchPSP
                0x0008e24c                fcmdsrchPSF
                0x0008e290                fcmdsrchSTD
                0x0008e340                fcmdPSinit
                0x0008e6f8                finderr_notdirlist
 .text          0x0008e730     0x5e50 xe-xefcmd23.o
                0x0008e730                fcmdsplitsrch
                0x0008f5b4                fcmdtabcmp
                0x0008f690                fcmdnextofspan
                0x0008f830                fcmdsplitdisplay
                0x0008f9b0                fcmdsplitrep
                0x0008fbd4                fcmdgetstartplhoffs
                0x0008febc                fcmdbndstgettop
                0x0008ff0c                fcmdbndstsrch
                0x000902f8                fcmdbndstfree
                0x00090350                fcmdbndstupdate
                0x00090628                fcmdbndstgetcol
                0x00090720                fcmdbndsset
                0x00090a30                func_bnds
                0x000911f0                fcmdgetbnds
                0x00091388                fcmdddstrsrch
                0x00092098                fcmdddstrcmp
                0x000922b4                fcmdsearchoncmdbuff
                0x0009269c                fcmd_savelcctforerrmsg
                0x00092cfc                fcmd_bitcodetype
                0x00092f08                fcmdcvl2fsrchstr
                0x0009311c                fcmdsetupddsrch
                0x000934f0                fcmdisddsrch
                0x00093784                fcmdgetebcsrchstr
                0x00093bb0                fcmdcvesc2dd
                0x00093df8                fcmdescsrchinit
                0x00093ef4                fcmdddstrsrch_dir
 .text          0x00094580     0x8984 xe-xefcmd24.o
                0x00094580                fcmdsamesrch
                0x00094ab8                fcmdsamematch
                0x00094e58                func_xx_file
                0x00095328                func_ppsrchnx
                0x00095370                func_ppsrch
                0x00095a44                ppsrchsub
                0x0009606c                ppsrchsub2
                0x00096ea0                ppsrchmac
                0x00097388                ppsrchmacrochk
                0x00097ccc                fcmdgetabplh
                0x00097e78                fcmdget2ndpfh
                0x00097fd8                fcmdcvsrchword
                0x00098870                fcmdsrchword
                0x00098f44                fcmdsrchwordopdchk
                0x00099c38                fcmdgetword
                0x00099e10                ppsrchword
                0x0009a6a0                isValidElementName
                0x0009a760                getxmltype
                0x0009ae84                xml_gettypename
                0x0009b1e4                xmlsrchwordsub
                0x0009b62c                xmlchkcomment
                0x0009b9b4                xmlsrchtagnest
                0x0009bc18                xmlchkpartialname
                0x0009bd4c                xmlsrchwordnest
                0x0009c68c                xmlsrchword
                0x0009c818                xmlsrchsub
                0x0009cba4                func_xmlsrch
 .text          0x0009cf04     0x3d78 xe-xefcmd25.o
                0x0009cf04                fcmdrfind
                0x0009df84                fcmdfind
                0x0009e028                fcmdfindsub
                0x0009eb78                operandchk
                0x000a0550                fcmdesctabchk
                0x000a0718                fcmdgetescsrchword
                0x000a09ac                fcmd_execfindcmd
 .text          0x000a0c7c     0x9bb4 xe-xefcmd26.o
                0x000a0c7c                fcmdstrnstri
                0x000a0e40                linesrchstring
                0x000a1920                linesrchstringsub
                0x000a60c0                fcmdsetfindhighlight
                0x000a7038                fcmdallxchk
                0x000a7310                fcmdspannedline
                0x000a77bc                fcmdaroundline
                0x000a7e3c                fcmdaroundlinesub
                0x000a8250                wordrep_setsosi
                0x000a8854                wordrep
                0x000a9b38                wordrepp
                0x000a9c58                fcmdddstrsrch_dirfnm_ascii
                0x000a9d70                fcmdddstrsrch_dirfnm
                0x000aa344                fcmdfind_dirattr
                0x000aa6a4                fcmdfind_dirts
 .text          0x000aa830      0x7d4 xe-xefcmd27.o
                0x000aa830                fcmdgrepcomp
                0x000aa9ec                fcmdgrepplh
                0x000aaca4                fcmdcvpicture
 .text          0x000ab004     0x3300 xe-xefcmd3.o
                0x000ab004                func_cid
                0x000abe6c                fcmdcidsettop
                0x000ac190                fcmdchkcidtopfile
                0x000ac3b4                fcmdisrtline
                0x000ac730                fcmdisrtlinedbcs
                0x000ac7f8                fcmdisrtlinedbcsebcsosi
                0x000ac9c4                fcmdcidhelp
                0x000acc74                func_setscroll
                0x000acd58                func_renum
                0x000acdec                func_number
                0x000ad848                fcmdgetrenumsetfld
                0x000ad9a0                fcmdnumajustlinenosz
                0x000adac0                func_version
                0x000adc50                func_drop_file
                0x000adf9c                fcmdgetlabelrange
                0x000ae254                fcmdpostfixlenerr
                0x000ae28c                fcmdinvalidfile
                0x000ae2b4                fcmdinvalidbinfile
                0x000ae2dc                fcmdinvalidforspf
 .text          0x000ae304     0x3880 xe-xefcmd4.o
                0x000ae304                func_sort
                0x000ae52c                fcmdsortopdchk
                0x000aeaa4                fcmdsortproc
                0x000afa78                fcmdsortbndsupdate
                0x000b01fc                sortddcmp
                0x000b031c                sortlinecomp
                0x000b07e0                func_col
                0x000b0c00                fcmdcolfree
                0x000b0cb4                fcmdcolalloc
                0x000b16a0                fcmdinitialcols
                0x000b181c                fcmdgetlabparm
 .text          0x000b1b84     0xd84c xe-xefcmd42.o
                0x000b1b84                fcmdtflowlcmd
                0x000b2080                func_tflow
                0x000b2134                fcmdsplit
                0x000b3320                fcmdsplitbydelm
                0x000b42f8                fcmdchangewidth
                0x000b449c                fcmdchangewidthsub
                0x000b4828                fcmdsplitexp
                0x000b4c54                fcmdsplitsplit
                0x000b52d4                fcmdtflowsplit
                0x000b59a8                fcmdtflowsplitlen
                0x000b6070                fcmdgetparagendplh
                0x000b62d8                fcmdtflowgetindent
                0x000b67ec                fcmdtflowindentshift
                0x000b6cb4                fcmdsplitspace1
                0x000b71f8                fcmdsplitjoin
                0x000b89fc                fcmdtflowjoin
                0x000b9220                fcmdtflowjoinsub
                0x000b9d04                fcmdsplitlen
                0x000bba04                fcmdsplitbydelmbndseach
                0x000bbba4                fcmdsplitbydelmbnds
                0x000bce40                fcmdsplitbndsgetsrc
                0x000bdf48                fcmdsplitbndsjoinedsplit
                0x000be0c8                fcmdsplitlenbnds
                0x000be42c                fcmdsplitbndsgetsrcplh
                0x000bef98                fcmdsplitbndsupdate
 .text          0x000bf3d0     0x3750 xe-xefcmd43.o
                0x000bf3d0                fcmdsplitcut
                0x000bfd30                fcmdcutoff
                0x000bfec4                fcmdsplitbin
                0x000c0470                fcmdsplitsplitbin
                0x000c06fc                fcmdsplitjoinbin
                0x000c0fcc                fcmdsplitspace1data
                0x000c1280                fcmdplhpadspace
                0x000c142c                fcmdresettemperr
                0x000c14f4                fcmdsettemperr
                0x000c1554                func_join_file
                0x000c1af4                fcmdjoinx
                0x000c1c9c                fcmdjoinnx
                0x000c1f00                fcmdebcsplitlen
                0x000c2100                fcmdebcappendsoeol
                0x000c22bc                fcmdebcchkdbcsconcat
                0x000c23c4                fcmdebcchkdbcsconcatbndsupdateL
                0x000c24c0                fcmdebcchkdbcsconcatbndsupdateR
                0x000c25d0                fcmdebcchkdbcsconcatbndsupdate
                0x000c276c                fcmdebcchkdbcsconcatbnds
 .text          0x000c2b20     0x6488 xe-xefcmd5.o
                0x000c2b20                func_dbcsconv
                0x000c4694                fcmdgetopt
                0x000c479c                fcmdgethexparm
                0x000c49cc                fcmdxnotepchk
                0x000c4abc                fcmddbcsconv
                0x000c5e18                fcmdhex2ascii
                0x000c6478                fcmdhexconv
                0x000c670c                fcmdmulthexconv
                0x000c6a68                fcmdxnotehexconv
                0x000c6da0                fcmdkandl
                0x000c6f94                fcmducsconv
                0x000c776c                fcmdcvgetdata
                0x000c79b8                fcmdcvsavedata
                0x000c7edc                fcmdcvfuncerr
                0x000c80f0                fcmdsetfound
                0x000c88a0                fcmdcvundo
                0x000c8970                fcmdcvajusttab
                0x000c8a64                fcmdcvajusttabsub
                0x000c8c14                fcmdcvajusttabsub2
                0x000c8e64                fcmdcvconflict
                0x000c8e8c                fcmdallocmfwt
 .text          0x000c8fa8     0x8350 xe-xefcmd6.o
                0x000c8fa8                func_rotate
                0x000c9110                fcmdrotateopdchk
                0x000c94f4                fcmdgetabrange
                0x000c9610                fcmdrotatemain
                0x000c9d08                fcmdrotaterl
                0x000caa1c                fcmdrotatey
                0x000cb29c                fcmdajr
                0x000cbaa8                fcmdrotatex
                0x000cc354                fcmdlineupdate
                0x000cc608                func_openwith
                0x000cc704                func_profile
                0x000cc880                fcmdprofhelp
                0x000cc8b0                fcmdprofshowstat
                0x000ccc08                fcmdprofshowrecord
                0x000cd250                fcmdprofcurstat
                0x000cd95c                fcmdprofgetprofilebyfilename
                0x000cd9f4                fcmdprofgetprofile
                0x000ce698                fcmdprofgetprofilerecord
                0x000ce9d4                fcmdprofmergerecord
                0x000ced20                fcmdprofupdaterecord
                0x000cf750                fcmdprofupdaterecordcmd
                0x000d00f0                fcmdprofwriterecord
                0x000d02a4                fcmdprofgetfnm
                0x000d0888                fcmdprofreadrecord
                0x000d09f4                fcmdprofinitrecord
                0x000d0a3c                fcmdprof83wd
                0x000d0a64                fcmdprof83io
                0x000d0f00                fcmdprof83ioread
                0x000d10bc                fcmdprof83iosrch
                0x000d1188                fcmdprof83q
                0x000d12c0                fcmdproferrnoext
 .text          0x000d12f8      0xef4 xe-xefcmd7.o
                0x000d12f8                funcsp_help
                0x000d1324                funcsp_errline
                0x000d136c                func_shortpath
                0x000d15d0                funcsp_getentry
                0x000d17e4                funcsp_load
                0x000d1b0c                funcsp_init
                0x000d1b38                funcsp_append
                0x000d1c30                funcsp_term
                0x000d1c58                funcsp_edit
                0x000d1cb8                funcsp_chkopen
                0x000d1dec                funcsp_refresh
                0x000d1e88                funcsp_add
                0x000d2138                funcsp_fncomp
                0x000d2190                funcsp_search
 .text          0x000d21ec     0x39ac xe-xefile.o
                0x000d21ec                fileinit
                0x000d23e0                fileterm
                0x000d24f4                fileeditso
                0x000d2570                func_edit_file3
                0x000d25e0                func_editbin_file
                0x000d2628                func_edittext_file
                0x000d2670                func_editspf_file
                0x000d26b8                func_editspfcob_file
                0x000d2700                func_editspfcobnum_file
                0x000d2748                func_editspfcob2_file
                0x000d2790                func_editspfcob2num_file
                0x000d27d8                func_editf80_file
                0x000d2820                func_edithex_file
                0x000d2868                func_edit_file2
                0x000d2a0c                func_edit_file
                0x000d3074                func_browsetext_file
                0x000d30bc                func_browsebin_file
                0x000d3104                func_browsespf_file
                0x000d314c                func_browsespfcob_file
                0x000d3194                func_browsespfcobnum_file
                0x000d31dc                func_browsespfcob2_file
                0x000d3224                func_browsespfcob2num_file
                0x000d326c                func_browsef80_file
                0x000d32b4                func_browsehex_file
                0x000d32fc                func_browse_file2
                0x000d3468                func_browse_file
                0x000d3a54                filemixmodechk
                0x000d3c00                filesrchpfh
                0x000d3d14                filefntransbyfnopt
                0x000d3fb0                filesrchpfh2
                0x000d4364                filesrchpfhCP
                0x000d45fc                filefreepfh
                0x000d48e8                func_end_file
                0x000d4a80                func_cancel_file
                0x000d4d08                filealloclh
                0x000d4f00                fileexpandbuff
                0x000d523c                filefreeplh
                0x000d5414                fileresetfindctr
                0x000d54ec                fileresettabctr
                0x000d5988                fileerrmixmode
                0x000d59c0                filebrowsechl
                0x000d5b40                func_cmdhistlc
                0x000d5b6c                func_cmdhistu8
 .text          0x000d5b98     0x49ec xe-xefile12.o
                0x000d5b98                filesave
                0x000da05c                fileadjustfh4cut
                0x000da2a4                filecloseerr
                0x000da304                filepartialouterr
                0x000da348                chkmfhheader
 .text          0x000da584     0x1340 xe-xefile13.o
                0x000da584                fileplhfail
                0x000da5b0                fileclosefree
                0x000da714                fileclosefree2
                0x000da98c                fncomp
                0x000daa20                filefree
                0x000daa7c                filefreealldataplh
                0x000dada0                fileresetundoable
                0x000dae08                fileregist
                0x000db2e4                filecalclinenosz
                0x000db5e8                fileinitialleft
                0x000db718                filefnquate
                0x000db888                filelinemallocerr
 .text          0x000db8c4     0x5bcc xe-xefile14.o
                0x000db8c4                setufgetsoptVparm
                0x000db93c                setufgetsoptVparm2
                0x000db988                fileload
                0x000de4f8                filetailposproc
                0x000ded64                filesetfstat
                0x000df51c                filefindopen
                0x000dfb3c                fileopeninit
                0x000dfbbc                filembsplitchk
                0x000dfcbc                filegetline_copysrc
                0x000dfd48                filegetline
                0x000e08d4                filesplitmsg
                0x000e0914                seektostartpos
                0x000e0a04                chklargefile
                0x000e0cf4                filegetcmdstack
                0x000e0f04                fileloadchl
 .text          0x000e1490     0x4a8c xe-xefile15.o
                0x000e1490                filerenum
                0x000e3ad0                filespfchk
                0x000e4060                fileisvalidspfline
                0x000e4558                filespfloadnum
                0x000e4ca8                filesetspfnum
                0x000e5598                filespfnumedit
                0x000e5890                fileresetver
                0x000e5b6c                filesetvernum
                0x000e5cdc                filesetlineerr
                0x000e5d2c                filespfnumerr
                0x000e5d54                filespfcobnumerr
                0x000e5d7c                filespferrnotspace
                0x000e5da4                filespflenerr
                0x000e5ddc                filespfseqerr
                0x000e5e04                filespfvermaxerr
                0x000e5e44                filespfpfeerr
                0x000e5e68                filenotspferr
                0x000e5e90                filespfvererr
                0x000e5ebc                filespfver
                0x000e5ef4                filespfneedforce
 .text          0x000e5f1c     0x4acc xe-xefile2.o
                0x000e5f1c                filepopup
                0x000e5fd0                adjustddfmthdr
                0x000e6568                filewakeup
                0x000e731c                fileufldinit
                0x000e73c0                fileeditlineno
                0x000e7a68                filecmdlinedisp
                0x000e7c5c                filecolsdisp
                0x000e8390                filecolsprint
                0x000e852c                vsplitshift
                0x000e8d38                filesetcsr
                0x000e8e58                filesetmultdraw
                0x000e8fdc                filesetdrawstart
                0x000e9260                filesetfulldraw
                0x000e92e0                fileutf8resethdrattr
                0x000e93ac                fileutf8setfilenamecodetype
                0x000e9b94                fileutf8inithdrattr
                0x000ea3ec                filehdrlf2dd_full
                0x000ea648                fileutf8sethdrattrsub
                0x000ea730                fileutf8sethdrattr
                0x000ea844                fileutf8vsplithdrattr
 .text          0x000ea9e8     0x3578 xe-xefile22.o
                0x000ea9e8                fileupper
                0x000eaa68                filehexprint
                0x000eac30                filehexdisplay
                0x000eb1b4                filecharhexinput
                0x000eb6b0                filegethposrange
                0x000eb7b8                filegethexpos
                0x000eb84c                filegetdatapos
                0x000eb960                filegetword
                0x000ed208                filegethexcsrdpos
                0x000ed3e8                filevhexprint
                0x000ed848                filevhexdisplay
                0x000edd6c                filecharhexinput_v
 .text          0x000edf60     0x6828 xe-xefile23.o
                0x000edf60                func_draw_file
                0x000f2434                filesetvhexcsrattr
                0x000f2528                setlineattr
                0x000f4540                setattraroundvhexdataline
                0x000f4664                f23_isutf8dbcssplit
 .text          0x000f4788     0x46f0 xe-xefile3.o
                0x000f4788                func_exec_file
                0x000f4904                filepguphalf
                0x000f494c                func_pgup_file
                0x000f4cb0                func_pgdown_file
                0x000f4d2c                filepgdownhalf
                0x000f4d64                filepgdown
                0x000f504c                filepglefthalf
                0x000f5094                func_pgleft_file
                0x000f53b0                func_pgright_file
                0x000f56c0                filepgrighthalf
                0x000f56f8                filepgright
                0x000f5ba0                func_linetop_file
                0x000f5d24                func_lineend_file
                0x000f6b98                func_filetop_file
                0x000f6ce8                func_fileend_file
                0x000f6f70                func_lineup_file
                0x000f7168                func_linedown_file
                0x000f7364                filescrollchk
                0x000f7470                getscrollsz
                0x000f7a30                filechkscrollopd
                0x000f7bb4                filesetscrollsz
                0x000f7e68                filegetscrollid
                0x000f7ec0                filehalfhscrollsz
                0x000f7f1c                filehalfvscrollsz
                0x000f7ff8                filecharcsr
                0x000f83a4                filevhexstepline
                0x000f8548                func_jumpcharhex_file
 .text          0x000f8e78     0x4148 xe-xefile4.o
                0x000f8e78                filegetcidtbl
                0x000f8e98                filecidterm
                0x000f8f04                filegetcid_ebcsub
                0x000f8f60                filegetcid_ebc
                0x000f9014                filegetcid
                0x000f9400                filecidbyext
                0x000f9778                filetoplinecid
                0x000fa558                filesetcid
                0x000fb4d4                filecidlrecl
                0x000fc57c                filegetcidlen
                0x000fc648                filecidlrecl2
                0x000fc6b4                filegetcidlen2
                0x000fc71c                filegetcidlenc
                0x000fc788                filecidlrecl3
                0x000fc7d8                filecidtypechk
                0x000fc8c4                filecidprefixchk
                0x000fc95c                filegetcidtype
                0x000fca30                fileiscid
                0x000fcb8c                fileiscid_ebc
                0x000fcd64                filechkcid
 .text          0x000fcfc0     0x1f78 xe-xefile42.o
                0x000fcfc0                filetoplinelrecl
                0x000fe008                filedefaultspf
                0x000fe124                filemerginchk
                0x000fe64c                filegetoomlen
                0x000fe708                fileoomshiftback
                0x000fea34                filetoplineuctr
 .text          0x000fef38      0xc44 xe-xefile43.o
                0x000fef38                filecidclear
 .text          0x000ffb7c     0x80e0 xe-xefile5.o
                0x000ffb7c                fileerrebcdicoptopn
                0x000ffbb4                filetempname
                0x000ffd48                fileoptionprechk
                0x000ffe4c                xefile5getparmlreclV
                0x000fff24                filegetparmlrecl
                0x001000d8                fileoptionchkebcconverter
                0x00100190                filesaveoptionchkcp
                0x00100a1c                chknewmode
                0x00100c4c                filesaveoptionchk
                0x00101964                fileselectutf8optionchk
                0x00101b08                fileoptionchk
                0x00106914                fileupdateprofilelrecl
                0x00106b84                fileupdateprofile
                0x00106dc8                fileupdateprofilesave
                0x00107040                fileupdateprofilesave_cut
                0x00107144                fileparmxrange
                0x00107288                filepartialcopy
                0x00107a70                fileedithelp
                0x00107b90                fileerrexclusiveopt
                0x00107bb8                fileerrchange2mfh
                0x00107bf4                fileerrlreclforV
                0x00107c28                fileerrvfmtforR
 .text          0x00107c5c     0x5a9c xe-xefile6.o
                0x00107c5c                filechktabdbcs
                0x0010821c                filechktabdbcs2
                0x001082a0                filechkutf8encoding
                0x0010867c                filecvf2lsetdbcs
                0x001089f8                filecvl2dd
                0x00108c34                filecvaftercopy
                0x001090f8                filecvm2b
                0x00109404                filecvb2m
                0x001096d4                filecvb2b
                0x00109984                filecvebcplh
                0x00109e70                filetabexp
                0x0010a60c                fileimtabexp
                0x0010a6cc                filegettabexplen
                0x0010aae8                filegettabexplenhex
                0x0010ae6c                filegettabexplenofmargined
                0x0010b58c                getdbcsspace
                0x0010b5fc                tabdisplay
                0x0010c530                tabdisplayforxprebcbyucs
                0x0010c870                tabdisplayforxpr
                0x0010cbe8                tabdisplayforxprrecord
                0x0010ccf0                tabdisplayforxpru8
                0x0010ce90                filetabclear
                0x0010cfdc                filetabclearall
                0x0010d228                filetabrestore
                0x0010d4b0                filetgettabexplensub
                0x0010d5e4                filepfhchktabdbcs
                0x0010d6cc                filetabexpanderr
 .text          0x0010d6f8     0x4584 xe-xefile7.o
                0x0010d6f8                file7term
                0x0010d714                filedropinsertcmt
                0x0010d904                filedrop
                0x0010dd10                filefk
                0x0010e3e8                filefkctline
                0x0010eb88                filefkctlineshortcut
                0x0010ee58                filefksave
                0x0010f734                filefksaveshortcut
                0x0010f98c                filefkctlineft
                0x0011019c                filesetassign
                0x00110554                filefksaveft
                0x00110c08                filekeyassign
                0x00111064                filecmdvassign
                0x001111dc                filefkctlinealias
                0x0011145c                filesetupalct
                0x00111610                filesetupscktalias
                0x00111774                filefksavealias
                0x00111a6c                filesrchalct
                0x00111b18                filekeynameerr
                0x00111b40                fileoptlreclerr
                0x00111b68                fileoptfuncnmerr
                0x00111b90                fileoptfixederr
                0x00111bb8                fileoptkeyoverflow
                0x00111be4                fileoptcmdfmterr
                0x00111c0c                fileoptdupcmdv
                0x00111c44                fileoptdupassign
 .text          0x00111c7c     0x35d8 xe-xefsub.o
                0x00111c7c                filebkupreopen
                0x00112124                filereopen
                0x00112590                fileseek
                0x00112664                fileread
                0x00112788                filewrite
                0x00112844                savefiledata
                0x00112948                filewrite_recordmode
                0x00112c0c                fileeofwrite
                0x00112c30                filewriteVRH
                0x00112f28                filecvwrite
                0x00113614                filecvwrite_ebcxpwk
                0x001136c8                fileeofchk
                0x001136ec                getdisplayline
                0x0011385c                getdisplayline2
                0x001138e8                lineseqchk
                0x00113a48                ufilesetfhfilename
                0x00113d38                fsubf2l
                0x00113ff4                fsubseteolid
                0x00114178                fsubnextlineoversplit
                0x001142b0                filerepwordsetdbcstbl
                0x00114414                fsubgetmaxlen
                0x001146d0                xefsubupdatechk
                0x0011497c                xefsubwritepermissionchk
                0x00114df4                xefsubresetcsrplh
                0x00114f80                xefsubresetcsrplhsub
                0x00115028                fsubresetebcdbcstbl
 .text          0x00115254     0x1b9c xe-xeftp.o
                0x00115254                xeftpinit
                0x001155a0                xeftpterm
                0x001155dc                xeftphostsget
                0x00115aa4                xeftpget
                0x00115d48                xeftpsave
                0x001160bc                xeftpgetwdfname
                0x00116378                xeftpgetwdfname2
                0x001165e0                xeftpdelwd
                0x00116650                xeftpgetremotecopy
                0x00116848                xeftplog
                0x00116b50                xeftprename
                0x00116be4                func_node_help
                0x00116c14                func_node
 .text          0x00116df0     0x3b28 xe-xefunc.o
                0x00116df0                funcinit
                0x00117714                funcchngeenter
                0x00117828                funcgetwfth
                0x00117a3c                funcputwfth
                0x00117b70                funcsetft
                0x00117c54                funcduperr
                0x00117fb4                funcdupktsrch
                0x001181cc                cmdduperr
                0x001182a0                functerm
                0x00118304                funccall
                0x00118d40                funcftsrch
                0x00118ebc                funcsaveopdcodetype
                0x001190bc                funcsaveopd2codetype
                0x00119254                funcuparse2_LC
                0x001193c8                funcgetOpdLCCT
                0x00119508                func_cmd
                0x0011a218                callmenu
                0x0011a2e4                funccmdprechk
                0x0011a418                funcopdpostp
                0x0011a494                funcaliasset
                0x0011a6b0                funcaliasreset
                0x0011a6cc                funcaliasdeqpending
                0x0011a750                funccmderr0
                0x0011a7c4                funccmderr
                0x0011a854                funccmderr2
                0x0011a8a4                funcinvalidkey
                0x0011a8d8                funcinhibitkey
 .text          0x0011a918     0x6bd8 xe-xefunc2.o
                0x0011a918                funcxkbdoddxdigit
                0x0011aa64                funcxkbsetmbstr
                0x0011ab6c                funcpanxkbd
                0x0011b2c0                func_char
                0x0011bfec                func_key
                0x0011c1e0                func_quit
                0x0011c25c                func_term
                0x0011c2d8                func_exit
                0x0011c380                func_reset
                0x0011c630                func_reset2
                0x0011ca6c                func_help
                0x0011cf5c                funcparseredirect
                0x0011d138                func_execmdfile
                0x0011dd64                funcexefreeredirect
                0x0011ddd0                funcexelogopenclose
                0x0011e074                funcexeredirect
                0x0011e308                funcexeredirect_select
                0x0011e7e8                funcexeredirect_wildcard
                0x0011ebd8                funcexeredirect_parmfile
                0x0011efec                funcexeredirect_cmdcall
                0x0011f100                execmdsub
                0x0011f35c                func_retrieveprev
                0x0011f388                func_retrievenext
                0x0011f3b4                func_retrieveprevscr
                0x0011f44c                func_retrievenextscr
                0x0011f4e4                funcretrieve
                0x0011f7b8                funcretrievepsc
                0x0011f8a8                funcrestorePSC
                0x0011f9a0                func_cmdrepeat
                0x0011fa58                funccmdrepeatpsc
                0x0011fae0                funccmdstack_utf8
                0x0011fb7c                funccmdstack
                0x0011fe70                funcrcmdstackmergeutf8
                0x00120060                funcrcmdstackFindStackRecovery
                0x001200c8                funcfreecmdstack
                0x0012011c                funcwcmdstack
                0x00120384                funcrcmdstack
                0x001204ec                funcsetlongcmdfromstack
                0x00120684                funcsetlongcmd_utf8
                0x00120750                funcsetlongcmd
                0x001208cc                funcgetlongcmd
                0x00120904                funcgetlongcmd_byutf8
                0x00120b10                func_hexinput
                0x00120bdc                func_hex_file
                0x00120e90                funccmdlog
                0x00121208                pftchk
                0x00121228                funcinhibitkey2
                0x00121260                funchexerr
                0x00121288                funcerrexecmdinprog
                0x001212b0                func_redo_file
                0x001212d8                funcgetcmdstack
                0x00121430                funcsrchpsc
 .text          0x001214f0      0x520 xe-xefunct.o
                0x001214f0                func_nosupport
                0x00121534                functinit
                0x00121574                functsjis2euc
                0x00121698                functgetcopy
                0x00121704                functterm
                0x00121718                functreset
                0x0012176c                functblsrch
                0x0012185c                functblsrchbyname
                0x00121950                functblsrchbycmd
 .text          0x00121a10     0x2264 xe-xefunct2.o
                0x00121a10                funct2init
                0x00121e60                funct2getfnm
                0x00121fec                funct2getacsch
                0x001220c4                funct2setuplinech
                0x00122214                funct2lchgetucs
                0x00122478                funct2setuplinechsub
                0x001228f0                funct2printu8data
                0x00122b70                funct2getlinechstr
                0x00123028                funct2getinputgc
                0x0012345c                funct2getnextinputgc
                0x00123698                funct2getnextinputgcUTF8
                0x00123964                funct2fmterr
                0x00123998                funct2kbdsimutf8
                0x00123bb4                funct2saveforerrmsg
 .text          0x00123c74      0x7a4 xe-xegbl.o
                0x00123c74                gblinit
                0x00124238                xesetkbdopt
                0x00124268                gblkon
                0x00124378                gblterm
 .text          0x00124418     0x183c xe-xeini.o
                0x00124418                func_ini
                0x001246f0                iniwkeytbl
                0x001248d8                iniwfunctbl
                0x00124ecc                inigetparm
                0x00125234                inilineproc
                0x001255c0                inirfunc
                0x00125c10                inigetfname
 .text          0x00125c54     0x3090 xe-xeini2.o
                0x00125c54                ini2term
                0x00125e4c                iniwother
                0x00126f50                iniwcid
                0x001271bc                inirother
                0x001282b4                inircid
                0x001285ac                inirfixcid
                0x00128610                inirtranstbl
                0x0012879c                inirtranschar
                0x0012883c                inirtabdispchar
                0x00128918                inirbnds
                0x00128a78                iniwbnds
                0x00128be0                inirctlstring
 .text          0x00128ce4     0x1dfc xe-xeini3.o
                0x00128ce4                inisaveopt
                0x001297c0                inisavecd
                0x001297f4                inisavelastfile
                0x00129a10                inigetopt
                0x0012a500                inigetlastfile
                0x0012a91c                inirestcd
                0x0012a9b0                inisave
                0x0012aa10                iniacronymwrite
                0x0012aa60                iniacronymchk
 .text          0x0012aae0     0x36c8 xe-xekbd.o
                0x0012aae0                kbdinit
                0x0012acd4                kbdinit101
                0x0012ad80                kbdfkctmerge
                0x0012af98                kbdsetfkcmd
                0x0012b05c                kbdreinit
                0x0012b07c                kbdterm
                0x0012b1cc                kbdproc
                0x0012b9b8                kbdwaitkey
                0x0012ba38                kbdassignchng
                0x0012baf4                kbdsetmacrocmdfilenameparm
                0x0012bc80                kbdfkcedit
                0x0012bf1c                kbdscedit
                0x0012c438                kbdftsrch
                0x0012c56c                kbdchk
                0x0012c598                kbdsrchkt
                0x0012c684                kbdsrchdupkt
                0x0012c730                kbdsrchktbyname
                0x0012c958                kbdgetname
                0x0012ca90                kbdcvkeyname2euc
                0x0012cb84                kbdgetchartbl
                0x0012cc24                kbdgetktgrp
                0x0012cd20                kbdgetfkct
                0x0012d468                kbdfkctsrch
                0x0012d594                kbdwfkct
                0x0012d710                kbdrfkct
                0x0012d94c                kbdwsckt
                0x0012daa4                kbdrsckt
                0x0012dc88                kbdukbdlintf
                0x0012ddbc                kbdchngstatus
                0x0012de24                func_shortcut
                0x0012de84                func_shortcutquery
                0x0012dee4                kbderrscna
                0x0012df08                xekbdchkSAC
                0x0012e04c                xekbdsetSAC
 .text          0x0012e1a8     0x2a60 xe-xelcmd.o
                0x0012e1a8                filelinecmd
                0x0012e4c8                savependlcmd
                0x0012ea10                savependlcmd_other
                0x0012ec8c                lcmdreset
                0x0012ef14                otherclient
                0x0012f3f8                lcmdclearlcmdplc
                0x0012f4a4                lcmdproc
                0x0012f8fc                callsingle
                0x0012f958                callpair
                0x0012f9a4                callpairs
                0x0012f9f0                resultset
                0x0012fb08                getlinecmd
                0x001304b8                lcmdlinenocomp
                0x00130618                lcmdgetdummyplc
                0x00130688                lcmdgetabplh
                0x00130b7c                lcmderr
                0x00130bc0                lcmdhelp
 .text          0x00130c08     0x6064 xe-xelcmd2.o
                0x00130c08                lcmdsingle
                0x00131538                lcmdisrtwithlen
                0x0013169c                lcmdisrtcont
                0x0013192c                lcmdisrt
                0x00132218                lcmdisrtbs
                0x0013239c                lcmdisrtrange
                0x00132560                lcmdrep
                0x00132738                lcmdrepbs
                0x00132a20                lcmddelbs
                0x00132bd4                lcmddel
                0x00133508                lcmdresetx
                0x001335f0                lcmdincall
                0x00133860                lcmdincf
                0x00133a90                lcmdincfbs
                0x00133d70                lcmdincl
                0x00133fbc                lcmdinclbs
                0x0013431c                lcmdincm
                0x00134578                lcmdexcbs
                0x0013470c                lcmdexcsame
                0x00134768                lcmdexcfromxall2
                0x001349b8                lcmdexc
                0x00134fac                alloclhx
                0x0013505c                typeexclude
                0x00135140                lcmdrenumsuffix
                0x0013602c                lcmdeditxline
                0x0013623c                lcmddelxline
                0x00136298                lcmddelresetcurtop
                0x0013664c                lcmdgetplhrange
                0x001367a0                lcmdgetplhrange2
                0x001368f8                lcmdclearlcmd
                0x00136aa8                lcmdexcludedmsg
 .text          0x00136c6c     0x2f78 xe-xelcmd3.o
                0x00136c6c                lcmdpair
                0x001370e4                lcmdmove
                0x001371d8                lcmdcopy
                0x001390e8                lcmdclearselected
                0x00139160                linecopy
                0x001391fc                ulhcopy
                0x001395cc                lcmdover
                0x001396dc                lcmdsetdbcstblbin
                0x001398b4                lcmdcvddandl
                0x00139bbc                lcmdeolerr
 .text          0x00139be4     0x4c14 xe-xelcmd4.o
                0x00139be4                lcmdshiftbs
                0x00139d08                lcmdshift
                0x0013c514                lcmdbndsadjust_l
                0x0013c690                lcmdbndsadjust_r
                0x0013c7d8                lcmdcombs
                0x0013c938                lcmdcom
                0x0013cde0                lcmdgcom
                0x0013cf04                lcmdsplit
                0x0013d3c4                lcmdjoin
                0x0013d914                lcmdjoinx
                0x0013da74                lcmdresetxlineno
                0x0013db78                lcmddbcssplit
                0x0013dd04                lcmdshifterr
                0x0013de40                lcmdresetshifterr
                0x0013dfdc                lcmdovfchk
                0x0013e36c                lcmdrshift
                0x0013e5b8                filecvlcmd
 .text          0x0013e7f8     0x36cc xe-xelcmd5.o
                0x0013e7f8                lcmdpairs
                0x0013ec44                lcmdcomp
                0x001400ec                lcmdunmatch
                0x00140c34                lcmdexec
                0x001413d8                lcmdlower
                0x00141448                lcmdupper
                0x001419b4                lcmduppersub
 .text          0x00141ec4      0x7ac xe-xemainl.o
                0x00141ec4                helpmsg
                0x00142014                main
                0x001425f0                xesettabs
 .text          0x00142670     0x16b8 xe-xemousel.o
                0x00142670                mousel_btnproc
                0x001426f0                mousel_funcsrch
                0x001429a4                mousel_nop
                0x001429c8                mousel_lbclick
                0x00142a30                mousel_lbdown
                0x00142abc                mousel_lbup
                0x00142bac                mousel_lbdblclick
                0x00142c04                mousel_wheel
                0x00142da4                mousel_mbdown
                0x00142e58                mousel_lineselect
                0x00143014                mousel_lineselect_topmenu
                0x00143154                mousel_lineselect_fnamelist
                0x00143434                mousel_lineselect_file
                0x00143688                mousel_lineselect_dirlist
                0x001437a8                mousel_linedrag_dirlist
                0x0014381c                mousel_dragselectchk
                0x00143900                mousel_dragfile
                0x001439b0                mousel_cappaste
                0x00143a24                mousel_movecsr
                0x00143a6c                mousel_strcmd
                0x00143aac                mousel_cmdline
                0x00143b14                mousel_belcmd
                0x00143c18                mousel_charinput
                0x00143c80                mouselpathupdown
 .text          0x00143d28     0x2b50 xe-xeopt.o
                0x00143d28                func_opt
                0x00143f58                opt_undel
                0x0014419c                opt_delz
                0x0014432c                opt_fat
                0x00144358                opt_pfat
                0x00144384                opt_7bit
                0x001445d4                opt_hex
                0x00144710                opt_fd
                0x0014489c                opt_rctl
                0x00144b2c                opt_ccfunc
                0x00144ca4                opt_freecsr
                0x00144e18                opt_cbcopy
                0x00144f8c                opt_beep
                0x001451ac                opt_cmdlog
                0x00145368                opt_rettol
                0x001454dc                opt_contins
                0x0014565c                optoffonchk
                0x00145740                opt_eol
                0x00145b44                opt_eolcont
                0x00145b9c                optsetdisplayeolid
                0x00145bfc                optsetdisplayeolcontid
                0x00145c7c                opterrwinonly
                0x00145ca4                func_capslock
                0x0014659c                opt_acs
                0x00146774                opthelp
 .text          0x00146878     0x2a08 xe-xeopt2.o
                0x00146878                xeopt2init
                0x00146988                optcombinehelpCP
                0x001469d8                optcombinehelpsub
                0x00146c20                optcombinehelp
                0x00146cb0                opt_ligature
                0x00146d88                opt_combine
                0x001472c0                func_optcombine
                0x001475ec                func_optligature
                0x001476e0                func_mode
                0x00147b14                func_ebc
                0x00147cb8                filegetencoding
                0x00147e30                opt2getfnmode
                0x00147f1c                filesetlocaleid_filename
                0x001480d8                filesetlocaleid
                0x00148590                opt2resethandle
                0x00148894                opt2setebccvname
                0x00148a6c                dirsetlocaleid
                0x00148cc4                funcmodehelp
                0x00148d60                opt_modestatus
                0x00148f3c                opt2sethdrligcomb
                0x00149110                optresethdrligcomb
 .text          0x00149280     0x2e54 xe-xepan.o
                0x00149280                paninit
                0x001494e4                pan000init
                0x00149628                panterm
                0x0014969c                panppdfree
                0x00149764                panregist
                0x001497e0                panpopup
                0x00149820                pangetpc
                0x00149c34                panfreepc
                0x00149db8                ppdinit
                0x0014a734                pandirfldresize
                0x0014a844                panwakeup
                0x0014ad2c                pandrawxkbd
                0x0014ae00                func_draw_pan
                0x0014b520                panlinetopfld
                0x0014b5ac                panflderr
                0x0014b7e8                pandirprot
                0x0014b964                pansetinputmode
                0x0014b9e0                pancmdlf2dd
                0x0014bd10                pansetcmdcodeattr
                0x0014c0a4                pan000draw
 .text          0x0014c0d4     0x2d9c xe-xepan2.o
                0x0014c0d4                func_end_pan
                0x0014c174                func_cancel_pan
                0x0014c214                func_exec_pan
                0x0014c9bc                panreset
                0x0014ca1c                func_sendins_pan
                0x0014ca48                func_sendrep_pan
                0x0014ca74                func_find_pan
                0x0014caa0                func_ifind_pan
                0x0014cacc                func_rfind_pan
                0x0014caf8                func_revrfind_pan
                0x0014cb24                panfind
                0x0014cc48                panfiletol
                0x0014cd7c                panfieldevent
                0x0014cea8                panfunc000optchk
                0x0014cf3c                panfunc000
                0x0014d314                putexitcmd
                0x0014d3dc                pancallfname
                0x0014d45c                pandraw300
                0x0014d5b8                panfe300
                0x0014d604                panexec300
                0x0014df6c                panopt
                0x0014dff4                panattr10
                0x0014e6b8                panexecolor
                0x0014ea8c                getpalno
                0x0014eb80                pangetrgbix
                0x0014ed3c                panixtorgb
                0x0014edf4                panrgbtoix
 .text          0x0014ee70     0x5714 xe-xepan22.o
                0x0014ee70                pan300init
                0x0014eea0                ufreepsc
                0x0014eee4                pan300selectline
                0x0014f014                pan300updatelist
                0x0014f4c0                pan300attr
                0x0014f608                pan300fnmattr
                0x0014f670                pansetfnmattr
                0x0014fcac                pan300getbecmd
                0x0014fe40                pan300editcmd_utf8
                0x0015008c                pan300lf2dd
                0x001500f8                pan300editcmd
                0x001503c8                pan300stackchkcmdbuff
                0x0015068c                pan300stacksetctfromcmdbuffsub
                0x00150ad8                pan300stacksetctfromcmdbuff
                0x00150d70                pan300stack
                0x001510e4                pan300editfpath
                0x00151298                pan300chklcentry
                0x00151530                pan300addentry
                0x00151998                pan300editcmdf2l
                0x00151bfc                pan300setflddata_utf8
                0x00151d54                pan300fldupdate_utf8
                0x001520dc                pan300delentry
                0x001521a8                pan300freestack
                0x001521fc                pan300wstack
                0x001524ec                pan300rstack
                0x0015261c                pan300execlist
                0x0015291c                func_pgup_pan
                0x00152a24                func_pgdown_pan
                0x00152b20                func_pgtop_pan
                0x00152be0                func_pgend_pan
                0x00152cbc                pan300locatepage
                0x00152d9c                pan300getpsc
                0x00152e10                pan300getfnm
                0x00152eb8                pan300felcmd
                0x00153774                pan300getlcmdfromfuncid
                0x00153b60                pan300csrreset
                0x00153ba0                panbecmdcall
                0x00153c0c                panbrowsecmdchk
                0x00153c9c                pan300getword
                0x00153dfc                pan300getscrollsz
                0x00154044                pan300scrollsetcsr
                0x00154118                pan300lcmderr
                0x00154150                pansetfld_f2l
                0x00154294                pan300wakeup1
                0x001543ec                setpscddname
 .text          0x00154584     0x4bb0 xe-xepan23.o
                0x00154584                panutiliniput
                0x00154710                panutiliniget
                0x001548b8                pancomp
                0x001548fc                pangrep
                0x00154940                pancompwakeup1
                0x00154a1c                pangrepwakeup1
                0x00154afc                pancompdraw
                0x00154e88                panutillf2dd
                0x001550cc                pancompdraw2
                0x0015521c                pangrepdraw
                0x00155578                pangrepdraw2
                0x001556e8                pancompexec
                0x00155e68                panchkposparm
                0x00155f68                pangrepexec
                0x00156698                panutilsetcdir
                0x0015682c                panutildataproc
                0x001568d8                panutilgetpupl
                0x00156984                pancompdataproc
                0x0015726c                pangrepdataproc
                0x00157bd0                panutilfind
                0x00157da4                panutilview
                0x00157f58                panutilviewswap
                0x00158040                panutilreceive
                0x00158578                panutilreset
                0x001586d0                panutilerrline
                0x001586f8                panutilerrlinefull
                0x00158720                panutilsetfld_f2l
                0x001588d8                panutilfldupdate_utf8
                0x00158cc8                pancompsetflddata_utf8
                0x00158e54                pangrepsetflddata_utf8
                0x00158fa8                pan23chkcpu8option
                0x00158ff4                pan23ShowCmdResult
 .text          0x00159134      0xf1c xe-xepan24.o
                0x00159134                panfnlsetuppfh
                0x001592cc                panfnlfreepfh
                0x00159360                panfnlsetupplh
                0x00159524                panfnlalloclh
                0x001596dc                panfnlupdatepfh
                0x00159938                panfnlfind
                0x00159c24                panfnlgetstartplhoffs
                0x00159e90                pansetflddata_utf8
                0x00159f38                pangetbuff_utf8
 .text          0x0015a050      0x454 xe-xepan3.o
                0x0015a050                func_linetop_pan
                0x0015a0b8                func_lineend_pan
                0x0015a224                func_nextvalue_pan
                0x0015a250                func_prevvalue_pan
                0x0015a27c                panfldvalue
                0x0015a470                paninvalidfld
 .text          0x0015a4a4     0x4628 xe-xescr.o
                0x0015a4a4                scrinit
                0x0015acb0                scrsetunxflag
                0x0015adc8                scrsetpallette
                0x0015afa4                scrsetattrtbl
                0x0015b2b8                scrsetmonopall
                0x0015b3e0                scrterm
                0x0015b504                scrreset
                0x0015b5c0                scrcls
                0x0015b5e8                scrdisp
                0x0015d4b8                scrcell2tocell
                0x0015d55c                scrdbcslineclear
                0x0015d80c                scrdbcslineclearerrmsg
                0x0015da40                xescrerrmsgbycell
                0x0015dc2c                scrregist
                0x0015dd10                scrpopup
                0x0015e140                scrgetcw
                0x0015e1e0                screnqcw
                0x0015e298                scrdeqcw
                0x0015e35c                scrresize
                0x0015e520                scrfulldraw
                0x0015e588                scrsrchcw
                0x0015e670                scrsrchcwchl
                0x0015e738                scrsavemultilineerrmsg
                0x0015e88c                scracssetup
                0x0015ea2c                scrsetinsrepdbcs
 .text          0x0015eacc      0xfe8 xe-xescr2.o
                0x0015eacc                scrconfirmchk
                0x0015ebc8                scrconfirmset
                0x0015ec04                scrconfirmreset
                0x0015ec54                scrclearmsg
                0x0015ec94                scrclearconfirmmsg
                0x0015ecf0                func_splith
                0x0015ef24                func_splitv
                0x0015f178                func_swap
                0x0015f2a4                funcswap2
                0x0015f340                func_nextpan
                0x0015f36c                func_prevpan
                0x0015f398                scrpansw
                0x0015f428                func_ins
                0x0015f5bc                scrcsrtyperestore
                0x0015f5f8                scrcpgetpcw
                0x0015f6e8                scrsetcsrpos
 .text          0x0015fab4     0x6774 xe-xesub.o
                0x0015fab4                filefind
                0x0015ff44                filedirchk
                0x00160050                fileopen
                0x00160218                fileopencreate
                0x001603a4                fileopen_mdostemp
                0x0016046c                fileclose
                0x001604d0                fileclose_mdos
                0x00160570                subgetfilelc
                0x00160734                filefullpatha
                0x00160b48                isShortpath
                0x00160d10                filefullpathsp
                0x00160d50                filefullpath
                0x00161478                filefullpath2ndedit
                0x00161d08                filefullpath2
                0x00162190                subeditscrfnm
                0x001627f0                setdbcstbl
                0x00162a78                filesetdbcstblplh
                0x00162d0c                filesetdbcstblplh_handle
                0x00162e94                filesetdbcstbl
                0x00162fe8                setdbcstbltabid
                0x00163100                getnextcmd
                0x00163180                getcmdstr
                0x001632a0                getfldinput_utf8
                0x00163314                getfldinput
                0x001634b8                setflddata
                0x00163634                setflddatadd
                0x0016377c                setflddatadbcs
                0x00163b78                getfldpos
                0x00163e5c                getfldstrlen
                0x00163f44                fldprotchk
                0x0016419c                getuflde
                0x00164218                gethomepos
                0x00164254                setdbcssplit
                0x00164320                setdbcssplit2
                0x001645dc                setobtabdbcs
                0x00164930                setobtabclear
                0x00164a68                updatedbcstblhex
                0x00164d38                sub_restoretabdroppad
                0x00164f40                delobtabpad
                0x00165038                btabclear
                0x00165160                setobdbcserr
                0x00165268                setibdbcserr
                0x00165388                setsplitdbcserr
                0x001654a8                wordtblisrch
                0x0016553c                getpathlen
                0x00165818                setflddatacmd
                0x00165ad0                setflddatadbcscmd_byutf8
                0x00165fec                getfldutf8
                0x001660a8                subsavetempfnm
                0x0016617c                subdeletetempfile
 .text          0x00166228     0x1d94 xe-xesub2.o
                0x00166228                xesub_cleardbcssplit
                0x001666a0                xesub_cleardbcs1
                0x00166aa8                xesub_adjustspan
                0x00166cfc                xesub_imupdate
                0x00167394                xesubddmemcmp
                0x001675b4                xesubebcmemcmp
                0x001678c4                xesub_setdbcssplitib
                0x00167998                xesub_setdbcssplit
                0x00167d94                xesub_memcmpbin
 .text          0x00167fbc     0x394c xe-xesyn.o
                0x00167fbc                xesyninit
                0x00167ff0                xesynterm
                0x00168018                func_syntax
                0x001683c0                synhelp
                0x0016858c                synsetenter
                0x001689dc                synseton
                0x00168abc                synsetoff
                0x00168c24                synupdate
                0x00168e1c                synall
                0x00169100                synexecsh
                0x001692a0                synwriteplh
                0x00169d40                syngetstartplh
                0x00169e10                synupdateplh
                0x0016a0ac                synsetvalid
                0x0016a1d4                syngetplhcolordata
                0x0016a6bc                xesynsetlineattr
                0x0016a9d8                xesynundoprep
                0x0016ac20                xesynundo
                0x0016ae88                xesynchkopen
                0x0016b4a0                synchkfiletype
                0x0016b588                xesynexecenter
                0x0016b6bc                xesyngetbgreverse
                0x0016b710                xesyn_fwrite
 .text          0x0016b908     0x4190 xe-xesyn2.o
                0x0016b908                syncfgfree
                0x0016bc70                syngetshcmd
                0x0016bcc0                syngetshopt
                0x0016be1c                syngetwkfnm
                0x0016bf4c                synsetinpfnm
                0x0016c0c0                syngetcfg
                0x0016c594                synchkcfgrec
                0x0016d118                synqeproc
                0x0016d2d0                syngetcolorparm
                0x0016d3b8                syngetcmapparm
                0x0016d594                syngetrgbparm
                0x0016d63c                syngetpathparm
                0x0016d76c                synkicksh
                0x0016db28                synkicksh2
                0x0016de78                synopencf
                0x0016e384                synclosecf
                0x0016e424                syngetcfdata
                0x0016e8fc                syngetindex
                0x0016eb30                syngetcfdata2
                0x0016ed90                syngetcfdata3
                0x0016eee8                getinput
                0x0016f018                lineproc
                0x0016f280                escchk
                0x0016f4e0                syngetbgeol
                0x0016f5a8                syngetbgtab
                0x0016f670                syngetbgupd
                0x0016f6d8                syngetstylecolor
                0x0016f840                xesyn_serverinit
                0x0016f904                xesyn_shreq
                0x0016fa24                xesyn_serverterm
 .text          0x0016fa98     0x3a60 xe-xetso.o
                0x0016fa98                xetsoinit
                0x0016fc30                func_tso
                0x001703d0                xetsoxcopy
                0x001704dc                xetsosave
                0x00170b0c                xetsospfupdate
                0x00171284                xetsoupdatechk
                0x0017172c                xetsolocalfstat
                0x00171838                xetsogetspf
                0x00171924                xetsosetspf
                0x00171b50                xetsodefaultlrecl
                0x00171f4c                xetsodlcmdsetlocal
                0x00172230                xetsofilefullpath2ndedit
                0x001725a8                xetsofilefullpath2
                0x001729b4                xetsogetpathlen
                0x00172acc                xetsolvlfname
                0x00172d44                xetsodlcgetfullname
                0x00172f20                xetsoconcatfilename
                0x0017317c                setupspfcmdopt
 .text          0x001734f8     0x34f0 xe-xetso2.o
                0x001734f8                xetsotsocmdlogon
                0x00173b84                xetsotsocmd
                0x00174758                xetsoupdateplh
                0x00174bac                xetsorsh6
                0x00174ed8                xetsosetftpparm
                0x00175358                xetsosubmit
                0x00175568                xetsoquery
                0x00175688                xetso2isvalidactionname
                0x00175850                xetso2escstring
                0x001759cc                xetso2escstring2
                0x00175bb4                func_tsohotkey
                0x00175da4                xetsosetup3270keymap
                0x00175e94                xetsois3270key
                0x001765fc                func_3270kbd
                0x00176920                tso3270tsokbd
 .text          0x001769e8     0x5ee8 xe-xeundo.o
                0x001769e8                undoupdate
                0x00177048                undoprep
                0x00178124                func_undo_file
                0x00179ea4                undoclearplcmdall
                0x0017a010                undoclearplcmd
                0x0017a154                undofreeuuh
                0x0017a1b4                freeundoent
                0x0017a220                undocsrmove
                0x0017a288                undosetdeletedflag
                0x0017a378                freeredoq
                0x0017a3d0                redoprep
                0x0017accc                undo_redo
                0x0017c820                redo_undoupdate
                0x0017c878                redo_undoprep
 .text          0x0017c8d0     0x9bdc xe-xeutf.o
                0x0017c8d0                xeutf_init
                0x0017c9fc                xeutf_buffget
                0x0017cb40                xeutfgetmixstrctopt
                0x0017cd34                xeutf_getlocalepathname
                0x0017d990                xeutf_getlocalestr
                0x0017dcd8                xeutfdbcsnpchk
                0x0017de10                xeutf_getmixedword
                0x0017f104                xeutfcvf2lc
                0x0017f3f4                xeutfcvf2lDDW
                0x0017f63c                xeutfcvlf2ddAdjust
                0x0017fb28                xeutfcvdd2lc
                0x0017fda0                xeutf_getmixedstr
                0x001806c0                xeutf_getmixedstrDDFMT
                0x0018085c                xeutf_modechng
                0x00180d08                xeutf_cvdata
                0x00180f44                xeutf_cvdatawb
                0x001813cc                xeutf_cvf2lsetdbcs
                0x00181894                xeutf_islocalestr
                0x00181958                xeutf_fldl2f
                0x00181bfc                xeutf_getucsstr
                0x00181d98                xeutf_cvl2fbyct
                0x001822c4                xeutf_cvlf2lbyct
                0x001826a8                xeutf_cvlf2lbyctDDW
                0x0018298c                xeutf_strlenu8byct
                0x00182c5c                xeutf_strwidthu8byct
                0x00182ce8                xeutf_strwidthlcbyct
                0x00182d74                xeutf_dbcssplit
                0x0018308c                xeutf_mixedstrupdate
                0x00183ac4                xeutf_setctbyu8lc
                0x0018400c                xeutf_setdbcstblbyct
                0x00184230                xeutf_memcmpu8lc
                0x0018461c                xeutf_memcmpddlc
                0x00184c10                xeutf_savelcctforerrmsg
                0x00185024                xeutf_savefnmforerrmsg
                0x001852a4                xeutf_chksaveedlcct
                0x001853ac                xeutf_seterrmsgct_forxeerrmsg
                0x001857d8                xeutf_seterrmsgct
                0x00185f00                xeutf_seterrmsgctopd2
                0x00186400                xeutf_dbcssubcharcmp
 .text          0x001864ac     0x3e58 xe-xeutf2.o
                0x001864ac                xeutf_cvf2dd
                0x00186668                xeutf_cvf2ddct
                0x001867dc                xeutf_cvf2dd_padding
                0x00186c48                xeutf_getvhexpos
                0x00186ea8                xeutf_getvhexoffs
                0x00186fbc                xeutf_plhpos2offs
                0x00187098                xeutf_getvhexcsrpos
                0x001872b4                xeutf_getvhexcsrspan
                0x001873ec                xeutf_getdataspan
                0x00187674                xeutf_getvhexcsrposdbcs
                0x00187918                xeutf_charmakeucsvhexdd
                0x00187c38                xeutf_chargetvhexdd
                0x001884b4                xeutf_chargetkbddd
                0x001887ec                xeutfgetddstr
                0x00188a00                xeutfcvlf2dd
                0x00188c68                xeutfcvlf2dd_updatect
                0x001891d8                xeutfcvl2fdd
                0x00189314                xeutfcvl2dd
                0x001895a8                xeutfcvl2ddtab
                0x001896c8                xeutfcvdd2l
                0x00189820                xeutfcvdd2ldbcs
                0x00189990                xeutfcvdd2f
                0x00189be4                xeutfcvdd2fl
                0x00189e4c                xeutfcvf2ldd
                0x00189f18                xeutf_dd2syn
                0x0018a030                xeutfcvdd2u
                0x0018a144                xeutfcvu2dd
                0x0018a218                xeutfddwidth4
 .text          0x0018a304     0x3778 ../ulib/libuserxe.a(libuserxe_a-u3270.o)
                0x0018a304                u3270init
                0x0018a36c                u3270fstat
                0x0018a960                u3270findfile
                0x0018ab94                u3270fullpathistso
                0x0018ac20                u3270getcwd
                0x0018aca8                u3270chdir
                0x0018ad44                u3270fullpath
                0x0018b020                u3270fullpathwildexp
                0x0018b53c                u3270getmembname
                0x0018b6e0                u3270chkmembname
                0x0018b828                u3270getlastname
                0x0018b900                u3270getnthname
                0x0018ba08                u3270concatfilename
                0x0018bcf0                u3270editname
                0x0018c098                u3270parsedsn
                0x0018c134                u3270parentdsn
                0x0018c2d4                u3270getsetdsnwild
                0x0018c5f4                u3270pathlen
                0x0018c744                u3270sethostuser
                0x0018c7f8                u3270cmdrequest
                0x0018ca70                u3270editrespmsg
                0x0018cb88                u3270dirlistsub
                0x0018ce44                u3270setdirlist
                0x0018d304                u3270srchdirlist
                0x0018d3d0                u3270setdirlistdsn
                0x0018d69c                u3270setattr
                0x0018d7b8                u3270getattrstr
                0x0018da44                u3270errdsnpath
 .text          0x0018da7c     0x152c ../ulib/libuserxe.a(libuserxe_a-u32702.o)
                0x0018da7c                u3270mkdir
                0x0018dab4                u3270rmdir
                0x0018dae4                u3270xddsub
                0x0018dc64                u3270xdelete
                0x0018de74                u3270wildxdel
                0x0018deac                u3270xdelsub
                0x0018dfb4                u3270remove
                0x0018e118                u3270rename
                0x0018e368                u3270renamesub
                0x0018e43c                u3270wildrename
                0x0018e48c                u3270spfupdate
                0x0018e65c                u3270spfsetparm
                0x0018eb98                u3270attrib
                0x0018ebd0                u3270attrxchk
                0x0018ec04                u3270getftime
                0x0018ec3c                u3270setftime
                0x0018ec74                u3270setftime2
                0x0018ecac                u3270copypathinfo
                0x0018ece4                u3270setown
                0x0018ed1c                u3270setmod
                0x0018ed50                u3270wildfunc
                0x0018ef58                u3270errnotsupported
 .text          0x0018efa8     0x3ab0 ../ulib/libuserxe.a(libuserxe_a-u32703.o)
                0x0018efa8                u3270xmove
                0x0018f118                u3270xcopyr2r
                0x0018f3e0                u3270xcopy
                0x0018f5a8                u3270xcopyget
                0x00190064                u3270xcopyput
                0x00190b18                u3270filecreateparmproc
                0x00190dbc                u3270filecpymvflags
                0x00191310                u3270filewildcopyget
                0x00191558                u3270filewildcopyput
                0x00191898                u3270copysubget
                0x00191af4                u3270copysubput
                0x00191f80                u3270transfer
                0x001924e4                u3270srcdupchk
                0x00192728                u3270copyspfupdate
                0x001929cc                u3270setftpparm
 .text          0x00192a58       0x40 ../ulib/libuserxe.a(libuserxe_a-uabend.o)
                0x00192a58                uabend
 .text          0x00192a98      0xe50 ../ulib/libuserxe.a(libuserxe_a-uallocl.o)
                0x00192a98                ualloc_init
                0x00192cec                ugetallocdata
                0x00192e24                ualloc_chk
                0x00192fec                umalloc
                0x00193230                ucalloc
                0x001934a0                ufree
                0x001936d0                uallocsz
                0x0019371c                ufreesz
                0x0019376c                uallocmapset
                0x00193880                ufreesizeerr
                0x001938b4                umallocsizeerr
 .text          0x001938e8     0x5de8 ../ulib/libuserxe.a(libuserxe_a-ucalc.o)
                0x001938e8                ucalc_bcmain
                0x00194768                bc_opdchk
                0x0019564c                getvarname
                0x0019572c                ucalc_chkvrparm
                0x001958b8                bc_getvalue
                0x00195fac                ucalc_vrajust
                0x001962d0                ucalc_o2l
                0x001963b8                ucalc_gettimevalue
                0x001967e0                ucalc_getunderpointdata
                0x00196944                bc_opdcopy
                0x00196c04                bc_putwordordword
                0x00196cdc                bc_expand2dword
                0x00196d78                ucalc_binop
                0x00197314                ucalc_binopsub
                0x00197dc8                ucalc_underpoint
                0x001980b0                ucalc_editnum
                0x00198278                ucalc_editevenhex
                0x00198304                ucalc_dwtime
                0x001984ec                ucalc_time
                0x001989e4                ucalc_timeedit
                0x00198d74                ucalc_shiftdown
                0x00198ec0                ucalc_shiftup
                0x00199000                bc_getbase
                0x00199044                calcuperr1
                0x0019906c                calcuperr2
                0x00199094                calcuperr3
                0x001990bc                calcerrinvalid
                0x001990f4                calcerrinvalid_dw
                0x0019912c                calcerrformat
                0x00199154                calcerrunderflow
                0x00199180                calcerrwordovf
                0x001991c4                calcerrminus
                0x001991ec                calcerr0div
                0x00199214                calcerrtimeop
                0x0019923c                bc_getvalue3
                0x001994f0                bc_setconvtype3
 .text          0x001996d0     0x417c ../ulib/libuserxe.a(libuserxe_a-ucalc2.o)
                0x001996d0                bc_getxdw
                0x00199824                bc_getld
                0x00199a74                bc_dwbinop
                0x0019a02c                bc_twbinop
                0x0019a54c                bc_edittod
                0x0019a6c0                bc_dweditnum64
                0x0019a728                bc_dweditnum
                0x0019aa44                bc_dwupeditnum
                0x0019ac0c                ucalc_dwmult
                0x0019ae60                ucalc_twmult
                0x0019b328                ucalc_dwdiv
                0x0019b608                ucalc_dwdiv2
                0x0019b940                ucalc_twdiv
                0x0019bac8                ucalc_twdivbyup
                0x0019bc0c                ucalc_twshiftup
                0x0019bd28                ucalc_dwshiftdown
                0x0019be58                ucalc_ltime
                0x0019c278                ucalc_getdate
                0x0019c464                ucalc_nextday
                0x0019c714                ucalc_ld2dw
                0x0019ccac                ucalc_dw2ld
                0x0019cdb8                ucalc_nsadd
                0x0019d020                ucalc_ldedit
                0x0019d160                ucalc_dwupinit
                0x0019d1c0                ucalc_dwupset
                0x0019d2f0                bc_numfmt2dw
                0x0019d3a0                bc_dw2numfmt
                0x0019d478                ucalc_dwup2dwandup
                0x0019d61c                bc_dword2word
                0x0019d718                ucalc_dw2err
                0x0019d750                ucalc_dw2errresidual
                0x0019d7c4                ucalc_dwuperr
                0x0019d7ec                ucalc_dwmaxerr
                0x0019d824                ucalcerrdwordovf
 .text          0x0019d84c     0x1ad0 ../ulib/libuserxe.a(libuserxe_a-ucvebc.o)
                0x0019d84c                ucvebcinite2uJ
                0x0019d9a0                ucvebc
                0x0019d9b8                ucvebc_gettrte2a
                0x0019d9d8                ucvebc2asc_handle
                0x0019da78                ucvasc2ebc_handle
                0x0019db18                ucvebc2asc
                0x0019df30                ucvebc2asc1sbcsJ
                0x0019e0b0                ucvebc2ucs1sbcsJ
                0x0019e244                ucvasc2ebc
                0x0019e7ec                ucvebc_defaultremap
                0x0019eacc                ucvebcinita2e
                0x0019ec38                ucvkandl
                0x0019ee28                ucvebcinitkandl
                0x0019ef4c                ucvebc2_chkprintsbcs
                0x0019f228                ucvebc_chkeolopt
 .text          0x0019f31c     0x1718 ../ulib/libuserxe.a(libuserxe_a-ucvebc2.o)
                0x0019f31c                ucvebc2
                0x0019f334                ucvebc2_init
                0x0019f3a4                ucvebc2_codecomp
                0x0019f3ec                ucvebc2_s2e
                0x0019f488                ucvebc2_e2s
                0x0019f520                ucvebc2_chkprint
                0x0019f7e8                ucvebc2_chkprintnewold
                0x0019fa60                ucvebc2_chkprintdup
                0x0019fc0c                ucvebc2_e2ssub
                0x0019fe4c                ucvebc2_s2esub
                0x0019ff04                ucvebc2_stre2s
                0x001a01b4                ucvebc2_ebc2asc1dbcsJ
                0x001a0250                ucvebc2_strs2e
                0x001a0804                ucvebc2_setsi
                0x001a0928                ucvebc2_setso
 .text          0x001a0a34     0x54c8 ../ulib/libuserxe.a(libuserxe_a-ucvebc3.o)
                0x001a0a34                ucvebc3_getcfgparmconverter
                0x001a0c38                ucvebc3_init_xcv
                0x001a0c78                ucvebc3_getconvertersubchar
                0x001a0cec                ucvebc3_setletter
                0x001a1620                ucvebc3_init
                0x001a1894                ucvebc3_cfgerr
                0x001a18bc                ucvebc3_b2uSbcs1
                0x001a1ba4                ucvebc3_b2ddSbcs1
                0x001a1d94                ucvebc3_b2ddSbcs
                0x001a2254                ucvebc3_b2uDbcs1
                0x001a2470                ucvebc3_b2ddDbcs1
                0x001a2690                ucvebc3_b2ddDbcsstr
                0x001a2890                ucvebc3_b2ddDbcs
                0x001a2fbc                ucvebc3_b2dd
                0x001a30b0                ucvebc3_u2b1map
                0x001a31f0                ucvebc3_u2b1
                0x001a3594                ucvebc3_m2b1Sbcs1
                0x001a3750                ucvebc3_m2b1
                0x001a3a88                ucvebc3_m2b
                0x001a3f98                ucvebc3_f2b
                0x001a4630                ucvebc3_dd2b
                0x001a4d00                ucvebc3_b2mSbcs
                0x001a53cc                ucvebc3_b2mDbcsstr
                0x001a566c                ucvebc3_b2m
                0x001a5b44                ucvebc3_setdbcstbl
                0x001a5ce4                ucvebc3_getebc3opt
                0x001a5dd4                ucvebc3_b2f
                0x001a5e70                ucvebc3_f2bcmd
 .text          0x001a5efc     0x1ee8 ../ulib/libuserxe.a(libuserxe_a-ucvebc32.o)
                0x001a5efc                ucvebc_umemspnc
                0x001a5fec                ucvebc_umemrspnc
                0x001a60dc                ucvebc_umemchr
                0x001a6210                ucvebc_umemrchr
                0x001a6320                ucvebc_memcmp_banda
                0x001a64f4                ucvebc_memicmp
                0x001a6550                ucvebc_memcmp
                0x001a67b0                ucvebc_umemmemi
                0x001a6a9c                ucvebc_umemmem
                0x001a6c28                ucvebc_umemrmemi
                0x001a6ed0                ucvebc_umemrmem
                0x001a7060                ucvebc_unumlen
                0x001a7388                ucvebc_asciilen
                0x001a74b0                ucvebc_issbcsstr
                0x001a7550                ucvebc_uispunct
                0x001a766c                ucvebc_uatoin
                0x001a7798                ucvebc_a2bfld
                0x001a78bc                ucvebc_b2afld
                0x001a79f8                ucvebc_umempbrk
                0x001a7ae0                ucvebc_umemrpbrk
                0x001a7be0                ucvebc_umemspn
                0x001a7ce0                ucvebc_umemrspn
 .text          0x001a7de4     0x1c0c ../ulib/libuserxe.a(libuserxe_a-ucvebc4.o)
                0x001a7de4                ucvebc4_init
                0x001a7e70                ucvebc4_compbyname
                0x001a7ec8                ucvebc4_compbyhandle
                0x001a7f18                ucvebc4_srchcveh
                0x001a806c                ucvebc4_gethandle
                0x001a815c                ucvebc4_getpucveh
                0x001a81dc                ucvebc4_getcvname
                0x001a8240                ucvebc4_getcvtype
                0x001a83c4                ucvebc4_createhandle
                0x001a8500                ucvebc4_getparmconverter
                0x001a8630                ucvebc4_chkdbcsconverter
                0x001a8748                ucvebc4_setuphandle
                0x001a8858                ucvebc4_setletter
                0x001a8fb4                ucvebc4_b2uSbcs1
                0x001a90d0                ucvebc4_b2mSbcs
                0x001a94fc                ucvebc4_setupsubch
 .text          0x001a99f0       0xa8 ../ulib/libuserxe.a(libuserxe_a-ucvebct.o)
                0x001a99f0                ucvebc2gettbl
 .text          0x001a9a98     0x6c18 ../ulib/libuserxe.a(libuserxe_a-ucvext.o)
                0x001a9a98                ucvext_cfglineerr
                0x001a9ad4                ucvext_cfgdupoption
                0x001a9b10                ucvext_ux2s
                0x001a9bf8                ucvext_cfgmap
                0x001a9d70                ucvext_getcfg
                0x001aab64                ucvext_setdefaultlocalcv
                0x001aaca8                ucvext_getarmso1
                0x001aaf08                ucvext_getarmso
                0x001ab194                ucvext_getarmdata1
                0x001ab304                ucvext_getarmdata
                0x001ab4b4                chkapiver
                0x001ab670                ucvext_icuinit_env
                0x001ab90c                setdatadir
                0x001ab9d8                ucvext_mapinit
                0x001ac3bc                ucvext_setupsubch
                0x001ac990                ucvext_loaddll_icudata
                0x001acc24                ucvext_loaddll
                0x001accd4                ucvext_icuinit
                0x001ad3f8                ucvext_icuenumcvname
                0x001ad7c8                ucvext_icuuerrname
                0x001ad838                ucvext_icugetdefaultconvertername2
                0x001ad954                ucvext_getstdcharset
                0x001add2c                ucvext_icugetdefaultconvertername
                0x001ade6c                ucvext_icugetconvertertype
                0x001ae090                ucvext_icugetsubchars
                0x001ae214                ucvext_icusetsubchars
                0x001ae308                ucvext_icugetstarter
                0x001ae494                ucvext_icugetconverter
                0x001aeaa4                ucvext_getparmconverter
                0x001aed28                ucvext_openparmconverter
                0x001aeea8                ucvext_getcvoption
                0x001af214                set_internal_CP037
                0x001af2fc                ucvext_mapinitsetdefault
                0x001af538                ucvext_setlocalconverter
                0x001af634                ucvext_icusubcharchk
                0x001af9e8                ucvext_isdbcs1st
                0x001afa6c                chk_converter_is_ebcdic
                0x001afb60                ucvext_handle0init
                0x001afda4                ucvext_icuclose
                0x001afe0c                ucvext_icureset
                0x001afe74                ucvext_icugetmbconverter
                0x001aff54                ucvext_icumbinit12
                0x001affb4                ucvext_icumbinit
                0x001b0280                ucvext_setdefaultlocale
                0x001b0370                chkicuversion
                0x001b05fc                ucvext_getConverterCfg
 .text          0x001b06b0     0x49f4 ../ulib/libuserxe.a(libuserxe_a-ucvext12.o)
                0x001b06b0                ucvext12_init
                0x001b0814                ucvext_icuebc2ucs1
                0x001b0ad0                ucvext_iculocal2ucs1
                0x001b0dc4                ucvext_icuucs2ebc1
                0x001b10dc                ucvext_icuucs2local1
                0x001b13a8                ucvext_icuebc2mb1
                0x001b1808                ucvext_icumb2ebc1
                0x001b1cc8                ucvext_icuebc2mbs_handle
                0x001b1d48                ucvext_icuebc2mbs
                0x001b2050                ucvext_icumb2ebcdbcs
                0x001b2610                ucvext_icumb2ebcs_handle
                0x001b2690                ucvext_icumb2ebcs
                0x001b2b90                ucvext_icuebc2mbf
                0x001b3078                ucvext_icumb2ebcf
                0x001b3814                ucvext_icumb2ucs1
                0x001b3a20                ucvext_icuucs2mb1
                0x001b3c48                ucvext_icuutf2mb1
                0x001b3df4                ucvext_icumb2utf1
                0x001b3ff0                ucvext_icumb2utf
                0x001b4298                ucvext_icuisprint
                0x001b4338                ucvext_locale1ICU
                0x001b441c                ucvext_getparmconvertermbICU
                0x001b4854                ucvext_icua2ainit
                0x001b4918                ucvext_icua2aterm
                0x001b4990                ucvext_icua2as
                0x001b5050                ucvext_icusubcharchk_handle
 .text          0x001b50a4     0x1ec0 ../ulib/libuserxe.a(libuserxe_a-ucvext2.o)
                0x001b50a4                ucvext_iconvmapinit
                0x001b50f0                ucvext_iconvgetstarter
                0x001b5254                ucvext_iconvgetconvertertype
                0x001b52d0                ucvext_iconvgetconverter
                0x001b5414                ucvext_iconvgetparmconverter
                0x001b561c                ucvext_iconvebc2ucs1
                0x001b578c                ucvext_iconvlocal2ucs1
                0x001b5a4c                ucvext_iconvucs2ebc1
                0x001b5bc0                ucvext_iconvucs2local1
                0x001b5d28                ucvext_iconva2as
                0x001b633c                ucvext_iconvb2bs
                0x001b64e8                ucvext_iconva2af
                0x001b6bf8                ucvext_iconva2ainit
                0x001b6d18                ucvext_iconva2acont
 .text          0x001b6f64     0x4f64 ../ulib/libuserxe.a(libuserxe_a-ucvucs.o)
                0x001b6f64                ucp932init
                0x001b74ec                ucp932term
                0x001b7594                ucp932sjis2ucs
                0x001b7664                ucp932ucs2sjis
                0x001b77e8                uccvsjis2ucs
                0x001b791c                uccvucs2sjis
                0x001b794c                uccvucs2utf
                0x001b7b80                uccvutf2ucs
                0x001b7f24                uccvucss2utf
                0x001b8008                uccvutf2ucss
                0x001b81d4                uccvsjis2ucss
                0x001b8254                uccvucss2sjis
                0x001b8298                uccvsjis2utf
                0x001b837c                uccvutf2sjis
                0x001b8448                ucvsucs2utf
                0x001b87ec                ucvsescucs2utf
                0x001b8bb0                ucvssjis2utf
                0x001b8f7c                ucvsmb2utf
                0x001b92dc                ucvsutf2ucs
                0x001b9640                ucvsutf2sjis
                0x001b9adc                ucvsutf2mb
                0x001b9ebc                ucvssjis2ucs
                0x001ba1e0                ucvsucs2sjis
                0x001ba580                ucvsescucs2sjis
                0x001ba904                ucvfsjis2ucs
                0x001bab24                ucvfucs2sjis
                0x001bad28                ucvfutf2ucs
                0x001bafc4                ucvfucs2utf
                0x001bb230                ucvfsjis2utf
                0x001bb49c                ucvfutf2sjis
                0x001bb738                ucvbomchk
                0x001bb8e0                ucvbomset
                0x001bba3c                ucvsetucss
                0x001bbc6c                ucvgetucss
                0x001bbda8                ucverrutf
                0x001bbe08                ucverrucs
                0x001bbe68                ucverrsjis
 .text          0x001bbec8       0x38 ../ulib/libuserxe.a(libuserxe_a-ucvucst.o)
                0x001bbec8                ugetcp932tbl
 .text          0x001bbf00     0x3084 ../ulib/libuserxe.a(libuserxe_a-udbcschk.o)
                0x001bbf00                udbcschk_wcinit
                0x001bc2a0                udbcschk_getbaseconverter
                0x001bc348                udbcschk_setunprintable
                0x001bc4e0                udbcschk_wclocaleinit
                0x001bc64c                udbcschk_wclocalereset
                0x001bca60                udbcschk_chklocale
                0x001bcb20                udbcschk_getlinuxleadbyte
                0x001bcc88                udbcschk
                0x001bce14                udbcschk_hk
                0x001bcf00                udbcschk_getmblen
                0x001bd1c0                udbcschk_mblen
                0x001bd290                udbcschk_mb2nd
                0x001bd418                udbcschk_isvalidmbchar
                0x001bd4fc                udbcschk_locale_topbyte
                0x001bd600                udbcschk_getdbcs1st
                0x001bd6f4                udbcschk_ismbdbcs1st
                0x001bd754                udbcschk_locale1
                0x001bda40                udbcschk_mb2ucs1
                0x001bdbac                udbcschk_ucs2mb1
                0x001bdcd8                udbcschk_forceenglish
                0x001bdd44                udbcschkcp
                0x001bdeb0                ugetcp
                0x001bdf94                udbcsenv
                0x001bdfd4                udosquerydbcsenv
                0x001be148                udbcschk2
                0x001be20c                udbcschk_pos2offs
                0x001be3e8                usetdbcstbl
                0x001be74c                usetdbcstblmb
                0x001bebbc                udbcschk_setlocale
                0x001bee0c                udbcschk_setdbcstype
                0x001bef24                udbcschk_icugetlocalconverter
 .text          0x001bef84     0x2e38 ../ulib/libuserxe.a(libuserxe_a-udbcsck2.o)
                0x001bef84                ujischkx208
                0x001bf054                usjischkx208
                0x001bf134                usjis2jis
                0x001bf23c                ujis2sjis
                0x001bf32c                ustrjis2sjis
                0x001bf844                ustrsjis2jis
                0x001bfd4c                ushift2euc
                0x001c0284                ushift2euc1
                0x001c0460                ushift2euccount
                0x001c06a0                usjischk
                0x001c0954                ueuc2shift1SS3
                0x001c0984                ueuc2shift
                0x001c1110                ueucchk
                0x001c154c                ueuc2shift1
                0x001c17c0                ueuc2shift1c
                0x001c1974                uhan2zen
                0x001c1c38                udbcschktty
                0x001c1cbc                udbcschk_srchSS2
 .text          0x001c1dbc      0x3dc ../ulib/libuserxe.a(libuserxe_a-udos2.o)
                0x001c1dbc                udos2
                0x001c1dd4                ugetdriveidlist
                0x001c1ec8                ugetdrivelist
                0x001c1f68                ugetdrivetype
                0x001c2090                udos_setenv
 .text          0x001c2198     0x3fe8 ../ulib/libuserxe.a(libuserxe_a-uedit.o)
                0x001c2198                uedit
                0x001c21b0                unumedit
                0x001c24e8                utimeedit
                0x001c3060                uitoa10
                0x001c3094                ucmdparmedit
                0x001c37bc                ueditenv
                0x001c3be8                uwordrep
                0x001c4294                ugethex
                0x001c43f4                ugethexdump
                0x001c45d4                ux2FILESZ
                0x001c4604                ux2l
                0x001c4798                ux2ll
                0x001c4880                ua2ll
                0x001c48b0                ux2s
                0x001c4a0c                ugetnumrange3
                0x001c4b84                ugetnumrange2
                0x001c4c80                ugetnumrange2XFILESZ
                0x001c4d54                ugetnumrange
                0x001c4f60                ugetxnumrange
                0x001c5384                ugetxnumrangeLL
                0x001c57b0                unumlen
                0x001c59f0                uatoin
                0x001c5a70                getKMGTB
                0x001c5bf8                ueditFILESZ
                0x001c5e6c                ueditLONGHANDLE
                0x001c6074                ueditKMG
 .text          0x001c6180     0x2890 ../ulib/libuserxe.a(libuserxe_a-uedit2.o)
                0x001c6180                uedit2
                0x001c6198                uasciidump
                0x001c63b4                uasciidump_utf
                0x001c666c                uucsdump
                0x001c69b8                ub2x
                0x001c6ae8                ueditfattr
                0x001c6ec0                ueditfattrspf
                0x001c6f94                ueditfattr_mdos
                0x001c7114                uxdumpline
                0x001c7b14                xdlputs
                0x001c7bc0                ugetdtparm
                0x001c7cbc                ugetdateparm
                0x001c7d30                ugettimeparm
                0x001c7da4                ueditgetftnum
                0x001c8074                ueditsetfdateUSHORT
                0x001c8108                ueditsetfdate
                0x001c81e8                ueditsetftimeUSHORT
                0x001c827c                ueditsetftime
                0x001c8374                uxdumpstr
                0x001c859c                ueditNowFileTime
                0x001c86cc                ueditescrep
 .text          0x001c8a10      0x354 ../ulib/libuserxe.a(libuserxe_a-uehl.o)
                0x001c8a10                useteh
                0x001c8adc                uehl_setsh
                0x001c8b30                ureseteh
                0x001c8bf8                uehl_resetsh
                0x001c8c34                usighandler
 .text          0x001c8d64     0x29f8 ../ulib/libuserxe.a(libuserxe_a-uerr.o)
                0x001c8d64                uerr
                0x001c8d7c                ubell_init
                0x001c8dbc                ubell_init2
                0x001c8dec                ubell
                0x001c8f04                uerrexit_init
                0x001c8fcc                uerrexit_optinit
                0x001c8ffc                uerrsetopt2
                0x001c9060                uerrexit
                0x001c9258                uerrmsg_init
                0x001c9438                uerrmsg
                0x001c9648                uerrmsg2
                0x001c97c8                uerrmsgcat
                0x001c98d4                uerrsprintf
                0x001c99c0                uerrfprintfutf
                0x001c9e2c                uerrhelpmsg
                0x001ca318                uerrscrheight
                0x001ca3c8                useterrmsg
                0x001ca43c                ugeterrmsg
                0x001ca488                ugeterrmsg2
                0x001ca4c8                uerrmsgedit
                0x001cae5c                uconfirmmsg
                0x001cb174                uerrornomsg
                0x001cb19c                ugeterrdescription
                0x001cb220                uerrapi1
                0x001cb268                uerrapi1x
                0x001cb2ac                uerrapi0
                0x001cb2e8                uerrapi0x
                0x001cb320                uerrapi1t
                0x001cb390                uerrapi1nt
                0x001cb3e4                uerrapi1tx
                0x001cb450                uerrapi0t
                0x001cb4b8                uerrapi0tx
                0x001cb51c                uerrnotsupported
                0x001cb560                uerrmsg_initstart
                0x001cb624                uerrmsg_initstack
                0x001cb688                uerrmsg_initcomp
 *fill*         0x001cb75c        0x4 
 .text          0x001cb760      0xec0 ../ulib/libuserxe.a(libuserxe_a-ufemsg.o)
                0x001cb760                ufemsg
                0x001cb778                ufilenotfound
                0x001cb7b4                ufilenotfoundotherexist
                0x001cb7f0                ufilepatherr
                0x001cb82c                ufileapierr
                0x001cb874                ufileapierr_str
                0x001cb8cc                ufiledelpath
                0x001cb908                ufilereadonly
                0x001cb944                ufilereadonly2
                0x001cb984                ufiledeleted
                0x001cbab4                ufileshare
                0x001cbaf0                ufileexist
                0x001cbb2c                ufileexistcopy
                0x001cbb68                ufileexist2
                0x001cbbac                ufileexistdir
                0x001cbbe8                ufilenotdir
                0x001cbc24                ufilediskfull
                0x001cbc68                ufilewildtarget
                0x001cbc9c                ufilewildcarderr
                0x001cbcd0                ufilewildpatherr
                0x001cbd04                ufileroot
                0x001cbd40                ufileapierr2
                0x001cbd94                ufiledirna
                0x001cbde0                ufileerrdir
                0x001cbe1c                ufilenotvfat
                0x001cbe44                ufilenopermission
                0x001cbe88                ufileslinkloop
                0x001cbee0                ufileerrspecialfile
                0x001cbf1c                ufileerrnotnormal
                0x001cbf58                ufileerrdir2file
                0x001cbf88                ufileerrnoentry
                0x001cbfc0                ufileerrnofileentry
                0x001cbff8                ufileTooLongFullpathName
                0x001cc050                ufileTooLongFullpathName2
                0x001cc1b0                ufileeditsz
                0x001cc548                ufileslinktargeterr
                0x001cc58c                ufileopenerrInvalidargument
                0x001cc5e8                ufileErrInvalidName
 .text          0x001cc620     0x3508 ../ulib/libuserxe.a(libuserxe_a-ufile.o)
                0x001cc620                ufile
                0x001cc638                ufullpathwildexp
                0x001cccec                ufullpathresolvespecialdirid
                0x001ccea8                ufilegetpathdir
                0x001cd094                udirlistnomsg
                0x001cd0f4                udirlist
                0x001cd2a8                udirlistsub
                0x001cd79c                udirlist_set_slinkname
                0x001cd8f0                ufile_udirlist_copy
                0x001cdb4c                ufile_udirlist_swap
                0x001cdd30                ufile_udirlist_alloc1
                0x001cddc4                ufile_udirlist_free
                0x001cdec0                udircompare_pointer
                0x001cdf30                udirlistsort
                0x001ce0f4                udircomp
                0x001ce138                udircompare
                0x001cebb8                udircompsub
                0x001cece0                uredirect
                0x001cf128                uredirectrestore
                0x001cf244                ufdateedit
                0x001cf584                uftimeedit
                0x001cf7bc                uftimeedit_1sec
                0x001cf818                udirlist_chk_max_entry
                0x001cf880                udirlist_setname
                0x001cfa5c                udirlist_setname_cat
 .text          0x001cfb28      0x7ec ../ulib/libuserxe.a(libuserxe_a-ufile12.o)
                0x001cfb28                ufilegetlastname
                0x001cfc80                ufileconcatlastname
                0x001cfe4c                ufileisnormalfile
                0x001d00b0                ufilefullpathtemp
                0x001d0190                ufilenameenclose
 .text          0x001d0314     0x1b00 ../ulib/libuserxe.a(libuserxe_a-ufile1f.o)
                0x001d0314                uftpfstat
                0x001d0634                uftpwinchk
                0x001d0760                uftpfullpathnorid
                0x001d07c0                uftpfullpath
                0x001d0e88                uftppathlen
                0x001d0ed8                uftpgetcwd
                0x001d0fd8                uftpgethome
                0x001d1058                uftpgethomesub
                0x001d122c                uftpchdir
                0x001d13f8                uftpchdirsub
                0x001d15c8                uftplchdirrespchk
                0x001d17d4                uftpdirlistsub
                0x001d1bb4                uftpfindfirst
                0x001d1d04                uftpfindfirstfile
                0x001d1d8c                uftpfindnext
 .text          0x001d1e14     0x4344 ../ulib/libuserxe.a(libuserxe_a-ufile1l.o)
                0x001d1e14                ufstat
                0x001d2684                ufilechkwildmultiple
                0x001d2920                ufstat_wild
                0x001d29b0                ufilefscomp
                0x001d2a28                ufilegetfsid
                0x001d2b08                ufilegetftime
                0x001d2c18                ufullpath
                0x001d3620                upathlen
                0x001d3670                ugetcwd
                0x001d369c                uchdir
                0x001d37c8                udosfindfirstnomsg
                0x001d3838                udosfindfirst
                0x001d3fb4                udosfindnext
                0x001d4024                udosfindnextmsg
                0x001d4428                ufilelnxwildselect
                0x001d4494                ufilelnxattrselect
                0x001d466c                ufilelnxgetmembfstat
                0x001d4898                ufilelnxsavehdir
                0x001d49c8                ufilelnxsrchhdir
                0x001d4ad0                ufilelnxclosehdir
                0x001d4c10                ufilemode2attr
                0x001d4dbc                ufilemktime
                0x001d4e74                ufilerepwildname
                0x001d4f74                errwildname
                0x001d517c                filesrchmountpoint
                0x001d5354                filegetdevt
                0x001d55d8                filegetdevicename
                0x001d5784                filegetdevicemntent
                0x001d58a4                filegetmntent
                0x001d5a78                filegetmntoption
                0x001d5bdc                ufilegetiocharset
                0x001d5ce0                ufilefnmcvcs
                0x001d5f24                ufullpathCP
 .text          0x001d6158     0x1f08 ../ulib/libuserxe.a(libuserxe_a-ufile1l2.o)
                0x001d6158                mtoolsinit
                0x001d6184                ufstat_mdos
                0x001d66d0                ufilegetmdosattr
                0x001d67d4                uopendir_mdos
                0x001d6ad0                ureaddir_mdos
                0x001d6d14                ufilegetmdosdl
                0x001d7274                ufilegetmdosattrlist
                0x001d746c                ugetcwd_mdos
                0x001d75e8                uchdir_mdos
                0x001d7684                ustatfs_mdos
                0x001d78c4                uminfo
                0x001d7ba0                ufilegetnum
                0x001d7ca4                ufilemdoscmd
                0x001d7efc                ufilemdoserrchk
 .text          0x001d8060     0x4588 ../ulib/libuserxe.a(libuserxe_a-ufile2.o)
                0x001d8060                ufile2
                0x001d8078                uxddpchk
                0x001d84c8                uxddsub
                0x001d8d18                uxdelete
                0x001d9a98                ufilewildxdel
                0x001d9ccc                uxdelsub
                0x001da674                uremovenomsg
                0x001da6c8                uremove
                0x001da928                urenamenomsg
                0x001da980                urename2
                0x001da9d8                urename
                0x001db0dc                ufilewildrename
                0x001db114                uwildfunc
                0x001db510                ufilecdirchk
                0x001db8a8                ufilespfnchk
                0x001db8d0                wildchk
                0x001dba68                ufilechkwildmemb
                0x001dbb98                ufilechkwildname
                0x001dbd2c                ufileopenexclusivewrite
                0x001dbde8                ufiledelifnotopened
                0x001dbec4                ufile2quietmsg
                0x001dbff4                ugetmoveavailablepath
                0x001dc4e0                uwildfunc_LongName
 .text          0x001dc5e8     0x47cc ../ulib/libuserxe.a(libuserxe_a-ufile2f.o)
                0x001dc5e8                uftpmkdir
                0x001dcbe0                uftprmdir
                0x001dcfec                uftpremove
                0x001dd430                uftprename
                0x001dd7dc                uftprenamesub
                0x001ddbb0                uftpwildrename
                0x001ddc00                uftpattrib
                0x001ddf0c                uftpattrxon
                0x001ddf54                uftpattrxchk
                0x001de12c                uftpgetftime
                0x001de280                uftpgetftime_1sec
                0x001de3f8                uftpsetftime
                0x001de470                uftpsetftime2
                0x001de4e8                uftpcopypathinfo
                0x001de610                uftpsetown
                0x001de688                uftpsetmod
                0x001deb68                uftpwildfunc
                0x001ded94                uftpwildfunc2
                0x001df10c                uftpmultidel
                0x001df224                uftpmultirename
                0x001df33c                uftpwildxdel
                0x001df678                uftpmultidelsub
                0x001df804                uftpmultirenamesub
                0x001dfa44                uftpbypassreason
                0x001dfad0                uftpxdelrchk
                0x001dfedc                uftpmultidelrchk
                0x001e0178                uftpmultirenamerchk
                0x001e0420                ufile2putstmt
                0x001e0560                uftpnotsupported
                0x001e05b8                uftpnotsupportedforlocal
                0x001e0610                uftpdelsubdir
                0x001e0890                ufile3xdeleteinit
                0x001e091c                uxdelsubftp
                0x001e0d6c                errtoolongname
 .text          0x001e0db4     0x19d8 ../ulib/libuserxe.a(libuserxe_a-ufile2l.o)
                0x001e0db4                umkdir
                0x001e0e20                umkdirmode
                0x001e1154                urmdir
                0x001e15f8                uattrib
                0x001e1944                uattrxon
                0x001e19bc                uattrxchk
                0x001e1b9c                ugetftime
                0x001e1cd4                ugetftime_1sec
                0x001e1e54                usetftime
                0x001e1fd0                usetftime_1sec
                0x001e202c                usetftime2
                0x001e2188                ucopypathinfo
                0x001e2594                ufilesetown
                0x001e268c                ufilesetmod
 .text          0x001e278c      0xbc8 ../ulib/libuserxe.a(libuserxe_a-ufile2l2.o)
                0x001e278c                umkdir_mdos
                0x001e2858                urmdir_mdos
                0x001e296c                uattrib_mdos
                0x001e2b70                uremove_mdos
                0x001e2c84                urename_mdos
                0x001e2d1c                ucopy_mdos
                0x001e2fb0                uappend_mdos
                0x001e32f8                ufilemdoscopyerr
 .text          0x001e3354     0x4dd0 ../ulib/libuserxe.a(libuserxe_a-ufile3.o)
                0x001e3354                ufile3
                0x001e336c                invalidtargetfilename
                0x001e33a4                uxcopy
                0x001e4294                ufilecreateparmproc
                0x001e4a00                ufilecpymvflags
                0x001e4ccc                ufilewildcopy
                0x001e4f6c                ucopysub_slinktarget
                0x001e510c                ucopysub_slink
                0x001e5404                ucopysub
                0x001e5b28                udoscopy
                0x001e5ee0                uxmove
                0x001e68f8                ufilewildmove
                0x001e6a88                umovesub_slink
                0x001e71c4                umovesub
                0x001e78f4                ufilecopytschk
                0x001e7a0c                ufilechkslinkpath
                0x001e7c54                ufilegetslinkfinaltarget
                0x001e7ddc                ufilesymlink
                0x001e7e60                ufilesymlink_copyfiletime
                0x001e7f58                ufilesymlink_copy
                0x001e8004                ufileerrdirandfile
                0x001e8044                ufileerrslinktarget
                0x001e8088                ufileerrslinkappend
                0x001e80c8                ufileerrnotargetslink
 .text          0x001e8124     0x539c ../ulib/libuserxe.a(libuserxe_a-ufile3f.o)
                0x001e8124                uftpxmove
                0x001e82ec                uftpxcopy
                0x001e85e4                uftpxcopyr2r
                0x001e8868                uftpupload
                0x001e8f08                uftpdownload
                0x001e9558                uftptargetflag
                0x001e98e0                uftpsourceflag
                0x001e9c98                uftps2tchk
                0x001ea28c                uftpcreateparmproc
                0x001ea6d0                uftpmoveparmproc
                0x001ea984                uftpupdownctl
                0x001eb288                uftpgetdirlist
                0x001eb35c                uftpexistchk1
                0x001eb5b8                uftpexistchkm
                0x001ebb18                uftpcopycallback
                0x001ec33c                uftpcopyrchk
                0x001ecad0                uftpputstmt
                0x001ecc14                uftpputstmt2
                0x001ecdb4                uftpcopyftime
                0x001ed100                ufileftpcopytschk
                0x001ed33c                uftpmktdir
                0x001ed39c                uftperrsourceisroot
                0x001ed3c4                uftperrtargetisnotdir
                0x001ed3f8                uftperrdir2file
                0x001ed438                uftpfileanddir
                0x001ed484                uftpappenddir2dir
 .text          0x001ed4c0     0x2acc ../ulib/libuserxe.a(libuserxe_a-ufile4.o)
                0x001ed4c0                ufile4
                0x001ed4d8                utempnam
                0x001ed7b8                utempnamd
                0x001ed810                ufgetpos
                0x001ed840                udirwalk
                0x001edf78                udirwalksub
                0x001ef028                ufileslinkoutoflinkchk
                0x001ef4c8                ufileslinkloopchk
                0x001ef96c                ufileslinkloopchk2
                0x001efa7c                ugetdiskfree
                0x001efc10                ufileisvfat
                0x001efc44                ufileisntfs
                0x001efc68                ufileisvfatMounted
                0x001efce8                ufileisntfsMounted
                0x001efd68                ufileisMSMounted
                0x001efe14                ufsetlock
                0x001efe7c                uflock
 .text          0x001eff8c     0x4e20 ../ulib/libuserxe.a(libuserxe_a-ufile5.o)
                0x001eff8c                ufile5
                0x001effa4                ufgetsinit
                0x001f03c0                ufgetscurpos
                0x001f03e8                ufgets_setcurpos
                0x001f046c                ufgets
                0x001f0830                ufgetssub
                0x001f0e18                ufgetsbinchk_utf8
                0x001f10f0                ufgetsbinchk_ebc
                0x001f1310                ufgetsbinchk
                0x001f17c8                isSameU8c
                0x001f1a10                udoseditname
                0x001f22d4                ufileeditname
                0x001f279c                ufilewildcomp
                0x001f2b1c                ufilewildcompsub
                0x001f2cec                ufilecomp
                0x001f31c4                ufilecomptextmode
                0x001f356c                ufilecomptextmodefixed
                0x001f37f8                ufilecomptextmodesub
                0x001f393c                ufreads
                0x001f3c1c                ufgetsVHeader
                0x001f3ea4                ufgetsVRecord
                0x001f419c                ufgetsV
                0x001f441c                ufile5chkvfmt
                0x001f457c                ufile5getVfmtstr
                0x001f4640                ufseek
                0x001f467c                uftell
                0x001f46ac                fileeditname_copypath
                0x001f4cc8                fileeditname_copypath_err
                0x001f4d2c                filetouch
 .text          0x001f4dac     0x4f50 ../ulib/libuserxe.a(libuserxe_a-uftp.o)
                0x001f4dac                uftpfstatroot
                0x001f4e54                uftplshome
                0x001f4fbc                uftpfstatudl
                0x001f5300                uftpisexist
                0x001f541c                uftpopendir
                0x001f59f4                uftpreaddir
                0x001f5b58                uftpattrselect
                0x001f5d20                uftpgetslinkattr
                0x001f6100                uftpdirlistslink
                0x001f66f0                uftpsortslink
                0x001f6748                uftpslinkcomp
                0x001f67cc                uftpslinklscmd
                0x001f6b04                uftplsoutchk
                0x001f6e78                uftpmodtimerchk
                0x001f7354                uftpmodtimeerr
                0x001f73a8                uftplsoutchkslinkerrskip
                0x001f74d4                uftplsoutchkslink
                0x001f75d4                uftpsavehdir
                0x001f771c                uftpsrchhdir
                0x001f77c8                uftpclosehdir
                0x001f782c                uftpmode2attr
                0x001f79a8                uftpudl2ffb3
                0x001f7b58                uftpgetpathname
                0x001f7c20                uftpnodesrch
                0x001f7cd0                uftpnodeadd
                0x001f7d88                uftpnodedel
                0x001f7de4                uftpnodeclear
                0x001f7e00                uftpgethostqhaddr
                0x001f7e20                uftphoststbinit
                0x001f8140                uftpgethostsdata
                0x001f91ac                uftgetstringopd
                0x001f942c                uftpipachk
                0x001f964c                uftpgetportno
                0x001f96d8                uftpisremote
                0x001f9864                uftpisrootdir
                0x001f98e8                uftphostscrypt
                0x001f9bc4                uftptempnam
                0x001f9c20                uftp_mempswd
                0x001f9cb8                uftp_udirlist_setname
 .text          0x001f9cfc     0x2c2c ../ulib/libuserxe.a(libuserxe_a-uftp2.o)
                0x001f9cfc                uftpinit
                0x001f9e4c                uftpterm
                0x001f9e94                uftplog
                0x001fa268                uftpnodeinit
                0x001fa450                uftpcmd
                0x001fab88                uftpcmdrespchk
                0x001fac94                uftpcmdresphdrchk
                0x001fadbc                uftpcmdsrchrespid
                0x001fb01c                uftpsimplerespchk
                0x001fb0f4                uftpnextstdo
                0x001fb1c4                uftpsrchfname
                0x001fb38c                uftpsrchfnameslink
                0x001fb614                uftpgetdl
                0x001fb934                uftpgetdl1
                0x001fc03c                uftpgetmode
                0x001fc384                uftpgetdlftime
                0x001fc528                uftpgetmonth
                0x001fc5a4                uftpgetwday
                0x001fc61c                uftpajustjst
                0x001fc878                uftpmktempwd
                0x001fc8c4                uftpdeltempwd
 .text          0x001fc928     0x5ab0 ../ulib/libuserxe.a(libuserxe_a-uftp3.o)
                0x001fc928                uftp3setssh
                0x001fcbe8                uftp3editpsftpcmd
                0x001fcd28                uftp3cmdrespchk
                0x001fce44                uftp3cmdresphdrchk
                0x001fcf98                uftp3srchcmdecho
                0x001fd0ec                uftp3gethomesub
                0x001fd24c                uftp3simplerespchk
                0x001fd3b8                uftp3simplerespchkOK
                0x001fd554                uftp3simplerespchkCHNG
                0x001fd6e4                uftp3lchdirrespchk
                0x001fd750                uftp3getputrespchk
                0x001fd86c                uftp3cdrespchk
                0x001fd9a8                uftp3setsmb
                0x001fda64                uftp3smb_setcmd
                0x001fdee4                uftp3smb_editcmdline
                0x001fe19c                uftp3smb_nodeinit
                0x001fe248                uftp3smbcmd
                0x001fe2cc                uftp3smb_cmd
                0x001fe7d4                uftp3smb_chkstatuserr
                0x001fea1c                uftp3smb_srchresp
                0x001fec44                uftp3smb_stderrlog
                0x001fecbc                uftp3smb_getdltime
                0x001fee60                uftp3smb_getdltimestat
                0x001fefb0                uftp3smb_setdltime
                0x001ff0e0                uftp3smb_getmode
                0x001ff310                uftp3smb_getdirlistctr
                0x001ff358                uftp3smb_getdl1
                0x001ff5cc                uftp3smb_fstatudl
                0x001ff8dc                uftp3smb_fstatudl_byls
                0x001ffb0c                uftp3smb_fstatudl_byls_root
                0x001ffda8                uftp3smb_lsoutchk
                0x001fff2c                uftp3smb_getdlattr
                0x00200024                uftp3smb_fstatdircallback
                0x002002c4                uftp3smb_fstatdirrchk
                0x0020070c                uftp3smb_fstatoutchk
                0x00200c10                uftp3smb_putstmt
                0x002011b8                uftp3smb_respchk_srchnext
                0x002014f0                uftp3smb_respchk
                0x00201918                uftp3smb_lchdirrespchk
                0x00201968                uftp3smb_strfname
                0x00201c18                uftp3smb_enclosefnm
                0x00201d58                uftp3smb_editcmdparm
                0x00201ef8                uftp3smb_dirnameforlist
                0x00201fc8                uftp3smb_mode2attr_winsub
                0x00202058                uftp3smb_mode2attr_win
                0x002020a8                uftp3smb_strattr
                0x00202190                uftp3smb_setmod_win
 .text          0x002023d8      0x4b0 ../ulib/libuserxe.a(libuserxe_a-ugcclib.o)
                0x002023d8                strupr
                0x00202440                strlwr
                0x002024a8                memicmp
                0x00202574                stricmp
                0x00202604                itoa
                0x00202698                kbhit
                0x002026b0                getch_nc
                0x002026d0                getche
                0x002026f0                spawnvp
                0x00202748                spawnv
 .text          0x00202888     0x1d30 ../ulib/libuserxe.a(libuserxe_a-ukbdl.o)
                0x00202888                ukbdpeek
                0x002028b4                ukbdcharin
                0x00202a5c                ukbdl_init
                0x00202b48                ukbdl_term
                0x00202b60                ukbdl_setkbmode
                0x00202be8                ukbdl_shellmode
                0x00202cf4                ukbdl_setgetchmode
                0x00202db4                ukbdl_tcgetattr
                0x00202e54                ukbdl_tcsetattr
                0x00202ef8                ukbdl_getch_init
                0x00202f4c                ukbdl_getche_init
                0x00202fa0                ukbdl_getch_term
                0x00202fec                ukbdl_getche_term
                0x00203038                ukbdl_kbhit
                0x00203088                ukbdl_getch
                0x00203128                ukbdl_getche
                0x002031c8                ukbdl_gettermid
                0x0020330c                ukbdl_gettermsim
                0x00203844                ukbdl_editstring
                0x0020390c                ukbdsetstatus
                0x002039c4                ukbdl_wcinit
                0x00203ac4                ukbdl_readutf8
                0x002040b8                ukbdl_readdbcs
                0x002043c0                ukbd_simutf8_f2l
 .text          0x002045b8     0x8020 ../ulib/libuserxe.a(libuserxe_a-ukbdlnxc.o)
                0x002045b8                ukbdlnxc_gettbl
                0x00204654                ukbdlnxc_init
                0x00204804                ukbdlnxc_term
                0x00204880                ukbdlnxc_getnext
                0x00204908                ukbdlnxc_read
                0x00204abc                ukbdlnxc_readkbd
                0x00205950                ukbdlnxc_optproc
                0x00205acc                ukbdlnxc_setupckt
                0x00206190                ukbdlnxc_setupcktsub
                0x002063fc                ukbdlnxc_setupcktx
                0x00208ab8                cktovferr
                0x00208b34                ukbdlnxc_addstrtbl
                0x00208e0c                ukbdlnxc_dupstrchk
                0x00209168                ukbdlnxc_cleanup
                0x002091f0                ukbdlnxc_termexit
                0x00209224                ukbdlnxc_getplainsym
                0x002094f8                ukbdlnxc_chkothersym
                0x00209564                ukbdlnxc_xbsdel
                0x00209668                ukbdlnxc_delopt
                0x0020974c                ukbdlnxc_setfunckey
                0x00209930                ukbdlnxc_setfuncstr
                0x00209d14                ukbdlnxc_setcompose
                0x00209dac                ukbdlnxc_getkeysym
                0x00209e8c                ukbdlnxc_setkeysym
                0x00209f6c                ukbdlnxc_getstring
                0x0020a03c                ukbdlnxc_setstring
                0x0020a134                ukbdlnxc_getdiacr
                0x0020a1e0                ukbdlnxc_setdiacr
                0x0020a28c                ukbdlnxc_setmetamode
                0x0020a498                ukbdlnxc_getconsole
                0x0020a61c                ukbdlnxc_getptty
                0x0020a758                ukbdlnxc_open
                0x0020a7e0                ukbdlnxc_chkconsole
                0x0020a808                ukbdlnxc_save1st
                0x0020aba4                ukbdlnxc_restorelast
                0x0020b160                ukbdlnxc_lockfwrite
                0x0020b1e4                ukbdlnxc_lockfread
                0x0020b268                ukbdlnxc_pidsetlock
                0x0020b354                ukbdlnxc_pidresetlock
                0x0020b3f4                ukbdlnxc_pidchklock
                0x0020b4ac                ukbdlnxc_chngttkey
                0x0020c078                ukbdlnxc_setrctl
                0x0020c1ac                ukbdlnxc_setrctlstr
                0x0020c5b0                uttyname
 .text          0x0020c5d8      0x848 ../ulib/libuserxe.a(libuserxe_a-ukbdlnxm.o)
                0x0020c5d8                ukbdlnxm_mouseopt
                0x0020c6e8                ukbdlnxm_mouseinit
                0x0020c750                ukbdlnxm_mouseterm
                0x0020c7b0                ukbdlnxm_getmouse
                0x0020cc08                clickchk
 .text          0x0020ce20     0x22e0 ../ulib/libuserxe.a(libuserxe_a-uparse.o)
                0x0020ce20                uparsein
                0x0020d0c8                uparseindir
                0x0020d23c                uparsev
                0x0020d404                uparse2
                0x0020d540                uparse
                0x0020e248                uparsefname
                0x0020e3d4                uparsecmd
                0x0020eb44                uparsecmdin
                0x0020ed9c                uparsegetopt
 .text          0x0020f100     0x3754 ../ulib/libuserxe.a(libuserxe_a-uproc.o)
                0x0020f100                usystem2
                0x0020f23c                usystem
                0x0020f350                uspawnl
                0x0020f47c                uspawnlp
                0x0020f5a8                uspawnvp
                0x0020f6a4                uprocopt
                0x0020f770                uspawnrc
                0x0020f998                uprocerrmem
                0x0020f9d4                uprocerrnotf
                0x0020fa10                uexecchk
                0x0020fe18                uextdirsrch
                0x0020fe58                ucmdnmcomp
                0x0020ffd4                ugetexepath
                0x0020fff8                uproc_getpsinfo
                0x00210550                uproc_srchpsinfo
                0x002106e0                uproc_freepsinfo
                0x00210750                usystem_redirect
                0x00210a38                uspawn_redirect
                0x00210e10                uproc_redirectoutchk
                0x0021178c                uspawnvp_pipe
                0x00211be0                uspawnvp_pipeclose
                0x00211cac                usystem_cmdserverinit
                0x00211d50                usystem_cmdserverterm
                0x00211e8c                usystem_cmdserversetup
                0x002122fc                usystem_cmdtocmdserver
                0x00212388                usystem_cmdserverreq
                0x00212794                usystem_cmdserverreqwithoutbuff
                0x00212828                usystem_pidalivechk
 .text          0x00212854     0x142c ../ulib/libuserxe.a(libuserxe_a-uproc2.o)
                0x00212854                uprocparseredirect
                0x00212c5c                uproc_rsh
                0x0021337c                uproc_redirectrewrite
                0x002134a4                uproc_rshlog
                0x00213574                ugetpid
                0x002135c0                uprocredirectchk
                0x00213610                uproc_loaddllpath
                0x00213878                uproc_loaddll
                0x00213a28                uproc_getdllproc
                0x00213b14                uproc_freedll
                0x00213b70                uproc_getprocaddr
 .text          0x00213c80     0x19c4 ../ulib/libuserxe.a(libuserxe_a-uproc3.o)
                0x00213c80                uproc_gvfsinit
                0x00213ce4                ushellexec
                0x00214198                ushellexecsub
                0x0021446c                ulnxlgettermpgmopt
                0x002145f0                ulnxlgetshellpgm
                0x002146bc                ulnxxgettermpgmopt
                0x002149d0                uproc3pgmchk
                0x00214a74                usystemlnxterm
                0x00214b50                usleepms
                0x00214bf4                uprocconnect
                0x00214eb0                uprocdisconnect
                0x00214f5c                uprocpipeio
                0x00215168                startserver
                0x002151e4                uprocpiperead
                0x00215278                uprocpiperecevmsg
                0x002153f4                uprocpipeiodata
 .text          0x00215644     0x11dc ../ulib/libuserxe.a(libuserxe_a-uproc4.o)
                0x00215644                uproc_shcmd
                0x0021574c                uproc_shserverinit
                0x002157f0                uproc_shserverterm
                0x002158c8                uproc_shserversetup
                0x00215d88                uproc_shserverreq
                0x002161cc                uproc_srchprocessw
                0x00216290                uproc_srchprocess
                0x00216374                uproc_select
                0x00216738                uproc4_fdset
                0x002167a8                uproc4_fdisset
 .text          0x00216820      0x9d4 ../ulib/libuserxe.a(libuserxe_a-uque.o)
                0x00216820                uque
                0x00216838                uenq
                0x00216b0c                udeq
                0x00216de8                uqscan
                0x00216f0c                uqfree
                0x00216f64                uqufree
                0x00216fbc                uenqchain
                0x002170d4                uenqent
                0x00217174                uqhmove
 .text          0x002171f4      0x274 ../ulib/libuserxe.a(libuserxe_a-ustrcpy.o)
                0x002171f4                ustring_memcpy
                0x002172b0                ustring_strncpy
                0x002173d0                ustring_strcpy
 .text          0x00217468     0x2778 ../ulib/libuserxe.a(libuserxe_a-ustring.o)
                0x00217468                ustring
                0x00217480                ustrnchr
                0x00217508                ustrnpbrk
                0x002175e4                ustrnspn
                0x002176e0                ustrrspn
                0x00217780                ustrnrspn
                0x00217830                umemrspn
                0x002178e8                umemspnc
                0x00217974                umemspn_spacetab
                0x00217a04                umemrspnc
                0x00217a94                ustrnstr
                0x00217b9c                ustrrstr
                0x00217c2c                ustrnrstr
                0x00217d18                ustrstri
                0x00217e70                ustrnstri
                0x00217f64                ustrrstri
                0x00217ff4                ustrnrstri
                0x002180e0                ustrnrchr
                0x002181d4                umemchr_utf
                0x00218370                ustrchr2
                0x002184b8                ustrnchr2
                0x00218504                umemchr2
                0x00218644                ustrrchr2
                0x00218784                ustrnrchr2
                0x002187d0                umemrchr2
                0x002188e4                umemrchr
                0x00218964                umempbrk
                0x00218a30                umemrpbrk
                0x00218b00                ustrnlen
                0x00218b54                umemstr
                0x00218b98                umemstri
                0x00218bdc                umemrstr
                0x00218c20                umemrstri
                0x00218c64                umemmem
                0x00218d54                umemmemi
                0x00218f54                umemrmem
                0x0021904c                umemrmemi
                0x00219230                ustrncpyz
                0x002192d4                uispunct
                0x0021939c                uispunctdbcs
                0x002195a8                ustrdup
                0x00219674                umemtrim
                0x002198c0                umemicmpdbcs
                0x002199bc                umemstridbcs
                0x00219adc                umemrstridbcs
 .text          0x00219be0       0x70 ../ulib/libuserxe.a(libuserxe_a-utf.o)
                0x00219be0                utf_init
 .text          0x00219c50     0x5ba0 ../ulib/libuserxe.a(libuserxe_a-utf2.o)
                0x00219c50                umbtowc
                0x00219d0c                utfpos2offs
                0x00219f9c                utfctr2offs
                0x0021a2b4                utfstrchkmbr2wc
                0x0021a734                utfcvf2u
                0x0021ac3c                utfcvl2fmix
                0x0021af14                utfcvl2f
                0x0021b5e0                utfcvl2ftab
                0x0021b79c                utfsetdbcstbl
                0x0021baa0                utfisvalidutf8
                0x0021bba4                utfgetstrwidth
                0x0021bc6c                utfisvalidutf8char
                0x0021bdfc                utfstrvalidate
                0x0021bf68                utfgetutf8strlen
                0x0021c0e0                utfsplitchk
                0x0021c304                utfcvl2fany
                0x0021cb8c                utfcvf2l1
                0x0021cd74                utfcvf2l
                0x0021d210                utfcvf2lany
                0x0021d7ac                utfcvl2fany1
                0x0021da10                utfcvl2fany1mb
                0x0021db74                utfcvl2uany1mb
                0x0021dd18                utfcvf2lany1
                0x0021e128                utfcvf2lany1mb
                0x0021e2ac                utfcvu2lany1mb
                0x0021e410                utfcvlocaleinit
                0x0021e63c                utfcvsetdefaultlocale
                0x0021e7ac                utfcvsetparmlocale
                0x0021e908                utfgetcharset_std
                0x0021ec34                utfgetcharset
                0x0021ee58                utflocalechk
                0x0021eed8                utfcvlocaleopen
                0x0021eff0                utfcvlocaleclose
                0x0021f01c                utfcvlocaletclose
                0x0021f05c                utfcviconvdbcschk_topbyte
                0x0021f198                utfcviconvdbcschk1
                0x0021f304                utfcvlocaleinitICU
                0x0021f36c                utfcvf2lany1ICU
                0x0021f4e8                utfcvl2fany1ICU
                0x0021f68c                utfcvsetdefaultlocaleICU
                0x0021f6d0                utflocalechkICU
                0x0021f738                utfgetstrlenHK
 .text          0x0021f7f0     0x7bb0 ../ulib/libuserxe.a(libuserxe_a-utf22.o)
                0x0021f7f0                utfwwapichk
                0x0021fa58                utfddflag2sbcsid
                0x0021faf0                utfddgetlenflag
                0x0021fdb0                utf22_mapwidth0_rounddown
                0x0021feec                utf22_mapwidth0
                0x00220104                utfucsmapinit
                0x00220614                utf22setworkdir
                0x002207ac                utf22versionchk
                0x002209a4                utfucsloadmap
                0x00220b9c                utfucssavemap
                0x00220d30                utfucsmapinit_remap
                0x002210c0                utfucsmapmodify
                0x00221238                utfmapucs2dd
                0x002212f0                utfmapdd2ucs
                0x00221374                utfddsetsbcs
                0x0022143c                utfddgetsbcs
                0x002214a0                utfgetwcw
                0x002215e0                utfcvu2dd1w
                0x002218ac                utfcvu2dd1
                0x002219a8                utfcvf2dd
                0x00221c94                utfdd2u1
                0x00221d00                utfdd2u1vio
                0x00221ddc                utfdd2u1chsz
                0x00221fd0                utfdd2u
                0x002224fc                utfucs42utf16
                0x002226c8                utfddgetucsctr
                0x00222844                utfu2dd
                0x00222a58                utfddcmp
                0x00223354                utfddicmp
                0x00223498                utfcvdd2f
                0x00223b2c                utfchkdd
                0x00223c14                utfddisasciistr
                0x00223d88                utfddissbcsstr
                0x00223e40                utfddasciilen
                0x00223e88                utfddpos2offs
                0x002240c0                utfddoffs2pos
                0x002243f4                utfddispunct
                0x002245ec                utfddmemspnc
                0x002246f0                utfddmemrspnc
                0x00224810                utfddstrnlen
                0x002248f8                utfddstrlen
                0x002249a8                utfddstrnspn
                0x00224a30                utfddmemspn
                0x00224b64                utfddmemrspn
                0x00224c9c                utfddmemchr
                0x00224dcc                utfddmemchr_nonascii
                0x00224ec0                utfddmemrchr
                0x00224fa8                utfddmemrchr_nonascii
                0x00225058                utfddmempbrk
                0x00225138                utfddmempbrk_nonascii
                0x0022523c                utfddmemrpbrk
                0x00225338                utfddmemrpbrk_nonascii
                0x00225458                utfddcmpdbcstab
                0x00225568                utfddmemmem
                0x002257ec                utfddmemrmem
                0x002258d8                utfddnumlen
                0x00225b9c                utfddgetdbcslr
                0x00225cdc                utfddgetcsrposbca
                0x00226070                utfgetvisiblealtch
                0x00226434                utfgetvisiblealtchprint
                0x002264d0                utf_setsubchar_dbcs
                0x002266d4                utf_subcharcmp
                0x00226850                utfmemrchrDD
                0x0022690c                utfmemchrDD
                0x002269e8                isASCIIstr
                0x00226a50                isPrintableASCIIstr
                0x00226ac8                isPrintableASCIImem
                0x00226b54                utf22_setunpucsvio
                0x00226c90                utf22_setdbcsspacealt
                0x00226d4c                utfsetvisiblealtch
                0x00226ea4                utf22_iswidth0Ovf
                0x00226f98                utf22_iswidth0DBCS
                0x00227070                utf_iswidth0
                0x002271b0                utf_iscombinable
                0x002272ec                utf_iscombining
 .text          0x002273a0     0x178c ../ulib/libuserxe.a(libuserxe_a-utf3.o)
                0x002273a0                utfmb2wc
                0x002275fc                utfwcwidth
                0x00227888                utfwcwidthNoMap
                0x00227a28                utfwcwidthsub
                0x00227c68                utfwcwidthsubNoMap
                0x00227e94                utfiswide
                0x00227ecc                utfisprint
                0x002280d0                utfgetwc
                0x0022816c                utftbinit
                0x002286e4                utftbfhelp
                0x00228704                utftbterm
                0x00228758                utftbsrch
                0x002288d4                utftbsrch_jeuc
                0x00228940                utftbsrch_cjk
                0x00228a88                utf3_wcwidthXXE
 .text          0x00228b2c      0xad0 ../ulib/libuserxe.a(libuserxe_a-utf4.o)
                0x00228c30                mk_wcwidth_combining
                0x00228c7c                mk_wcwidth
                0x00228f40                mk_wcwidth_cjk
                0x0022907c                mk_wcswidth_cjk
                0x00229114                mk_wcwidth_adjsbcs
                0x00229314                utf4_isSpacingCombiningMark
                0x002293d0                utf4_isAmbiguous
                0x002294dc                utf4_isAmbiguous_XXE
                0x0022955c                utf4_isFormat
                0x002295b0                mk_wcwidth_combining2SCM
 .text          0x002295fc     0x1754 ../ulib/libuserxe.a(libuserxe_a-utrace.o)
                0x002295fc                utrace_initmt
                0x00229658                utrace_init
                0x002298bc                utracepop
                0x00229a28                utracepopf
                0x00229bdc                utracepnop
                0x00229bfc                utrace_ebc
                0x00229cf4                utrace
                0x0022a0d8                utracectime
                0x0022a2fc                utraceopen_force
                0x0022a4cc                utraceocmsg_force
                0x0022ac70                utrace_term
 .text          0x0022ad50      0x5b8 ../ulib/libuserxe.a(libuserxe_a-uunxsub.o)
                0x0022ad50                ugetugid
                0x0022adf4                ugetusername
                0x0022ae8c                ugetgroupname
                0x0022af24                usrchugname
                0x0022af90                uaddugname
                0x0022b084                unc_setupterm
                0x0022b0f8                unx_fsetlock
                0x0022b1bc                unx_fresetlock
                0x0022b218                unx_fchklock
                0x0022b2d4                ugethostname
 .text          0x0022b308     0x65fc ../ulib/libuserxe.a(libuserxe_a-uviom.o)
                0x0022b308                uviom_init
                0x0022b5a0                uviom_setopt2
                0x0022b89c                uviom_notify
                0x0022b964                uvio_wcinit
                0x0022b9c4                uviom_savecell
                0x0022ba6c                uviom_readcell
                0x0022bb14                uvio_mvaddchnstrF
                0x0022c1c0                uviom_mvaddwchnstr
                0x0022c230                uvio_mvaddchnstrW_ligature
                0x0022c584                uvio_mvaddchnstrW_combine
                0x0022cb84                uvio_mvaddchnstrW
                0x0022ce48                uviom_cht2cchar
                0x0022de44                uviom_setcchar_itself
                0x0022decc                uviom_setcchar_shadow
                0x0022dfa4                uviom_setcombine1
                0x0022e404                uviom_setcombine
                0x0022ec1c                uviom_setcombineSCM
                0x0022ee3c                uvio_ddcht2cchar
                0x0022fb68                uvio_ddcht2cchar_ligature
                0x002308fc                uvio_getcombinectr
                0x00230a60                uviom_escrep
                0x00230c4c                uviom_set_padattr
                0x00230cb0                uviom_fillattrspace
                0x00230dcc                uviom_setunpucs
                0x0023119c                uviom_attr_itself
                0x00231240                uviom_ISUCSWIDTH0
                0x002313c0                uviom_iscombining
                0x002315a8                uviom_spaceclear
                0x00231600                uviom_clearscr
                0x002316a0                uviom_getcombaltchUcs
                0x00231728                uviom_getcombaltchU8
 .text          0x00231904     0x3914 ../ulib/libuserxe.a(libuserxe_a-uviol.o)
                0x00231904                uviol_cell2attr
                0x00231a44                uviol_attr2cell
                0x00231b20                uviol_repfg
                0x00231ba0                uviol_altcharset
                0x00231ce8                uvio_initparm
                0x00231d40                uviogetmode
                0x00231ed4                uviol_init
                0x00232410                uviol_acssetup
                0x00232560                uviol_init2
                0x00232590                uviol_konchk
                0x00232684                uviol_konchk2
                0x002326f4                uviol_colorinit
                0x0023290c                uviol_termexit
                0x0023293c                uviol_cleanup
                0x00232a4c                uviol_term
                0x00232ad0                uviol_beep
                0x00232b0c                uviosetmode
                0x00232b44                uvioreadcellstr
                0x00232cd8                uviowrtcellstr
                0x00232f04                uvioreadcharstr
                0x00233020                uviowrtcharstr
                0x00233128                uviowrtcharstratt
                0x00233324                uviowrtnattr
                0x00233534                uviowrtncell
                0x00233690                uviowrtnchar
                0x002337f0                uviogetcurpos
                0x002338dc                uviosetcurpos
                0x00233a38                uviogetcurtype
                0x00233ae8                uviosetcurtype
                0x00233c1c                uviowrttty
                0x00233c5c                uviol_rgb2colorno
                0x00233e74                uviol_colorno2rgb
                0x00233fcc                uviogetstate
                0x00234280                uviosetstate
                0x00234460                uvioscrolldn
                0x0023478c                uvioscrollup
                0x00234ab8                uviol_clear
                0x00234af0                uviol_clearok
                0x00234b3c                uviol_refresh
                0x00234b64                uviol_mvaddchnstr
                0x00234d00                uviol_attrupdate
                0x00235198                uviol_set_padattrsub
 .text          0x00235218      0xd74 ../ulib/libuserxe.a(libuserxe_a-uproc22.o)
                0x00235218                ukillpid
                0x002352b4                uthread
                0x0023532c                uevent
                0x00235598                uevent_wait1
                0x00235764                uevent_post1
                0x00235868                uevent_waitm
                0x00235a4c                uevent_postm
                0x00235b8c                uevent_reset1
                0x00235c20                uevent_setuplist
                0x00235db4                uevent_resetlist
                0x00235e64                ucriticalsection
 .text          0x00235f8c      0x20c /usr/lib/gcc/arm-linux-gnueabihf/8/libgcc.a(_udivsi3.o)
                0x00235f8c                __aeabi_uidiv
                0x00235f8c                __udivsi3
                0x00236178                __aeabi_uidivmod
 .text          0x00236198      0x240 /usr/lib/gcc/arm-linux-gnueabihf/8/libgcc.a(_divsi3.o)
                0x00236198                __divsi3
                0x00236198                __aeabi_idiv
                0x002363b8                __aeabi_idivmod
 .text          0x002363d8       0xd4 /usr/lib/gcc/arm-linux-gnueabihf/8/libgcc.a(_aeabi_ldivmod.o)
                0x002363d8                __aeabi_ldivmod
 .text          0x002364ac       0x10 /usr/lib/gcc/arm-linux-gnueabihf/8/libgcc.a(_dvmd_lnx.o)
                0x002364ac                __aeabi_idiv0
                0x002364ac                __aeabi_ldiv0
 .text          0x002364bc      0x128 /usr/lib/gcc/arm-linux-gnueabihf/8/libgcc.a(_udivmoddi4.o)
                0x002364bc                __udivmoddi4
 .text          0x002365e4       0x64 //usr/lib/arm-linux-gnueabihf/libc_nonshared.a(elf-init.oS)
                0x002365e4                __libc_csu_init
                0x00236644                __libc_csu_fini
 .text          0x00236648       0x10 //usr/lib/arm-linux-gnueabihf/libc_nonshared.a(stat64.oS)
                0x00236648                stat64
 .text          0x00236658       0x10 //usr/lib/arm-linux-gnueabihf/libc_nonshared.a(lstat64.oS)
                0x00236658                lstat64
 .text          0x00236668        0x0 /usr/lib/gcc/arm-linux-gnueabihf/8/crtend.o
 .text          0x00236668        0x0 /usr/lib/gcc/arm-linux-gnueabihf/8/../../../arm-linux-gnueabihf/crtn.o
 *(.gnu.warning)
 *(.glue_7t)
 .glue_7t       0x00236668        0x0 linker stubs
 *(.glue_7)
 .glue_7        0x00236668        0x0 linker stubs
 *(.vfp11_veneer)
 .vfp11_veneer  0x00236668        0x0 linker stubs
 *(.v4_bx)
 .v4_bx         0x00236668        0x0 linker stubs

.fini           0x00236668        0x8
 *(SORT_NONE(.fini))
 .fini          0x00236668        0x4 /usr/lib/gcc/arm-linux-gnueabihf/8/../../../arm-linux-gnueabihf/crti.o
                0x00236668                _fini
 .fini          0x0023666c        0x4 /usr/lib/gcc/arm-linux-gnueabihf/8/../../../arm-linux-gnueabihf/crtn.o
                [!provide]                PROVIDE (__etext = .)
                [!provide]                PROVIDE (_etext = .)
                [!provide]                PROVIDE (etext = .)

.rodata         0x00236670    0x2561a
 *(.rodata .rodata.* .gnu.linkonce.r.*)
 .rodata.cst4   0x00236670        0x4 /usr/lib/gcc/arm-linux-gnueabihf/8/../../../arm-linux-gnueabihf/crt1.o
                0x00236670                _IO_stdin_used
 .rodata        0x00236674     0x21c4 xe-xe.o
 .rodata        0x00238838       0x8d xe-xecalc.o
 *fill*         0x002388c5        0x3 
 .rodata        0x002388c8      0x824 xe-xecalc2.o
 .rodata        0x002390ec      0x11c xe-xecalc21.o
 .rodata        0x00239208      0x1ff xe-xecalc22.o
 *fill*         0x00239407        0x1 
 .rodata        0x00239408      0x239 xe-xecalc3.o
 *fill*         0x00239641        0x3 
 .rodata        0x00239644      0x960 xe-xecap.o
 .rodata        0x00239fa4      0x25b xe-xecap2.o
 *fill*         0x0023a1ff        0x1 
 .rodata        0x0023a200      0x1a6 xe-xechar.o
 *fill*         0x0023a3a6        0x2 
 .rodata        0x0023a3a8       0x38 xe-xechar12.o
 .rodata        0x0023a3e0       0x41 xe-xechar2.o
 *fill*         0x0023a421        0x3 
 .rodata        0x0023a424       0xe1 xe-xecsr.o
 *fill*         0x0023a505        0x3 
 .rodata        0x0023a508      0xc25 xe-xedcmd.o
 *fill*         0x0023b12d        0x3 
 .rodata        0x0023b130      0x65f xe-xedcmd2.o
 *fill*         0x0023b78f        0x1 
 .rodata        0x0023b790      0x3a3 xe-xedcmd3.o
 *fill*         0x0023bb33        0x1 
 .rodata        0x0023bb34      0x2cd xe-xedcmd4.o
 *fill*         0x0023be01        0x3 
 .rodata        0x0023be04       0x18 xe-xedir.o
 .rodata        0x0023be1c      0x130 xe-xedir2.o
 .rodata        0x0023bf4c      0x4fa xe-xedir3.o
 *fill*         0x0023c446        0x2 
 .rodata        0x0023c448      0x11b xe-xedir4.o
 *fill*         0x0023c563        0x1 
 .rodata        0x0023c564      0xf18 xe-xedlcmd.o
 .rodata        0x0023d47c      0x1d4 xe-xedlcmd2.o
 .rodata        0x0023d650      0x2de xe-xedlcmd3.o
 *fill*         0x0023d92e        0x2 
 .rodata        0x0023d930      0x3d8 xe-xedlcmd4.o
 .rodata        0x0023dd08       0x76 xe-xedlcmd5.o
 *fill*         0x0023dd7e        0x2 
 .rodata        0x0023dd80      0x38e xe-xedlcmd6.o
 *fill*         0x0023e10e        0x2 
 .rodata        0x0023e110      0x1a1 xe-xeebc.o
 *fill*         0x0023e2b1        0x3 
 .rodata        0x0023e2b4      0x5f1 xe-xeerr.o
 *fill*         0x0023e8a5        0x3 
 .rodata        0x0023e8a8      0xd7e xe-xefcmd.o
 *fill*         0x0023f626        0x2 
 .rodata        0x0023f628      0x232 xe-xefcmd2.o
 *fill*         0x0023f85a        0x2 
 .rodata        0x0023f85c      0x87b xe-xefcmd22.o
 *fill*         0x002400d7        0x1 
 .rodata        0x002400d8      0x3cb xe-xefcmd23.o
 *fill*         0x002404a3        0x1 
 .rodata        0x002404a4      0x5bc xe-xefcmd24.o
 .rodata        0x00240a60      0x73e xe-xefcmd25.o
 *fill*         0x0024119e        0x2 
 .rodata        0x002411a0      0x158 xe-xefcmd26.o
 .rodata        0x002412f8       0xcf xe-xefcmd27.o
 *fill*         0x002413c7        0x1 
 .rodata        0x002413c8      0xf4a xe-xefcmd3.o
 *fill*         0x00242312        0x2 
 .rodata        0x00242314      0x5bb xe-xefcmd4.o
 *fill*         0x002428cf        0x1 
 .rodata        0x002428d0      0x810 xe-xefcmd42.o
 .rodata        0x002430e0      0x356 xe-xefcmd43.o
 *fill*         0x00243436        0x2 
 .rodata        0x00243438      0xbce xe-xefcmd5.o
 *fill*         0x00244006        0x2 
 .rodata        0x00244008      0x645 xe-xefcmd6.o
 *fill*         0x0024464d        0x3 
 .rodata        0x00244650      0x48e xe-xefcmd7.o
 *fill*         0x00244ade        0x2 
 .rodata        0x00244ae0      0x703 xe-xefile.o
 *fill*         0x002451e3        0x1 
 .rodata        0x002451e4      0x808 xe-xefile12.o
 .rodata        0x002459ec       0x39 xe-xefile13.o
 *fill*         0x00245a25        0x3 
 .rodata        0x00245a28      0x89b xe-xefile14.o
 *fill*         0x002462c3        0x1 
 .rodata        0x002462c4      0x70e xe-xefile15.o
 *fill*         0x002469d2        0x2 
 .rodata        0x002469d4       0xd5 xe-xefile2.o
 *fill*         0x00246aa9        0x3 
 .rodata        0x00246aac       0x59 xe-xefile22.o
 *fill*         0x00246b05        0x3 
 .rodata        0x00246b08       0xe9 xe-xefile23.o
 *fill*         0x00246bf1        0x3 
 .rodata        0x00246bf4       0x82 xe-xefile3.o
 *fill*         0x00246c76        0x2 
 .rodata        0x00246c78      0x12a xe-xefile4.o
 *fill*         0x00246da2        0x2 
 .rodata        0x00246da4      0x4bd xe-xefile42.o
 *fill*         0x00247261        0x3 
 .rodata        0x00247264       0x4f xe-xefile43.o
 *fill*         0x002472b3        0x1 
 .rodata        0x002472b4      0xcc7 xe-xefile5.o
 *fill*         0x00247f7b        0x1 
 .rodata        0x00247f7c      0x4a1 xe-xefile6.o
 *fill*         0x0024841d        0x3 
 .rodata        0x00248420      0x412 xe-xefile7.o
 *fill*         0x00248832        0x2 
 .rodata        0x00248834      0x27a xe-xefsub.o
 *fill*         0x00248aae        0x2 
 .rodata        0x00248ab0      0x1b3 xe-xeftp.o
 *fill*         0x00248c63        0x1 
 .rodata        0x00248c64      0x342 xe-xefunc.o
 *fill*         0x00248fa6        0x2 
 .rodata        0x00248fa8      0xc37 xe-xefunc2.o
 *fill*         0x00249bdf        0x1 
 .rodata        0x00249be0       0x41 xe-xefunct.o
 *fill*         0x00249c21        0x3 
 .rodata        0x00249c24      0x2b6 xe-xefunct2.o
 *fill*         0x00249eda        0x2 
 .rodata        0x00249edc       0x35 xe-xegbl.o
 *fill*         0x00249f11        0x3 
 .rodata        0x00249f14      0x65b xe-xeini.o
 *fill*         0x0024a56f        0x1 
 .rodata        0x0024a570     0x103a xe-xeini2.o
 *fill*         0x0024b5aa        0x2 
 .rodata        0x0024b5ac      0x116 xe-xeini3.o
 *fill*         0x0024b6c2        0x2 
 .rodata        0x0024b6c4      0x248 xe-xekbd.o
 .rodata        0x0024b90c      0x19b xe-xelcmd.o
 *fill*         0x0024baa7        0x1 
 .rodata        0x0024baa8      0x10a xe-xelcmd2.o
 *fill*         0x0024bbb2        0x2 
 .rodata        0x0024bbb4      0x201 xe-xelcmd3.o
 *fill*         0x0024bdb5        0x3 
 .rodata        0x0024bdb8       0x6f xe-xelcmd4.o
 *fill*         0x0024be27        0x1 
 .rodata        0x0024be28      0x185 xe-xelcmd5.o
 *fill*         0x0024bfad        0x3 
 .rodata        0x0024bfb0      0x576 xe-xemainl.o
 *fill*         0x0024c526        0x2 
 .rodata        0x0024c528        0xe xe-xemousel.o
 *fill*         0x0024c536        0x2 
 .rodata        0x0024c538     0x10ce xe-xeopt.o
 *fill*         0x0024d606        0x2 
 .rodata        0x0024d608      0x674 xe-xeopt2.o
 .rodata        0x0024dc7c       0x58 xe-xepan.o
 .rodata        0x0024dcd4       0x7f xe-xepan2.o
 *fill*         0x0024dd53        0x1 
 .rodata        0x0024dd54       0x68 xe-xepan22.o
 .rodata        0x0024ddbc      0x2de xe-xepan23.o
 *fill*         0x0024e09a        0x2 
 .rodata        0x0024e09c        0x9 xe-xepan24.o
 *fill*         0x0024e0a5        0x3 
 .rodata        0x0024e0a8       0x40 xe-xepan3.o
 .rodata        0x0024e0e8      0x32d xe-xescr.o
 *fill*         0x0024e415        0x3 
 .rodata        0x0024e418       0x44 xe-xescr2.o
 .rodata        0x0024e45c      0x3ea xe-xesub.o
 *fill*         0x0024e846        0x2 
 .rodata        0x0024e848      0x2fd xe-xesyn.o
 *fill*         0x0024eb45        0x3 
 .rodata        0x0024eb48      0x713 xe-xesyn2.o
 *fill*         0x0024f25b        0x1 
 .rodata        0x0024f25c      0x4df xe-xetso.o
 *fill*         0x0024f73b        0x1 
 .rodata        0x0024f73c      0x5ad xe-xetso2.o
 *fill*         0x0024fce9        0x3 
 .rodata        0x0024fcec      0x545 xe-xeundo.o
 *fill*         0x00250231        0x3 
 .rodata        0x00250234      0x1f0 xe-xeutf2.o
 .rodata        0x00250424      0x161 ../ulib/libuserxe.a(libuserxe_a-u3270.o)
 *fill*         0x00250585        0x3 
 .rodata        0x00250588      0x1ad ../ulib/libuserxe.a(libuserxe_a-u32702.o)
 *fill*         0x00250735        0x3 
 .rodata        0x00250738      0x395 ../ulib/libuserxe.a(libuserxe_a-u32703.o)
 *fill*         0x00250acd        0x3 
 .rodata        0x00250ad0       0x30 ../ulib/libuserxe.a(libuserxe_a-uabend.o)
 .rodata        0x00250b00      0x571 ../ulib/libuserxe.a(libuserxe_a-uallocl.o)
 *fill*         0x00251071        0x3 
 .rodata        0x00251074      0x4ad ../ulib/libuserxe.a(libuserxe_a-ucalc.o)
 *fill*         0x00251521        0x3 
 .rodata        0x00251524      0x7c3 ../ulib/libuserxe.a(libuserxe_a-ucalc2.o)
 *fill*         0x00251ce7        0x1 
 .rodata        0x00251ce8      0x88e ../ulib/libuserxe.a(libuserxe_a-ucvebc.o)
 *fill*         0x00252576        0x2 
 .rodata        0x00252578      0x221 ../ulib/libuserxe.a(libuserxe_a-ucvebc2.o)
 *fill*         0x00252799        0x3 
 .rodata        0x0025279c       0x8f ../ulib/libuserxe.a(libuserxe_a-ucvebc3.o)
 *fill*         0x0025282b        0x1 
 .rodata        0x0025282c       0xac ../ulib/libuserxe.a(libuserxe_a-ucvebc4.o)
 .rodata        0x002528d8      0x8e8 ../ulib/libuserxe.a(libuserxe_a-ucvext.o)
 .rodata        0x002531c0       0xca ../ulib/libuserxe.a(libuserxe_a-ucvext12.o)
 *fill*         0x0025328a        0x2 
 .rodata        0x0025328c      0x172 ../ulib/libuserxe.a(libuserxe_a-ucvext2.o)
 *fill*         0x002533fe        0x2 
 .rodata        0x00253400       0xa2 ../ulib/libuserxe.a(libuserxe_a-ucvucs.o)
 *fill*         0x002534a2        0x2 
 .rodata        0x002534a4      0x10c ../ulib/libuserxe.a(libuserxe_a-udbcschk.o)
 .rodata        0x002535b0        0xc ../ulib/libuserxe.a(libuserxe_a-udbcsck2.o)
 .rodata        0x002535bc       0x47 ../ulib/libuserxe.a(libuserxe_a-udos2.o)
 *fill*         0x00253603        0x1 
 .rodata        0x00253604       0xed ../ulib/libuserxe.a(libuserxe_a-uedit.o)
 *fill*         0x002536f1        0x3 
 .rodata        0x002536f4       0xbd ../ulib/libuserxe.a(libuserxe_a-uedit2.o)
 *fill*         0x002537b1        0x3 
 .rodata        0x002537b4       0x33 ../ulib/libuserxe.a(libuserxe_a-uehl.o)
 *fill*         0x002537e7        0x1 
 .rodata        0x002537e8      0x30d ../ulib/libuserxe.a(libuserxe_a-uerr.o)
 *fill*         0x00253af5        0x3 
 .rodata        0x00253af8      0x8b9 ../ulib/libuserxe.a(libuserxe_a-ufemsg.o)
 *fill*         0x002543b1        0x3 
 .rodata        0x002543b4      0x113 ../ulib/libuserxe.a(libuserxe_a-ufile.o)
 *fill*         0x002544c7        0x1 
 .rodata        0x002544c8      0x12b ../ulib/libuserxe.a(libuserxe_a-ufile1f.o)
 *fill*         0x002545f3        0x1 
 .rodata        0x002545f4      0x6a3 ../ulib/libuserxe.a(libuserxe_a-ufile1l.o)
 *fill*         0x00254c97        0x1 
 .rodata        0x00254c98      0x10f ../ulib/libuserxe.a(libuserxe_a-ufile1l2.o)
 *fill*         0x00254da7        0x1 
 .rodata        0x00254da8      0x7e4 ../ulib/libuserxe.a(libuserxe_a-ufile2.o)
 .rodata        0x0025558c      0x357 ../ulib/libuserxe.a(libuserxe_a-ufile2f.o)
 *fill*         0x002558e3        0x1 
 .rodata        0x002558e4       0xf6 ../ulib/libuserxe.a(libuserxe_a-ufile2l.o)
 *fill*         0x002559da        0x2 
 .rodata        0x002559dc       0xfc ../ulib/libuserxe.a(libuserxe_a-ufile2l2.o)
 .rodata        0x00255ad8      0x4da ../ulib/libuserxe.a(libuserxe_a-ufile3.o)
 *fill*         0x00255fb2        0x2 
 .rodata        0x00255fb4      0x476 ../ulib/libuserxe.a(libuserxe_a-ufile3f.o)
 *fill*         0x0025642a        0x2 
 .rodata        0x0025642c      0x234 ../ulib/libuserxe.a(libuserxe_a-ufile4.o)
 .rodata        0x00256660      0x1a6 ../ulib/libuserxe.a(libuserxe_a-ufile5.o)
 *fill*         0x00256806        0x2 
 .rodata        0x00256808      0x619 ../ulib/libuserxe.a(libuserxe_a-uftp.o)
 *fill*         0x00256e21        0x3 
 .rodata        0x00256e24      0x45c ../ulib/libuserxe.a(libuserxe_a-uftp2.o)
 .rodata        0x00257280      0x512 ../ulib/libuserxe.a(libuserxe_a-uftp3.o)
 *fill*         0x00257792        0x2 
 .rodata        0x00257794        0xb ../ulib/libuserxe.a(libuserxe_a-ugcclib.o)
 *fill*         0x0025779f        0x1 
 .rodata        0x002577a0       0xef ../ulib/libuserxe.a(libuserxe_a-ukbdl.o)
 *fill*         0x0025788f        0x1 
 .rodata        0x00257890      0xf2a ../ulib/libuserxe.a(libuserxe_a-ukbdlnxc.o)
 *fill*         0x002587ba        0x2 
 .rodata        0x002587bc       0x2d ../ulib/libuserxe.a(libuserxe_a-uparse.o)
 *fill*         0x002587e9        0x3 
 .rodata        0x002587ec      0x4fd ../ulib/libuserxe.a(libuserxe_a-uproc.o)
 *fill*         0x00258ce9        0x3 
 .rodata        0x00258cec      0x168 ../ulib/libuserxe.a(libuserxe_a-uproc2.o)
 .rodata        0x00258e54      0x410 ../ulib/libuserxe.a(libuserxe_a-uproc3.o)
 .rodata        0x00259264      0x341 ../ulib/libuserxe.a(libuserxe_a-uproc4.o)
 *fill*         0x002595a5        0x3 
 .rodata        0x002595a8      0x384 ../ulib/libuserxe.a(libuserxe_a-uque.o)
 .rodata        0x0025992c       0x7e ../ulib/libuserxe.a(libuserxe_a-ustrcpy.o)
 *fill*         0x002599aa        0x2 
 .rodata        0x002599ac        0x4 ../ulib/libuserxe.a(libuserxe_a-ustring.o)
 .rodata        0x002599b0      0x1cc ../ulib/libuserxe.a(libuserxe_a-utf2.o)
 .rodata        0x00259b7c      0x325 ../ulib/libuserxe.a(libuserxe_a-utf22.o)
 *fill*         0x00259ea1        0x3 
 .rodata        0x00259ea4      0x133 ../ulib/libuserxe.a(libuserxe_a-utf3.o)
 *fill*         0x00259fd7        0x1 
 .rodata        0x00259fd8     0x19d0 ../ulib/libuserxe.a(libuserxe_a-utf4.o)
 .rodata        0x0025b9a8      0x161 ../ulib/libuserxe.a(libuserxe_a-utrace.o)
 *fill*         0x0025bb09        0x3 
 .rodata        0x0025bb0c       0x98 ../ulib/libuserxe.a(libuserxe_a-uunxsub.o)
 .rodata        0x0025bba4        0x2 ../ulib/libuserxe.a(libuserxe_a-uviom.o)
 *fill*         0x0025bba6        0x2 
 .rodata        0x0025bba8       0x7a ../ulib/libuserxe.a(libuserxe_a-uviol.o)
 *fill*         0x0025bc22        0x2 
 .rodata        0x0025bc24       0x66 ../ulib/libuserxe.a(libuserxe_a-uproc22.o)

.rodata1
 *(.rodata1)

.ARM.extab      0x0025bc8a        0x0
 *(.ARM.extab* .gnu.linkonce.armextab.*)
 .ARM.extab     0x0025bc8a        0x0 /usr/lib/gcc/arm-linux-gnueabihf/8/../../../arm-linux-gnueabihf/crt1.o
 .ARM.extab     0x0025bc8a        0x0 /usr/lib/gcc/arm-linux-gnueabihf/8/libgcc.a(_udivmoddi4.o)
                [!provide]                PROVIDE (__exidx_start = .)

.ARM.exidx      0x0025bc8c        0x8
 *(.ARM.exidx* .gnu.linkonce.armexidx.*)
 .ARM.exidx     0x0025bc8c        0x8 /usr/lib/gcc/arm-linux-gnueabihf/8/../../../arm-linux-gnueabihf/crt1.o
 .ARM.exidx     0x0025bc94        0x0 /usr/lib/gcc/arm-linux-gnueabihf/8/libgcc.a(_udivmoddi4.o)
                                  0x8 (size before relaxing)
                [!provide]                PROVIDE (__exidx_end = .)

.eh_frame_hdr
 *(.eh_frame_hdr)
 *(.eh_frame_entry .eh_frame_entry.*)

.eh_frame       0x0025bc94        0x4
 *(.eh_frame)
 .eh_frame      0x0025bc94        0x4 /usr/lib/gcc/arm-linux-gnueabihf/8/crtend.o
 *(.eh_frame.*)

.gcc_except_table
 *(.gcc_except_table .gcc_except_table.*)

.gnu_extab
 *(.gnu_extab*)

.exception_ranges
 *(.exception_ranges .exception_ranges*)
                0x0026be08                . = DATA_SEGMENT_ALIGN (CONSTANT (MAXPAGESIZE), CONSTANT (COMMONPAGESIZE))

.eh_frame
 *(.eh_frame)
 *(.eh_frame.*)

.gnu_extab
 *(.gnu_extab)

.gcc_except_table
 *(.gcc_except_table .gcc_except_table.*)

.exception_ranges
 *(.exception_ranges .exception_ranges*)

.tdata          0x0026be08        0x0
                [!provide]                PROVIDE (__tdata_start = .)
 *(.tdata .tdata.* .gnu.linkonce.td.*)

.tbss
 *(.tbss .tbss.* .gnu.linkonce.tb.*)
 *(.tcommon)

.preinit_array  0x0026be08        0x0
                [!provide]                PROVIDE (__preinit_array_start = .)
 *(.preinit_array)
                [!provide]                PROVIDE (__preinit_array_end = .)

.init_array     0x0026be08        0x4
                0x0026be08                PROVIDE (__init_array_start = .)
 *(SORT_BY_INIT_PRIORITY(.init_array.*) SORT_BY_INIT_PRIORITY(.ctors.*))
 *(.init_array EXCLUDE_FILE(*crtend?.o *crtend.o *crtbegin?.o *crtbegin.o) .ctors)
 .init_array    0x0026be08        0x4 /usr/lib/gcc/arm-linux-gnueabihf/8/crtbegin.o
                0x0026be0c                PROVIDE (__init_array_end = .)

.fini_array     0x0026be0c        0x4
                [!provide]                PROVIDE (__fini_array_start = .)
 *(SORT_BY_INIT_PRIORITY(.fini_array.*) SORT_BY_INIT_PRIORITY(.dtors.*))
 *(.fini_array EXCLUDE_FILE(*crtend?.o *crtend.o *crtbegin?.o *crtbegin.o) .dtors)
 .fini_array    0x0026be0c        0x4 /usr/lib/gcc/arm-linux-gnueabihf/8/crtbegin.o
                [!provide]                PROVIDE (__fini_array_end = .)

.ctors
 *crtbegin.o(.ctors)
 *crtbegin?.o(.ctors)
 *(EXCLUDE_FILE(*crtend?.o *crtend.o) .ctors)
 *(SORT_BY_NAME(.ctors.*))
 *(.ctors)

.dtors
 *crtbegin.o(.dtors)
 *crtbegin?.o(.dtors)
 *(EXCLUDE_FILE(*crtend?.o *crtend.o) .dtors)
 *(SORT_BY_NAME(.dtors.*))
 *(.dtors)

.jcr
 *(.jcr)

.data.rel.ro    0x0026be10        0x0
 *(.data.rel.ro.local* .gnu.linkonce.d.rel.ro.local.*)
 *(.data.rel.ro .data.rel.ro.* .gnu.linkonce.d.rel.ro.*)
 .data.rel.ro   0x0026be10        0x0 /usr/lib/gcc/arm-linux-gnueabihf/8/../../../arm-linux-gnueabihf/crt1.o

.dynamic        0x0026be10      0x1f0
 *(.dynamic)
 .dynamic       0x0026be10      0x1f0 /usr/lib/gcc/arm-linux-gnueabihf/8/../../../arm-linux-gnueabihf/crt1.o
                0x0026be10                _DYNAMIC
                0x0026c000                . = DATA_SEGMENT_RELRO_END (., 0x0)

.got            0x0026c000      0x2f4
 *(.got.plt)
 .got.plt       0x0026c000      0x2f0 /usr/lib/gcc/arm-linux-gnueabihf/8/../../../arm-linux-gnueabihf/crt1.o
                0x0026c000                _GLOBAL_OFFSET_TABLE_
 *(.igot.plt)
 .igot.plt      0x0026c2f0        0x0 /usr/lib/gcc/arm-linux-gnueabihf/8/../../../arm-linux-gnueabihf/crt1.o
 *(.got)
 .got           0x0026c2f0        0x4 /usr/lib/gcc/arm-linux-gnueabihf/8/../../../arm-linux-gnueabihf/crt1.o
 *(.igot)

.data           0x0026c2f8    0x32110
                [!provide]                PROVIDE (__data_start = .)
 *(.data .data.* .gnu.linkonce.d.*)
 .data          0x0026c2f8        0x4 /usr/lib/gcc/arm-linux-gnueabihf/8/../../../arm-linux-gnueabihf/crt1.o
                0x0026c2f8                __data_start
                0x0026c2f8                data_start
 .data          0x0026c2fc        0x0 /usr/lib/gcc/arm-linux-gnueabihf/8/../../../arm-linux-gnueabihf/crti.o
 .data          0x0026c2fc        0x4 /usr/lib/gcc/arm-linux-gnueabihf/8/crtbegin.o
                0x0026c2fc                __dso_handle
 .data          0x0026c300       0x28 xe-xe.o
                0x0026c300                Glargefilesz
                0x0026c308                Gcmdmaxstack
                0x0026c30c                Gfiletabskip
                0x0026c310                Gkbdspeed
                0x0026c314                Gkbddelay
                0x0026c318                Gkbdspeed2
                0x0026c31c                Gkbddelay2
                0x0026c320                Sostype
 .data          0x0026c328        0x0 xe-xecalc.o
 .data          0x0026c328       0x14 xe-xecalc2.o
 .data          0x0026c33c        0x0 xe-xecalc21.o
 .data          0x0026c33c        0x0 xe-xecalc22.o
 .data          0x0026c33c        0x0 xe-xecalc3.o
 .data          0x0026c33c       0x10 xe-xecap.o
 .data          0x0026c34c        0x0 xe-xecap2.o
 .data          0x0026c34c        0xc xe-xechar.o
 .data          0x0026c358        0xc xe-xechar12.o
 .data          0x0026c364        0x0 xe-xechar13.o
 .data          0x0026c364        0x0 xe-xechar2.o
 .data          0x0026c364        0x0 xe-xecsr.o
 .data          0x0026c364      0x190 xe-xedcmd.o
 .data          0x0026c4f4       0x19 xe-xedcmd2.o
 .data          0x0026c50d        0x0 xe-xedcmd3.o
 .data          0x0026c50d        0x0 xe-xedcmd4.o
 *fill*         0x0026c50d        0x3 
 .data          0x0026c510       0x3d xe-xedir.o
 *fill*         0x0026c54d        0x3 
 .data          0x0026c550        0x4 xe-xedir2.o
 .data          0x0026c554     0x1002 xe-xedir3.o
 *fill*         0x0026d556        0x2 
 .data          0x0026d558        0x5 xe-xedir4.o
 *fill*         0x0026d55d        0x3 
 .data          0x0026d560      0x468 xe-xedlcmd.o
 .data          0x0026d9c8        0x0 xe-xedlcmd2.o
 .data          0x0026d9c8        0x7 xe-xedlcmd3.o
 *fill*         0x0026d9cf        0x1 
 .data          0x0026d9d0     0x1008 xe-xedlcmd4.o
 .data          0x0026e9d8        0x0 xe-xedlcmd5.o
 .data          0x0026e9d8       0x15 xe-xedlcmd6.o
 .data          0x0026e9ed        0x0 xe-xeebc.o
 .data          0x0026e9ed        0x0 xe-xeerr.o
 .data          0x0026e9ed        0x0 xe-xefcmd.o
 *fill*         0x0026e9ed        0x3 
 .data          0x0026e9f0       0x18 xe-xefcmd2.o
                0x0026e9f0                Sulsrchid
                0x0026e9f4                Selsrchid
                0x0026e9f8                Sllsrchid
                0x0026e9fc                Sgrepsrchid
                0x0026ea00                Seqsrchid
                0x0026ea04                Smatchingid
 .data          0x0026ea08       0xa8 xe-xefcmd22.o
 .data          0x0026eab0        0x0 xe-xefcmd23.o
 .data          0x0026eab0       0x9c xe-xefcmd24.o
 .data          0x0026eb4c        0x4 xe-xefcmd25.o
 .data          0x0026eb50        0x0 xe-xefcmd26.o
 .data          0x0026eb50        0xc xe-xefcmd27.o
 .data          0x0026eb5c      0x234 xe-xefcmd3.o
 .data          0x0026ed90        0xc xe-xefcmd4.o
 .data          0x0026ed9c        0x8 xe-xefcmd42.o
 .data          0x0026eda4        0x4 xe-xefcmd43.o
 .data          0x0026eda8       0x1c xe-xefcmd5.o
 .data          0x0026edc4        0x4 xe-xefcmd6.o
 .data          0x0026edc8        0x4 xe-xefcmd7.o
 .data          0x0026edcc        0x0 xe-xefile.o
 .data          0x0026edcc        0x0 xe-xefile12.o
 .data          0x0026edcc        0x0 xe-xefile13.o
 .data          0x0026edcc       0x3c xe-xefile14.o
 .data          0x0026ee08        0x0 xe-xefile15.o
 .data          0x0026ee08        0x0 xe-xefile2.o
 .data          0x0026ee08        0x0 xe-xefile22.o
 .data          0x0026ee08        0xc xe-xefile23.o
 .data          0x0026ee14       0x10 xe-xefile3.o
 .data          0x0026ee24       0xf2 xe-xefile4.o
 *fill*         0x0026ef16        0x2 
 .data          0x0026ef18       0x15 xe-xefile42.o
 .data          0x0026ef2d        0x0 xe-xefile43.o
 .data          0x0026ef2d        0x0 xe-xefile5.o
 .data          0x0026ef2d        0x0 xe-xefile6.o
 *fill*         0x0026ef2d        0x3 
 .data          0x0026ef30       0x20 xe-xefile7.o
 .data          0x0026ef50        0x0 xe-xefsub.o
 .data          0x0026ef50        0x0 xe-xeftp.o
 .data          0x0026ef50       0x27 xe-xefunc.o
 *fill*         0x0026ef77        0x1 
 .data          0x0026ef78       0x24 xe-xefunc2.o
 .data          0x0026ef9c     0x4514 xe-xefunct.o
 .data          0x002734b0       0x40 xe-xefunct2.o
 .data          0x002734f0      0x410 xe-xegbl.o
 .data          0x00273900       0x1d xe-xeini.o
 *fill*         0x0027391d        0x3 
 .data          0x00273920      0x1b8 xe-xeini2.o
 .data          0x00273ad8       0x17 xe-xeini3.o
 *fill*         0x00273aef        0x1 
 .data          0x00273af0     0x1052 xe-xekbd.o
 *fill*         0x00274b42        0x2 
 .data          0x00274b44      0x4c8 xe-xelcmd.o
 .data          0x0027500c       0x48 xe-xelcmd2.o
 .data          0x00275054        0x4 xe-xelcmd3.o
 .data          0x00275058        0x0 xe-xelcmd4.o
 .data          0x00275058        0x0 xe-xelcmd5.o
 .data          0x00275058        0x0 xe-xemainl.o
 .data          0x00275058        0xc xe-xemousel.o
                0x00275058                Gwxescrollctr
 .data          0x00275064      0x1d8 xe-xeopt.o
                0x00275064                Goptopt
                0x00275065                Goptopt2
                0x00275068                Goptcombaltch
                0x0027506c                GoptcombaltchNP
 .data          0x0027523c        0x8 xe-xeopt2.o
 .data          0x00275244     0x1678 xe-xepan.o
 .data          0x002768bc        0x0 xe-xepan2.o
 .data          0x002768bc       0x21 xe-xepan22.o
                0x002768bc                Gmaxfnmlist
 .data          0x002768dd        0x0 xe-xepan23.o
 .data          0x002768dd        0x0 xe-xepan24.o
 .data          0x002768dd        0x0 xe-xepan3.o
 *fill*         0x002768dd        0x3 
 .data          0x002768e0       0x7c xe-xescr.o
 .data          0x0027695c        0x0 xe-xescr2.o
 .data          0x0027695c        0x2 xe-xesub.o
 .data          0x0027695e        0x0 xe-xesub2.o
 *fill*         0x0027695e        0x2 
 .data          0x00276960        0x4 xe-xesyn.o
 .data          0x00276964        0x4 xe-xesyn2.o
 .data          0x00276968        0x0 xe-xetso.o
 .data          0x00276968      0x464 xe-xetso2.o
 .data          0x00276dcc        0x6 xe-xeundo.o
 .data          0x00276dd2        0x0 xe-xeutf.o
 .data          0x00276dd2        0x0 xe-xeutf2.o
 *fill*         0x00276dd2        0x2 
 .data          0x00276dd4        0x4 ../ulib/libuserxe.a(libuserxe_a-u3270.o)
 .data          0x00276dd8        0x0 ../ulib/libuserxe.a(libuserxe_a-u32702.o)
 .data          0x00276dd8        0x0 ../ulib/libuserxe.a(libuserxe_a-u32703.o)
 .data          0x00276dd8        0x0 ../ulib/libuserxe.a(libuserxe_a-uabend.o)
 .data          0x00276dd8     0x1000 ../ulib/libuserxe.a(libuserxe_a-uallocl.o)
 .data          0x00277dd8       0x54 ../ulib/libuserxe.a(libuserxe_a-ucalc.o)
 .data          0x00277e2c      0x24c ../ulib/libuserxe.a(libuserxe_a-ucalc2.o)
 .data          0x00278078      0x248 ../ulib/libuserxe.a(libuserxe_a-ucvebc.o)
 .data          0x002782c0        0x0 ../ulib/libuserxe.a(libuserxe_a-ucvebc2.o)
 .data          0x002782c0        0x8 ../ulib/libuserxe.a(libuserxe_a-ucvebc3.o)
 .data          0x002782c8        0x0 ../ulib/libuserxe.a(libuserxe_a-ucvebc32.o)
 .data          0x002782c8        0x0 ../ulib/libuserxe.a(libuserxe_a-ucvebc4.o)
 .data          0x002782c8     0xed30 ../ulib/libuserxe.a(libuserxe_a-ucvebct.o)
 .data          0x00286ff8      0x316 ../ulib/libuserxe.a(libuserxe_a-ucvext.o)
 .data          0x0028730e        0x6 ../ulib/libuserxe.a(libuserxe_a-ucvext12.o)
 .data          0x00287314        0x0 ../ulib/libuserxe.a(libuserxe_a-ucvext2.o)
 .data          0x00287314       0x28 ../ulib/libuserxe.a(libuserxe_a-ucvucs.o)
 .data          0x0028733c     0x7cb0 ../ulib/libuserxe.a(libuserxe_a-ucvucst.o)
                0x0028733c                Scp932tb
 .data          0x0028efec        0x8 ../ulib/libuserxe.a(libuserxe_a-udbcschk.o)
                0x0028efec                Gpdbcstbl
 .data          0x0028eff4     0x1148 ../ulib/libuserxe.a(libuserxe_a-udbcsck2.o)
 .data          0x0029013c        0x0 ../ulib/libuserxe.a(libuserxe_a-udos2.o)
 .data          0x0029013c        0x0 ../ulib/libuserxe.a(libuserxe_a-uedit.o)
 .data          0x0029013c       0x78 ../ulib/libuserxe.a(libuserxe_a-uedit2.o)
 .data          0x002901b4       0x38 ../ulib/libuserxe.a(libuserxe_a-uehl.o)
 .data          0x002901ec        0xd ../ulib/libuserxe.a(libuserxe_a-uerr.o)
 .data          0x002901f9        0x0 ../ulib/libuserxe.a(libuserxe_a-ufemsg.o)
 *fill*         0x002901f9        0x3 
 .data          0x002901fc        0xc ../ulib/libuserxe.a(libuserxe_a-ufile.o)
 .data          0x00290208        0x0 ../ulib/libuserxe.a(libuserxe_a-ufile12.o)
 .data          0x00290208        0x0 ../ulib/libuserxe.a(libuserxe_a-ufile1f.o)
 .data          0x00290208        0x0 ../ulib/libuserxe.a(libuserxe_a-ufile1l.o)
 .data          0x00290208       0x2c ../ulib/libuserxe.a(libuserxe_a-ufile1l2.o)
 .data          0x00290234        0x0 ../ulib/libuserxe.a(libuserxe_a-ufile2.o)
 .data          0x00290234        0x0 ../ulib/libuserxe.a(libuserxe_a-ufile2f.o)
 .data          0x00290234        0x0 ../ulib/libuserxe.a(libuserxe_a-ufile2l.o)
 .data          0x00290234        0x0 ../ulib/libuserxe.a(libuserxe_a-ufile2l2.o)
 .data          0x00290234        0x0 ../ulib/libuserxe.a(libuserxe_a-ufile3.o)
 .data          0x00290234        0x0 ../ulib/libuserxe.a(libuserxe_a-ufile3f.o)
 .data          0x00290234        0x0 ../ulib/libuserxe.a(libuserxe_a-ufile4.o)
 .data          0x00290234        0x0 ../ulib/libuserxe.a(libuserxe_a-ufile5.o)
 .data          0x00290234       0x10 ../ulib/libuserxe.a(libuserxe_a-uftp.o)
 .data          0x00290244       0x50 ../ulib/libuserxe.a(libuserxe_a-uftp2.o)
 .data          0x00290294        0x4 ../ulib/libuserxe.a(libuserxe_a-uftp3.o)
 .data          0x00290298        0x0 ../ulib/libuserxe.a(libuserxe_a-ugcclib.o)
 .data          0x00290298        0x0 ../ulib/libuserxe.a(libuserxe_a-ukbdl.o)
 .data          0x00290298     0xb6bc ../ulib/libuserxe.a(libuserxe_a-ukbdlnxc.o)
 .data          0x0029b954       0x10 ../ulib/libuserxe.a(libuserxe_a-ukbdlnxm.o)
 .data          0x0029b964        0x0 ../ulib/libuserxe.a(libuserxe_a-uparse.o)
 .data          0x0029b964       0x20 ../ulib/libuserxe.a(libuserxe_a-uproc.o)
 .data          0x0029b984        0x0 ../ulib/libuserxe.a(libuserxe_a-uproc2.o)
 .data          0x0029b984       0x54 ../ulib/libuserxe.a(libuserxe_a-uproc3.o)
 .data          0x0029b9d8        0x0 ../ulib/libuserxe.a(libuserxe_a-uproc4.o)
 .data          0x0029b9d8        0x0 ../ulib/libuserxe.a(libuserxe_a-uque.o)
 .data          0x0029b9d8        0x0 ../ulib/libuserxe.a(libuserxe_a-ustrcpy.o)
 .data          0x0029b9d8       0xfb ../ulib/libuserxe.a(libuserxe_a-ustring.o)
 .data          0x0029bad3        0x0 ../ulib/libuserxe.a(libuserxe_a-utf.o)
 .data          0x0029bad3        0x0 ../ulib/libuserxe.a(libuserxe_a-utf2.o)
 *fill*         0x0029bad3        0x1 
 .data          0x0029bad4      0x164 ../ulib/libuserxe.a(libuserxe_a-utf22.o)
 .data          0x0029bc38      0xe98 ../ulib/libuserxe.a(libuserxe_a-utf3.o)
 .data          0x0029cad0        0x0 ../ulib/libuserxe.a(libuserxe_a-utf4.o)
 .data          0x0029cad0     0x1928 ../ulib/libuserxe.a(libuserxe_a-utrace.o)
 .data          0x0029e3f8        0x0 ../ulib/libuserxe.a(libuserxe_a-uunxsub.o)
 .data          0x0029e3f8        0x4 ../ulib/libuserxe.a(libuserxe_a-uviom.o)
                0x0029e3f8                Guviomdbcspad
 .data          0x0029e3fc        0xc ../ulib/libuserxe.a(libuserxe_a-uviol.o)
 .data          0x0029e408        0x0 ../ulib/libuserxe.a(libuserxe_a-uproc22.o)
 .data          0x0029e408        0x0 /usr/lib/gcc/arm-linux-gnueabihf/8/libgcc.a(_udivsi3.o)
 .data          0x0029e408        0x0 /usr/lib/gcc/arm-linux-gnueabihf/8/libgcc.a(_divsi3.o)
 .data          0x0029e408        0x0 /usr/lib/gcc/arm-linux-gnueabihf/8/libgcc.a(_aeabi_ldivmod.o)
 .data          0x0029e408        0x0 /usr/lib/gcc/arm-linux-gnueabihf/8/libgcc.a(_dvmd_lnx.o)
 .data          0x0029e408        0x0 /usr/lib/gcc/arm-linux-gnueabihf/8/libgcc.a(_udivmoddi4.o)
 .data          0x0029e408        0x0 //usr/lib/arm-linux-gnueabihf/libc_nonshared.a(elf-init.oS)
 .data          0x0029e408        0x0 //usr/lib/arm-linux-gnueabihf/libc_nonshared.a(stat64.oS)
 .data          0x0029e408        0x0 //usr/lib/arm-linux-gnueabihf/libc_nonshared.a(lstat64.oS)
 .data          0x0029e408        0x0 /usr/lib/gcc/arm-linux-gnueabihf/8/crtend.o
 .data          0x0029e408        0x0 /usr/lib/gcc/arm-linux-gnueabihf/8/../../../arm-linux-gnueabihf/crtn.o

.tm_clone_table
                0x0029e408        0x0
 .tm_clone_table
                0x0029e408        0x0 /usr/lib/gcc/arm-linux-gnueabihf/8/crtbegin.o
 .tm_clone_table
                0x0029e408        0x0 /usr/lib/gcc/arm-linux-gnueabihf/8/crtend.o

.data1
 *(.data1)
                0x0029e408                _edata = .
                [!provide]                PROVIDE (edata = .)
                0x0029e408                . = .
                0x0029e408                __bss_start = .
                0x0029e408                __bss_start__ = .

.bss            0x0029e408   0x18fd58
 *(.dynbss)
 .dynbss        0x0029e408      0x230 /usr/lib/gcc/arm-linux-gnueabihf/8/../../../arm-linux-gnueabihf/crt1.o
                0x0029e408                COLORS@@NCURSESW6_5.1.20000708
                0x0029e40c                LINES@@NCURSES6_TINFO_5.0.19991023
                0x0029e410                acs_map@@NCURSES6_TINFO_5.0.19991023
                0x0029e610                stdscr@@NCURSES6_TINFO_5.0.19991023
                0x0029e614                cur_term@@NCURSES6_TINFO_5.0.19991023
                0x0029e618                COLS@@NCURSES6_TINFO_5.0.19991023
                0x0029e61c                stdout@@GLIBC_2.4
                0x0029e620                COLOR_PAIRS@@NCURSESW6_5.1.20000708
                0x0029e628                stdin@@GLIBC_2.4
                0x0029e630                stderr@@GLIBC_2.4
                0x0029e634                newscr@@NCURSES6_TINFO_5.0.19991023
 *(.bss .bss.* .gnu.linkonce.b.*)
 .bss           0x0029e638        0x0 /usr/lib/gcc/arm-linux-gnueabihf/8/../../../arm-linux-gnueabihf/crt1.o
 .bss           0x0029e638        0x0 /usr/lib/gcc/arm-linux-gnueabihf/8/../../../arm-linux-gnueabihf/crti.o
 .bss           0x0029e638        0x1 /usr/lib/gcc/arm-linux-gnueabihf/8/crtbegin.o
 *fill*         0x0029e639        0x3 
 .bss           0x0029e63c       0x40 xe-xe.o
 .bss           0x0029e67c        0x0 xe-xecalc.o
 .bss           0x0029e67c       0x24 xe-xecalc2.o
 .bss           0x0029e6a0        0x0 xe-xecalc21.o
 .bss           0x0029e6a0        0x4 xe-xecalc22.o
 .bss           0x0029e6a4      0x244 xe-xecalc3.o
 .bss           0x0029e8e8       0x30 xe-xecap.o
 .bss           0x0029e918        0x0 xe-xecap2.o
 .bss           0x0029e918       0x18 xe-xechar.o
 .bss           0x0029e930        0x0 xe-xechar12.o
 .bss           0x0029e930        0x0 xe-xechar13.o
 .bss           0x0029e930        0x0 xe-xechar2.o
 .bss           0x0029e930       0x49 xe-xecsr.o
 .bss           0x0029e979        0x2 xe-xedcmd.o
 *fill*         0x0029e97b        0x1 
 .bss           0x0029e97c     0x2004 xe-xedcmd2.o
 .bss           0x002a0980        0x0 xe-xedcmd3.o
 .bss           0x002a0980        0x0 xe-xedcmd4.o
 .bss           0x002a0980        0x0 xe-xedir.o
 .bss           0x002a0980       0x23 xe-xedir2.o
 *fill*         0x002a09a3        0x1 
 .bss           0x002a09a4       0x31 xe-xedir3.o
 .bss           0x002a09d5        0x0 xe-xedir4.o
 *fill*         0x002a09d5        0x3 
 .bss           0x002a09d8     0x12dc xe-xedlcmd.o
 .bss           0x002a1cb4       0x10 xe-xedlcmd2.o
 .bss           0x002a1cc4     0x100c xe-xedlcmd3.o
 .bss           0x002a2cd0     0x1034 xe-xedlcmd4.o
 .bss           0x002a3d04        0x0 xe-xedlcmd5.o
 .bss           0x002a3d04     0x2018 xe-xedlcmd6.o
 .bss           0x002a5d1c        0x0 xe-xeebc.o
 .bss           0x002a5d1c        0x0 xe-xeerr.o
 .bss           0x002a5d1c     0x2098 xe-xefcmd.o
 *fill*         0x002a7db4        0x4 
 .bss           0x002a7db8       0xf4 xe-xefcmd2.o
                0x002a7db8                Ssrchlen
                0x002a7dbc                Ssrchlen2
                0x002a7dc0                Gsrchlenu8
                0x002a7dc4                Gsrchlenu82
                0x002a7dc8                Gsrchlendd
                0x002a7dcc                Gsrchlendd2
                0x002a7dd0                Grepwordlenu8
                0x002a7dd4                Grepwordlendd
                0x002a7dd8                Gsrchebclen
                0x002a7ddc                Gsrchebclen2
                0x002a7de0                Grepwordebclen
                0x002a7de4                Gebchandle
                0x002a7de8                Gebchandle2
                0x002a7dec                Gebchandler
                0x002a7df0                Seolsrchsw
                0x002a7df1                Seolsrchsw2
                0x002a7df4                Ssubcmdid
                0x002a7df8                Schangeopt
                0x002a7dfc                Spfhfindctr
                0x002a7e00                Spfhmatching
                0x002a7e04                Sallkxinpctr
                0x002a7e08                S2ndofallsw
                0x002a7e0c                Sfoundplh
                0x002a7e10                Splhafter
                0x002a7e14                Sfoundoffs
                0x002a7e18                Sstep
                0x002a7e1c                Sdirstep
                0x002a7e20                Sdirstepr
                0x002a7e24                Sfoundctr
                0x002a7e28                Gmfwtovf
                0x002a7e2c                Sovflineno
                0x002a7e30                Sovfoffset
                0x002a7e38                Sovfsuffix
                0x002a7e3c                Snotfinpctr
                0x002a7e40                Sfindcmdinpctr
                0x002a7e44                Sulsrchsw
                0x002a7e45                Sulsrchsw2
                0x002a7e48                Sscrollpendsw
                0x002a7e4c                Snotsrchsw
                0x002a7e4d                Snotsrchsw2
                0x002a7e4e                Srepnull
                0x002a7e4f                Sexcludesw2
                0x002a7e50                Sallxfound
                0x002a7e52                Srange1
                0x002a7e54                Srange2
                0x002a7e56                Srangeid1
                0x002a7e58                Srangeid2
                0x002a7e5a                Srange1and
                0x002a7e5c                Srange2and
                0x002a7e5e                Srangeid1and
                0x002a7e60                Srangeid2and
                0x002a7e64                Slinebefore
                0x002a7e68                Slineafter
                0x002a7e6c                Slinedist
                0x002a7e70                Sminsame
                0x002a7e74                Ssrcherrplh
                0x002a7e78                Sspanplh
                0x002a7e7c                Sandplh1
                0x002a7e80                Ssamelastplh
                0x002a7e84                Ssamelinectr
                0x002a7e88                Sfindopt
                0x002a7e8c                Sfindopt2
                0x002a7e90                Sothopt
                0x002a7e94                Sothererr_abrange
                0x002a7e98                Sothererr_selfjoin
 .bss           0x002a7eac       0x30 xe-xefcmd22.o
 .bss           0x002a7edc      0x88c xe-xefcmd23.o
 .bss           0x002a8768      0x8b2 xe-xefcmd24.o
 *fill*         0x002a901a        0x2 
 .bss           0x002a901c        0x8 xe-xefcmd25.o
 .bss           0x002a9024       0x44 xe-xefcmd26.o
 .bss           0x002a9068       0x50 xe-xefcmd27.o
 .bss           0x002a90b8       0x1a xe-xefcmd3.o
 *fill*         0x002a90d2        0x2 
 .bss           0x002a90d4       0x60 xe-xefcmd4.o
 .bss           0x002a9134       0x48 xe-xefcmd42.o
 .bss           0x002a917c        0x0 xe-xefcmd43.o
 .bss           0x002a917c       0xfc xe-xefcmd5.o
 .bss           0x002a9278       0x1c xe-xefcmd6.o
 .bss           0x002a9294       0x10 xe-xefcmd7.o
 .bss           0x002a92a4     0x24f0 xe-xefile.o
 .bss           0x002ab794        0x0 xe-xefile12.o
 .bss           0x002ab794        0x0 xe-xefile13.o
 *fill*         0x002ab794        0x4 
 .bss           0x002ab798       0x2b xe-xefile14.o
 .bss           0x002ab7c3        0x0 xe-xefile15.o
 *fill*         0x002ab7c3        0x1 
 .bss           0x002ab7c4       0x14 xe-xefile2.o
 .bss           0x002ab7d8        0x8 xe-xefile22.o
 .bss           0x002ab7e0       0x4f xe-xefile23.o
 *fill*         0x002ab82f        0x1 
 .bss           0x002ab830        0x4 xe-xefile3.o
 .bss           0x002ab834       0x47 xe-xefile4.o
 .bss           0x002ab87b        0x0 xe-xefile42.o
 .bss           0x002ab87b        0x0 xe-xefile43.o
 *fill*         0x002ab87b        0x1 
 .bss           0x002ab87c        0x8 xe-xefile5.o
 .bss           0x002ab884       0x10 xe-xefile6.o
 .bss           0x002ab894       0x10 xe-xefile7.o
 .bss           0x002ab8a4       0x18 xe-xefsub.o
 .bss           0x002ab8bc     0x1008 xe-xeftp.o
 .bss           0x002ac8c4     0x2928 xe-xefunc.o
 .bss           0x002af1ec       0x48 xe-xefunc2.o
 .bss           0x002af234        0x4 xe-xefunct.o
 .bss           0x002af238     0x224c xe-xefunct2.o
 .bss           0x002b1484        0x0 xe-xegbl.o
 .bss           0x002b1484       0x14 xe-xeini.o
 .bss           0x002b1498     0x104c xe-xeini2.o
 .bss           0x002b24e4     0x300c xe-xeini3.o
 .bss           0x002b54f0      0x330 xe-xekbd.o
 .bss           0x002b5820     0x1c4c xe-xelcmd.o
 .bss           0x002b746c       0x14 xe-xelcmd2.o
 .bss           0x002b7480       0x24 xe-xelcmd3.o
 .bss           0x002b74a4        0x4 xe-xelcmd4.o
                0x002b74a4                Glcmd4errctr
 .bss           0x002b74a8        0x4 xe-xelcmd5.o
 .bss           0x002b74ac       0x3c xe-xemainl.o
 .bss           0x002b74e8        0x8 xe-xemousel.o
 .bss           0x002b74f0        0x4 xe-xeopt.o
 .bss           0x002b74f4        0x0 xe-xeopt2.o
 .bss           0x002b74f4       0x10 xe-xepan.o
 .bss           0x002b7504       0x44 xe-xepan2.o
 .bss           0x002b7548       0x2c xe-xepan22.o
 .bss           0x002b7574    0x223c4 xe-xepan23.o
 .bss           0x002d9938        0xc xe-xepan24.o
 .bss           0x002d9944        0x0 xe-xepan3.o
 .bss           0x002d9944      0x1a4 xe-xescr.o
                0x002d9944                Gscrbuffheight
                0x002d9948                Gscrbuffwidth
                0x002d994c                Gscropt
 .bss           0x002d9ae8        0x0 xe-xescr2.o
 .bss           0x002d9ae8       0x10 xe-xesub.o
 .bss           0x002d9af8        0x0 xe-xesub2.o
 .bss           0x002d9af8        0x0 xe-xesyn.o
 .bss           0x002d9af8       0x4c xe-xesyn2.o
 .bss           0x002d9b44     0x1084 xe-xetso.o
 .bss           0x002dabc8      0x108 xe-xetso2.o
 .bss           0x002dacd0        0x4 xe-xeundo.o
 .bss           0x002dacd4     0x5092 xe-xeutf.o
 .bss           0x002dfd66        0x0 xe-xeutf2.o
 *fill*         0x002dfd66        0x2 
 .bss           0x002dfd68        0xc ../ulib/libuserxe.a(libuserxe_a-u3270.o)
 .bss           0x002dfd74       0x10 ../ulib/libuserxe.a(libuserxe_a-u32702.o)
 *fill*         0x002dfd84        0x4 
 .bss           0x002dfd88     0x1208 ../ulib/libuserxe.a(libuserxe_a-u32703.o)
 .bss           0x002e0f90        0x0 ../ulib/libuserxe.a(libuserxe_a-uabend.o)
 .bss           0x002e0f90       0x84 ../ulib/libuserxe.a(libuserxe_a-uallocl.o)
 .bss           0x002e1014      0x114 ../ulib/libuserxe.a(libuserxe_a-ucalc.o)
 .bss           0x002e1128        0x0 ../ulib/libuserxe.a(libuserxe_a-ucalc2.o)
 .bss           0x002e1128      0x790 ../ulib/libuserxe.a(libuserxe_a-ucvebc.o)
 .bss           0x002e18b8       0x10 ../ulib/libuserxe.a(libuserxe_a-ucvebc2.o)
 .bss           0x002e18c8       0x34 ../ulib/libuserxe.a(libuserxe_a-ucvebc3.o)
 .bss           0x002e18fc        0x0 ../ulib/libuserxe.a(libuserxe_a-ucvebc32.o)
 .bss           0x002e18fc        0x4 ../ulib/libuserxe.a(libuserxe_a-ucvebc4.o)
 .bss           0x002e1900        0x0 ../ulib/libuserxe.a(libuserxe_a-ucvebct.o)
 .bss           0x002e1900     0x1cd4 ../ulib/libuserxe.a(libuserxe_a-ucvext.o)
 .bss           0x002e35d4       0x24 ../ulib/libuserxe.a(libuserxe_a-ucvext12.o)
 .bss           0x002e35f8        0xc ../ulib/libuserxe.a(libuserxe_a-ucvext2.o)
 .bss           0x002e3604        0xc ../ulib/libuserxe.a(libuserxe_a-ucvucs.o)
 .bss           0x002e3610        0x0 ../ulib/libuserxe.a(libuserxe_a-ucvucst.o)
 .bss           0x002e3610      0x2f9 ../ulib/libuserxe.a(libuserxe_a-udbcschk.o)
 .bss           0x002e3909        0x0 ../ulib/libuserxe.a(libuserxe_a-udbcsck2.o)
 .bss           0x002e3909        0x0 ../ulib/libuserxe.a(libuserxe_a-udos2.o)
 *fill*         0x002e3909        0x3 
 .bss           0x002e390c       0xd8 ../ulib/libuserxe.a(libuserxe_a-uedit.o)
 .bss           0x002e39e4      0x268 ../ulib/libuserxe.a(libuserxe_a-uedit2.o)
 .bss           0x002e3c4c       0x64 ../ulib/libuserxe.a(libuserxe_a-uehl.o)
 .bss           0x002e3cb0     0x40e4 ../ulib/libuserxe.a(libuserxe_a-uerr.o)
 .bss           0x002e7d94       0x20 ../ulib/libuserxe.a(libuserxe_a-ufemsg.o)
 .bss           0x002e7db4       0x18 ../ulib/libuserxe.a(libuserxe_a-ufile.o)
 .bss           0x002e7dcc        0x0 ../ulib/libuserxe.a(libuserxe_a-ufile12.o)
 .bss           0x002e7dcc        0x4 ../ulib/libuserxe.a(libuserxe_a-ufile1f.o)
 .bss           0x002e7dd0    0x64658 ../ulib/libuserxe.a(libuserxe_a-ufile1l.o)
 .bss           0x0034c428        0x4 ../ulib/libuserxe.a(libuserxe_a-ufile1l2.o)
 *fill*         0x0034c42c        0x4 
 .bss           0x0034c430       0x34 ../ulib/libuserxe.a(libuserxe_a-ufile2.o)
 .bss           0x0034c464       0x20 ../ulib/libuserxe.a(libuserxe_a-ufile2f.o)
 .bss           0x0034c484        0x4 ../ulib/libuserxe.a(libuserxe_a-ufile2l.o)
 .bss           0x0034c488        0x0 ../ulib/libuserxe.a(libuserxe_a-ufile2l2.o)
 .bss           0x0034c488        0x8 ../ulib/libuserxe.a(libuserxe_a-ufile3.o)
 .bss           0x0034c490     0x100d ../ulib/libuserxe.a(libuserxe_a-ufile3f.o)
 *fill*         0x0034d49d        0x3 
 .bss           0x0034d4a0     0x1034 ../ulib/libuserxe.a(libuserxe_a-ufile4.o)
 *fill*         0x0034e4d4        0x4 
 .bss           0x0034e4d8       0x5d ../ulib/libuserxe.a(libuserxe_a-ufile5.o)
 *fill*         0x0034e535        0x3 
 .bss           0x0034e538    0x64d00 ../ulib/libuserxe.a(libuserxe_a-uftp.o)
 .bss           0x003b3238        0x8 ../ulib/libuserxe.a(libuserxe_a-uftp2.o)
 .bss           0x003b3240        0x0 ../ulib/libuserxe.a(libuserxe_a-uftp3.o)
 .bss           0x003b3240        0x4 ../ulib/libuserxe.a(libuserxe_a-ugcclib.o)
 .bss           0x003b3244       0xf4 ../ulib/libuserxe.a(libuserxe_a-ukbdl.o)
                0x003b3244                Swcstat
 .bss           0x003b3338     0x5808 ../ulib/libuserxe.a(libuserxe_a-ukbdlnxc.o)
 .bss           0x003b8b40        0x8 ../ulib/libuserxe.a(libuserxe_a-ukbdlnxm.o)
 .bss           0x003b8b48      0x205 ../ulib/libuserxe.a(libuserxe_a-uparse.o)
 *fill*         0x003b8d4d        0x3 
 .bss           0x003b8d50       0x1c ../ulib/libuserxe.a(libuserxe_a-uproc.o)
                0x003b8d50                Sserverstat
                0x003b8d54                Scmdservercallback
                0x003b8d58                Scallbackparm
                0x003b8d5c                Scmdserverchildpid
 .bss           0x003b8d6c        0x4 ../ulib/libuserxe.a(libuserxe_a-uproc2.o)
 .bss           0x003b8d70       0x10 ../ulib/libuserxe.a(libuserxe_a-uproc3.o)
 .bss           0x003b8d80       0x1c ../ulib/libuserxe.a(libuserxe_a-uproc4.o)
 .bss           0x003b8d9c        0x0 ../ulib/libuserxe.a(libuserxe_a-uque.o)
 .bss           0x003b8d9c        0x0 ../ulib/libuserxe.a(libuserxe_a-ustrcpy.o)
 .bss           0x003b8d9c        0x0 ../ulib/libuserxe.a(libuserxe_a-ustring.o)
 .bss           0x003b8d9c        0x0 ../ulib/libuserxe.a(libuserxe_a-utf.o)
 .bss           0x003b8d9c       0x98 ../ulib/libuserxe.a(libuserxe_a-utf2.o)
 .bss           0x003b8e34       0x14 ../ulib/libuserxe.a(libuserxe_a-utf22.o)
 .bss           0x003b8e48        0x8 ../ulib/libuserxe.a(libuserxe_a-utf3.o)
 .bss           0x003b8e50        0x4 ../ulib/libuserxe.a(libuserxe_a-utf4.o)
 .bss           0x003b8e54     0x1170 ../ulib/libuserxe.a(libuserxe_a-utrace.o)
 .bss           0x003b9fc4       0x20 ../ulib/libuserxe.a(libuserxe_a-uunxsub.o)
 .bss           0x003b9fe4       0x58 ../ulib/libuserxe.a(libuserxe_a-uviom.o)
 .bss           0x003ba03c      0x508 ../ulib/libuserxe.a(libuserxe_a-uviol.o)
 .bss           0x003ba544       0x18 ../ulib/libuserxe.a(libuserxe_a-uproc22.o)
 .bss           0x003ba55c        0x0 /usr/lib/gcc/arm-linux-gnueabihf/8/libgcc.a(_udivsi3.o)
 .bss           0x003ba55c        0x0 /usr/lib/gcc/arm-linux-gnueabihf/8/libgcc.a(_divsi3.o)
 .bss           0x003ba55c        0x0 /usr/lib/gcc/arm-linux-gnueabihf/8/libgcc.a(_aeabi_ldivmod.o)
 .bss           0x003ba55c        0x0 /usr/lib/gcc/arm-linux-gnueabihf/8/libgcc.a(_dvmd_lnx.o)
 .bss           0x003ba55c        0x0 /usr/lib/gcc/arm-linux-gnueabihf/8/libgcc.a(_udivmoddi4.o)
 .bss           0x003ba55c        0x0 //usr/lib/arm-linux-gnueabihf/libc_nonshared.a(elf-init.oS)
 .bss           0x003ba55c        0x0 //usr/lib/arm-linux-gnueabihf/libc_nonshared.a(stat64.oS)
 .bss           0x003ba55c        0x0 //usr/lib/arm-linux-gnueabihf/libc_nonshared.a(lstat64.oS)
 .bss           0x003ba55c        0x0 /usr/lib/gcc/arm-linux-gnueabihf/8/crtend.o
 .bss           0x003ba55c        0x0 /usr/lib/gcc/arm-linux-gnueabihf/8/../../../arm-linux-gnueabihf/crtn.o
 *(COMMON)
 COMMON         0x003ba55c     0x8470 xe-xe.o
                0x003ba55c                Gdcmd2wxeshellcmd
                0x003ba560                Gcappcw
                0x003ba564                Gcapplh2
                0x003ba568                Gunpdispchartble
                0x003ba56c                Gvalidchartbl
                0x003ba570                Gfiletabdisp1
                0x003ba574                Ghelpdir
                0x003bb574                Gscrheight
                0x003bb578                Gcmdstack
                0x003bb588                Giniopt
                0x003bb58c                Gscrconfreqid
                0x003bb590                Gcalcplh2
                0x003bb594                Gopt4
                0x003bb598                Gcmdbuffdbcs
                0x003bc95c                Gscrdbcstbl
                0x003bc960                Gfhwidthtxt
                0x003bc964                Gcapplh1
                0x003bc968                Gcmdbuffct
                0x003bdd2c                Gcmdbuff
                0x003bf0f0                Gfilebuff2
                0x003bf0f4                Gversion
                0x003bf0f8                Gpallassigntbl
                0x003bf10e                Gopt2
                0x003bf110                Ginifiletabskip
                0x003bf114                Gfhxwidth
                0x003bf118                Gxdconfindex
                0x003bf11c                Gxprintcmd
                0x003bf120                Gprintcmd
                0x003bf124                Gscrsplitv
                0x003bf128                Gattrtbl
                0x003bf140                Gfhwidthtxtedit
                0x003bf144                Gunpdispchartble_wxe
                0x003bf148                Gcmdbufflclen
                0x003bf14c                Gcalcpcw
                0x003bf150                Ghexctl
                0x003bf15c                Gunpdispchar
                0x003bf160                Gfhwidth
                0x003bf164                Gcmdbufflc
                0x003c0528                Gxprintcmd0
                0x003c052c                Gopt
                0x003c0530                Gscrcurclient
                0x003c0534                Gfiletabdisp2
                0x003c0538                Gworkdir
                0x003c1538                Gcsrposy
                0x003c153c                Gfunctbl
                0x003c1540                Gshellicmd0
                0x003c1544                Gopt5
                0x003c1548                Gverdate
                0x003c154c                Gshellicmd
                0x003c1550                Gcsrposx
                0x003c1554                Gcmdbuffu8
                0x003c2918                Gdefpallette
                0x003c2928                Gscrstatus
                0x003c292c                Gscrconfactid
                0x003c2930                Gkeyshiftname
                0x003c2934                Glastsono
                0x003c2935                Gopt3
                0x003c2938                Gcapcbpcw
                0x003c293c                Gscrsplith
                0x003c2940                Gotherstatus
                0x003c2944                Gunpdispchartblj
                0x003c2948                Gkbdinpctr
                0x003c294c                Gunpdispchartblj_wxe
                0x003c2950                Gfixcidid
                0x003c2960                Ginitscroll
                0x003c2974                Gotheropt
                0x003c2978                Gpodelmt
                0x003c297c                Glinenosze
                0x003c2980                Gproclastpft
                0x003c2984                Gfilebuff
                0x003c2988                Gunpdispchartbl
                0x003c298c                Gscrwidth
                0x003c2990                Gprocstatus
                0x003c2994                Gopttabaltch
                0x003c29a0                Glinenoszb
                0x003c29a4                Gtabdispchar
                0x003c29a8                Gkbdopt
                0x003c29ac                Giniopt2
                0x003c29b0                Gcalcplh1
                0x003c29b4                Gkeytbl
                0x003c29b8                Glinenoszc
                0x003c29b9                Gunpdispchar3_after_inigetopt
                0x003c29bc                Gpallette
 COMMON         0x003c29cc        0xc xe-xedcmd2.o
                0x003c29cc                Gcmdbuffsz_row
                0x003c29d0                Gcmdbuffsz_col
                0x003c29d4                Scmdbyspawn
 COMMON         0x003c29d8        0x4 xe-xedcmd4.o
                0x003c29d8                Gdcmdtempf
 COMMON         0x003c29dc        0x4 xe-xedir3.o
                0x003c29dc                Gdir3status
 COMMON         0x003c29e0        0x8 xe-xedlcmd.o
                0x003c29e0                Gcompctr
                0x003c29e4                Ggrepctr
 COMMON         0x003c29e8        0x8 xe-xeebc.o
                0x003c29e8                Gebcstat
                0x003c29ec                Gebccfgfnm
 COMMON         0x003c29f0     0x12a4 xe-xefcmd2.o
                0x003c29f0                Sescsrchchar2
                0x003c2ae0                Sphasesw
                0x003c2ae4                Grepwordebcdbcs
                0x003c2bd4                Gsrchebcdata2
                0x003c2cc4                Slinerangesw
                0x003c2cc8                Srepwordlen
                0x003c2ccc                Stabsrchsw2
                0x003c2ccd                Stabsrchsw
                0x003c2cce                Sescreplen
                0x003c2cd0                Gnxsw
                0x003c2cd4                GfindcmdSplit
                0x003c2ce0                Sexcludesw
                0x003c2ce4                Srepword
                0x003c2dd4                Sescsrchlen2
                0x003c2dd8                Ssrchword
                0x003c2ec8                Supctrsw
                0x003c2ecc                Ssetlabel
                0x003c2ed4                Srangeplhe2
                0x003c2ed8                Scasesensesw
                0x003c2edc                Grepworddbcs
                0x003c2fcc                Gsrchwordforini
                0x003c304c                Gsrchebcdbcs
                0x003c313c                Gsrchdd
                0x003c322c                Sescsrchlen
                0x003c3230                Gsrchebcdata
                0x003c3320                Ssrch2
                0x003c3410                Grepwordebcdata
                0x003c3500                Stabrepsw
                0x003c3504                Ssrch
                0x003c35f4                Srangeplhe
                0x003c35f8                Ssrchwordlen
                0x003c35fc                Sescrepchar
                0x003c36ec                Gsrchebcdbcs2
                0x003c37dc                Sescsrchchar
                0x003c38cc                Gsrchdd2
                0x003c39bc                Gpanfindopt
                0x003c39c0                Gsrchdbcs
                0x003c3ab0                Swrapsw
                0x003c3ab4                Grepworddd
                0x003c3ba4                Gsrchdbcs2
 COMMON         0x003c3c94        0x4 xe-xefcmd26.o
                0x003c3c94                Sdirsrchlen
 COMMON         0x003c3c98       0x14 xe-xefcmd43.o
                0x003c3c98                Gopt2_fc43
                0x003c3c9c                Gswutf8file_fc43
                0x003c3ca0                Gswebcfile_fc43
                0x003c3ca4                Gchspace_fc43
                0x003c3ca8                Gotheropt_fc43
 COMMON         0x003c3cac        0x4 xe-xeftp.o
                0x003c3cac                Gxehostsfnm
 COMMON         0x003c3cb0       0xcc xe-xefunct.o
                0x003c3cb0                Gstrinputdbcs
                0x003c3d14                Gstrinputlen
                0x003c3d18                Gstrinput
 COMMON         0x003c3d7c       0x60 xe-xegbl.o
                0x003c3d7c                Ggrepcmd
                0x003c3d80                Ggroupid
                0x003c3d84                Guserid
                0x003c3d88                Ghostname2
                0x003c3da8                Gmaxcolor
                0x003c3dac                Glocalhostsw
                0x003c3db0                Gunxflag
                0x003c3db4                Ghostname
                0x003c3dd4                Gcomparecmdd
                0x003c3dd8                Gcomparecmdf
 COMMON         0x003c3ddc      0x258 xe-xekbd.o
                0x003c3ddc                Gkbdsckt
 COMMON         0x003c4034        0x4 xe-xemousel.o
                0x003c4034                Gwxestat
 COMMON         0x003c4038       0xc8 xe-xeopt.o
                0x003c4038                Gopteol
                0x003c4039                Gopteol2
                0x003c403a                Goptopt3
                0x003c403b                Gopteolcont2
                0x003c403c                Gdefaultlocalecode
                0x003c407c                Glocalecode
                0x003c40bc                Gopteolcont
                0x003c40c0                Gparmlocalecode
 COMMON         0x003c4100        0x4 xe-xepan23.o
                0x003c4100                Sutilcolstart
 COMMON         0x003c4104        0x4 xe-xesub.o
                0x003c4104                Gsubgblopt
 COMMON         0x003c4108        0x4 xe-xesyn.o
                0x003c4108                Gsynopt
 COMMON         0x003c410c       0xc0 xe-xesyn2.o
                0x003c410c                Scolorfoffs
                0x003c4110                Scolorfsz
                0x003c4114                Sindexfsz
                0x003c4118                Gsyncfg
 COMMON         0x003c41cc        0x8 xe-xeutf.o
                0x003c41cc                Gutfmode
                0x003c41d0                Gutfmode2
 COMMON         0x003c41d4        0x8 ../ulib/libuserxe.a(libuserxe_a-uallocl.o)
                0x003c41d4                Gualloc_amount
                0x003c41d8                Gualloc16_amount
 COMMON         0x003c41dc      0x140 ../ulib/libuserxe.a(libuserxe_a-ucalc.o)
                0x003c41dc                Gucalc_result
 COMMON         0x003c431c     0x9c48 ../ulib/libuserxe.a(libuserxe_a-ucvebc.o)
                0x003c431c                Gucvebchctr
                0x003c4320                Gucvebch
                0x003cdf60                Gucvebc_stat
 COMMON         0x003cdf64       0x10 ../ulib/libuserxe.a(libuserxe_a-ucvebc2.o)
                0x003cdf64                Snewoldctr
                0x003cdf68                Se2stctr
                0x003cdf6c                Sduptctr
                0x003cdf70                Ss2etctr
 COMMON         0x003cdf74        0xc ../ulib/libuserxe.a(libuserxe_a-udbcschk.o)
                0x003cdf74                Gudbcschk_flag
                0x003cdf78                Gudbcschk_width0top
                0x003cdf7c                Sdbcschk_hkopt
 COMMON         0x003cdf80        0x5 ../ulib/libuserxe.a(libuserxe_a-uerr.o)
                0x003cdf80                Guerropt2
                0x003cdf84                Guerropt
 *fill*         0x003cdf85        0x3 
 COMMON         0x003cdf88        0x8 ../ulib/libuserxe.a(libuserxe_a-ufile.o)
                0x003cdf88                Gufile_opt
                0x003cdf8c                Gufile_nomsg
 COMMON         0x003cdf90       0x88 ../ulib/libuserxe.a(libuserxe_a-uftp2.o)
                0x003cdf90                Gftperr
                0x003cdf94                Gftpopt
                0x003cdf98                Gftpclient
 COMMON         0x003ce018        0x8 ../ulib/libuserxe.a(libuserxe_a-ukbdl.o)
                0x003ce018                Sphiconv
                0x003ce01c                Gukbdl_flag
 COMMON         0x003ce020        0x8 ../ulib/libuserxe.a(libuserxe_a-uproc.o)
                0x003ce020                Sfdpiper
                0x003ce024                Sfdpipew
 COMMON         0x003ce028        0xc ../ulib/libuserxe.a(libuserxe_a-utf.o)
                0x003ce028                Gulibutfmode
                0x003ce02c                Gutfrc
                0x003ce030                Gutfcombaltch
 COMMON         0x003ce034    0x60000 ../ulib/libuserxe.a(libuserxe_a-utf22.o)
                0x003ce034                Gucs2ddmap_i2u
                0x003ee034                Gucs2ddmap
 COMMON         0x0042e034      0x104 ../ulib/libuserxe.a(libuserxe_a-utrace.o)
                0x0042e034                Gtracehdr
                0x0042e134                Slockhandle
 COMMON         0x0042e138       0x24 ../ulib/libuserxe.a(libuserxe_a-uviom.o)
                0x0042e138                Guviombuffu
                0x0042e13c                Guviomopt
                0x0042e140                Guviomoptstr
                0x0042e144                Guviomopt2
                0x0042e148                Gw95buffopt
                0x0042e14c                Guviomoptstrucs
 COMMON         0x0042e15c        0x4 ../ulib/libuserxe.a(libuserxe_a-uviol.o)
                0x0042e15c                Guviol_flag
                0x0042e160                . = ALIGN ((. != 0x0)?0x4:0x1)
                0x0042e160                _bss_end__ = .
                0x0042e160                __bss_end__ = .
                0x0042e160                . = ALIGN (0x4)
                0x0042e160                . = SEGMENT_START ("ldata-segment", .)
                0x0042e160                . = ALIGN (0x4)
                0x0042e160                __end__ = .
                0x0042e160                _end = .
                [!provide]                PROVIDE (end = .)
                0x0042e160                . = DATA_SEGMENT_END (.)

.stab
 *(.stab)

.stabstr
 *(.stabstr)

.stab.excl
 *(.stab.excl)

.stab.exclstr
 *(.stab.exclstr)

.stab.index
 *(.stab.index)

.stab.indexstr
 *(.stab.indexstr)

.comment        0x00000000       0x23
 *(.comment)
 .comment       0x00000000       0x23 /usr/lib/gcc/arm-linux-gnueabihf/8/crtbegin.o
                                 0x24 (size before relaxing)
 .comment       0x00000023       0x24 xe-xe.o
 .comment       0x00000023       0x24 xe-xecalc.o
 .comment       0x00000023       0x24 xe-xecalc2.o
 .comment       0x00000023       0x24 xe-xecalc21.o
 .comment       0x00000023       0x24 xe-xecalc22.o
 .comment       0x00000023       0x24 xe-xecalc3.o
 .comment       0x00000023       0x24 xe-xecap.o
 .comment       0x00000023       0x24 xe-xecap2.o
 .comment       0x00000023       0x24 xe-xechar.o
 .comment       0x00000023       0x24 xe-xechar12.o
 .comment       0x00000023       0x24 xe-xechar13.o
 .comment       0x00000023       0x24 xe-xechar2.o
 .comment       0x00000023       0x24 xe-xecsr.o
 .comment       0x00000023       0x24 xe-xedcmd.o
 .comment       0x00000023       0x24 xe-xedcmd2.o
 .comment       0x00000023       0x24 xe-xedcmd3.o
 .comment       0x00000023       0x24 xe-xedcmd4.o
 .comment       0x00000023       0x24 xe-xedir.o
 .comment       0x00000023       0x24 xe-xedir2.o
 .comment       0x00000023       0x24 xe-xedir3.o
 .comment       0x00000023       0x24 xe-xedir4.o
 .comment       0x00000023       0x24 xe-xedlcmd.o
 .comment       0x00000023       0x24 xe-xedlcmd2.o
 .comment       0x00000023       0x24 xe-xedlcmd3.o
 .comment       0x00000023       0x24 xe-xedlcmd4.o
 .comment       0x00000023       0x24 xe-xedlcmd5.o
 .comment       0x00000023       0x24 xe-xedlcmd6.o
 .comment       0x00000023       0x24 xe-xeebc.o
 .comment       0x00000023       0x24 xe-xeerr.o
 .comment       0x00000023       0x24 xe-xefcmd.o
 .comment       0x00000023       0x24 xe-xefcmd2.o
 .comment       0x00000023       0x24 xe-xefcmd22.o
 .comment       0x00000023       0x24 xe-xefcmd23.o
 .comment       0x00000023       0x24 xe-xefcmd24.o
 .comment       0x00000023       0x24 xe-xefcmd25.o
 .comment       0x00000023       0x24 xe-xefcmd26.o
 .comment       0x00000023       0x24 xe-xefcmd27.o
 .comment       0x00000023       0x24 xe-xefcmd3.o
 .comment       0x00000023       0x24 xe-xefcmd4.o
 .comment       0x00000023       0x24 xe-xefcmd42.o
 .comment       0x00000023       0x24 xe-xefcmd43.o
 .comment       0x00000023       0x24 xe-xefcmd5.o
 .comment       0x00000023       0x24 xe-xefcmd6.o
 .comment       0x00000023       0x24 xe-xefcmd7.o
 .comment       0x00000023       0x24 xe-xefile.o
 .comment       0x00000023       0x24 xe-xefile12.o
 .comment       0x00000023       0x24 xe-xefile13.o
 .comment       0x00000023       0x24 xe-xefile14.o
 .comment       0x00000023       0x24 xe-xefile15.o
 .comment       0x00000023       0x24 xe-xefile2.o
 .comment       0x00000023       0x24 xe-xefile22.o
 .comment       0x00000023       0x24 xe-xefile23.o
 .comment       0x00000023       0x24 xe-xefile3.o
 .comment       0x00000023       0x24 xe-xefile4.o
 .comment       0x00000023       0x24 xe-xefile42.o
 .comment       0x00000023       0x24 xe-xefile43.o
 .comment       0x00000023       0x24 xe-xefile5.o
 .comment       0x00000023       0x24 xe-xefile6.o
 .comment       0x00000023       0x24 xe-xefile7.o
 .comment       0x00000023       0x24 xe-xefsub.o
 .comment       0x00000023       0x24 xe-xeftp.o
 .comment       0x00000023       0x24 xe-xefunc.o
 .comment       0x00000023       0x24 xe-xefunc2.o
 .comment       0x00000023       0x24 xe-xefunct.o
 .comment       0x00000023       0x24 xe-xefunct2.o
 .comment       0x00000023       0x24 xe-xegbl.o
 .comment       0x00000023       0x24 xe-xeini.o
 .comment       0x00000023       0x24 xe-xeini2.o
 .comment       0x00000023       0x24 xe-xeini3.o
 .comment       0x00000023       0x24 xe-xekbd.o
 .comment       0x00000023       0x24 xe-xelcmd.o
 .comment       0x00000023       0x24 xe-xelcmd2.o
 .comment       0x00000023       0x24 xe-xelcmd3.o
 .comment       0x00000023       0x24 xe-xelcmd4.o
 .comment       0x00000023       0x24 xe-xelcmd5.o
 .comment       0x00000023       0x24 xe-xemainl.o
 .comment       0x00000023       0x24 xe-xemousel.o
 .comment       0x00000023       0x24 xe-xeopt.o
 .comment       0x00000023       0x24 xe-xeopt2.o
 .comment       0x00000023       0x24 xe-xepan.o
 .comment       0x00000023       0x24 xe-xepan2.o
 .comment       0x00000023       0x24 xe-xepan22.o
 .comment       0x00000023       0x24 xe-xepan23.o
 .comment       0x00000023       0x24 xe-xepan24.o
 .comment       0x00000023       0x24 xe-xepan3.o
 .comment       0x00000023       0x24 xe-xescr.o
 .comment       0x00000023       0x24 xe-xescr2.o
 .comment       0x00000023       0x24 xe-xesub.o
 .comment       0x00000023       0x24 xe-xesub2.o
 .comment       0x00000023       0x24 xe-xesyn.o
 .comment       0x00000023       0x24 xe-xesyn2.o
 .comment       0x00000023       0x24 xe-xetso.o
 .comment       0x00000023       0x24 xe-xetso2.o
 .comment       0x00000023       0x24 xe-xeundo.o
 .comment       0x00000023       0x24 xe-xeutf.o
 .comment       0x00000023       0x24 xe-xeutf2.o
 .comment       0x00000023       0x24 ../ulib/libuserxe.a(libuserxe_a-u3270.o)
 .comment       0x00000023       0x24 ../ulib/libuserxe.a(libuserxe_a-u32702.o)
 .comment       0x00000023       0x24 ../ulib/libuserxe.a(libuserxe_a-u32703.o)
 .comment       0x00000023       0x24 ../ulib/libuserxe.a(libuserxe_a-uabend.o)
 .comment       0x00000023       0x24 ../ulib/libuserxe.a(libuserxe_a-uallocl.o)
 .comment       0x00000023       0x24 ../ulib/libuserxe.a(libuserxe_a-ucalc.o)
 .comment       0x00000023       0x24 ../ulib/libuserxe.a(libuserxe_a-ucalc2.o)
 .comment       0x00000023       0x24 ../ulib/libuserxe.a(libuserxe_a-ucvebc.o)
 .comment       0x00000023       0x24 ../ulib/libuserxe.a(libuserxe_a-ucvebc2.o)
 .comment       0x00000023       0x24 ../ulib/libuserxe.a(libuserxe_a-ucvebc3.o)
 .comment       0x00000023       0x24 ../ulib/libuserxe.a(libuserxe_a-ucvebc32.o)
 .comment       0x00000023       0x24 ../ulib/libuserxe.a(libuserxe_a-ucvebc4.o)
 .comment       0x00000023       0x24 ../ulib/libuserxe.a(libuserxe_a-ucvebct.o)
 .comment       0x00000023       0x24 ../ulib/libuserxe.a(libuserxe_a-ucvext.o)
 .comment       0x00000023       0x24 ../ulib/libuserxe.a(libuserxe_a-ucvext12.o)
 .comment       0x00000023       0x24 ../ulib/libuserxe.a(libuserxe_a-ucvext2.o)
 .comment       0x00000023       0x24 ../ulib/libuserxe.a(libuserxe_a-ucvucs.o)
 .comment       0x00000023       0x24 ../ulib/libuserxe.a(libuserxe_a-ucvucst.o)
 .comment       0x00000023       0x24 ../ulib/libuserxe.a(libuserxe_a-udbcschk.o)
 .comment       0x00000023       0x24 ../ulib/libuserxe.a(libuserxe_a-udbcsck2.o)
 .comment       0x00000023       0x24 ../ulib/libuserxe.a(libuserxe_a-udos2.o)
 .comment       0x00000023       0x24 ../ulib/libuserxe.a(libuserxe_a-uedit.o)
 .comment       0x00000023       0x24 ../ulib/libuserxe.a(libuserxe_a-uedit2.o)
 .comment       0x00000023       0x24 ../ulib/libuserxe.a(libuserxe_a-uehl.o)
 .comment       0x00000023       0x24 ../ulib/libuserxe.a(libuserxe_a-uerr.o)
 .comment       0x00000023       0x24 ../ulib/libuserxe.a(libuserxe_a-ufemsg.o)
 .comment       0x00000023       0x24 ../ulib/libuserxe.a(libuserxe_a-ufile.o)
 .comment       0x00000023       0x24 ../ulib/libuserxe.a(libuserxe_a-ufile12.o)
 .comment       0x00000023       0x24 ../ulib/libuserxe.a(libuserxe_a-ufile1f.o)
 .comment       0x00000023       0x24 ../ulib/libuserxe.a(libuserxe_a-ufile1l.o)
 .comment       0x00000023       0x24 ../ulib/libuserxe.a(libuserxe_a-ufile1l2.o)
 .comment       0x00000023       0x24 ../ulib/libuserxe.a(libuserxe_a-ufile2.o)
 .comment       0x00000023       0x24 ../ulib/libuserxe.a(libuserxe_a-ufile2f.o)
 .comment       0x00000023       0x24 ../ulib/libuserxe.a(libuserxe_a-ufile2l.o)
 .comment       0x00000023       0x24 ../ulib/libuserxe.a(libuserxe_a-ufile2l2.o)
 .comment       0x00000023       0x24 ../ulib/libuserxe.a(libuserxe_a-ufile3.o)
 .comment       0x00000023       0x24 ../ulib/libuserxe.a(libuserxe_a-ufile3f.o)
 .comment       0x00000023       0x24 ../ulib/libuserxe.a(libuserxe_a-ufile4.o)
 .comment       0x00000023       0x24 ../ulib/libuserxe.a(libuserxe_a-ufile5.o)
 .comment       0x00000023       0x24 ../ulib/libuserxe.a(libuserxe_a-uftp.o)
 .comment       0x00000023       0x24 ../ulib/libuserxe.a(libuserxe_a-uftp2.o)
 .comment       0x00000023       0x24 ../ulib/libuserxe.a(libuserxe_a-uftp3.o)
 .comment       0x00000023       0x24 ../ulib/libuserxe.a(libuserxe_a-ugcclib.o)
 .comment       0x00000023       0x24 ../ulib/libuserxe.a(libuserxe_a-ukbdl.o)
 .comment       0x00000023       0x24 ../ulib/libuserxe.a(libuserxe_a-ukbdlnxc.o)
 .comment       0x00000023       0x24 ../ulib/libuserxe.a(libuserxe_a-ukbdlnxm.o)
 .comment       0x00000023       0x24 ../ulib/libuserxe.a(libuserxe_a-uparse.o)
 .comment       0x00000023       0x24 ../ulib/libuserxe.a(libuserxe_a-uproc.o)
 .comment       0x00000023       0x24 ../ulib/libuserxe.a(libuserxe_a-uproc2.o)
 .comment       0x00000023       0x24 ../ulib/libuserxe.a(libuserxe_a-uproc3.o)
 .comment       0x00000023       0x24 ../ulib/libuserxe.a(libuserxe_a-uproc4.o)
 .comment       0x00000023       0x24 ../ulib/libuserxe.a(libuserxe_a-uque.o)
 .comment       0x00000023       0x24 ../ulib/libuserxe.a(libuserxe_a-ustrcpy.o)
 .comment       0x00000023       0x24 ../ulib/libuserxe.a(libuserxe_a-ustring.o)
 .comment       0x00000023       0x24 ../ulib/libuserxe.a(libuserxe_a-utf.o)
 .comment       0x00000023       0x24 ../ulib/libuserxe.a(libuserxe_a-utf2.o)
 .comment       0x00000023       0x24 ../ulib/libuserxe.a(libuserxe_a-utf22.o)
 .comment       0x00000023       0x24 ../ulib/libuserxe.a(libuserxe_a-utf3.o)
 .comment       0x00000023       0x24 ../ulib/libuserxe.a(libuserxe_a-utf4.o)
 .comment       0x00000023       0x24 ../ulib/libuserxe.a(libuserxe_a-utrace.o)
 .comment       0x00000023       0x24 ../ulib/libuserxe.a(libuserxe_a-uunxsub.o)
 .comment       0x00000023       0x24 ../ulib/libuserxe.a(libuserxe_a-uviom.o)
 .comment       0x00000023       0x24 ../ulib/libuserxe.a(libuserxe_a-uviol.o)
 .comment       0x00000023       0x24 ../ulib/libuserxe.a(libuserxe_a-uproc22.o)
 .comment       0x00000023       0x24 /usr/lib/gcc/arm-linux-gnueabihf/8/crtend.o

.ARM.attributes
                0x00000000       0x2f
 .ARM.attributes
                0x00000000       0x2f /usr/lib/gcc/arm-linux-gnueabihf/8/../../../arm-linux-gnueabihf/crt1.o
 .ARM.attributes
                0x0000002f       0x23 /usr/lib/gcc/arm-linux-gnueabihf/8/../../../arm-linux-gnueabihf/crti.o
 .ARM.attributes
                0x00000052       0x2f /usr/lib/gcc/arm-linux-gnueabihf/8/crtbegin.o
 .ARM.attributes
                0x00000081       0x2f xe-xe.o
 .ARM.attributes
                0x000000b0       0x2f xe-xecalc.o
 .ARM.attributes
                0x000000df       0x2f xe-xecalc2.o
 .ARM.attributes
                0x0000010e       0x2f xe-xecalc21.o
 .ARM.attributes
                0x0000013d       0x2f xe-xecalc22.o
 .ARM.attributes
                0x0000016c       0x2f xe-xecalc3.o
 .ARM.attributes
                0x0000019b       0x2f xe-xecap.o
 .ARM.attributes
                0x000001ca       0x2f xe-xecap2.o
 .ARM.attributes
                0x000001f9       0x2f xe-xechar.o
 .ARM.attributes
                0x00000228       0x2f xe-xechar12.o
 .ARM.attributes
                0x00000257       0x2f xe-xechar13.o
 .ARM.attributes
                0x00000286       0x2f xe-xechar2.o
 .ARM.attributes
                0x000002b5       0x2f xe-xecsr.o
 .ARM.attributes
                0x000002e4       0x2f xe-xedcmd.o
 .ARM.attributes
                0x00000313       0x2f xe-xedcmd2.o
 .ARM.attributes
                0x00000342       0x2f xe-xedcmd3.o
 .ARM.attributes
                0x00000371       0x2f xe-xedcmd4.o
 .ARM.attributes
                0x000003a0       0x2f xe-xedir.o
 .ARM.attributes
                0x000003cf       0x2f xe-xedir2.o
 .ARM.attributes
                0x000003fe       0x2f xe-xedir3.o
 .ARM.attributes
                0x0000042d       0x2f xe-xedir4.o
 .ARM.attributes
                0x0000045c       0x2f xe-xedlcmd.o
 .ARM.attributes
                0x0000048b       0x2f xe-xedlcmd2.o
 .ARM.attributes
                0x000004ba       0x2f xe-xedlcmd3.o
 .ARM.attributes
                0x000004e9       0x2f xe-xedlcmd4.o
 .ARM.attributes
                0x00000518       0x2f xe-xedlcmd5.o
 .ARM.attributes
                0x00000547       0x2f xe-xedlcmd6.o
 .ARM.attributes
                0x00000576       0x2f xe-xeebc.o
 .ARM.attributes
                0x000005a5       0x2f xe-xeerr.o
 .ARM.attributes
                0x000005d4       0x2f xe-xefcmd.o
 .ARM.attributes
                0x00000603       0x2f xe-xefcmd2.o
 .ARM.attributes
                0x00000632       0x2f xe-xefcmd22.o
 .ARM.attributes
                0x00000661       0x2f xe-xefcmd23.o
 .ARM.attributes
                0x00000690       0x2f xe-xefcmd24.o
 .ARM.attributes
                0x000006bf       0x2f xe-xefcmd25.o
 .ARM.attributes
                0x000006ee       0x2f xe-xefcmd26.o
 .ARM.attributes
                0x0000071d       0x2f xe-xefcmd27.o
 .ARM.attributes
                0x0000074c       0x2f xe-xefcmd3.o
 .ARM.attributes
                0x0000077b       0x2f xe-xefcmd4.o
 .ARM.attributes
                0x000007aa       0x2f xe-xefcmd42.o
 .ARM.attributes
                0x000007d9       0x2f xe-xefcmd43.o
 .ARM.attributes
                0x00000808       0x2f xe-xefcmd5.o
 .ARM.attributes
                0x00000837       0x2f xe-xefcmd6.o
 .ARM.attributes
                0x00000866       0x2f xe-xefcmd7.o
 .ARM.attributes
                0x00000895       0x2f xe-xefile.o
 .ARM.attributes
                0x000008c4       0x2f xe-xefile12.o
 .ARM.attributes
                0x000008f3       0x2f xe-xefile13.o
 .ARM.attributes
                0x00000922       0x2f xe-xefile14.o
 .ARM.attributes
                0x00000951       0x2f xe-xefile15.o
 .ARM.attributes
                0x00000980       0x2f xe-xefile2.o
 .ARM.attributes
                0x000009af       0x2f xe-xefile22.o
 .ARM.attributes
                0x000009de       0x2f xe-xefile23.o
 .ARM.attributes
                0x00000a0d       0x2f xe-xefile3.o
 .ARM.attributes
                0x00000a3c       0x2f xe-xefile4.o
 .ARM.attributes
                0x00000a6b       0x2f xe-xefile42.o
 .ARM.attributes
                0x00000a9a       0x2f xe-xefile43.o
 .ARM.attributes
                0x00000ac9       0x2f xe-xefile5.o
 .ARM.attributes
                0x00000af8       0x2f xe-xefile6.o
 .ARM.attributes
                0x00000b27       0x2f xe-xefile7.o
 .ARM.attributes
                0x00000b56       0x2f xe-xefsub.o
 .ARM.attributes
                0x00000b85       0x2f xe-xeftp.o
 .ARM.attributes
                0x00000bb4       0x2f xe-xefunc.o
 .ARM.attributes
                0x00000be3       0x2f xe-xefunc2.o
 .ARM.attributes
                0x00000c12       0x2f xe-xefunct.o
 .ARM.attributes
                0x00000c41       0x2f xe-xefunct2.o
 .ARM.attributes
                0x00000c70       0x2f xe-xegbl.o
 .ARM.attributes
                0x00000c9f       0x2f xe-xeini.o
 .ARM.attributes
                0x00000cce       0x2f xe-xeini2.o
 .ARM.attributes
                0x00000cfd       0x2f xe-xeini3.o
 .ARM.attributes
                0x00000d2c       0x2f xe-xekbd.o
 .ARM.attributes
                0x00000d5b       0x2f xe-xelcmd.o
 .ARM.attributes
                0x00000d8a       0x2f xe-xelcmd2.o
 .ARM.attributes
                0x00000db9       0x2f xe-xelcmd3.o
 .ARM.attributes
                0x00000de8       0x2f xe-xelcmd4.o
 .ARM.attributes
                0x00000e17       0x2f xe-xelcmd5.o
 .ARM.attributes
                0x00000e46       0x2f xe-xemainl.o
 .ARM.attributes
                0x00000e75       0x2f xe-xemousel.o
 .ARM.attributes
                0x00000ea4       0x2f xe-xeopt.o
 .ARM.attributes
                0x00000ed3       0x2f xe-xeopt2.o
 .ARM.attributes
                0x00000f02       0x2f xe-xepan.o
 .ARM.attributes
                0x00000f31       0x2f xe-xepan2.o
 .ARM.attributes
                0x00000f60       0x2f xe-xepan22.o
 .ARM.attributes
                0x00000f8f       0x2f xe-xepan23.o
 .ARM.attributes
                0x00000fbe       0x2f xe-xepan24.o
 .ARM.attributes
                0x00000fed       0x2f xe-xepan3.o
 .ARM.attributes
                0x0000101c       0x2f xe-xescr.o
 .ARM.attributes
                0x0000104b       0x2f xe-xescr2.o
 .ARM.attributes
                0x0000107a       0x2f xe-xesub.o
 .ARM.attributes
                0x000010a9       0x2f xe-xesub2.o
 .ARM.attributes
                0x000010d8       0x2f xe-xesyn.o
 .ARM.attributes
                0x00001107       0x2f xe-xesyn2.o
 .ARM.attributes
                0x00001136       0x2f xe-xetso.o
 .ARM.attributes
                0x00001165       0x2f xe-xetso2.o
 .ARM.attributes
                0x00001194       0x2f xe-xeundo.o
 .ARM.attributes
                0x000011c3       0x2f xe-xeutf.o
 .ARM.attributes
                0x000011f2       0x2f xe-xeutf2.o
 .ARM.attributes
                0x00001221       0x2f ../ulib/libuserxe.a(libuserxe_a-u3270.o)
 .ARM.attributes
                0x00001250       0x2f ../ulib/libuserxe.a(libuserxe_a-u32702.o)
 .ARM.attributes
                0x0000127f       0x2f ../ulib/libuserxe.a(libuserxe_a-u32703.o)
 .ARM.attributes
                0x000012ae       0x2f ../ulib/libuserxe.a(libuserxe_a-uabend.o)
 .ARM.attributes
                0x000012dd       0x2f ../ulib/libuserxe.a(libuserxe_a-uallocl.o)
 .ARM.attributes
                0x0000130c       0x2f ../ulib/libuserxe.a(libuserxe_a-ucalc.o)
 .ARM.attributes
                0x0000133b       0x2f ../ulib/libuserxe.a(libuserxe_a-ucalc2.o)
 .ARM.attributes
                0x0000136a       0x2f ../ulib/libuserxe.a(libuserxe_a-ucvebc.o)
 .ARM.attributes
                0x00001399       0x2f ../ulib/libuserxe.a(libuserxe_a-ucvebc2.o)
 .ARM.attributes
                0x000013c8       0x2f ../ulib/libuserxe.a(libuserxe_a-ucvebc3.o)
 .ARM.attributes
                0x000013f7       0x2f ../ulib/libuserxe.a(libuserxe_a-ucvebc32.o)
 .ARM.attributes
                0x00001426       0x2f ../ulib/libuserxe.a(libuserxe_a-ucvebc4.o)
 .ARM.attributes
                0x00001455       0x2f ../ulib/libuserxe.a(libuserxe_a-ucvebct.o)
 .ARM.attributes
                0x00001484       0x2f ../ulib/libuserxe.a(libuserxe_a-ucvext.o)
 .ARM.attributes
                0x000014b3       0x2f ../ulib/libuserxe.a(libuserxe_a-ucvext12.o)
 .ARM.attributes
                0x000014e2       0x2f ../ulib/libuserxe.a(libuserxe_a-ucvext2.o)
 .ARM.attributes
                0x00001511       0x2f ../ulib/libuserxe.a(libuserxe_a-ucvucs.o)
 .ARM.attributes
                0x00001540       0x2f ../ulib/libuserxe.a(libuserxe_a-ucvucst.o)
 .ARM.attributes
                0x0000156f       0x2f ../ulib/libuserxe.a(libuserxe_a-udbcschk.o)
 .ARM.attributes
                0x0000159e       0x2f ../ulib/libuserxe.a(libuserxe_a-udbcsck2.o)
 .ARM.attributes
                0x000015cd       0x2f ../ulib/libuserxe.a(libuserxe_a-udos2.o)
 .ARM.attributes
                0x000015fc       0x2f ../ulib/libuserxe.a(libuserxe_a-uedit.o)
 .ARM.attributes
                0x0000162b       0x2f ../ulib/libuserxe.a(libuserxe_a-uedit2.o)
 .ARM.attributes
                0x0000165a       0x2f ../ulib/libuserxe.a(libuserxe_a-uehl.o)
 .ARM.attributes
                0x00001689       0x2f ../ulib/libuserxe.a(libuserxe_a-uerr.o)
 .ARM.attributes
                0x000016b8       0x2f ../ulib/libuserxe.a(libuserxe_a-ufemsg.o)
 .ARM.attributes
                0x000016e7       0x2f ../ulib/libuserxe.a(libuserxe_a-ufile.o)
 .ARM.attributes
                0x00001716       0x2f ../ulib/libuserxe.a(libuserxe_a-ufile12.o)
 .ARM.attributes
                0x00001745       0x2f ../ulib/libuserxe.a(libuserxe_a-ufile1f.o)
 .ARM.attributes
                0x00001774       0x2f ../ulib/libuserxe.a(libuserxe_a-ufile1l.o)
 .ARM.attributes
                0x000017a3       0x2f ../ulib/libuserxe.a(libuserxe_a-ufile1l2.o)
 .ARM.attributes
                0x000017d2       0x2f ../ulib/libuserxe.a(libuserxe_a-ufile2.o)
 .ARM.attributes
                0x00001801       0x2f ../ulib/libuserxe.a(libuserxe_a-ufile2f.o)
 .ARM.attributes
                0x00001830       0x2f ../ulib/libuserxe.a(libuserxe_a-ufile2l.o)
 .ARM.attributes
                0x0000185f       0x2f ../ulib/libuserxe.a(libuserxe_a-ufile2l2.o)
 .ARM.attributes
                0x0000188e       0x2f ../ulib/libuserxe.a(libuserxe_a-ufile3.o)
 .ARM.attributes
                0x000018bd       0x2f ../ulib/libuserxe.a(libuserxe_a-ufile3f.o)
 .ARM.attributes
                0x000018ec       0x2f ../ulib/libuserxe.a(libuserxe_a-ufile4.o)
 .ARM.attributes
                0x0000191b       0x2f ../ulib/libuserxe.a(libuserxe_a-ufile5.o)
 .ARM.attributes
                0x0000194a       0x2f ../ulib/libuserxe.a(libuserxe_a-uftp.o)
 .ARM.attributes
                0x00001979       0x2f ../ulib/libuserxe.a(libuserxe_a-uftp2.o)
 .ARM.attributes
                0x000019a8       0x2f ../ulib/libuserxe.a(libuserxe_a-uftp3.o)
 .ARM.attributes
                0x000019d7       0x2f ../ulib/libuserxe.a(libuserxe_a-ugcclib.o)
 .ARM.attributes
                0x00001a06       0x2f ../ulib/libuserxe.a(libuserxe_a-ukbdl.o)
 .ARM.attributes
                0x00001a35       0x2f ../ulib/libuserxe.a(libuserxe_a-ukbdlnxc.o)
 .ARM.attributes
                0x00001a64       0x2f ../ulib/libuserxe.a(libuserxe_a-ukbdlnxm.o)
 .ARM.attributes
                0x00001a93       0x2f ../ulib/libuserxe.a(libuserxe_a-uparse.o)
 .ARM.attributes
                0x00001ac2       0x2f ../ulib/libuserxe.a(libuserxe_a-uproc.o)
 .ARM.attributes
                0x00001af1       0x2f ../ulib/libuserxe.a(libuserxe_a-uproc2.o)
 .ARM.attributes
                0x00001b20       0x2f ../ulib/libuserxe.a(libuserxe_a-uproc3.o)
 .ARM.attributes
                0x00001b4f       0x2f ../ulib/libuserxe.a(libuserxe_a-uproc4.o)
 .ARM.attributes
                0x00001b7e       0x2f ../ulib/libuserxe.a(libuserxe_a-uque.o)
 .ARM.attributes
                0x00001bad       0x2f ../ulib/libuserxe.a(libuserxe_a-ustrcpy.o)
 .ARM.attributes
                0x00001bdc       0x2f ../ulib/libuserxe.a(libuserxe_a-ustring.o)
 .ARM.attributes
                0x00001c0b       0x2f ../ulib/libuserxe.a(libuserxe_a-utf.o)
 .ARM.attributes
                0x00001c3a       0x2f ../ulib/libuserxe.a(libuserxe_a-utf2.o)
 .ARM.attributes
                0x00001c69       0x2f ../ulib/libuserxe.a(libuserxe_a-utf22.o)
 .ARM.attributes
                0x00001c98       0x2f ../ulib/libuserxe.a(libuserxe_a-utf3.o)
 .ARM.attributes
                0x00001cc7       0x2f ../ulib/libuserxe.a(libuserxe_a-utf4.o)
 .ARM.attributes
                0x00001cf6       0x2f ../ulib/libuserxe.a(libuserxe_a-utrace.o)
 .ARM.attributes
                0x00001d25       0x2f ../ulib/libuserxe.a(libuserxe_a-uunxsub.o)
 .ARM.attributes
                0x00001d54       0x2f ../ulib/libuserxe.a(libuserxe_a-uviom.o)
 .ARM.attributes
                0x00001d83       0x2f ../ulib/libuserxe.a(libuserxe_a-uviol.o)
 .ARM.attributes
                0x00001db2       0x2f ../ulib/libuserxe.a(libuserxe_a-uproc22.o)
 .ARM.attributes
                0x00001de1       0x1d /usr/lib/gcc/arm-linux-gnueabihf/8/libgcc.a(_udivsi3.o)
 .ARM.attributes
                0x00001dfe       0x1d /usr/lib/gcc/arm-linux-gnueabihf/8/libgcc.a(_divsi3.o)
 .ARM.attributes
                0x00001e1b       0x1d /usr/lib/gcc/arm-linux-gnueabihf/8/libgcc.a(_aeabi_ldivmod.o)
 .ARM.attributes
                0x00001e38       0x1d /usr/lib/gcc/arm-linux-gnueabihf/8/libgcc.a(_dvmd_lnx.o)
 .ARM.attributes
                0x00001e55       0x2f /usr/lib/gcc/arm-linux-gnueabihf/8/libgcc.a(_udivmoddi4.o)
 .ARM.attributes
                0x00001e84       0x31 //usr/lib/arm-linux-gnueabihf/libc_nonshared.a(elf-init.oS)
 .ARM.attributes
                0x00001eb5       0x31 //usr/lib/arm-linux-gnueabihf/libc_nonshared.a(stat64.oS)
 .ARM.attributes
                0x00001ee6       0x31 //usr/lib/arm-linux-gnueabihf/libc_nonshared.a(lstat64.oS)
 .ARM.attributes
                0x00001f17       0x2f /usr/lib/gcc/arm-linux-gnueabihf/8/crtend.o
 .ARM.attributes
                0x00001f46       0x23 /usr/lib/gcc/arm-linux-gnueabihf/8/../../../arm-linux-gnueabihf/crtn.o

.debug
 *(.debug)

.line
 *(.line)

.debug_srcinfo
 *(.debug_srcinfo)

.debug_sfnames
 *(.debug_sfnames)

.debug_aranges
 *(.debug_aranges)

.debug_pubnames
 *(.debug_pubnames)

.debug_info
 *(.debug_info .gnu.linkonce.wi.*)

.debug_abbrev
 *(.debug_abbrev)

.debug_line
 *(.debug_line .debug_line.* .debug_line_end)

.debug_frame
 *(.debug_frame)

.debug_str
 *(.debug_str)

.debug_loc
 *(.debug_loc)

.debug_macinfo
 *(.debug_macinfo)

.debug_weaknames
 *(.debug_weaknames)

.debug_funcnames
 *(.debug_funcnames)

.debug_typenames
 *(.debug_typenames)

.debug_varnames
 *(.debug_varnames)

.debug_pubtypes
 *(.debug_pubtypes)

.debug_ranges
 *(.debug_ranges)

.debug_macro
 *(.debug_macro)

.debug_addr
 *(.debug_addr)

.gnu.attributes
 *(.gnu.attributes)

.note.gnu.arm.ident
 *(.note.gnu.arm.ident)

/DISCARD/
 *(.note.GNU-stack)
 *(.gnu_debuglink)
 *(.gnu.lto_*)
OUTPUT(xe elf32-littlearm)
