Archive member included to satisfy reference by file (symbol)

../ulib/libuserxe.a(libuserxe_a-uallocl.o)
                              xekbchk-xeebc.o (umalloc)
../ulib/libuserxe.a(libuserxe_a-ucvebc.o)
                              xekbchk-xeebc.o (Gucvebch)
../ulib/libuserxe.a(libuserxe_a-ucvebc2.o)
                              ../ulib/libuserxe.a(libuserxe_a-ucvebc.o) (ucvebc2_stre2s)
../ulib/libuserxe.a(libuserxe_a-ucvebc3.o)
                              xekbchk-xeebc.o (ucvebc3_init)
../ulib/libuserxe.a(libuserxe_a-ucvebc32.o)
                              xekbchk-xesub2.o (ucvebc_memcmp)
../ulib/libuserxe.a(libuserxe_a-ucvebc4.o)
                              xekbchk-xeebc.o (ucvebc4_createhandle)
../ulib/libuserxe.a(libuserxe_a-ucvebct.o)
                              ../ulib/libuserxe.a(libuserxe_a-ucvebc2.o) (ucvebc2gettbl)
../ulib/libuserxe.a(libuserxe_a-ucvext.o)
                              ../ulib/libuserxe.a(libuserxe_a-ucvebc3.o) (ucvext_mapinit)
../ulib/libuserxe.a(libuserxe_a-ucvext12.o)
                              ../ulib/libuserxe.a(libuserxe_a-ucvext.o) (ucvext12_init)
../ulib/libuserxe.a(libuserxe_a-ucvext2.o)
                              ../ulib/libuserxe.a(libuserxe_a-ucvext.o) (ucvext_iconvmapinit)
../ulib/libuserxe.a(libuserxe_a-ucvucs.o)
                              xekbchk-xegbl.o (ucp932term)
../ulib/libuserxe.a(libuserxe_a-ucvucst.o)
                              ../ulib/libuserxe.a(libuserxe_a-ucvucs.o) (ugetcp932tbl)
../ulib/libuserxe.a(libuserxe_a-udbcschk.o)
                              xekbchk-xekbchk.o (Gudbcschk_flag)
../ulib/libuserxe.a(libuserxe_a-udbcsck2.o)
                              xekbchk-xefunct.o (ushift2euc)
../ulib/libuserxe.a(libuserxe_a-udos2.o)
                              ../ulib/libuserxe.a(libuserxe_a-ucvext.o) (udos_setenv)
../ulib/libuserxe.a(libuserxe_a-uedit.o)
                              xekbchk-xefunc.o (ucmdparmedit)
../ulib/libuserxe.a(libuserxe_a-uedit2.o)
                              xekbchk-xeutf2.o (uxdumpstr)
../ulib/libuserxe.a(libuserxe_a-uerr.o)
                              xekbchk-xefunc.o (Guerropt)
../ulib/libuserxe.a(libuserxe_a-ufemsg.o)
                              xekbchk-xesub.o (ufilenotfound)
../ulib/libuserxe.a(libuserxe_a-ufile.o)
                              xekbchk-xegbl.o (Gufile_opt)
../ulib/libuserxe.a(libuserxe_a-ufile1f.o)
                              ../ulib/libuserxe.a(libuserxe_a-ufile.o) (uftpdirlistsub)
../ulib/libuserxe.a(libuserxe_a-ufile1l.o)
                              xekbchk-xesub.o (ufstat)
../ulib/libuserxe.a(libuserxe_a-ufile1l2.o)
                              ../ulib/libuserxe.a(libuserxe_a-ufile1l.o) (ufstat_mdos)
../ulib/libuserxe.a(libuserxe_a-ufile2.o)
                              xekbchk-xesub.o (uxdelete)
../ulib/libuserxe.a(libuserxe_a-ufile2f.o)
                              ../ulib/libuserxe.a(libuserxe_a-ufile2.o) (uftpremove)
../ulib/libuserxe.a(libuserxe_a-ufile2l.o)
                              ../ulib/libuserxe.a(libuserxe_a-ufile2.o) (urmdir)
../ulib/libuserxe.a(libuserxe_a-ufile2l2.o)
                              ../ulib/libuserxe.a(libuserxe_a-ufile2l.o) (umkdir_mdos)
../ulib/libuserxe.a(libuserxe_a-ufile3.o)
                              xekbchk-xesub.o (uxcopy)
../ulib/libuserxe.a(libuserxe_a-ufile3f.o)
                              ../ulib/libuserxe.a(libuserxe_a-ufile3.o) (uftpxmove)
../ulib/libuserxe.a(libuserxe_a-ufile4.o)
                              xekbchk-xesub.o (utempnam)
../ulib/libuserxe.a(libuserxe_a-ufile5.o)
                              ../ulib/libuserxe.a(libuserxe_a-ucvext12.o) (ufgetsinit)
../ulib/libuserxe.a(libuserxe_a-uftp.o)
                              ../ulib/libuserxe.a(libuserxe_a-ufile1f.o) (uftpfstatudl)
../ulib/libuserxe.a(libuserxe_a-uftp2.o)
                              ../ulib/libuserxe.a(libuserxe_a-uftp.o) (Gftpopt)
../ulib/libuserxe.a(libuserxe_a-uftp3.o)
                              ../ulib/libuserxe.a(libuserxe_a-uftp.o) (uftp3setssh)
../ulib/libuserxe.a(libuserxe_a-ugcclib.o)
                              xekbchk-xecsr.o (strupr)
../ulib/libuserxe.a(libuserxe_a-ukbdl.o)
                              xekbchk-xekbchk.o (Gukbdl_flag)
../ulib/libuserxe.a(libuserxe_a-ukbdlnxc.o)
                              xekbchk-xekbchk.o (ukbdlnxc_gettbl)
../ulib/libuserxe.a(libuserxe_a-ukbdlnxm.o)
                              xekbchk-xekbchk.o (ukbdlnxm_mouseopt)
../ulib/libuserxe.a(libuserxe_a-uparse.o)
                              xekbchk-xekbd.o (uparsein)
../ulib/libuserxe.a(libuserxe_a-uproc.o)
                              ../ulib/libuserxe.a(libuserxe_a-ukbdl.o) (uproc_getpsinfo)
../ulib/libuserxe.a(libuserxe_a-uproc2.o)
                              ../ulib/libuserxe.a(libuserxe_a-ufile2f.o) (uproc_rsh)
../ulib/libuserxe.a(libuserxe_a-uproc4.o)
                              ../ulib/libuserxe.a(libuserxe_a-ukbdlnxc.o) (uproc_select)
../ulib/libuserxe.a(libuserxe_a-uque.o)
                              xekbchk-xefunc.o (uenq)
../ulib/libuserxe.a(libuserxe_a-ustrcpy.o)
                              xekbchk-xekbchk.o (ustring_memcpy)
../ulib/libuserxe.a(libuserxe_a-ustring.o)
                              xekbchk-xefunc.o (ustrnlen)
../ulib/libuserxe.a(libuserxe_a-utf.o)
                              xekbchk-xeutf.o (Gulibutfmode)
../ulib/libuserxe.a(libuserxe_a-utf2.o)
                              xekbchk-xeutf.o (utfpos2offs)
../ulib/libuserxe.a(libuserxe_a-utf22.o)
                              ../ulib/libuserxe.a(libuserxe_a-udbcschk.o) (utfucsmapinit)
../ulib/libuserxe.a(libuserxe_a-utf3.o)
                              ../ulib/libuserxe.a(libuserxe_a-utf2.o) (utfmb2wc)
../ulib/libuserxe.a(libuserxe_a-utf4.o)
                              ../ulib/libuserxe.a(libuserxe_a-utf3.o) (mk_wcwidth)
../ulib/libuserxe.a(libuserxe_a-utrace.o)
                              ../ulib/libuserxe.a(libuserxe_a-uftp2.o) (Gtracehdr)
../ulib/libuserxe.a(libuserxe_a-uunxsub.o)
                              xekbchk-xegbl.o (ugetugid)
../ulib/libuserxe.a(libuserxe_a-uviom.o)
                              xekbchk-xescr.o (uviom_setopt2)
../ulib/libuserxe.a(libuserxe_a-uviol.o)
                              ../ulib/libuserxe.a(libuserxe_a-uerr.o) (Guviol_flag)
../ulib/libuserxe.a(libuserxe_a-u3270.o)
                              ../ulib/libuserxe.a(libuserxe_a-ufile1f.o) (u3270fstat)
../ulib/libuserxe.a(libuserxe_a-u32702.o)
                              ../ulib/libuserxe.a(libuserxe_a-ufile2f.o) (u3270mkdir)
../ulib/libuserxe.a(libuserxe_a-u32703.o)
                              ../ulib/libuserxe.a(libuserxe_a-ufile3.o) (u3270xmove)
../ulib/libuserxe.a(libuserxe_a-uabend.o)
                              ../ulib/libuserxe.a(libuserxe_a-ukbdl.o) (uabend)
../ulib/libuserxe.a(libuserxe_a-ucalc2.o)
                              ../ulib/libuserxe.a(libuserxe_a-uftp2.o) (ucalc_ld2dw)
../ulib/libuserxe.a(libuserxe_a-uehl.o)
                              ../ulib/libuserxe.a(libuserxe_a-ukbdlnxc.o) (uehl_setsh)
../ulib/libuserxe.a(libuserxe_a-uproc22.o)
                              ../ulib/libuserxe.a(libuserxe_a-utrace.o) (ucriticalsection)
../ulib/libuserxe.a(libuserxe_a-uproc3.o)
                              ../ulib/libuserxe.a(libuserxe_a-uproc4.o) (usleepms)
../ulib/libuserxe.a(libuserxe_a-ucalc.o)
                              ../ulib/libuserxe.a(libuserxe_a-ucalc2.o) (ucalc_binop)
/usr/lib/gcc/arm-linux-gnueabihf/8/libgcc.a(_udivsi3.o)
                              xekbchk-xescr.o (__aeabi_uidiv)
/usr/lib/gcc/arm-linux-gnueabihf/8/libgcc.a(_divsi3.o)
                              ../ulib/libuserxe.a(libuserxe_a-ufile1l2.o) (__aeabi_idiv)
/usr/lib/gcc/arm-linux-gnueabihf/8/libgcc.a(_aeabi_ldivmod.o)
                              ../ulib/libuserxe.a(libuserxe_a-u32703.o) (__aeabi_ldivmod)
/usr/lib/gcc/arm-linux-gnueabihf/8/libgcc.a(_dvmd_lnx.o)
                              /usr/lib/gcc/arm-linux-gnueabihf/8/libgcc.a(_aeabi_ldivmod.o) (__aeabi_ldiv0)
/usr/lib/gcc/arm-linux-gnueabihf/8/libgcc.a(_udivmoddi4.o)
                              /usr/lib/gcc/arm-linux-gnueabihf/8/libgcc.a(_aeabi_ldivmod.o) (__udivmoddi4)
//usr/lib/arm-linux-gnueabihf/libc_nonshared.a(elf-init.oS)
                              /usr/lib/gcc/arm-linux-gnueabihf/8/../../../arm-linux-gnueabihf/crt1.o (__libc_csu_init)
//usr/lib/arm-linux-gnueabihf/libc_nonshared.a(stat64.oS)
                              ../ulib/libuserxe.a(libuserxe_a-ufile1l.o) (stat64)
//usr/lib/arm-linux-gnueabihf/libc_nonshared.a(lstat64.oS)
                              ../ulib/libuserxe.a(libuserxe_a-ufile1l.o) (lstat64)

Allocating common symbols
Common symbol       size              file

Gucs2ddmap_i2u      0x20000           ../ulib/libuserxe.a(libuserxe_a-utf22.o)
Guviombuffu         0x4               ../ulib/libuserxe.a(libuserxe_a-uviom.o)
Gopteol             0x1               xekbchk-xekbchk.o
Gcappcw             0x4               xekbchk-xekbchk.o
Gcapplh2            0x4               xekbchk-xekbchk.o
Ggrepcmd            0x4               xekbchk-xegbl.o
Gufile_opt          0x4               ../ulib/libuserxe.a(libuserxe_a-ufile.o)
Gunpdispchartble    0x4               xekbchk-xekbchk.o
Gopteol2            0x1               xekbchk-xekbchk.o
Gvalidchartbl       0x4               xekbchk-xekbchk.o
Sphiconv            0x4               ../ulib/libuserxe.a(libuserxe_a-ukbdl.o)
Snewoldctr          0x4               ../ulib/libuserxe.a(libuserxe_a-ucvebc2.o)
Gftperr             0x4               ../ulib/libuserxe.a(libuserxe_a-uftp2.o)
Gfiletabdisp1       0x1               xekbchk-xekbchk.o
Ghelpdir            0x1000            xekbchk-xekbchk.o
Gscrheight          0x4               xekbchk-xekbchk.o
Gcmdstack           0x10              xekbchk-xekbchk.o
Giniopt             0x1               xekbchk-xekbchk.o
Gscrconfreqid       0x4               xekbchk-xekbchk.o
Gcalcplh2           0x4               xekbchk-xekbchk.o
Gulibutfmode        0x4               ../ulib/libuserxe.a(libuserxe_a-utf.o)
Gopt4               0x1               xekbchk-xekbchk.o
Se2stctr            0x4               ../ulib/libuserxe.a(libuserxe_a-ucvebc2.o)
Gcmdbuffdbcs        0x13c2            xekbchk-xekbchk.o
Gtracehdr           0x100             ../ulib/libuserxe.a(libuserxe_a-utrace.o)
Ggroupid            0x4               xekbchk-xegbl.o
Gebcstat            0x4               xekbchk-xeebc.o
Sfdpiper            0x4               ../ulib/libuserxe.a(libuserxe_a-uproc.o)
Guserid             0x4               xekbchk-xegbl.o
Gutfrc              0x4               ../ulib/libuserxe.a(libuserxe_a-utf.o)
Gscrdbcstbl         0x4               xekbchk-xekbchk.o
Gfhwidthtxt         0x2               xekbchk-xekbchk.o
Gcapplh1            0x4               xekbchk-xekbchk.o
Gcmdbuffct          0x13c2            xekbchk-xekbchk.o
Gualloc_amount      0x4               ../ulib/libuserxe.a(libuserxe_a-uallocl.o)
Guviomopt           0x4               ../ulib/libuserxe.a(libuserxe_a-uviom.o)
Slockhandle         0x4               ../ulib/libuserxe.a(libuserxe_a-utrace.o)
Gcmdbuff            0x13c2            xekbchk-xekbchk.o
Gucvebchctr         0x4               ../ulib/libuserxe.a(libuserxe_a-ucvebc.o)
Gfilebuff2          0x4               xekbchk-xekbchk.o
Gudbcschk_flag      0x4               ../ulib/libuserxe.a(libuserxe_a-udbcschk.o)
Guerropt2           0x4               ../ulib/libuserxe.a(libuserxe_a-uerr.o)
Sduptctr            0x4               ../ulib/libuserxe.a(libuserxe_a-ucvebc2.o)
Gversion            0x4               xekbchk-xekbchk.o
Gpallassigntbl      0x16              xekbchk-xekbchk.o
Gopt2               0x1               xekbchk-xekbchk.o
Gukbdl_flag         0x4               ../ulib/libuserxe.a(libuserxe_a-ukbdl.o)
Ghostname2          0x20              xekbchk-xegbl.o
Gkbdsckt            0x258             xekbchk-xekbd.o
Ginifiletabskip     0x4               xekbchk-xekbchk.o
Gfhxwidth           0x2               xekbchk-xekbchk.o
Gxdconfindex        0x4               xekbchk-xekbchk.o
Goptopt3            0x1               xekbchk-xekbchk.o
Gmaxcolor           0x4               xekbchk-xegbl.o
Gxprintcmd          0x4               xekbchk-xekbchk.o
Ss2etctr            0x4               ../ulib/libuserxe.a(libuserxe_a-ucvebc2.o)
Gprintcmd           0x4               xekbchk-xekbchk.o
Gscrsplitv          0x4               xekbchk-xekbchk.o
Gattrtbl            0x18              xekbchk-xekbchk.o
Gfhwidthtxtedit     0x2               xekbchk-xekbchk.o
Gunpdispchartble_wxe
                    0x4               xekbchk-xekbchk.o
Gcmdbufflclen       0x4               xekbchk-xekbchk.o
Gebccfgfnm          0x4               xekbchk-xeebc.o
Gcalcpcw            0x4               xekbchk-xekbchk.o
Glocalhostsw        0x4               xekbchk-xegbl.o
Gunxflag            0x4               xekbchk-xegbl.o
Ghexctl             0xc               xekbchk-xekbchk.o
Gunpdispchar        0x4               xekbchk-xekbchk.o
Gfhwidth            0x2               xekbchk-xekbchk.o
Gcmdbufflc          0x13c2            xekbchk-xekbchk.o
Gucvebch            0x9c40            ../ulib/libuserxe.a(libuserxe_a-ucvebc.o)
Gxprintcmd0         0x4               xekbchk-xekbchk.o
Gopt                0x1               xekbchk-xekbchk.o
Gscrcurclient       0x4               xekbchk-xekbchk.o
Gfiletabdisp2       0x1               xekbchk-xekbchk.o
Gworkdir            0x1000            xekbchk-xekbchk.o
Gucalc_result       0x140             ../ulib/libuserxe.a(libuserxe_a-ucalc.o)
Gcsrposy            0x4               xekbchk-xekbchk.o
Guviol_flag         0x4               ../ulib/libuserxe.a(libuserxe_a-uviol.o)
Gfunctbl            0x4               xekbchk-xekbchk.o
Gshellicmd0         0x4               xekbchk-xekbchk.o
Ghostname           0x20              xekbchk-xegbl.o
Guviomoptstr        0x4               ../ulib/libuserxe.a(libuserxe_a-uviom.o)
Gopt5               0x1               xekbchk-xekbchk.o
Gcomparecmdd        0x4               xekbchk-xegbl.o
Gverdate            0x4               xekbchk-xekbchk.o
Gshellicmd          0x4               xekbchk-xekbchk.o
Gftpopt             0x4               ../ulib/libuserxe.a(libuserxe_a-uftp2.o)
Gcsrposx            0x4               xekbchk-xekbchk.o
Gutfmode            0x4               xekbchk-xekbchk.o
Gopteolcont2        0x1               xekbchk-xekbchk.o
Gcmdbuffu8          0x13c2            xekbchk-xekbchk.o
Gdefpallette        0x10              xekbchk-xekbchk.o
Gscrstatus          0x1               xekbchk-xekbchk.o
Gscrconfactid       0x4               xekbchk-xekbchk.o
Gkeyshiftname       0x4               xekbchk-xekbchk.o
Glastsono           0x1               xekbchk-xekbchk.o
Gsubgblopt          0x4               xekbchk-xesub.o
Gufile_nomsg        0x4               ../ulib/libuserxe.a(libuserxe_a-ufile.o)
Gualloc16_amount    0x4               ../ulib/libuserxe.a(libuserxe_a-uallocl.o)
Gopt3               0x1               xekbchk-xekbchk.o
Gcomparecmdf        0x4               xekbchk-xegbl.o
Gcapcbpcw           0x4               xekbchk-xekbchk.o
Gscrsplith          0x4               xekbchk-xekbchk.o
Gotherstatus        0x4               xekbchk-xekbchk.o
Gudbcschk_width0top
                    0x4               ../ulib/libuserxe.a(libuserxe_a-udbcschk.o)
Gucvebc_stat        0x4               ../ulib/libuserxe.a(libuserxe_a-ucvebc.o)
Gftpclient          0x80              ../ulib/libuserxe.a(libuserxe_a-uftp2.o)
Gunpdispchartblj    0x4               xekbchk-xekbchk.o
Gkbdinpctr          0x4               xekbchk-xekbchk.o
Gunpdispchartblj_wxe
                    0x4               xekbchk-xekbchk.o
Gfixcidid           0x10              xekbchk-xekbchk.o
Guviomopt2          0x4               ../ulib/libuserxe.a(libuserxe_a-uviom.o)
Ginitscroll         0x14              xekbchk-xekbchk.o
Gdefaultlocalecode  0x40              xekbchk-xekbchk.o
Gstrinputdbcs       0x64              xekbchk-xekbchk.o
Glocalecode         0x40              xekbchk-xekbchk.o
Gstrinputlen        0x4               xekbchk-xekbchk.o
Gotheropt           0x4               xekbchk-xekbchk.o
Sdbcschk_hkopt      0x4               ../ulib/libuserxe.a(libuserxe_a-udbcschk.o)
Gpodelmt            0x4               xekbchk-xekbchk.o
Glinenosze          0x1               xekbchk-xekbchk.o
Gstrinput           0x64              xekbchk-xekbchk.o
Gproclastpft        0x4               xekbchk-xekbchk.o
Gutfmode2           0x4               xekbchk-xekbchk.o
Gfilebuff           0x4               xekbchk-xekbchk.o
Gunpdispchartbl     0x4               xekbchk-xekbchk.o
Gutfcombaltch       0x4               ../ulib/libuserxe.a(libuserxe_a-utf.o)
Gucs2ddmap          0x40000           ../ulib/libuserxe.a(libuserxe_a-utf22.o)
Gscrwidth           0x4               xekbchk-xekbchk.o
Gprocstatus         0x1               xekbchk-xekbchk.o
Gw95buffopt         0x4               ../ulib/libuserxe.a(libuserxe_a-uviom.o)
Gopttabaltch        0xc               xekbchk-xekbchk.o
Glinenoszb          0x1               xekbchk-xekbchk.o
Guerropt            0x1               ../ulib/libuserxe.a(libuserxe_a-uerr.o)
Gtabdispchar        0x4               xekbchk-xekbchk.o
Guviomoptstrucs     0x10              ../ulib/libuserxe.a(libuserxe_a-uviom.o)
Gkbdopt             0x4               xekbchk-xekbchk.o
Giniopt2            0x1               xekbchk-xekbchk.o
Gcalcplh1           0x4               xekbchk-xekbchk.o
Gopteolcont         0x1               xekbchk-xekbchk.o
Gkeytbl             0x4               xekbchk-xekbchk.o
Glinenoszc          0x1               xekbchk-xekbchk.o
Gparmlocalecode     0x40              xekbchk-xekbchk.o
Gunpdispchar3_after_inigetopt
                    0x1               xekbchk-xekbchk.o
Gpallette           0x10              xekbchk-xekbchk.o
Sfdpipew            0x4               ../ulib/libuserxe.a(libuserxe_a-uproc.o)

Discarded input sections

 .note.GNU-stack
                0x00000000        0x0 /usr/lib/gcc/arm-linux-gnueabihf/8/../../../arm-linux-gnueabihf/crt1.o
 .note.GNU-stack
                0x00000000        0x0 /usr/lib/gcc/arm-linux-gnueabihf/8/../../../arm-linux-gnueabihf/crti.o
 .note.GNU-stack
                0x00000000        0x0 /usr/lib/gcc/arm-linux-gnueabihf/8/crtbegin.o
 .note.GNU-stack
                0x00000000        0x0 xekbchk-xekbchk.o
 .note.GNU-stack
                0x00000000        0x0 xekbchk-xecsr.o
 .note.GNU-stack
                0x00000000        0x0 xekbchk-xeebc.o
 .note.GNU-stack
                0x00000000        0x0 xekbchk-xeerr.o
 .note.GNU-stack
                0x00000000        0x0 xekbchk-xefunc.o
 .note.GNU-stack
                0x00000000        0x0 xekbchk-xefunct.o
 .note.GNU-stack
                0x00000000        0x0 xekbchk-xefunct2.o
 .note.GNU-stack
                0x00000000        0x0 xekbchk-xegbl.o
 .note.GNU-stack
                0x00000000        0x0 xekbchk-xekbd.o
 .note.GNU-stack
                0x00000000        0x0 xekbchk-xescr.o
 .note.GNU-stack
                0x00000000        0x0 xekbchk-xescr2.o
 .note.GNU-stack
                0x00000000        0x0 xekbchk-xesub.o
 .note.GNU-stack
                0x00000000        0x0 xekbchk-xesub2.o
 .note.GNU-stack
                0x00000000        0x0 xekbchk-xeutf2.o
 .note.GNU-stack
                0x00000000        0x0 xekbchk-xeutf.o
 .note.GNU-stack
                0x00000000        0x0 ../ulib/libuserxe.a(libuserxe_a-uallocl.o)
 .note.GNU-stack
                0x00000000        0x0 ../ulib/libuserxe.a(libuserxe_a-ucvebc.o)
 .note.GNU-stack
                0x00000000        0x0 ../ulib/libuserxe.a(libuserxe_a-ucvebc2.o)
 .note.GNU-stack
                0x00000000        0x0 ../ulib/libuserxe.a(libuserxe_a-ucvebc3.o)
 .note.GNU-stack
                0x00000000        0x0 ../ulib/libuserxe.a(libuserxe_a-ucvebc32.o)
 .note.GNU-stack
                0x00000000        0x0 ../ulib/libuserxe.a(libuserxe_a-ucvebc4.o)
 .note.GNU-stack
                0x00000000        0x0 ../ulib/libuserxe.a(libuserxe_a-ucvebct.o)
 .note.GNU-stack
                0x00000000        0x0 ../ulib/libuserxe.a(libuserxe_a-ucvext.o)
 .note.GNU-stack
                0x00000000        0x0 ../ulib/libuserxe.a(libuserxe_a-ucvext12.o)
 .note.GNU-stack
                0x00000000        0x0 ../ulib/libuserxe.a(libuserxe_a-ucvext2.o)
 .note.GNU-stack
                0x00000000        0x0 ../ulib/libuserxe.a(libuserxe_a-ucvucs.o)
 .note.GNU-stack
                0x00000000        0x0 ../ulib/libuserxe.a(libuserxe_a-ucvucst.o)
 .note.GNU-stack
                0x00000000        0x0 ../ulib/libuserxe.a(libuserxe_a-udbcschk.o)
 .note.GNU-stack
                0x00000000        0x0 ../ulib/libuserxe.a(libuserxe_a-udbcsck2.o)
 .note.GNU-stack
                0x00000000        0x0 ../ulib/libuserxe.a(libuserxe_a-udos2.o)
 .note.GNU-stack
                0x00000000        0x0 ../ulib/libuserxe.a(libuserxe_a-uedit.o)
 .note.GNU-stack
                0x00000000        0x0 ../ulib/libuserxe.a(libuserxe_a-uedit2.o)
 .note.GNU-stack
                0x00000000        0x0 ../ulib/libuserxe.a(libuserxe_a-uerr.o)
 .note.GNU-stack
                0x00000000        0x0 ../ulib/libuserxe.a(libuserxe_a-ufemsg.o)
 .note.GNU-stack
                0x00000000        0x0 ../ulib/libuserxe.a(libuserxe_a-ufile.o)
 .note.GNU-stack
                0x00000000        0x0 ../ulib/libuserxe.a(libuserxe_a-ufile1f.o)
 .note.GNU-stack
                0x00000000        0x0 ../ulib/libuserxe.a(libuserxe_a-ufile1l.o)
 .note.GNU-stack
                0x00000000        0x0 ../ulib/libuserxe.a(libuserxe_a-ufile1l2.o)
 .note.GNU-stack
                0x00000000        0x0 ../ulib/libuserxe.a(libuserxe_a-ufile2.o)
 .note.GNU-stack
                0x00000000        0x0 ../ulib/libuserxe.a(libuserxe_a-ufile2f.o)
 .note.GNU-stack
                0x00000000        0x0 ../ulib/libuserxe.a(libuserxe_a-ufile2l.o)
 .note.GNU-stack
                0x00000000        0x0 ../ulib/libuserxe.a(libuserxe_a-ufile2l2.o)
 .note.GNU-stack
                0x00000000        0x0 ../ulib/libuserxe.a(libuserxe_a-ufile3.o)
 .note.GNU-stack
                0x00000000        0x0 ../ulib/libuserxe.a(libuserxe_a-ufile3f.o)
 .note.GNU-stack
                0x00000000        0x0 ../ulib/libuserxe.a(libuserxe_a-ufile4.o)
 .note.GNU-stack
                0x00000000        0x0 ../ulib/libuserxe.a(libuserxe_a-ufile5.o)
 .note.GNU-stack
                0x00000000        0x0 ../ulib/libuserxe.a(libuserxe_a-uftp.o)
 .note.GNU-stack
                0x00000000        0x0 ../ulib/libuserxe.a(libuserxe_a-uftp2.o)
 .note.GNU-stack
                0x00000000        0x0 ../ulib/libuserxe.a(libuserxe_a-uftp3.o)
 .note.GNU-stack
                0x00000000        0x0 ../ulib/libuserxe.a(libuserxe_a-ugcclib.o)
 .note.GNU-stack
                0x00000000        0x0 ../ulib/libuserxe.a(libuserxe_a-ukbdl.o)
 .note.GNU-stack
                0x00000000        0x0 ../ulib/libuserxe.a(libuserxe_a-ukbdlnxc.o)
 .note.GNU-stack
                0x00000000        0x0 ../ulib/libuserxe.a(libuserxe_a-ukbdlnxm.o)
 .note.GNU-stack
                0x00000000        0x0 ../ulib/libuserxe.a(libuserxe_a-uparse.o)
 .note.GNU-stack
                0x00000000        0x0 ../ulib/libuserxe.a(libuserxe_a-uproc.o)
 .note.GNU-stack
                0x00000000        0x0 ../ulib/libuserxe.a(libuserxe_a-uproc2.o)
 .note.GNU-stack
                0x00000000        0x0 ../ulib/libuserxe.a(libuserxe_a-uproc4.o)
 .note.GNU-stack
                0x00000000        0x0 ../ulib/libuserxe.a(libuserxe_a-uque.o)
 .note.GNU-stack
                0x00000000        0x0 ../ulib/libuserxe.a(libuserxe_a-ustrcpy.o)
 .note.GNU-stack
                0x00000000        0x0 ../ulib/libuserxe.a(libuserxe_a-ustring.o)
 .note.GNU-stack
                0x00000000        0x0 ../ulib/libuserxe.a(libuserxe_a-utf.o)
 .note.GNU-stack
                0x00000000        0x0 ../ulib/libuserxe.a(libuserxe_a-utf2.o)
 .note.GNU-stack
                0x00000000        0x0 ../ulib/libuserxe.a(libuserxe_a-utf22.o)
 .note.GNU-stack
                0x00000000        0x0 ../ulib/libuserxe.a(libuserxe_a-utf3.o)
 .note.GNU-stack
                0x00000000        0x0 ../ulib/libuserxe.a(libuserxe_a-utf4.o)
 .note.GNU-stack
                0x00000000        0x0 ../ulib/libuserxe.a(libuserxe_a-utrace.o)
 .note.GNU-stack
                0x00000000        0x0 ../ulib/libuserxe.a(libuserxe_a-uunxsub.o)
 .note.GNU-stack
                0x00000000        0x0 ../ulib/libuserxe.a(libuserxe_a-uviom.o)
 .note.GNU-stack
                0x00000000        0x0 ../ulib/libuserxe.a(libuserxe_a-uviol.o)
 .note.GNU-stack
                0x00000000        0x0 ../ulib/libuserxe.a(libuserxe_a-u3270.o)
 .note.GNU-stack
                0x00000000        0x0 ../ulib/libuserxe.a(libuserxe_a-u32702.o)
 .note.GNU-stack
                0x00000000        0x0 ../ulib/libuserxe.a(libuserxe_a-u32703.o)
 .note.GNU-stack
                0x00000000        0x0 ../ulib/libuserxe.a(libuserxe_a-uabend.o)
 .note.GNU-stack
                0x00000000        0x0 ../ulib/libuserxe.a(libuserxe_a-ucalc2.o)
 .note.GNU-stack
                0x00000000        0x0 ../ulib/libuserxe.a(libuserxe_a-uehl.o)
 .note.GNU-stack
                0x00000000        0x0 ../ulib/libuserxe.a(libuserxe_a-uproc22.o)
 .note.GNU-stack
                0x00000000        0x0 ../ulib/libuserxe.a(libuserxe_a-uproc3.o)
 .note.GNU-stack
                0x00000000        0x0 ../ulib/libuserxe.a(libuserxe_a-ucalc.o)
 .note.GNU-stack
                0x00000000        0x0 /usr/lib/gcc/arm-linux-gnueabihf/8/libgcc.a(_udivsi3.o)
 .note.GNU-stack
                0x00000000        0x0 /usr/lib/gcc/arm-linux-gnueabihf/8/libgcc.a(_divsi3.o)
 .note.GNU-stack
                0x00000000        0x0 /usr/lib/gcc/arm-linux-gnueabihf/8/libgcc.a(_aeabi_ldivmod.o)
 .note.GNU-stack
                0x00000000        0x0 /usr/lib/gcc/arm-linux-gnueabihf/8/libgcc.a(_dvmd_lnx.o)
 .note.GNU-stack
                0x00000000        0x0 /usr/lib/gcc/arm-linux-gnueabihf/8/libgcc.a(_udivmoddi4.o)
 .note.GNU-stack
                0x00000000        0x0 //usr/lib/arm-linux-gnueabihf/libc_nonshared.a(elf-init.oS)
 .note.GNU-stack
                0x00000000        0x0 //usr/lib/arm-linux-gnueabihf/libc_nonshared.a(stat64.oS)
 .note.GNU-stack
                0x00000000        0x0 //usr/lib/arm-linux-gnueabihf/libc_nonshared.a(lstat64.oS)
 .note.GNU-stack
                0x00000000        0x0 /usr/lib/gcc/arm-linux-gnueabihf/8/crtend.o
 .note.GNU-stack
                0x00000000        0x0 /usr/lib/gcc/arm-linux-gnueabihf/8/../../../arm-linux-gnueabihf/crtn.o

Memory Configuration

Name             Origin             Length             Attributes
*default*        0x00000000         0xffffffff

Linker script and memory map

LOAD /usr/lib/gcc/arm-linux-gnueabihf/8/../../../arm-linux-gnueabihf/crt1.o
LOAD /usr/lib/gcc/arm-linux-gnueabihf/8/../../../arm-linux-gnueabihf/crti.o
LOAD /usr/lib/gcc/arm-linux-gnueabihf/8/crtbegin.o
LOAD xekbchk-xekbchk.o
LOAD xekbchk-xecsr.o
LOAD xekbchk-xeebc.o
LOAD xekbchk-xeerr.o
LOAD xekbchk-xefunc.o
LOAD xekbchk-xefunct.o
LOAD xekbchk-xefunct2.o
LOAD xekbchk-xegbl.o
LOAD xekbchk-xekbd.o
LOAD xekbchk-xescr.o
LOAD xekbchk-xescr2.o
LOAD xekbchk-xesub.o
LOAD xekbchk-xesub2.o
LOAD xekbchk-xeutf2.o
LOAD xekbchk-xeutf.o
LOAD ../ulib/libuserxe.a
LOAD /usr/lib/gcc/arm-linux-gnueabihf/8/../../../arm-linux-gnueabihf/libgnomeui-2.so
LOAD /usr/lib/gcc/arm-linux-gnueabihf/8/../../../arm-linux-gnueabihf/libSM.so
LOAD /usr/lib/gcc/arm-linux-gnueabihf/8/../../../arm-linux-gnueabihf/libICE.so
LOAD /usr/lib/gcc/arm-linux-gnueabihf/8/../../../arm-linux-gnueabihf/libbonoboui-2.so
LOAD /usr/lib/gcc/arm-linux-gnueabihf/8/../../../arm-linux-gnueabihf/libgnome-2.so
LOAD /usr/lib/gcc/arm-linux-gnueabihf/8/../../../arm-linux-gnueabihf/libpopt.so
LOAD /usr/lib/gcc/arm-linux-gnueabihf/8/../../../arm-linux-gnueabihf/libbonobo-2.so
LOAD /usr/lib/gcc/arm-linux-gnueabihf/8/../../../arm-linux-gnueabihf/libbonobo-activation.so
LOAD /usr/lib/gcc/arm-linux-gnueabihf/8/../../../arm-linux-gnueabihf/libORBit-2.so
LOAD /usr/lib/gcc/arm-linux-gnueabihf/8/../../../arm-linux-gnueabihf/libgnomecanvas-2.so
LOAD /usr/lib/gcc/arm-linux-gnueabihf/8/../../../arm-linux-gnueabihf/libart_lgpl_2.so
LOAD /usr/lib/gcc/arm-linux-gnueabihf/8/../../../arm-linux-gnueabihf/libgnomevfs-2.so
LOAD /usr/lib/gcc/arm-linux-gnueabihf/8/../../../arm-linux-gnueabihf/libgconf-2.so
LOAD /usr/lib/gcc/arm-linux-gnueabihf/8/../../../arm-linux-gnueabihf/libgthread-2.0.so
LOAD /usr/lib/gcc/arm-linux-gnueabihf/8/../../../arm-linux-gnueabihf/libgmodule-2.0.so
LOAD /usr/lib/gcc/arm-linux-gnueabihf/8/../../../arm-linux-gnueabihf/libgtk-x11-2.0.so
LOAD /usr/lib/gcc/arm-linux-gnueabihf/8/../../../arm-linux-gnueabihf/libgdk-x11-2.0.so
LOAD /usr/lib/gcc/arm-linux-gnueabihf/8/../../../arm-linux-gnueabihf/libpangocairo-1.0.so
LOAD /usr/lib/gcc/arm-linux-gnueabihf/8/../../../arm-linux-gnueabihf/libatk-1.0.so
LOAD /usr/lib/gcc/arm-linux-gnueabihf/8/../../../arm-linux-gnueabihf/libcairo.so
LOAD /usr/lib/gcc/arm-linux-gnueabihf/8/../../../arm-linux-gnueabihf/libgdk_pixbuf-2.0.so
LOAD /usr/lib/gcc/arm-linux-gnueabihf/8/../../../arm-linux-gnueabihf/libgio-2.0.so
LOAD /usr/lib/gcc/arm-linux-gnueabihf/8/../../../arm-linux-gnueabihf/libpangoft2-1.0.so
LOAD /usr/lib/gcc/arm-linux-gnueabihf/8/../../../arm-linux-gnueabihf/libpango-1.0.so
LOAD /usr/lib/gcc/arm-linux-gnueabihf/8/../../../arm-linux-gnueabihf/libgobject-2.0.so
LOAD /usr/lib/gcc/arm-linux-gnueabihf/8/../../../arm-linux-gnueabihf/libglib-2.0.so
LOAD /usr/lib/gcc/arm-linux-gnueabihf/8/../../../arm-linux-gnueabihf/libfontconfig.so
LOAD /usr/lib/gcc/arm-linux-gnueabihf/8/../../../arm-linux-gnueabihf/libfreetype.so
LOAD /usr/lib/gcc/arm-linux-gnueabihf/8/../../../arm-linux-gnueabihf/libdl.so
LOAD /usr/lib/gcc/arm-linux-gnueabihf/8/../../../arm-linux-gnueabihf/libncursesw.so
LOAD /lib/arm-linux-gnueabihf/libncursesw.so.6
LOAD /usr/lib/gcc/arm-linux-gnueabihf/8/../../../arm-linux-gnueabihf/libtinfo.so
LOAD /usr/lib/gcc/arm-linux-gnueabihf/8/../../../arm-linux-gnueabihf/libncursesw.so
LOAD /lib/arm-linux-gnueabihf/libncursesw.so.6
LOAD /usr/lib/gcc/arm-linux-gnueabihf/8/../../../arm-linux-gnueabihf/libtinfo.so
LOAD /usr/lib/gcc/arm-linux-gnueabihf/8/../../../arm-linux-gnueabihf/libcups.so
LOAD /usr/lib/gcc/arm-linux-gnueabihf/8/libgcc.a
LOAD /usr/lib/gcc/arm-linux-gnueabihf/8/libgcc_s.so
START GROUP
LOAD /usr/lib/gcc/arm-linux-gnueabihf/8/libgcc_s.so.1
LOAD /usr/lib/gcc/arm-linux-gnueabihf/8/libgcc.a
END GROUP
LOAD /usr/lib/gcc/arm-linux-gnueabihf/8/../../../arm-linux-gnueabihf/libpthread.so
LOAD /usr/lib/gcc/arm-linux-gnueabihf/8/../../../arm-linux-gnueabihf/libc.so
START GROUP
LOAD //lib/arm-linux-gnueabihf/libc.so.6
LOAD //usr/lib/arm-linux-gnueabihf/libc_nonshared.a
LOAD //lib/arm-linux-gnueabihf/ld-linux-armhf.so.3
END GROUP
LOAD /usr/lib/gcc/arm-linux-gnueabihf/8/libgcc.a
LOAD /usr/lib/gcc/arm-linux-gnueabihf/8/libgcc_s.so
START GROUP
LOAD /usr/lib/gcc/arm-linux-gnueabihf/8/libgcc_s.so.1
LOAD /usr/lib/gcc/arm-linux-gnueabihf/8/libgcc.a
END GROUP
LOAD /usr/lib/gcc/arm-linux-gnueabihf/8/crtend.o
LOAD /usr/lib/gcc/arm-linux-gnueabihf/8/../../../arm-linux-gnueabihf/crtn.o
                [!provide]                PROVIDE (__executable_start = SEGMENT_START ("text-segment", 0x10000))
                0x00010154                . = (SEGMENT_START ("text-segment", 0x10000) + SIZEOF_HEADERS)

.interp         0x00010154       0x19
 *(.interp)
 .interp        0x00010154       0x19 /usr/lib/gcc/arm-linux-gnueabihf/8/../../../arm-linux-gnueabihf/crt1.o

.note.ABI-tag   0x00010170       0x20
 .note.ABI-tag  0x00010170       0x20 /usr/lib/gcc/arm-linux-gnueabihf/8/../../../arm-linux-gnueabihf/crt1.o

.note.gnu.build-id
                0x00010190       0x24
 *(.note.gnu.build-id)
 .note.gnu.build-id
                0x00010190       0x24 linker stubs

.hash
 *(.hash)

.gnu.hash       0x000101b4      0x738
 *(.gnu.hash)
 .gnu.hash      0x000101b4      0x738 /usr/lib/gcc/arm-linux-gnueabihf/8/../../../arm-linux-gnueabihf/crt1.o

.dynsym         0x000108ec      0xc90
 *(.dynsym)
 .dynsym        0x000108ec      0xc90 /usr/lib/gcc/arm-linux-gnueabihf/8/../../../arm-linux-gnueabihf/crt1.o

.dynstr         0x0001157c      0x9b5
 *(.dynstr)
 .dynstr        0x0001157c      0x9b5 /usr/lib/gcc/arm-linux-gnueabihf/8/../../../arm-linux-gnueabihf/crt1.o

.gnu.version    0x00011f32      0x192
 *(.gnu.version)
 .gnu.version   0x00011f32      0x192 /usr/lib/gcc/arm-linux-gnueabihf/8/../../../arm-linux-gnueabihf/crt1.o

.gnu.version_d  0x000120c4        0x0
 *(.gnu.version_d)
 .gnu.version_d
                0x000120c4        0x0 /usr/lib/gcc/arm-linux-gnueabihf/8/../../../arm-linux-gnueabihf/crt1.o

.gnu.version_r  0x000120c4       0xc0
 *(.gnu.version_r)
 .gnu.version_r
                0x000120c4       0xc0 /usr/lib/gcc/arm-linux-gnueabihf/8/../../../arm-linux-gnueabihf/crt1.o

.rel.dyn        0x00012184       0x60
 *(.rel.init)
 *(.rel.text .rel.text.* .rel.gnu.linkonce.t.*)
 *(.rel.fini)
 *(.rel.rodata .rel.rodata.* .rel.gnu.linkonce.r.*)
 *(.rel.data.rel.ro .rel.data.rel.ro.* .rel.gnu.linkonce.d.rel.ro.*)
 .rel.data.rel.ro
                0x00012184        0x0 /usr/lib/gcc/arm-linux-gnueabihf/8/../../../arm-linux-gnueabihf/crt1.o
 *(.rel.data .rel.data.* .rel.gnu.linkonce.d.*)
 *(.rel.tdata .rel.tdata.* .rel.gnu.linkonce.td.*)
 *(.rel.tbss .rel.tbss.* .rel.gnu.linkonce.tb.*)
 *(.rel.ctors)
 *(.rel.dtors)
 *(.rel.got)
 .rel.got       0x00012184        0x8 /usr/lib/gcc/arm-linux-gnueabihf/8/../../../arm-linux-gnueabihf/crt1.o
 *(.rel.bss .rel.bss.* .rel.gnu.linkonce.b.*)
 .rel.bss       0x0001218c       0x58 /usr/lib/gcc/arm-linux-gnueabihf/8/../../../arm-linux-gnueabihf/crt1.o
                [!provide]                PROVIDE (__rel_iplt_start = .)
 *(.rel.iplt)
 .rel.iplt      0x000121e4        0x0 /usr/lib/gcc/arm-linux-gnueabihf/8/../../../arm-linux-gnueabihf/crt1.o
                [!provide]                PROVIDE (__rel_iplt_end = .)

.rela.dyn       0x000121e4        0x0
 *(.rela.init)
 *(.rela.text .rela.text.* .rela.gnu.linkonce.t.*)
 *(.rela.fini)
 *(.rela.rodata .rela.rodata.* .rela.gnu.linkonce.r.*)
 *(.rela.data .rela.data.* .rela.gnu.linkonce.d.*)
 *(.rela.tdata .rela.tdata.* .rela.gnu.linkonce.td.*)
 *(.rela.tbss .rela.tbss.* .rela.gnu.linkonce.tb.*)
 *(.rela.ctors)
 *(.rela.dtors)
 *(.rela.got)
 *(.rela.bss .rela.bss.* .rela.gnu.linkonce.b.*)
                [!provide]                PROVIDE (__rela_iplt_start = .)
 *(.rela.iplt)
                [!provide]                PROVIDE (__rela_iplt_end = .)

.rel.plt        0x000121e4      0x5a0
 *(.rel.plt)
 .rel.plt       0x000121e4      0x5a0 /usr/lib/gcc/arm-linux-gnueabihf/8/../../../arm-linux-gnueabihf/crt1.o

.rela.plt
 *(.rela.plt)

.init           0x00012784        0xc
 *(SORT_NONE(.init))
 .init          0x00012784        0x8 /usr/lib/gcc/arm-linux-gnueabihf/8/../../../arm-linux-gnueabihf/crti.o
                0x00012784                _init
 .init          0x0001278c        0x4 /usr/lib/gcc/arm-linux-gnueabihf/8/../../../arm-linux-gnueabihf/crtn.o

.plt            0x00012790      0x884
 *(.plt)
 .plt           0x00012790      0x884 /usr/lib/gcc/arm-linux-gnueabihf/8/../../../arm-linux-gnueabihf/crt1.o
                0x000127a4                gethostname@@GLIBC_2.4
                0x000127b0                getuid@@GLIBC_2.4
                0x000127bc                fopen64@@GLIBC_2.4
                0x000127c8                endwin@@NCURSESW6_5.1.20000708
                0x000127d4                fwrite@@GLIBC_2.4
                0x000127e0                mbrtowc@@GLIBC_2.4
                0x000127ec                toupper@@GLIBC_2.4
                0x000127f8                __isoc99_sscanf@@GLIBC_2.7
                0x00012804                fprintf@@GLIBC_2.4
                0x00012810                waddnstr@@NCURSESW6_5.1.20000708
                0x0001281c                strstr@@GLIBC_2.4
                0x00012828                isatty@@GLIBC_2.4
                0x00012834                getppid@@GLIBC_2.4
                0x00012840                wbkgdset@@NCURSESW6_5.1.20000708
                0x0001284c                execvp@@GLIBC_2.4
                0x00012858                write@@GLIBC_2.4
                0x00012864                wctomb@@GLIBC_2.4
                0x00012870                can_change_color@@NCURSESW6_5.1.20000708
                0x0001287c                opendir@@GLIBC_2.4
                0x00012888                printf@@GLIBC_2.4
                0x00012894                gnome_vfs_mime_get_default_application
                0x000128a0                bsearch@@GLIBC_2.4
                0x000128ac                fclose@@GLIBC_2.4
                0x000128b8                atoll@@GLIBC_2.4
                0x000128c4                qsort@@GLIBC_2.4
                0x000128d0                getgid@@GLIBC_2.4
                0x000128dc                wclear@@NCURSESW6_5.1.20000708
                0x000128e8                __ctype_b_loc@@GLIBC_2.4
                0x000128f4                strnlen@@GLIBC_2.4
                0x00012900                nonl@@NCURSESW6_5.1.20000708
                0x0001290c                getmntent@@GLIBC_2.4
                0x00012918                iconv@@GLIBC_2.4
                0x00012924                fputc@@GLIBC_2.4
                0x00012930                dlclose@@GLIBC_2.4
                0x0001293c                beep@@NCURSESW6_5.1.20000708
                0x00012948                __xstat64@@GLIBC_2.4
                0x00012954                chown@@GLIBC_2.4
                0x00012960                strpbrk@@GLIBC_2.4
                0x0001296c                fseek@@GLIBC_2.4
                0x00012978                strerror@@GLIBC_2.4
                0x00012984                color_content@@NCURSESW6_5.1.20000708
                0x00012990                tolower@@GLIBC_2.4
                0x0001299c                putchar@@GLIBC_2.4
                0x000129a8                has_colors@@NCURSESW6_5.1.20000708
                0x000129b4                puts@@GLIBC_2.4
                0x000129c0                init_pair@@NCURSESW6_5.1.20000708
                0x000129cc                __libc_start_main@@GLIBC_2.4
                0x000129e4                setupterm@@NCURSES6_TINFO_5.0.19991023
                0x000129f0                strchr@@GLIBC_2.4
                0x000129fc                __errno_location@@GLIBC_2.4
                0x00012a08                keypad@@NCURSES6_TINFO_5.0.19991023
                0x00012a14                lutimes@@GLIBC_2.4
                0x00012a20                atol@@GLIBC_2.4
                0x00012a2c                ftello64@@GLIBC_2.4
                0x00012a38                tcsetattr@@GLIBC_2.4
                0x00012a44                curs_set@@NCURSES6_TINFO_5.0.19991023
                0x00012a50                symlink@@GLIBC_2.4
                0x00012a5c                setenv@@GLIBC_2.4
                0x00012a68                mkdir@@GLIBC_2.4
                0x00012a74                pthread_mutex_lock@@GLIBC_2.4
                0x00012a80                pipe@@GLIBC_2.4
                0x00012a8c                noecho@@NCURSESW6_5.1.20000708
                0x00012a98                gnome_vfs_get_mime_type
                0x00012aa4                waddchnstr@@NCURSESW6_5.1.20000708
                0x00012ab0                pthread_cond_wait@@GLIBC_2.4
                0x00012abc                free@@GLIBC_2.4
                0x00012ac8                iconv_close@@GLIBC_2.4
                0x00012ad4                wcwidth@@GLIBC_2.4
                0x00012ae0                close@@GLIBC_2.4
                0x00012aec                clearok@@NCURSESW6_5.1.20000708
                0x00012af8                memcpy@@GLIBC_2.4
                0x00012b04                wcstombs@@GLIBC_2.4
                0x00012b10                iconv_open@@GLIBC_2.4
                0x00012b1c                memmove@@GLIBC_2.4
                0x00012b28                strncpy@@GLIBC_2.4
                0x00012b34                winchnstr@@NCURSESW6_5.1.20000708
                0x00012b40                win_wchnstr@@NCURSESW6_5.3.20021019
                0x00012b4c                access@@GLIBC_2.4
                0x00012b58                unlink@@GLIBC_2.4
                0x00012b64                ferror@@GLIBC_2.4
                0x00012b70                strcpy@@GLIBC_2.4
                0x00012b7c                execv@@GLIBC_2.4
                0x00012b88                raise@@GLIBC_2.4
                0x00012b94                getgrgid@@GLIBC_2.4
                0x00012ba0                start_color@@NCURSESW6_5.1.20000708
                0x00012bac                atoi@@GLIBC_2.4
                0x00012bb8                dlsym@@GLIBC_2.4
                0x00012bc4                ftime@@GLIBC_2.4
                0x00012bd0                fork@@GLIBC_2.4
                0x00012bdc                signal@@GLIBC_2.4
                0x00012be8                gettimeofday@@GLIBC_2.4
                0x00012bf4                getpwuid@@GLIBC_2.4
                0x00012c00                system@@GLIBC_2.4
                0x00012c0c                malloc@@GLIBC_2.4
                0x00012c18                localtime@@GLIBC_2.4
                0x00012c24                getcwd@@GLIBC_2.4
                0x00012c30                tcgetattr@@GLIBC_2.4
                0x00012c3c                pthread_cond_init@@GLIBC_2.4
                0x00012c48                kill@@GLIBC_2.4
                0x00012c54                strdup@@GLIBC_2.4
                0x00012c60                strlen@@GLIBC_2.4
                0x00012c6c                pthread_mutex_destroy@@GLIBC_2.4
                0x00012c78                chdir@@GLIBC_2.4
                0x00012c84                chmod@@GLIBC_2.4
                0x00012c90                mktime@@GLIBC_2.4
                0x00012c9c                wadd_wchnstr@@NCURSESW6_5.3.20021019
                0x00012ca8                closedir@@GLIBC_2.4
                0x00012cb4                getpid@@GLIBC_2.4
                0x00012cc0                winnstr@@NCURSESW6_5.1.20000708
                0x00012ccc                __lxstat64@@GLIBC_2.4
                0x00012cd8                select@@GLIBC_2.4
                0x00012ce4                readlink@@GLIBC_2.4
                0x00012cf0                iswalpha@@GLIBC_2.4
                0x00012cfc                fseeko64@@GLIBC_2.4
                0x00012d08                dup@@GLIBC_2.4
                0x00012d14                sprintf@@GLIBC_2.4
                0x00012d20                snprintf@@GLIBC_2.4
                0x00012d2c                fflush@@GLIBC_2.4
                0x00012d38                mbtowc@@GLIBC_2.4
                0x00012d44                curses_version@@NCURSES6_TINFO_5.0.19991023
                0x00012d50                perror@@GLIBC_2.4
                0x00012d5c                setlocale@@GLIBC_2.4
                0x00012d68                vfprintf@@GLIBC_2.4
                0x00012d74                mousemask@@NCURSESW6_5.1.20000708
                0x00012d80                gnome_vfs_mime_application_free
                0x00012d8c                strcmp@@GLIBC_2.4
                0x00012d98                initscr@@NCURSESW6_5.1.20000708
                0x00012da4                memcmp@@GLIBC_2.4
                0x00012db0                memset@@GLIBC_2.4
                0x00012dbc                wrefresh@@NCURSESW6_5.1.20000708
                0x00012dc8                getenv@@GLIBC_2.4
                0x00012dd4                rename@@GLIBC_2.4
                0x00012de0                flock@@GLIBC_2.4
                0x00012dec                mkfifo@@GLIBC_2.4
                0x00012df8                time@@GLIBC_2.4
                0x00012e04                meta@@NCURSES6_TINFO_5.0.19991023
                0x00012e10                wait@@GLIBC_2.4
                0x00012e1c                statfs64@@GLIBC_2.4
                0x00012e28                pthread_cond_broadcast@@GLIBC_2.4
                0x00012e34                fread@@GLIBC_2.4
                0x00012e40                gnome_vfs_init
                0x00012e4c                pthread_create@@GLIBC_2.4
                0x00012e58                strcat@@GLIBC_2.4
                0x00012e64                abort@@GLIBC_2.4
                0x00012e70                init_color@@NCURSESW6_5.1.20000708
                0x00012e7c                gnome_vfs_get_uri_from_local_path
                0x00012e88                waitpid@@GLIBC_2.4
                0x00012e94                gnome_vfs_get_file_info
                0x00012ea0                pthread_cond_timedwait@@GLIBC_2.4
                0x00012eac                exit@@GLIBC_2.4
                0x00012eb8                calloc@@GLIBC_2.4
                0x00012ec4                setmntent@@GLIBC_2.4
                0x00012ed0                rmdir@@GLIBC_2.4
                0x00012edc                strrchr@@GLIBC_2.4
                0x00012ee8                wmove@@NCURSESW6_5.1.20000708
                0x00012ef4                dup2@@GLIBC_2.4
                0x00012f00                getmntent_r@@GLIBC_2.4
                0x00012f0c                fgets@@GLIBC_2.4
                0x00012f18                raw@@NCURSES6_TINFO_5.0.19991023
                0x00012f24                utimes@@GLIBC_2.4
                0x00012f30                endmntent@@GLIBC_2.4
                0x00012f3c                memchr@@GLIBC_2.4
                0x00012f48                read@@GLIBC_2.4
                0x00012f54                readdir64@@GLIBC_2.4
                0x00012f60                pthread_mutex_unlock@@GLIBC_2.4
                0x00012f6c                wcrtomb@@GLIBC_2.4
                0x00012f78                nl_langinfo@@GLIBC_2.4
                0x00012f84                pthread_mutex_init@@GLIBC_2.4
                0x00012f90                fileno@@GLIBC_2.4
                0x00012f9c                mkstemp64@@GLIBC_2.4
                0x00012fa8                strspn@@GLIBC_2.4
                0x00012fb4                open64@@GLIBC_2.4
                0x00012fc0                ioctl@@GLIBC_2.4
                0x00012fcc                fputs@@GLIBC_2.4
                0x00012fd8                nanosleep@@GLIBC_2.4
                0x00012fe4                iswprint@@GLIBC_2.4
                0x00012ff0                putenv@@GLIBC_2.4
                0x00012ffc                ttyname@@GLIBC_2.4
                0x00013008                dlopen@@GLIBC_2.4

.iplt           0x00013014        0x0
 *(.iplt)
 .iplt          0x00013014        0x0 /usr/lib/gcc/arm-linux-gnueabihf/8/../../../arm-linux-gnueabihf/crt1.o

.text           0x00013018    0xe1cf0
 *(.text.unlikely .text.*_unlikely .text.unlikely.*)
 *(.text.exit .text.exit.*)
 *(.text.startup .text.startup.*)
 *(.text.hot .text.hot.*)
 *(.text .stub .text.* .gnu.linkonce.t.*)
 .text          0x00013018       0x3c /usr/lib/gcc/arm-linux-gnueabihf/8/../../../arm-linux-gnueabihf/crt1.o
                0x00013018                _start
 .text          0x00013054       0x24 /usr/lib/gcc/arm-linux-gnueabihf/8/../../../arm-linux-gnueabihf/crti.o
 .text          0x00013078       0x90 /usr/lib/gcc/arm-linux-gnueabihf/8/crtbegin.o
 .text          0x00013108     0x6428 xekbchk-xekbchk.o
                0x00013108                helpmsg
                0x000131f8                main
                0x00013754                xekbchk_main
                0x00013938                xekbchk_kbdproc
                0x00013dd4                xekbchk_showkey
                0x00014a08                xekbchk_showmouse
                0x00014d3c                getshiftid
                0x00014ecc                printline
                0x00014fcc                xekbchk_printstring
                0x000154fc                xekbchk_ckprint
                0x00016e0c                ckprintsub
                0x00016f44                func_nexttab_file
                0x00016f68                func_prevtab_file
                0x00016f8c                func_bs_pan
                0x00016fb0                func_bs_file
                0x00016fd4                func_del_pan
                0x00016ff8                func_del_file
                0x0001701c                func_lineup_file
                0x00017040                func_linedown_file
                0x00017064                func_pgup_file
                0x00017088                func_pgup_pan
                0x000170ac                func_pgdown_file
                0x000170d0                func_pgdown_pan
                0x000170f4                func_pgleft_file
                0x00017118                func_pgright_file
                0x0001713c                func_pgtop_pan
                0x00017160                func_pgend_pan
                0x00017184                func_exec_pan
                0x000171a8                func_exec_file
                0x000171cc                func_exec_dir
                0x000171f0                func_linetop_pan
                0x00017214                func_linetop_file
                0x00017238                func_linetop_dir
                0x0001725c                func_lineend_pan
                0x00017280                func_lineend_file
                0x000172a4                func_lineend_dir
                0x000172c8                func_filetop_file
                0x000172ec                func_fileend_file
                0x00017310                func_nextvalue_pan
                0x00017334                func_prevvalue_pan
                0x00017358                func_dlcmdcut_dir
                0x0001737c                func_dlcmdpaste_dir
                0x000173a0                func_dlcmdchngsz_dir
                0x000173c4                func_dlcmduidorsz_dir
                0x000173e8                func_dlcmdlfn_dir
                0x0001740c                func_splitline_file
                0x00017430                func_join_file
                0x00017454                func_insline_file
                0x00017478                func_delline_file
                0x0001749c                func_eraseeol_pan
                0x000174c0                func_eraseeol_file
                0x000174e4                func_erasetol_pan
                0x00017508                func_erasetol_file
                0x0001752c                func_cleartol_pan
                0x00017550                func_cleartol_file
                0x00017574                func_help
                0x00017598                func_save_file
                0x000175bc                func_quit
                0x000175e0                func_exit
                0x00017604                func_term
                0x00017628                func_end_pan
                0x0001764c                func_end_file
                0x00017670                func_end_dir
                0x00017694                func_find_file
                0x000176b8                func_ifind_file
                0x000176dc                func_rfind_file
                0x00017700                func_revrfind_file
                0x00017724                func_change_file
                0x00017748                func_rchange_file
                0x0001776c                func_revrchange_file
                0x00017790                func_cancel_file
                0x000177b4                func_cancel_pan
                0x000177d8                func_cancel_dir
                0x000177fc                func_create_file
                0x00017820                func_edit_file
                0x00017844                func_edittext_file
                0x00017868                func_editbin_file
                0x0001788c                func_editspf_file
                0x000178b0                func_editspfcob_file
                0x000178d4                func_editspfcobnum_file
                0x000178f8                func_editspfcob2_file
                0x0001791c                func_editspfcob2num_file
                0x00017940                func_editf80_file
                0x00017964                func_browse_file
                0x00017988                func_browsetext_file
                0x000179ac                func_browsebin_file
                0x000179d0                func_browsespf_file
                0x000179f4                func_browsespfcob_file
                0x00017a18                func_browsespfcobnum_file
                0x00017a3c                func_browsespfcob2_file
                0x00017a60                func_browsespfcob2num_file
                0x00017a84                func_browsef80_file
                0x00017aa8                func_select
                0x00017acc                func_selecttext
                0x00017af0                func_selectbin
                0x00017b14                func_selectspf
                0x00017b38                func_selectspfcob
                0x00017b5c                func_selectspfcobnum
                0x00017b80                func_selectspfcob2
                0x00017ba4                func_selectspfcob2num
                0x00017bc8                func_selectf80
                0x00017bec                func_retrieveprev
                0x00017c10                func_retrieveprevscr
                0x00017c34                func_retrievenext
                0x00017c58                func_retrievenextscr
                0x00017c7c                func_undo_file
                0x00017ca0                func_redo_file
                0x00017cc4                func_repline_file
                0x00017ce8                func_dos
                0x00017d0c                func_locate_file
                0x00017d30                func_locate_dir
                0x00017d54                func_copy_file
                0x00017d78                func_repl_file
                0x00017d9c                func_hex_file
                0x00017dc0                func_tabctr_file
                0x00017de4                func_reset
                0x00017e08                func_char
                0x00017e2c                func_char_pan
                0x00017e50                func_char_file
                0x00017e74                func_block_file
                0x00017e98                func_copytocb_file
                0x00017ebc                func_lmark_file
                0x00017ee0                func_blockrep_file
                0x00017f04                func_blockrep_pan
                0x00017f28                func_blockdel_file
                0x00017f4c                func_blockins_file
                0x00017f70                func_blockins_pan
                0x00017f94                func_blockclear_file
                0x00017fb8                func_blockcutmove_file
                0x00017fdc                func_blockclearmove_file
                0x00018000                func_stdcpregion_file
                0x00018024                func_stdcppaste_file
                0x00018048                func_stdcppaste_pan
                0x0001806c                func_lineexclude_file
                0x00018090                func_lineinclude_file
                0x000180b4                func_cid
                0x000180d8                func_setscroll
                0x000180fc                func_ini
                0x00018120                func_opt
                0x00018144                func_number
                0x00018168                func_draw_pan
                0x0001818c                func_draw_file
                0x000181b0                func_draw_dir
                0x000181d4                func_version
                0x000181f8                func_drop_file
                0x0001821c                func_exclude_file
                0x00018240                func_iexclude_file
                0x00018264                func_xx_file
                0x00018288                func_append_file
                0x000182ac                func_key
                0x000182d0                func_submit
                0x000182f4                func_hexinput
                0x00018318                func_findnx_file
                0x0001833c                func_ifindnx_file
                0x00018360                func_changenx_file
                0x00018384                func_sort
                0x000183a8                func_sort_dir
                0x000183cc                func_col
                0x000183f0                func_dlcmdrefresh
                0x00018414                func_bc
                0x00018438                func_tc
                0x0001845c                func_ppsrch
                0x00018480                func_ppsrchnx
                0x000184a4                func_browsehex_file
                0x000184c8                func_edithex_file
                0x000184ec                func_selecthex_file
                0x00018510                func_cmdrepeat
                0x00018534                func_dbcsconv
                0x00018558                func_renum
                0x0001857c                func_rotate
                0x000185a0                func_copyword
                0x000185c4                func_pathup
                0x000185e8                func_pathdown
                0x0001860c                func_execmdfile
                0x00018630                func_rsh
                0x00018654                func_desc_dir
                0x00018678                func_openwith
                0x0001869c                dcmd_xdelete
                0x000186c0                dcmd_xcopy
                0x000186e4                dcmd_xmove
                0x00018708                dcmd_append
                0x0001872c                dcmd_rename
                0x00018750                func_capslock
                0x00018774                func_tso
                0x00018798                func_ichange_file
                0x000187bc                func_ichangenx_file
                0x000187e0                func_bnds
                0x00018804                func_tflow
                0x00018828                func_rfind_pan
                0x0001884c                func_sendins_dir
                0x00018870                func_sendins_pan
                0x00018894                func_sendrep_dir
                0x000188b8                func_sendrep_pan
                0x000188dc                func_senddel_dir
                0x00018900                func_sendup_dir
                0x00018924                func_senddown_dir
                0x00018948                func_find_pan
                0x0001896c                func_ifind_pan
                0x00018990                func_revrfind_pan
                0x000189b4                func_jumpcharhex_file
                0x000189d8                func_findwordF_file
                0x000189fc                func_findwordB_file
                0x00018a20                func_ifindwordF_file
                0x00018a44                func_ifindwordB_file
                0x00018a68                func_copywordcmd_file
                0x00018a8c                func_syntax
                0x00018ab0                func_cut_file
                0x00018ad4                func_paste_file
                0x00018af8                func_profile
                0x00018b1c                func_tsohotkey
                0x00018b40                func_3270kbd
                0x00018b64                func_mode
                0x00018b88                func_optcombine
                0x00018bac                func_optligature
                0x00018bd0                func_ebc
                0x00018bf4                func_node
                0x00018c18                func_cmdhistu8
                0x00018c3c                funcfreecmdstack
                0x00018c54                panfunc000optchk
                0x00018c80                mousel_btnproc
                0x00018ca4                mousel_funcsrch
                0x00018cd4                func_shortpath
                0x00018cf8                funcsetlongcmd
                0x00018d28                funcgetlongcmd
                0x00018d50                funccmdstack
                0x00018d7c                panwakeup
                0x00018da0                panregist
                0x00018dc4                panlinetopfld
                0x00018de8                filewakeup
                0x00018e0c                filegetcidtbl
                0x00018e28                filesetassign
                0x00018e5c                ini2term
                0x00018e74                optsetdisplayeolid
                0x00018e8c                optsetdisplayeolcontid
                0x00018ea4                filepguphalf
                0x00018ec8                filepgdownhalf
                0x00018eec                filepglefthalf
                0x00018f10                filepgrighthalf
                0x00018f34                filesetupalct
                0x00018f50                filesrchalct
                0x00018f78                file7term
                0x00018f90                dirwakeup
                0x00018fb4                getdisplayline
                0x00018fe0                xetsofilefullpath2ndedit
                0x0001900c                xetsofilefullpath2
                0x0001903c                xetsogetpathlen
                0x00019068                xeftpgetremotecopy
                0x00019098                xetsosetftpparm
                0x000190c8                xetsosetup3270keymap
                0x000190e4                xetsois3270key
                0x00019110                dcmdfullpath
                0x0001913c                funcgetlongcmd_byutf8
                0x00019168                pan300getfldpos_utf8
                0x00019198                pan300setflddata_utf8
                0x000191c8                pancompsetflddata_utf8
                0x000191f8                pangrepsetflddata_utf8
                0x00019228                pancompgetfldpos_utf8
                0x00019258                pangrepgetfldpos_utf8
                0x00019288                chartabclear
                0x000192ac                pan300stackchkcmdbuff
                0x000192d4                pan300stacksetctfromcmdbuffsub
                0x00019304                filechktabdbcs
                0x00019328                filecharhexinput_v
                0x00019358                fcmdsearchoncmdbuff
                0x00019388                fcmd_savelcctforerrmsg
                0x000193b8                cmdlinepos2offs
                0x000193e8                fsubw_setdbcstblDD
                0x00019418                fcmd2term
                0x00019430                func_findPSP
                0x00019454                func_findPSF
                0x00019478                func_displayPS
                0x0001949c                func_revfindPSP
                0x000194c0                func_revfindPSF
                0x000194e4                func_xmlsrch
                0x00019508                funcsp_search
 .text          0x00019530     0x32d8 xekbchk-xecsr.o
                0x00019530                csrinit
                0x00019694                csrterm
                0x000196b0                csrwrite
                0x00019728                csrforcewritereq
                0x00019764                csrsetdbcstbl
                0x00019930                csrsetdbcstbl2
                0x000199c8                csrresetobdbcs
                0x00019aa8                csrcleardbcstbl
                0x00019b0c                csrchangetype
                0x00019b84                csrsetwait
                0x00019bf8                csrhomepos
                0x00019d94                csrtopleft
                0x00019dd4                csrlastpos
                0x00019eec                csronthefld
                0x0001a000                csronthefldchk
                0x0001a108                csrfldchksub
                0x0001a1e4                csrrestore
                0x0001a25c                csrloctogbl
                0x0001a2d8                func_up
                0x0001a690                func_down
                0x0001aab8                csrchardown
                0x0001aaf4                func_left
                0x0001aec4                func_right
                0x0001b260                csrcharright
                0x0001b29c                prevposchk
                0x0001b960                func_home
                0x0001ba14                func_nextline
                0x0001bca0                func_prevline
                0x0001be70                csrnexttaboftheline
                0x0001beb8                func_nexttab_pan
                0x0001c0dc                func_prevtab_pan
                0x0001c24c                srchprevfld
                0x0001c3a0                func_csrstep
                0x0001c534                func_pos_pan
 .text          0x0001c808     0x61d4 xekbchk-xeebc.o
                0x0001c808                xeebc_init
                0x0001cb0c                xeebc_term
                0x0001cb50                xeebc_ucs2ebc1
                0x0001cbcc                xeebc_m2b1
                0x0001cc5c                xeebc_ascii2b
                0x0001cd8c                xeebc_m2ddebc
                0x0001cf70                xeebc_m2bsrchstr
                0x0001d124                xeebc_dropsosi
                0x0001d280                xeebc_f2bsetdbcs
                0x0001d3e4                xeebc_m2bsetdbcs
                0x0001d6f0                xeebc_b2ddtab
                0x0001d9fc                xeebc_b2mgetiblen
                0x0001dc24                xeebc_b2mdbcschk
                0x0001dd78                xeebc_b2mpsd
                0x0001def8                xeebc_b2msetdbcs
                0x0001e3e0                xeebc_b2b
                0x0001e5d8                xeebc_b2fl
                0x0001e77c                xeebc_b2f
                0x0001e874                xeebc_f2b
                0x0001e960                xeebc_linechk
                0x0001e9dc                xeebc_setdbcstblplh
                0x0001eb88                xeebc_b2syn
                0x0001ed50                xeebc_setdbcstbl
                0x0001ee28                xeebc_chargetkbd
                0x0001f220                xeebc_filesetsosi
                0x0001f928                xeebc_getdbcssplitctr
                0x0001fc50                xeebc_cvdatawb
                0x0001fe68                xeebc_modechng
                0x0002009c                xeebc_umemmem_bandl
                0x00020170                xeebc_cvmemcmp
                0x00020844                xeebc_cvmemcmpb2b
                0x000209fc                xeebc_createhandle
                0x00020acc                xeebc_filesetsosiplhupdate
                0x00020cf0                xeebc_filesetsosiplh
                0x00020fa0                xeebc_filesetsosibnds
                0x00021764                xeebc_setdbcssplitsetsosiR
                0x00021a20                xeebc_setdbcssplitsetsosiL
                0x00021d2c                xeebc_getdbcssplitctrL
                0x00021f50                xeebc_setdbcssplitsetsosi
                0x0002201c                xeebc_setdbcssplitsetsosiOB
                0x000221a4                xeebc_dbcssplitlen
                0x000223f4                xeebc_filesetsosistr
 .text          0x000229dc     0x1154 xekbchk-xeerr.o
                0x000229dc                xeerr_seterrmsgct
                0x00022dc8                xeerrmsg
                0x0002357c                errmissing
                0x000235a4                errtoomany
                0x000235cc                errinvalid
                0x000236ac                errdbcsinput
                0x000236d4                errnotnumeric
                0x000236fc                errnotascii
                0x00023724                errtoolong
                0x0002374c                errlcmd
                0x00023774                erralready
                0x0002379c                errbrowsemode
                0x000237c4                errcsrpos
                0x000237ec                errdir
                0x00023824                errformat
                0x0002385c                errovermax
                0x000238b4                errprotected
                0x000238dc                errmarginboundary
                0x00023904                errconflict
                0x0002396c                errscrtype
                0x000239a4                errnotsupported
                0x000239e4                errscrnotsplited
                0x00023a1c                err2ndscrisnotfile
                0x00023a54                errnotvalidhexchar
                0x00023a7c                erroptionforbinfile
                0x00023ab8                errutf8andnonutf8
                0x00023af4                errwildnamemultiple
 .text          0x00023b30     0x3b28 xekbchk-xefunc.o
                0x00023b30                funcinit
                0x00024454                funcchngeenter
                0x00024568                funcgetwfth
                0x0002477c                funcputwfth
                0x000248b0                funcsetft
                0x00024994                funcduperr
                0x00024cf4                funcdupktsrch
                0x00024f0c                cmdduperr
                0x00024fe0                functerm
                0x00025044                funccall
                0x00025a80                funcftsrch
                0x00025bfc                funcsaveopdcodetype
                0x00025dfc                funcsaveopd2codetype
                0x00025f94                funcuparse2_LC
                0x00026108                funcgetOpdLCCT
                0x00026248                func_cmd
                0x00026f58                callmenu
                0x00027024                funccmdprechk
                0x00027158                funcopdpostp
                0x000271d4                funcaliasset
                0x000273f0                funcaliasreset
                0x0002740c                funcaliasdeqpending
                0x00027490                funccmderr0
                0x00027504                funccmderr
                0x00027594                funccmderr2
                0x000275e4                funcinvalidkey
                0x00027618                funcinhibitkey
 .text          0x00027658      0x520 xekbchk-xefunct.o
                0x00027658                func_nosupport
                0x0002769c                functinit
                0x000276dc                functsjis2euc
                0x00027800                functgetcopy
                0x0002786c                functterm
                0x00027880                functreset
                0x000278d4                functblsrch
                0x000279c4                functblsrchbyname
                0x00027ab8                functblsrchbycmd
 .text          0x00027b78     0x2264 xekbchk-xefunct2.o
                0x00027b78                funct2init
                0x00027fc8                funct2getfnm
                0x00028154                funct2getacsch
                0x0002822c                funct2setuplinech
                0x0002837c                funct2lchgetucs
                0x000285e0                funct2setuplinechsub
                0x00028a58                funct2printu8data
                0x00028cd8                funct2getlinechstr
                0x00029190                funct2getinputgc
                0x000295c4                funct2getnextinputgc
                0x00029800                funct2getnextinputgcUTF8
                0x00029acc                funct2fmterr
                0x00029b00                funct2kbdsimutf8
                0x00029d1c                funct2saveforerrmsg
 .text          0x00029ddc      0x7a4 xekbchk-xegbl.o
                0x00029ddc                gblinit
                0x0002a3a0                xesetkbdopt
                0x0002a3d0                gblkon
                0x0002a4e0                gblterm
 .text          0x0002a580     0x36c8 xekbchk-xekbd.o
                0x0002a580                kbdinit
                0x0002a774                kbdinit101
                0x0002a820                kbdfkctmerge
                0x0002aa38                kbdsetfkcmd
                0x0002aafc                kbdreinit
                0x0002ab1c                kbdterm
                0x0002ac6c                kbdproc
                0x0002b458                kbdwaitkey
                0x0002b4d8                kbdassignchng
                0x0002b594                kbdsetmacrocmdfilenameparm
                0x0002b720                kbdfkcedit
                0x0002b9bc                kbdscedit
                0x0002bed8                kbdftsrch
                0x0002c00c                kbdchk
                0x0002c038                kbdsrchkt
                0x0002c124                kbdsrchdupkt
                0x0002c1d0                kbdsrchktbyname
                0x0002c3f8                kbdgetname
                0x0002c530                kbdcvkeyname2euc
                0x0002c624                kbdgetchartbl
                0x0002c6c4                kbdgetktgrp
                0x0002c7c0                kbdgetfkct
                0x0002cf08                kbdfkctsrch
                0x0002d034                kbdwfkct
                0x0002d1b0                kbdrfkct
                0x0002d3ec                kbdwsckt
                0x0002d544                kbdrsckt
                0x0002d728                kbdukbdlintf
                0x0002d85c                kbdchngstatus
                0x0002d8c4                func_shortcut
                0x0002d924                func_shortcutquery
                0x0002d984                kbderrscna
                0x0002d9a8                xekbdchkSAC
                0x0002daec                xekbdsetSAC
 .text          0x0002dc48     0x4628 xekbchk-xescr.o
                0x0002dc48                scrinit
                0x0002e454                scrsetunxflag
                0x0002e56c                scrsetpallette
                0x0002e748                scrsetattrtbl
                0x0002ea5c                scrsetmonopall
                0x0002eb84                scrterm
                0x0002eca8                scrreset
                0x0002ed64                scrcls
                0x0002ed8c                scrdisp
                0x00030c5c                scrcell2tocell
                0x00030d00                scrdbcslineclear
                0x00030fb0                scrdbcslineclearerrmsg
                0x000311e4                xescrerrmsgbycell
                0x000313d0                scrregist
                0x000314b4                scrpopup
                0x000318e4                scrgetcw
                0x00031984                screnqcw
                0x00031a3c                scrdeqcw
                0x00031b00                scrresize
                0x00031cc4                scrfulldraw
                0x00031d2c                scrsrchcw
                0x00031e14                scrsrchcwchl
                0x00031edc                scrsavemultilineerrmsg
                0x00032030                scracssetup
                0x000321d0                scrsetinsrepdbcs
 .text          0x00032270      0xfe8 xekbchk-xescr2.o
                0x00032270                scrconfirmchk
                0x0003236c                scrconfirmset
                0x000323a8                scrconfirmreset
                0x000323f8                scrclearmsg
                0x00032438                scrclearconfirmmsg
                0x00032494                func_splith
                0x000326c8                func_splitv
                0x0003291c                func_swap
                0x00032a48                funcswap2
                0x00032ae4                func_nextpan
                0x00032b10                func_prevpan
                0x00032b3c                scrpansw
                0x00032bcc                func_ins
                0x00032d60                scrcsrtyperestore
                0x00032d9c                scrcpgetpcw
                0x00032e8c                scrsetcsrpos
 .text          0x00033258     0x6774 xekbchk-xesub.o
                0x00033258                filefind
                0x000336e8                filedirchk
                0x000337f4                fileopen
                0x000339bc                fileopencreate
                0x00033b48                fileopen_mdostemp
                0x00033c10                fileclose
                0x00033c74                fileclose_mdos
                0x00033d14                subgetfilelc
                0x00033ed8                filefullpatha
                0x000342ec                isShortpath
                0x000344b4                filefullpathsp
                0x000344f4                filefullpath
                0x00034c1c                filefullpath2ndedit
                0x000354ac                filefullpath2
                0x00035934                subeditscrfnm
                0x00035f94                setdbcstbl
                0x0003621c                filesetdbcstblplh
                0x000364b0                filesetdbcstblplh_handle
                0x00036638                filesetdbcstbl
                0x0003678c                setdbcstbltabid
                0x000368a4                getnextcmd
                0x00036924                getcmdstr
                0x00036a44                getfldinput_utf8
                0x00036ab8                getfldinput
                0x00036c5c                setflddata
                0x00036dd8                setflddatadd
                0x00036f20                setflddatadbcs
                0x0003731c                getfldpos
                0x00037600                getfldstrlen
                0x000376e8                fldprotchk
                0x00037940                getuflde
                0x000379bc                gethomepos
                0x000379f8                setdbcssplit
                0x00037ac4                setdbcssplit2
                0x00037d80                setobtabdbcs
                0x000380d4                setobtabclear
                0x0003820c                updatedbcstblhex
                0x000384dc                sub_restoretabdroppad
                0x000386e4                delobtabpad
                0x000387dc                btabclear
                0x00038904                setobdbcserr
                0x00038a0c                setibdbcserr
                0x00038b2c                setsplitdbcserr
                0x00038c4c                wordtblisrch
                0x00038ce0                getpathlen
                0x00038fbc                setflddatacmd
                0x00039274                setflddatadbcscmd_byutf8
                0x00039790                getfldutf8
                0x0003984c                subsavetempfnm
                0x00039920                subdeletetempfile
 .text          0x000399cc     0x1d94 xekbchk-xesub2.o
                0x000399cc                xesub_cleardbcssplit
                0x00039e44                xesub_cleardbcs1
                0x0003a24c                xesub_adjustspan
                0x0003a4a0                xesub_imupdate
                0x0003ab38                xesubddmemcmp
                0x0003ad58                xesubebcmemcmp
                0x0003b068                xesub_setdbcssplitib
                0x0003b13c                xesub_setdbcssplit
                0x0003b538                xesub_memcmpbin
 .text          0x0003b760     0x3e58 xekbchk-xeutf2.o
                0x0003b760                xeutf_cvf2dd
                0x0003b91c                xeutf_cvf2ddct
                0x0003ba90                xeutf_cvf2dd_padding
                0x0003befc                xeutf_getvhexpos
                0x0003c15c                xeutf_getvhexoffs
                0x0003c270                xeutf_plhpos2offs
                0x0003c34c                xeutf_getvhexcsrpos
                0x0003c568                xeutf_getvhexcsrspan
                0x0003c6a0                xeutf_getdataspan
                0x0003c928                xeutf_getvhexcsrposdbcs
                0x0003cbcc                xeutf_charmakeucsvhexdd
                0x0003ceec                xeutf_chargetvhexdd
                0x0003d768                xeutf_chargetkbddd
                0x0003daa0                xeutfgetddstr
                0x0003dcb4                xeutfcvlf2dd
                0x0003df1c                xeutfcvlf2dd_updatect
                0x0003e48c                xeutfcvl2fdd
                0x0003e5c8                xeutfcvl2dd
                0x0003e85c                xeutfcvl2ddtab
                0x0003e97c                xeutfcvdd2l
                0x0003ead4                xeutfcvdd2ldbcs
                0x0003ec44                xeutfcvdd2f
                0x0003ee98                xeutfcvdd2fl
                0x0003f100                xeutfcvf2ldd
                0x0003f1cc                xeutf_dd2syn
                0x0003f2e4                xeutfcvdd2u
                0x0003f3f8                xeutfcvu2dd
                0x0003f4cc                xeutfddwidth4
 .text          0x0003f5b8     0x9bdc xekbchk-xeutf.o
                0x0003f5b8                xeutf_init
                0x0003f6e4                xeutf_buffget
                0x0003f828                xeutfgetmixstrctopt
                0x0003fa1c                xeutf_getlocalepathname
                0x00040678                xeutf_getlocalestr
                0x000409c0                xeutfdbcsnpchk
                0x00040af8                xeutf_getmixedword
                0x00041dec                xeutfcvf2lc
                0x000420dc                xeutfcvf2lDDW
                0x00042324                xeutfcvlf2ddAdjust
                0x00042810                xeutfcvdd2lc
                0x00042a88                xeutf_getmixedstr
                0x000433a8                xeutf_getmixedstrDDFMT
                0x00043544                xeutf_modechng
                0x000439f0                xeutf_cvdata
                0x00043c2c                xeutf_cvdatawb
                0x000440b4                xeutf_cvf2lsetdbcs
                0x0004457c                xeutf_islocalestr
                0x00044640                xeutf_fldl2f
                0x000448e4                xeutf_getucsstr
                0x00044a80                xeutf_cvl2fbyct
                0x00044fac                xeutf_cvlf2lbyct
                0x00045390                xeutf_cvlf2lbyctDDW
                0x00045674                xeutf_strlenu8byct
                0x00045944                xeutf_strwidthu8byct
                0x000459d0                xeutf_strwidthlcbyct
                0x00045a5c                xeutf_dbcssplit
                0x00045d74                xeutf_mixedstrupdate
                0x000467ac                xeutf_setctbyu8lc
                0x00046cf4                xeutf_setdbcstblbyct
                0x00046f18                xeutf_memcmpu8lc
                0x00047304                xeutf_memcmpddlc
                0x000478f8                xeutf_savelcctforerrmsg
                0x00047d0c                xeutf_savefnmforerrmsg
                0x00047f8c                xeutf_chksaveedlcct
                0x00048094                xeutf_seterrmsgct_forxeerrmsg
                0x000484c0                xeutf_seterrmsgct
                0x00048be8                xeutf_seterrmsgctopd2
                0x000490e8                xeutf_dbcssubcharcmp
 .text          0x00049194      0xe50 ../ulib/libuserxe.a(libuserxe_a-uallocl.o)
                0x00049194                ualloc_init
                0x000493e8                ugetallocdata
                0x00049520                ualloc_chk
                0x000496e8                umalloc
                0x0004992c                ucalloc
                0x00049b9c                ufree
                0x00049dcc                uallocsz
                0x00049e18                ufreesz
                0x00049e68                uallocmapset
                0x00049f7c                ufreesizeerr
                0x00049fb0                umallocsizeerr
 .text          0x00049fe4     0x1ad0 ../ulib/libuserxe.a(libuserxe_a-ucvebc.o)
                0x00049fe4                ucvebcinite2uJ
                0x0004a138                ucvebc
                0x0004a150                ucvebc_gettrte2a
                0x0004a170                ucvebc2asc_handle
                0x0004a210                ucvasc2ebc_handle
                0x0004a2b0                ucvebc2asc
                0x0004a6c8                ucvebc2asc1sbcsJ
                0x0004a848                ucvebc2ucs1sbcsJ
                0x0004a9dc                ucvasc2ebc
                0x0004af84                ucvebc_defaultremap
                0x0004b264                ucvebcinita2e
                0x0004b3d0                ucvkandl
                0x0004b5c0                ucvebcinitkandl
                0x0004b6e4                ucvebc2_chkprintsbcs
                0x0004b9c0                ucvebc_chkeolopt
 .text          0x0004bab4     0x1718 ../ulib/libuserxe.a(libuserxe_a-ucvebc2.o)
                0x0004bab4                ucvebc2
                0x0004bacc                ucvebc2_init
                0x0004bb3c                ucvebc2_codecomp
                0x0004bb84                ucvebc2_s2e
                0x0004bc20                ucvebc2_e2s
                0x0004bcb8                ucvebc2_chkprint
                0x0004bf80                ucvebc2_chkprintnewold
                0x0004c1f8                ucvebc2_chkprintdup
                0x0004c3a4                ucvebc2_e2ssub
                0x0004c5e4                ucvebc2_s2esub
                0x0004c69c                ucvebc2_stre2s
                0x0004c94c                ucvebc2_ebc2asc1dbcsJ
                0x0004c9e8                ucvebc2_strs2e
                0x0004cf9c                ucvebc2_setsi
                0x0004d0c0                ucvebc2_setso
 .text          0x0004d1cc     0x54c8 ../ulib/libuserxe.a(libuserxe_a-ucvebc3.o)
                0x0004d1cc                ucvebc3_getcfgparmconverter
                0x0004d3d0                ucvebc3_init_xcv
                0x0004d410                ucvebc3_getconvertersubchar
                0x0004d484                ucvebc3_setletter
                0x0004ddb8                ucvebc3_init
                0x0004e02c                ucvebc3_cfgerr
                0x0004e054                ucvebc3_b2uSbcs1
                0x0004e33c                ucvebc3_b2ddSbcs1
                0x0004e52c                ucvebc3_b2ddSbcs
                0x0004e9ec                ucvebc3_b2uDbcs1
                0x0004ec08                ucvebc3_b2ddDbcs1
                0x0004ee28                ucvebc3_b2ddDbcsstr
                0x0004f028                ucvebc3_b2ddDbcs
                0x0004f754                ucvebc3_b2dd
                0x0004f848                ucvebc3_u2b1map
                0x0004f988                ucvebc3_u2b1
                0x0004fd2c                ucvebc3_m2b1Sbcs1
                0x0004fee8                ucvebc3_m2b1
                0x00050220                ucvebc3_m2b
                0x00050730                ucvebc3_f2b
                0x00050dc8                ucvebc3_dd2b
                0x00051498                ucvebc3_b2mSbcs
                0x00051b64                ucvebc3_b2mDbcsstr
                0x00051e04                ucvebc3_b2m
                0x000522dc                ucvebc3_setdbcstbl
                0x0005247c                ucvebc3_getebc3opt
                0x0005256c                ucvebc3_b2f
                0x00052608                ucvebc3_f2bcmd
 .text          0x00052694     0x1ee8 ../ulib/libuserxe.a(libuserxe_a-ucvebc32.o)
                0x00052694                ucvebc_umemspnc
                0x00052784                ucvebc_umemrspnc
                0x00052874                ucvebc_umemchr
                0x000529a8                ucvebc_umemrchr
                0x00052ab8                ucvebc_memcmp_banda
                0x00052c8c                ucvebc_memicmp
                0x00052ce8                ucvebc_memcmp
                0x00052f48                ucvebc_umemmemi
                0x00053234                ucvebc_umemmem
                0x000533c0                ucvebc_umemrmemi
                0x00053668                ucvebc_umemrmem
                0x000537f8                ucvebc_unumlen
                0x00053b20                ucvebc_asciilen
                0x00053c48                ucvebc_issbcsstr
                0x00053ce8                ucvebc_uispunct
                0x00053e04                ucvebc_uatoin
                0x00053f30                ucvebc_a2bfld
                0x00054054                ucvebc_b2afld
                0x00054190                ucvebc_umempbrk
                0x00054278                ucvebc_umemrpbrk
                0x00054378                ucvebc_umemspn
                0x00054478                ucvebc_umemrspn
 .text          0x0005457c     0x1c0c ../ulib/libuserxe.a(libuserxe_a-ucvebc4.o)
                0x0005457c                ucvebc4_init
                0x00054608                ucvebc4_compbyname
                0x00054660                ucvebc4_compbyhandle
                0x000546b0                ucvebc4_srchcveh
                0x00054804                ucvebc4_gethandle
                0x000548f4                ucvebc4_getpucveh
                0x00054974                ucvebc4_getcvname
                0x000549d8                ucvebc4_getcvtype
                0x00054b5c                ucvebc4_createhandle
                0x00054c98                ucvebc4_getparmconverter
                0x00054dc8                ucvebc4_chkdbcsconverter
                0x00054ee0                ucvebc4_setuphandle
                0x00054ff0                ucvebc4_setletter
                0x0005574c                ucvebc4_b2uSbcs1
                0x00055868                ucvebc4_b2mSbcs
                0x00055c94                ucvebc4_setupsubch
 .text          0x00056188       0xa8 ../ulib/libuserxe.a(libuserxe_a-ucvebct.o)
                0x00056188                ucvebc2gettbl
 .text          0x00056230     0x6c18 ../ulib/libuserxe.a(libuserxe_a-ucvext.o)
                0x00056230                ucvext_cfglineerr
                0x0005626c                ucvext_cfgdupoption
                0x000562a8                ucvext_ux2s
                0x00056390                ucvext_cfgmap
                0x00056508                ucvext_getcfg
                0x000572fc                ucvext_setdefaultlocalcv
                0x00057440                ucvext_getarmso1
                0x000576a0                ucvext_getarmso
                0x0005792c                ucvext_getarmdata1
                0x00057a9c                ucvext_getarmdata
                0x00057c4c                chkapiver
                0x00057e08                ucvext_icuinit_env
                0x000580a4                setdatadir
                0x00058170                ucvext_mapinit
                0x00058b54                ucvext_setupsubch
                0x00059128                ucvext_loaddll_icudata
                0x000593bc                ucvext_loaddll
                0x0005946c                ucvext_icuinit
                0x00059b90                ucvext_icuenumcvname
                0x00059f60                ucvext_icuuerrname
                0x00059fd0                ucvext_icugetdefaultconvertername2
                0x0005a0ec                ucvext_getstdcharset
                0x0005a4c4                ucvext_icugetdefaultconvertername
                0x0005a604                ucvext_icugetconvertertype
                0x0005a828                ucvext_icugetsubchars
                0x0005a9ac                ucvext_icusetsubchars
                0x0005aaa0                ucvext_icugetstarter
                0x0005ac2c                ucvext_icugetconverter
                0x0005b23c                ucvext_getparmconverter
                0x0005b4c0                ucvext_openparmconverter
                0x0005b640                ucvext_getcvoption
                0x0005b9ac                set_internal_CP037
                0x0005ba94                ucvext_mapinitsetdefault
                0x0005bcd0                ucvext_setlocalconverter
                0x0005bdcc                ucvext_icusubcharchk
                0x0005c180                ucvext_isdbcs1st
                0x0005c204                chk_converter_is_ebcdic
                0x0005c2f8                ucvext_handle0init
                0x0005c53c                ucvext_icuclose
                0x0005c5a4                ucvext_icureset
                0x0005c60c                ucvext_icugetmbconverter
                0x0005c6ec                ucvext_icumbinit12
                0x0005c74c                ucvext_icumbinit
                0x0005ca18                ucvext_setdefaultlocale
                0x0005cb08                chkicuversion
                0x0005cd94                ucvext_getConverterCfg
 .text          0x0005ce48     0x49f4 ../ulib/libuserxe.a(libuserxe_a-ucvext12.o)
                0x0005ce48                ucvext12_init
                0x0005cfac                ucvext_icuebc2ucs1
                0x0005d268                ucvext_iculocal2ucs1
                0x0005d55c                ucvext_icuucs2ebc1
                0x0005d874                ucvext_icuucs2local1
                0x0005db40                ucvext_icuebc2mb1
                0x0005dfa0                ucvext_icumb2ebc1
                0x0005e460                ucvext_icuebc2mbs_handle
                0x0005e4e0                ucvext_icuebc2mbs
                0x0005e7e8                ucvext_icumb2ebcdbcs
                0x0005eda8                ucvext_icumb2ebcs_handle
                0x0005ee28                ucvext_icumb2ebcs
                0x0005f328                ucvext_icuebc2mbf
                0x0005f810                ucvext_icumb2ebcf
                0x0005ffac                ucvext_icumb2ucs1
                0x000601b8                ucvext_icuucs2mb1
                0x000603e0                ucvext_icuutf2mb1
                0x0006058c                ucvext_icumb2utf1
                0x00060788                ucvext_icumb2utf
                0x00060a30                ucvext_icuisprint
                0x00060ad0                ucvext_locale1ICU
                0x00060bb4                ucvext_getparmconvertermbICU
                0x00060fec                ucvext_icua2ainit
                0x000610b0                ucvext_icua2aterm
                0x00061128                ucvext_icua2as
                0x000617e8                ucvext_icusubcharchk_handle
 .text          0x0006183c     0x1ec0 ../ulib/libuserxe.a(libuserxe_a-ucvext2.o)
                0x0006183c                ucvext_iconvmapinit
                0x00061888                ucvext_iconvgetstarter
                0x000619ec                ucvext_iconvgetconvertertype
                0x00061a68                ucvext_iconvgetconverter
                0x00061bac                ucvext_iconvgetparmconverter
                0x00061db4                ucvext_iconvebc2ucs1
                0x00061f24                ucvext_iconvlocal2ucs1
                0x000621e4                ucvext_iconvucs2ebc1
                0x00062358                ucvext_iconvucs2local1
                0x000624c0                ucvext_iconva2as
                0x00062ad4                ucvext_iconvb2bs
                0x00062c80                ucvext_iconva2af
                0x00063390                ucvext_iconva2ainit
                0x000634b0                ucvext_iconva2acont
 .text          0x000636fc     0x4f64 ../ulib/libuserxe.a(libuserxe_a-ucvucs.o)
                0x000636fc                ucp932init
                0x00063c84                ucp932term
                0x00063d2c                ucp932sjis2ucs
                0x00063dfc                ucp932ucs2sjis
                0x00063f80                uccvsjis2ucs
                0x000640b4                uccvucs2sjis
                0x000640e4                uccvucs2utf
                0x00064318                uccvutf2ucs
                0x000646bc                uccvucss2utf
                0x000647a0                uccvutf2ucss
                0x0006496c                uccvsjis2ucss
                0x000649ec                uccvucss2sjis
                0x00064a30                uccvsjis2utf
                0x00064b14                uccvutf2sjis
                0x00064be0                ucvsucs2utf
                0x00064f84                ucvsescucs2utf
                0x00065348                ucvssjis2utf
                0x00065714                ucvsmb2utf
                0x00065a74                ucvsutf2ucs
                0x00065dd8                ucvsutf2sjis
                0x00066274                ucvsutf2mb
                0x00066654                ucvssjis2ucs
                0x00066978                ucvsucs2sjis
                0x00066d18                ucvsescucs2sjis
                0x0006709c                ucvfsjis2ucs
                0x000672bc                ucvfucs2sjis
                0x000674c0                ucvfutf2ucs
                0x0006775c                ucvfucs2utf
                0x000679c8                ucvfsjis2utf
                0x00067c34                ucvfutf2sjis
                0x00067ed0                ucvbomchk
                0x00068078                ucvbomset
                0x000681d4                ucvsetucss
                0x00068404                ucvgetucss
                0x00068540                ucverrutf
                0x000685a0                ucverrucs
                0x00068600                ucverrsjis
 .text          0x00068660       0x38 ../ulib/libuserxe.a(libuserxe_a-ucvucst.o)
                0x00068660                ugetcp932tbl
 .text          0x00068698     0x3084 ../ulib/libuserxe.a(libuserxe_a-udbcschk.o)
                0x00068698                udbcschk_wcinit
                0x00068a38                udbcschk_getbaseconverter
                0x00068ae0                udbcschk_setunprintable
                0x00068c78                udbcschk_wclocaleinit
                0x00068de4                udbcschk_wclocalereset
                0x000691f8                udbcschk_chklocale
                0x000692b8                udbcschk_getlinuxleadbyte
                0x00069420                udbcschk
                0x000695ac                udbcschk_hk
                0x00069698                udbcschk_getmblen
                0x00069958                udbcschk_mblen
                0x00069a28                udbcschk_mb2nd
                0x00069bb0                udbcschk_isvalidmbchar
                0x00069c94                udbcschk_locale_topbyte
                0x00069d98                udbcschk_getdbcs1st
                0x00069e8c                udbcschk_ismbdbcs1st
                0x00069eec                udbcschk_locale1
                0x0006a1d8                udbcschk_mb2ucs1
                0x0006a344                udbcschk_ucs2mb1
                0x0006a470                udbcschk_forceenglish
                0x0006a4dc                udbcschkcp
                0x0006a648                ugetcp
                0x0006a72c                udbcsenv
                0x0006a76c                udosquerydbcsenv
                0x0006a8e0                udbcschk2
                0x0006a9a4                udbcschk_pos2offs
                0x0006ab80                usetdbcstbl
                0x0006aee4                usetdbcstblmb
                0x0006b354                udbcschk_setlocale
                0x0006b5a4                udbcschk_setdbcstype
                0x0006b6bc                udbcschk_icugetlocalconverter
 .text          0x0006b71c     0x2e38 ../ulib/libuserxe.a(libuserxe_a-udbcsck2.o)
                0x0006b71c                ujischkx208
                0x0006b7ec                usjischkx208
                0x0006b8cc                usjis2jis
                0x0006b9d4                ujis2sjis
                0x0006bac4                ustrjis2sjis
                0x0006bfdc                ustrsjis2jis
                0x0006c4e4                ushift2euc
                0x0006ca1c                ushift2euc1
                0x0006cbf8                ushift2euccount
                0x0006ce38                usjischk
                0x0006d0ec                ueuc2shift1SS3
                0x0006d11c                ueuc2shift
                0x0006d8a8                ueucchk
                0x0006dce4                ueuc2shift1
                0x0006df58                ueuc2shift1c
                0x0006e10c                uhan2zen
                0x0006e3d0                udbcschktty
                0x0006e454                udbcschk_srchSS2
 .text          0x0006e554      0x3dc ../ulib/libuserxe.a(libuserxe_a-udos2.o)
                0x0006e554                udos2
                0x0006e56c                ugetdriveidlist
                0x0006e660                ugetdrivelist
                0x0006e700                ugetdrivetype
                0x0006e828                udos_setenv
 .text          0x0006e930     0x3fe8 ../ulib/libuserxe.a(libuserxe_a-uedit.o)
                0x0006e930                uedit
                0x0006e948                unumedit
                0x0006ec80                utimeedit
                0x0006f7f8                uitoa10
                0x0006f82c                ucmdparmedit
                0x0006ff54                ueditenv
                0x00070380                uwordrep
                0x00070a2c                ugethex
                0x00070b8c                ugethexdump
                0x00070d6c                ux2FILESZ
                0x00070d9c                ux2l
                0x00070f30                ux2ll
                0x00071018                ua2ll
                0x00071048                ux2s
                0x000711a4                ugetnumrange3
                0x0007131c                ugetnumrange2
                0x00071418                ugetnumrange2XFILESZ
                0x000714ec                ugetnumrange
                0x000716f8                ugetxnumrange
                0x00071b1c                ugetxnumrangeLL
                0x00071f48                unumlen
                0x00072188                uatoin
                0x00072208                getKMGTB
                0x00072390                ueditFILESZ
                0x00072604                ueditLONGHANDLE
                0x0007280c                ueditKMG
 .text          0x00072918     0x2890 ../ulib/libuserxe.a(libuserxe_a-uedit2.o)
                0x00072918                uedit2
                0x00072930                uasciidump
                0x00072b4c                uasciidump_utf
                0x00072e04                uucsdump
                0x00073150                ub2x
                0x00073280                ueditfattr
                0x00073658                ueditfattrspf
                0x0007372c                ueditfattr_mdos
                0x000738ac                uxdumpline
                0x000742ac                xdlputs
                0x00074358                ugetdtparm
                0x00074454                ugetdateparm
                0x000744c8                ugettimeparm
                0x0007453c                ueditgetftnum
                0x0007480c                ueditsetfdateUSHORT
                0x000748a0                ueditsetfdate
                0x00074980                ueditsetftimeUSHORT
                0x00074a14                ueditsetftime
                0x00074b0c                uxdumpstr
                0x00074d34                ueditNowFileTime
                0x00074e64                ueditescrep
 .text          0x000751a8     0x29f8 ../ulib/libuserxe.a(libuserxe_a-uerr.o)
                0x000751a8                uerr
                0x000751c0                ubell_init
                0x00075200                ubell_init2
                0x00075230                ubell
                0x00075348                uerrexit_init
                0x00075410                uerrexit_optinit
                0x00075440                uerrsetopt2
                0x000754a4                uerrexit
                0x0007569c                uerrmsg_init
                0x0007587c                uerrmsg
                0x00075a8c                uerrmsg2
                0x00075c0c                uerrmsgcat
                0x00075d18                uerrsprintf
                0x00075e04                uerrfprintfutf
                0x00076270                uerrhelpmsg
                0x0007675c                uerrscrheight
                0x0007680c                useterrmsg
                0x00076880                ugeterrmsg
                0x000768cc                ugeterrmsg2
                0x0007690c                uerrmsgedit
                0x000772a0                uconfirmmsg
                0x000775b8                uerrornomsg
                0x000775e0                ugeterrdescription
                0x00077664                uerrapi1
                0x000776ac                uerrapi1x
                0x000776f0                uerrapi0
                0x0007772c                uerrapi0x
                0x00077764                uerrapi1t
                0x000777d4                uerrapi1nt
                0x00077828                uerrapi1tx
                0x00077894                uerrapi0t
                0x000778fc                uerrapi0tx
                0x00077960                uerrnotsupported
                0x000779a4                uerrmsg_initstart
                0x00077a68                uerrmsg_initstack
                0x00077acc                uerrmsg_initcomp
 .text          0x00077ba0      0xec0 ../ulib/libuserxe.a(libuserxe_a-ufemsg.o)
                0x00077ba0                ufemsg
                0x00077bb8                ufilenotfound
                0x00077bf4                ufilenotfoundotherexist
                0x00077c30                ufilepatherr
                0x00077c6c                ufileapierr
                0x00077cb4                ufileapierr_str
                0x00077d0c                ufiledelpath
                0x00077d48                ufilereadonly
                0x00077d84                ufilereadonly2
                0x00077dc4                ufiledeleted
                0x00077ef4                ufileshare
                0x00077f30                ufileexist
                0x00077f6c                ufileexistcopy
                0x00077fa8                ufileexist2
                0x00077fec                ufileexistdir
                0x00078028                ufilenotdir
                0x00078064                ufilediskfull
                0x000780a8                ufilewildtarget
                0x000780dc                ufilewildcarderr
                0x00078110                ufilewildpatherr
                0x00078144                ufileroot
                0x00078180                ufileapierr2
                0x000781d4                ufiledirna
                0x00078220                ufileerrdir
                0x0007825c                ufilenotvfat
                0x00078284                ufilenopermission
                0x000782c8                ufileslinkloop
                0x00078320                ufileerrspecialfile
                0x0007835c                ufileerrnotnormal
                0x00078398                ufileerrdir2file
                0x000783c8                ufileerrnoentry
                0x00078400                ufileerrnofileentry
                0x00078438                ufileTooLongFullpathName
                0x00078490                ufileTooLongFullpathName2
                0x000785f0                ufileeditsz
                0x00078988                ufileslinktargeterr
                0x000789cc                ufileopenerrInvalidargument
                0x00078a28                ufileErrInvalidName
 .text          0x00078a60     0x3508 ../ulib/libuserxe.a(libuserxe_a-ufile.o)
                0x00078a60                ufile
                0x00078a78                ufullpathwildexp
                0x0007912c                ufullpathresolvespecialdirid
                0x000792e8                ufilegetpathdir
                0x000794d4                udirlistnomsg
                0x00079534                udirlist
                0x000796e8                udirlistsub
                0x00079bdc                udirlist_set_slinkname
                0x00079d30                ufile_udirlist_copy
                0x00079f8c                ufile_udirlist_swap
                0x0007a170                ufile_udirlist_alloc1
                0x0007a204                ufile_udirlist_free
                0x0007a300                udircompare_pointer
                0x0007a370                udirlistsort
                0x0007a534                udircomp
                0x0007a578                udircompare
                0x0007aff8                udircompsub
                0x0007b120                uredirect
                0x0007b568                uredirectrestore
                0x0007b684                ufdateedit
                0x0007b9c4                uftimeedit
                0x0007bbfc                uftimeedit_1sec
                0x0007bc58                udirlist_chk_max_entry
                0x0007bcc0                udirlist_setname
                0x0007be9c                udirlist_setname_cat
 .text          0x0007bf68     0x1b00 ../ulib/libuserxe.a(libuserxe_a-ufile1f.o)
                0x0007bf68                uftpfstat
                0x0007c288                uftpwinchk
                0x0007c3b4                uftpfullpathnorid
                0x0007c414                uftpfullpath
                0x0007cadc                uftppathlen
                0x0007cb2c                uftpgetcwd
                0x0007cc2c                uftpgethome
                0x0007ccac                uftpgethomesub
                0x0007ce80                uftpchdir
                0x0007d04c                uftpchdirsub
                0x0007d21c                uftplchdirrespchk
                0x0007d428                uftpdirlistsub
                0x0007d808                uftpfindfirst
                0x0007d958                uftpfindfirstfile
                0x0007d9e0                uftpfindnext
 .text          0x0007da68     0x4344 ../ulib/libuserxe.a(libuserxe_a-ufile1l.o)
                0x0007da68                ufstat
                0x0007e2d8                ufilechkwildmultiple
                0x0007e574                ufstat_wild
                0x0007e604                ufilefscomp
                0x0007e67c                ufilegetfsid
                0x0007e75c                ufilegetftime
                0x0007e86c                ufullpath
                0x0007f274                upathlen
                0x0007f2c4                ugetcwd
                0x0007f2f0                uchdir
                0x0007f41c                udosfindfirstnomsg
                0x0007f48c                udosfindfirst
                0x0007fc08                udosfindnext
                0x0007fc78                udosfindnextmsg
                0x0008007c                ufilelnxwildselect
                0x000800e8                ufilelnxattrselect
                0x000802c0                ufilelnxgetmembfstat
                0x000804ec                ufilelnxsavehdir
                0x0008061c                ufilelnxsrchhdir
                0x00080724                ufilelnxclosehdir
                0x00080864                ufilemode2attr
                0x00080a10                ufilemktime
                0x00080ac8                ufilerepwildname
                0x00080bc8                errwildname
                0x00080dd0                filesrchmountpoint
                0x00080fa8                filegetdevt
                0x0008122c                filegetdevicename
                0x000813d8                filegetdevicemntent
                0x000814f8                filegetmntent
                0x000816cc                filegetmntoption
                0x00081830                ufilegetiocharset
                0x00081934                ufilefnmcvcs
                0x00081b78                ufullpathCP
 .text          0x00081dac     0x1f08 ../ulib/libuserxe.a(libuserxe_a-ufile1l2.o)
                0x00081dac                mtoolsinit
                0x00081dd8                ufstat_mdos
                0x00082324                ufilegetmdosattr
                0x00082428                uopendir_mdos
                0x00082724                ureaddir_mdos
                0x00082968                ufilegetmdosdl
                0x00082ec8                ufilegetmdosattrlist
                0x000830c0                ugetcwd_mdos
                0x0008323c                uchdir_mdos
                0x000832d8                ustatfs_mdos
                0x00083518                uminfo
                0x000837f4                ufilegetnum
                0x000838f8                ufilemdoscmd
                0x00083b50                ufilemdoserrchk
 .text          0x00083cb4     0x4588 ../ulib/libuserxe.a(libuserxe_a-ufile2.o)
                0x00083cb4                ufile2
                0x00083ccc                uxddpchk
                0x0008411c                uxddsub
                0x0008496c                uxdelete
                0x000856ec                ufilewildxdel
                0x00085920                uxdelsub
                0x000862c8                uremovenomsg
                0x0008631c                uremove
                0x0008657c                urenamenomsg
                0x000865d4                urename2
                0x0008662c                urename
                0x00086d30                ufilewildrename
                0x00086d68                uwildfunc
                0x00087164                ufilecdirchk
                0x000874fc                ufilespfnchk
                0x00087524                wildchk
                0x000876bc                ufilechkwildmemb
                0x000877ec                ufilechkwildname
                0x00087980                ufileopenexclusivewrite
                0x00087a3c                ufiledelifnotopened
                0x00087b18                ufile2quietmsg
                0x00087c48                ugetmoveavailablepath
                0x00088134                uwildfunc_LongName
 .text          0x0008823c     0x47cc ../ulib/libuserxe.a(libuserxe_a-ufile2f.o)
                0x0008823c                uftpmkdir
                0x00088834                uftprmdir
                0x00088c40                uftpremove
                0x00089084                uftprename
                0x00089430                uftprenamesub
                0x00089804                uftpwildrename
                0x00089854                uftpattrib
                0x00089b60                uftpattrxon
                0x00089ba8                uftpattrxchk
                0x00089d80                uftpgetftime
                0x00089ed4                uftpgetftime_1sec
                0x0008a04c                uftpsetftime
                0x0008a0c4                uftpsetftime2
                0x0008a13c                uftpcopypathinfo
                0x0008a264                uftpsetown
                0x0008a2dc                uftpsetmod
                0x0008a7bc                uftpwildfunc
                0x0008a9e8                uftpwildfunc2
                0x0008ad60                uftpmultidel
                0x0008ae78                uftpmultirename
                0x0008af90                uftpwildxdel
                0x0008b2cc                uftpmultidelsub
                0x0008b458                uftpmultirenamesub
                0x0008b698                uftpbypassreason
                0x0008b724                uftpxdelrchk
                0x0008bb30                uftpmultidelrchk
                0x0008bdcc                uftpmultirenamerchk
                0x0008c074                ufile2putstmt
                0x0008c1b4                uftpnotsupported
                0x0008c20c                uftpnotsupportedforlocal
                0x0008c264                uftpdelsubdir
                0x0008c4e4                ufile3xdeleteinit
                0x0008c570                uxdelsubftp
                0x0008c9c0                errtoolongname
 .text          0x0008ca08     0x19d8 ../ulib/libuserxe.a(libuserxe_a-ufile2l.o)
                0x0008ca08                umkdir
                0x0008ca74                umkdirmode
                0x0008cda8                urmdir
                0x0008d24c                uattrib
                0x0008d598                uattrxon
                0x0008d610                uattrxchk
                0x0008d7f0                ugetftime
                0x0008d928                ugetftime_1sec
                0x0008daa8                usetftime
                0x0008dc24                usetftime_1sec
                0x0008dc80                usetftime2
                0x0008dddc                ucopypathinfo
                0x0008e1e8                ufilesetown
                0x0008e2e0                ufilesetmod
 .text          0x0008e3e0      0xbc8 ../ulib/libuserxe.a(libuserxe_a-ufile2l2.o)
                0x0008e3e0                umkdir_mdos
                0x0008e4ac                urmdir_mdos
                0x0008e5c0                uattrib_mdos
                0x0008e7c4                uremove_mdos
                0x0008e8d8                urename_mdos
                0x0008e970                ucopy_mdos
                0x0008ec04                uappend_mdos
                0x0008ef4c                ufilemdoscopyerr
 .text          0x0008efa8     0x4dd0 ../ulib/libuserxe.a(libuserxe_a-ufile3.o)
                0x0008efa8                ufile3
                0x0008efc0                invalidtargetfilename
                0x0008eff8                uxcopy
                0x0008fee8                ufilecreateparmproc
                0x00090654                ufilecpymvflags
                0x00090920                ufilewildcopy
                0x00090bc0                ucopysub_slinktarget
                0x00090d60                ucopysub_slink
                0x00091058                ucopysub
                0x0009177c                udoscopy
                0x00091b34                uxmove
                0x0009254c                ufilewildmove
                0x000926dc                umovesub_slink
                0x00092e18                umovesub
                0x00093548                ufilecopytschk
                0x00093660                ufilechkslinkpath
                0x000938a8                ufilegetslinkfinaltarget
                0x00093a30                ufilesymlink
                0x00093ab4                ufilesymlink_copyfiletime
                0x00093bac                ufilesymlink_copy
                0x00093c58                ufileerrdirandfile
                0x00093c98                ufileerrslinktarget
                0x00093cdc                ufileerrslinkappend
                0x00093d1c                ufileerrnotargetslink
 .text          0x00093d78     0x539c ../ulib/libuserxe.a(libuserxe_a-ufile3f.o)
                0x00093d78                uftpxmove
                0x00093f40                uftpxcopy
                0x00094238                uftpxcopyr2r
                0x000944bc                uftpupload
                0x00094b5c                uftpdownload
                0x000951ac                uftptargetflag
                0x00095534                uftpsourceflag
                0x000958ec                uftps2tchk
                0x00095ee0                uftpcreateparmproc
                0x00096324                uftpmoveparmproc
                0x000965d8                uftpupdownctl
                0x00096edc                uftpgetdirlist
                0x00096fb0                uftpexistchk1
                0x0009720c                uftpexistchkm
                0x0009776c                uftpcopycallback
                0x00097f90                uftpcopyrchk
                0x00098724                uftpputstmt
                0x00098868                uftpputstmt2
                0x00098a08                uftpcopyftime
                0x00098d54                ufileftpcopytschk
                0x00098f90                uftpmktdir
                0x00098ff0                uftperrsourceisroot
                0x00099018                uftperrtargetisnotdir
                0x0009904c                uftperrdir2file
                0x0009908c                uftpfileanddir
                0x000990d8                uftpappenddir2dir
 .text          0x00099114     0x2acc ../ulib/libuserxe.a(libuserxe_a-ufile4.o)
                0x00099114                ufile4
                0x0009912c                utempnam
                0x0009940c                utempnamd
                0x00099464                ufgetpos
                0x00099494                udirwalk
                0x00099bcc                udirwalksub
                0x0009ac7c                ufileslinkoutoflinkchk
                0x0009b11c                ufileslinkloopchk
                0x0009b5c0                ufileslinkloopchk2
                0x0009b6d0                ugetdiskfree
                0x0009b864                ufileisvfat
                0x0009b898                ufileisntfs
                0x0009b8bc                ufileisvfatMounted
                0x0009b93c                ufileisntfsMounted
                0x0009b9bc                ufileisMSMounted
                0x0009ba68                ufsetlock
                0x0009bad0                uflock
 .text          0x0009bbe0     0x4e20 ../ulib/libuserxe.a(libuserxe_a-ufile5.o)
                0x0009bbe0                ufile5
                0x0009bbf8                ufgetsinit
                0x0009c014                ufgetscurpos
                0x0009c03c                ufgets_setcurpos
                0x0009c0c0                ufgets
                0x0009c484                ufgetssub
                0x0009ca6c                ufgetsbinchk_utf8
                0x0009cd44                ufgetsbinchk_ebc
                0x0009cf64                ufgetsbinchk
                0x0009d41c                isSameU8c
                0x0009d664                udoseditname
                0x0009df28                ufileeditname
                0x0009e3f0                ufilewildcomp
                0x0009e770                ufilewildcompsub
                0x0009e940                ufilecomp
                0x0009ee18                ufilecomptextmode
                0x0009f1c0                ufilecomptextmodefixed
                0x0009f44c                ufilecomptextmodesub
                0x0009f590                ufreads
                0x0009f870                ufgetsVHeader
                0x0009faf8                ufgetsVRecord
                0x0009fdf0                ufgetsV
                0x000a0070                ufile5chkvfmt
                0x000a01d0                ufile5getVfmtstr
                0x000a0294                ufseek
                0x000a02d0                uftell
                0x000a0300                fileeditname_copypath
                0x000a091c                fileeditname_copypath_err
                0x000a0980                filetouch
 .text          0x000a0a00     0x4f50 ../ulib/libuserxe.a(libuserxe_a-uftp.o)
                0x000a0a00                uftpfstatroot
                0x000a0aa8                uftplshome
                0x000a0c10                uftpfstatudl
                0x000a0f54                uftpisexist
                0x000a1070                uftpopendir
                0x000a1648                uftpreaddir
                0x000a17ac                uftpattrselect
                0x000a1974                uftpgetslinkattr
                0x000a1d54                uftpdirlistslink
                0x000a2344                uftpsortslink
                0x000a239c                uftpslinkcomp
                0x000a2420                uftpslinklscmd
                0x000a2758                uftplsoutchk
                0x000a2acc                uftpmodtimerchk
                0x000a2fa8                uftpmodtimeerr
                0x000a2ffc                uftplsoutchkslinkerrskip
                0x000a3128                uftplsoutchkslink
                0x000a3228                uftpsavehdir
                0x000a3370                uftpsrchhdir
                0x000a341c                uftpclosehdir
                0x000a3480                uftpmode2attr
                0x000a35fc                uftpudl2ffb3
                0x000a37ac                uftpgetpathname
                0x000a3874                uftpnodesrch
                0x000a3924                uftpnodeadd
                0x000a39dc                uftpnodedel
                0x000a3a38                uftpnodeclear
                0x000a3a54                uftpgethostqhaddr
                0x000a3a74                uftphoststbinit
                0x000a3d94                uftpgethostsdata
                0x000a4e00                uftgetstringopd
                0x000a5080                uftpipachk
                0x000a52a0                uftpgetportno
                0x000a532c                uftpisremote
                0x000a54b8                uftpisrootdir
                0x000a553c                uftphostscrypt
                0x000a5818                uftptempnam
                0x000a5874                uftp_mempswd
                0x000a590c                uftp_udirlist_setname
 .text          0x000a5950     0x2c2c ../ulib/libuserxe.a(libuserxe_a-uftp2.o)
                0x000a5950                uftpinit
                0x000a5aa0                uftpterm
                0x000a5ae8                uftplog
                0x000a5ebc                uftpnodeinit
                0x000a60a4                uftpcmd
                0x000a67dc                uftpcmdrespchk
                0x000a68e8                uftpcmdresphdrchk
                0x000a6a10                uftpcmdsrchrespid
                0x000a6c70                uftpsimplerespchk
                0x000a6d48                uftpnextstdo
                0x000a6e18                uftpsrchfname
                0x000a6fe0                uftpsrchfnameslink
                0x000a7268                uftpgetdl
                0x000a7588                uftpgetdl1
                0x000a7c90                uftpgetmode
                0x000a7fd8                uftpgetdlftime
                0x000a817c                uftpgetmonth
                0x000a81f8                uftpgetwday
                0x000a8270                uftpajustjst
                0x000a84cc                uftpmktempwd
                0x000a8518                uftpdeltempwd
 .text          0x000a857c     0x5ab0 ../ulib/libuserxe.a(libuserxe_a-uftp3.o)
                0x000a857c                uftp3setssh
                0x000a883c                uftp3editpsftpcmd
                0x000a897c                uftp3cmdrespchk
                0x000a8a98                uftp3cmdresphdrchk
                0x000a8bec                uftp3srchcmdecho
                0x000a8d40                uftp3gethomesub
                0x000a8ea0                uftp3simplerespchk
                0x000a900c                uftp3simplerespchkOK
                0x000a91a8                uftp3simplerespchkCHNG
                0x000a9338                uftp3lchdirrespchk
                0x000a93a4                uftp3getputrespchk
                0x000a94c0                uftp3cdrespchk
                0x000a95fc                uftp3setsmb
                0x000a96b8                uftp3smb_setcmd
                0x000a9b38                uftp3smb_editcmdline
                0x000a9df0                uftp3smb_nodeinit
                0x000a9e9c                uftp3smbcmd
                0x000a9f20                uftp3smb_cmd
                0x000aa428                uftp3smb_chkstatuserr
                0x000aa670                uftp3smb_srchresp
                0x000aa898                uftp3smb_stderrlog
                0x000aa910                uftp3smb_getdltime
                0x000aaab4                uftp3smb_getdltimestat
                0x000aac04                uftp3smb_setdltime
                0x000aad34                uftp3smb_getmode
                0x000aaf64                uftp3smb_getdirlistctr
                0x000aafac                uftp3smb_getdl1
                0x000ab220                uftp3smb_fstatudl
                0x000ab530                uftp3smb_fstatudl_byls
                0x000ab760                uftp3smb_fstatudl_byls_root
                0x000ab9fc                uftp3smb_lsoutchk
                0x000abb80                uftp3smb_getdlattr
                0x000abc78                uftp3smb_fstatdircallback
                0x000abf18                uftp3smb_fstatdirrchk
                0x000ac360                uftp3smb_fstatoutchk
                0x000ac864                uftp3smb_putstmt
                0x000ace0c                uftp3smb_respchk_srchnext
                0x000ad144                uftp3smb_respchk
                0x000ad56c                uftp3smb_lchdirrespchk
                0x000ad5bc                uftp3smb_strfname
                0x000ad86c                uftp3smb_enclosefnm
                0x000ad9ac                uftp3smb_editcmdparm
                0x000adb4c                uftp3smb_dirnameforlist
                0x000adc1c                uftp3smb_mode2attr_winsub
                0x000adcac                uftp3smb_mode2attr_win
                0x000adcfc                uftp3smb_strattr
                0x000adde4                uftp3smb_setmod_win
 .text          0x000ae02c      0x4b0 ../ulib/libuserxe.a(libuserxe_a-ugcclib.o)
                0x000ae02c                strupr
                0x000ae094                strlwr
                0x000ae0fc                memicmp
                0x000ae1c8                stricmp
                0x000ae258                itoa
                0x000ae2ec                kbhit
                0x000ae304                getch_nc
                0x000ae324                getche
                0x000ae344                spawnvp
                0x000ae39c                spawnv
 .text          0x000ae4dc     0x1d30 ../ulib/libuserxe.a(libuserxe_a-ukbdl.o)
                0x000ae4dc                ukbdpeek
                0x000ae508                ukbdcharin
                0x000ae6b0                ukbdl_init
                0x000ae79c                ukbdl_term
                0x000ae7b4                ukbdl_setkbmode
                0x000ae83c                ukbdl_shellmode
                0x000ae948                ukbdl_setgetchmode
                0x000aea08                ukbdl_tcgetattr
                0x000aeaa8                ukbdl_tcsetattr
                0x000aeb4c                ukbdl_getch_init
                0x000aeba0                ukbdl_getche_init
                0x000aebf4                ukbdl_getch_term
                0x000aec40                ukbdl_getche_term
                0x000aec8c                ukbdl_kbhit
                0x000aecdc                ukbdl_getch
                0x000aed7c                ukbdl_getche
                0x000aee1c                ukbdl_gettermid
                0x000aef60                ukbdl_gettermsim
                0x000af498                ukbdl_editstring
                0x000af560                ukbdsetstatus
                0x000af618                ukbdl_wcinit
                0x000af718                ukbdl_readutf8
                0x000afd0c                ukbdl_readdbcs
                0x000b0014                ukbd_simutf8_f2l
 .text          0x000b020c     0x8020 ../ulib/libuserxe.a(libuserxe_a-ukbdlnxc.o)
                0x000b020c                ukbdlnxc_gettbl
                0x000b02a8                ukbdlnxc_init
                0x000b0458                ukbdlnxc_term
                0x000b04d4                ukbdlnxc_getnext
                0x000b055c                ukbdlnxc_read
                0x000b0710                ukbdlnxc_readkbd
                0x000b15a4                ukbdlnxc_optproc
                0x000b1720                ukbdlnxc_setupckt
                0x000b1de4                ukbdlnxc_setupcktsub
                0x000b2050                ukbdlnxc_setupcktx
                0x000b470c                cktovferr
                0x000b4788                ukbdlnxc_addstrtbl
                0x000b4a60                ukbdlnxc_dupstrchk
                0x000b4dbc                ukbdlnxc_cleanup
                0x000b4e44                ukbdlnxc_termexit
                0x000b4e78                ukbdlnxc_getplainsym
                0x000b514c                ukbdlnxc_chkothersym
                0x000b51b8                ukbdlnxc_xbsdel
                0x000b52bc                ukbdlnxc_delopt
                0x000b53a0                ukbdlnxc_setfunckey
                0x000b5584                ukbdlnxc_setfuncstr
                0x000b5968                ukbdlnxc_setcompose
                0x000b5a00                ukbdlnxc_getkeysym
                0x000b5ae0                ukbdlnxc_setkeysym
                0x000b5bc0                ukbdlnxc_getstring
                0x000b5c90                ukbdlnxc_setstring
                0x000b5d88                ukbdlnxc_getdiacr
                0x000b5e34                ukbdlnxc_setdiacr
                0x000b5ee0                ukbdlnxc_setmetamode
                0x000b60ec                ukbdlnxc_getconsole
                0x000b6270                ukbdlnxc_getptty
                0x000b63ac                ukbdlnxc_open
                0x000b6434                ukbdlnxc_chkconsole
                0x000b645c                ukbdlnxc_save1st
                0x000b67f8                ukbdlnxc_restorelast
                0x000b6db4                ukbdlnxc_lockfwrite
                0x000b6e38                ukbdlnxc_lockfread
                0x000b6ebc                ukbdlnxc_pidsetlock
                0x000b6fa8                ukbdlnxc_pidresetlock
                0x000b7048                ukbdlnxc_pidchklock
                0x000b7100                ukbdlnxc_chngttkey
                0x000b7ccc                ukbdlnxc_setrctl
                0x000b7e00                ukbdlnxc_setrctlstr
                0x000b8204                uttyname
 .text          0x000b822c      0x848 ../ulib/libuserxe.a(libuserxe_a-ukbdlnxm.o)
                0x000b822c                ukbdlnxm_mouseopt
                0x000b833c                ukbdlnxm_mouseinit
                0x000b83a4                ukbdlnxm_mouseterm
                0x000b8404                ukbdlnxm_getmouse
                0x000b885c                clickchk
 .text          0x000b8a74     0x22e0 ../ulib/libuserxe.a(libuserxe_a-uparse.o)
                0x000b8a74                uparsein
                0x000b8d1c                uparseindir
                0x000b8e90                uparsev
                0x000b9058                uparse2
                0x000b9194                uparse
                0x000b9e9c                uparsefname
                0x000ba028                uparsecmd
                0x000ba798                uparsecmdin
                0x000ba9f0                uparsegetopt
 .text          0x000bad54     0x3754 ../ulib/libuserxe.a(libuserxe_a-uproc.o)
                0x000bad54                usystem2
                0x000bae90                usystem
                0x000bafa4                uspawnl
                0x000bb0d0                uspawnlp
                0x000bb1fc                uspawnvp
                0x000bb2f8                uprocopt
                0x000bb3c4                uspawnrc
                0x000bb5ec                uprocerrmem
                0x000bb628                uprocerrnotf
                0x000bb664                uexecchk
                0x000bba6c                uextdirsrch
                0x000bbaac                ucmdnmcomp
                0x000bbc28                ugetexepath
                0x000bbc4c                uproc_getpsinfo
                0x000bc1a4                uproc_srchpsinfo
                0x000bc334                uproc_freepsinfo
                0x000bc3a4                usystem_redirect
                0x000bc68c                uspawn_redirect
                0x000bca64                uproc_redirectoutchk
                0x000bd3e0                uspawnvp_pipe
                0x000bd834                uspawnvp_pipeclose
                0x000bd900                usystem_cmdserverinit
                0x000bd9a4                usystem_cmdserverterm
                0x000bdae0                usystem_cmdserversetup
                0x000bdf50                usystem_cmdtocmdserver
                0x000bdfdc                usystem_cmdserverreq
                0x000be3e8                usystem_cmdserverreqwithoutbuff
                0x000be47c                usystem_pidalivechk
 .text          0x000be4a8     0x142c ../ulib/libuserxe.a(libuserxe_a-uproc2.o)
                0x000be4a8                uprocparseredirect
                0x000be8b0                uproc_rsh
                0x000befd0                uproc_redirectrewrite
                0x000bf0f8                uproc_rshlog
                0x000bf1c8                ugetpid
                0x000bf214                uprocredirectchk
                0x000bf264                uproc_loaddllpath
                0x000bf4cc                uproc_loaddll
                0x000bf67c                uproc_getdllproc
                0x000bf768                uproc_freedll
                0x000bf7c4                uproc_getprocaddr
 .text          0x000bf8d4     0x11dc ../ulib/libuserxe.a(libuserxe_a-uproc4.o)
                0x000bf8d4                uproc_shcmd
                0x000bf9dc                uproc_shserverinit
                0x000bfa80                uproc_shserverterm
                0x000bfb58                uproc_shserversetup
                0x000c0018                uproc_shserverreq
                0x000c045c                uproc_srchprocessw
                0x000c0520                uproc_srchprocess
                0x000c0604                uproc_select
                0x000c09c8                uproc4_fdset
                0x000c0a38                uproc4_fdisset
 .text          0x000c0ab0      0x9d4 ../ulib/libuserxe.a(libuserxe_a-uque.o)
                0x000c0ab0                uque
                0x000c0ac8                uenq
                0x000c0d9c                udeq
                0x000c1078                uqscan
                0x000c119c                uqfree
                0x000c11f4                uqufree
                0x000c124c                uenqchain
                0x000c1364                uenqent
                0x000c1404                uqhmove
 .text          0x000c1484      0x274 ../ulib/libuserxe.a(libuserxe_a-ustrcpy.o)
                0x000c1484                ustring_memcpy
                0x000c1540                ustring_strncpy
                0x000c1660                ustring_strcpy
 .text          0x000c16f8     0x2778 ../ulib/libuserxe.a(libuserxe_a-ustring.o)
                0x000c16f8                ustring
                0x000c1710                ustrnchr
                0x000c1798                ustrnpbrk
                0x000c1874                ustrnspn
                0x000c1970                ustrrspn
                0x000c1a10                ustrnrspn
                0x000c1ac0                umemrspn
                0x000c1b78                umemspnc
                0x000c1c04                umemspn_spacetab
                0x000c1c94                umemrspnc
                0x000c1d24                ustrnstr
                0x000c1e2c                ustrrstr
                0x000c1ebc                ustrnrstr
                0x000c1fa8                ustrstri
                0x000c2100                ustrnstri
                0x000c21f4                ustrrstri
                0x000c2284                ustrnrstri
                0x000c2370                ustrnrchr
                0x000c2464                umemchr_utf
                0x000c2600                ustrchr2
                0x000c2748                ustrnchr2
                0x000c2794                umemchr2
                0x000c28d4                ustrrchr2
                0x000c2a14                ustrnrchr2
                0x000c2a60                umemrchr2
                0x000c2b74                umemrchr
                0x000c2bf4                umempbrk
                0x000c2cc0                umemrpbrk
                0x000c2d90                ustrnlen
                0x000c2de4                umemstr
                0x000c2e28                umemstri
                0x000c2e6c                umemrstr
                0x000c2eb0                umemrstri
                0x000c2ef4                umemmem
                0x000c2fe4                umemmemi
                0x000c31e4                umemrmem
                0x000c32dc                umemrmemi
                0x000c34c0                ustrncpyz
                0x000c3564                uispunct
                0x000c362c                uispunctdbcs
                0x000c3838                ustrdup
                0x000c3904                umemtrim
                0x000c3b50                umemicmpdbcs
                0x000c3c4c                umemstridbcs
                0x000c3d6c                umemrstridbcs
 .text          0x000c3e70       0x70 ../ulib/libuserxe.a(libuserxe_a-utf.o)
                0x000c3e70                utf_init
 .text          0x000c3ee0     0x5ba0 ../ulib/libuserxe.a(libuserxe_a-utf2.o)
                0x000c3ee0                umbtowc
                0x000c3f9c                utfpos2offs
                0x000c422c                utfctr2offs
                0x000c4544                utfstrchkmbr2wc
                0x000c49c4                utfcvf2u
                0x000c4ecc                utfcvl2fmix
                0x000c51a4                utfcvl2f
                0x000c5870                utfcvl2ftab
                0x000c5a2c                utfsetdbcstbl
                0x000c5d30                utfisvalidutf8
                0x000c5e34                utfgetstrwidth
                0x000c5efc                utfisvalidutf8char
                0x000c608c                utfstrvalidate
                0x000c61f8                utfgetutf8strlen
                0x000c6370                utfsplitchk
                0x000c6594                utfcvl2fany
                0x000c6e1c                utfcvf2l1
                0x000c7004                utfcvf2l
                0x000c74a0                utfcvf2lany
                0x000c7a3c                utfcvl2fany1
                0x000c7ca0                utfcvl2fany1mb
                0x000c7e04                utfcvl2uany1mb
                0x000c7fa8                utfcvf2lany1
                0x000c83b8                utfcvf2lany1mb
                0x000c853c                utfcvu2lany1mb
                0x000c86a0                utfcvlocaleinit
                0x000c88cc                utfcvsetdefaultlocale
                0x000c8a3c                utfcvsetparmlocale
                0x000c8b98                utfgetcharset_std
                0x000c8ec4                utfgetcharset
                0x000c90e8                utflocalechk
                0x000c9168                utfcvlocaleopen
                0x000c9280                utfcvlocaleclose
                0x000c92ac                utfcvlocaletclose
                0x000c92ec                utfcviconvdbcschk_topbyte
                0x000c9428                utfcviconvdbcschk1
                0x000c9594                utfcvlocaleinitICU
                0x000c95fc                utfcvf2lany1ICU
                0x000c9778                utfcvl2fany1ICU
                0x000c991c                utfcvsetdefaultlocaleICU
                0x000c9960                utflocalechkICU
                0x000c99c8                utfgetstrlenHK
 .text          0x000c9a80     0x7bb0 ../ulib/libuserxe.a(libuserxe_a-utf22.o)
                0x000c9a80                utfwwapichk
                0x000c9ce8                utfddflag2sbcsid
                0x000c9d80                utfddgetlenflag
                0x000ca040                utf22_mapwidth0_rounddown
                0x000ca17c                utf22_mapwidth0
                0x000ca394                utfucsmapinit
                0x000ca8a4                utf22setworkdir
                0x000caa3c                utf22versionchk
                0x000cac34                utfucsloadmap
                0x000cae2c                utfucssavemap
                0x000cafc0                utfucsmapinit_remap
                0x000cb350                utfucsmapmodify
                0x000cb4c8                utfmapucs2dd
                0x000cb580                utfmapdd2ucs
                0x000cb604                utfddsetsbcs
                0x000cb6cc                utfddgetsbcs
                0x000cb730                utfgetwcw
                0x000cb870                utfcvu2dd1w
                0x000cbb3c                utfcvu2dd1
                0x000cbc38                utfcvf2dd
                0x000cbf24                utfdd2u1
                0x000cbf90                utfdd2u1vio
                0x000cc06c                utfdd2u1chsz
                0x000cc260                utfdd2u
                0x000cc78c                utfucs42utf16
                0x000cc958                utfddgetucsctr
                0x000ccad4                utfu2dd
                0x000ccce8                utfddcmp
                0x000cd5e4                utfddicmp
                0x000cd728                utfcvdd2f
                0x000cddbc                utfchkdd
                0x000cdea4                utfddisasciistr
                0x000ce018                utfddissbcsstr
                0x000ce0d0                utfddasciilen
                0x000ce118                utfddpos2offs
                0x000ce350                utfddoffs2pos
                0x000ce684                utfddispunct
                0x000ce87c                utfddmemspnc
                0x000ce980                utfddmemrspnc
                0x000ceaa0                utfddstrnlen
                0x000ceb88                utfddstrlen
                0x000cec38                utfddstrnspn
                0x000cecc0                utfddmemspn
                0x000cedf4                utfddmemrspn
                0x000cef2c                utfddmemchr
                0x000cf05c                utfddmemchr_nonascii
                0x000cf150                utfddmemrchr
                0x000cf238                utfddmemrchr_nonascii
                0x000cf2e8                utfddmempbrk
                0x000cf3c8                utfddmempbrk_nonascii
                0x000cf4cc                utfddmemrpbrk
                0x000cf5c8                utfddmemrpbrk_nonascii
                0x000cf6e8                utfddcmpdbcstab
                0x000cf7f8                utfddmemmem
                0x000cfa7c                utfddmemrmem
                0x000cfb68                utfddnumlen
                0x000cfe2c                utfddgetdbcslr
                0x000cff6c                utfddgetcsrposbca
                0x000d0300                utfgetvisiblealtch
                0x000d06c4                utfgetvisiblealtchprint
                0x000d0760                utf_setsubchar_dbcs
                0x000d0964                utf_subcharcmp
                0x000d0ae0                utfmemrchrDD
                0x000d0b9c                utfmemchrDD
                0x000d0c78                isASCIIstr
                0x000d0ce0                isPrintableASCIIstr
                0x000d0d58                isPrintableASCIImem
                0x000d0de4                utf22_setunpucsvio
                0x000d0f20                utf22_setdbcsspacealt
                0x000d0fdc                utfsetvisiblealtch
                0x000d1134                utf22_iswidth0Ovf
                0x000d1228                utf22_iswidth0DBCS
                0x000d1300                utf_iswidth0
                0x000d1440                utf_iscombinable
                0x000d157c                utf_iscombining
 .text          0x000d1630     0x178c ../ulib/libuserxe.a(libuserxe_a-utf3.o)
                0x000d1630                utfmb2wc
                0x000d188c                utfwcwidth
                0x000d1b18                utfwcwidthNoMap
                0x000d1cb8                utfwcwidthsub
                0x000d1ef8                utfwcwidthsubNoMap
                0x000d2124                utfiswide
                0x000d215c                utfisprint
                0x000d2360                utfgetwc
                0x000d23fc                utftbinit
                0x000d2974                utftbfhelp
                0x000d2994                utftbterm
                0x000d29e8                utftbsrch
                0x000d2b64                utftbsrch_jeuc
                0x000d2bd0                utftbsrch_cjk
                0x000d2d18                utf3_wcwidthXXE
 .text          0x000d2dbc      0xad0 ../ulib/libuserxe.a(libuserxe_a-utf4.o)
                0x000d2ec0                mk_wcwidth_combining
                0x000d2f0c                mk_wcwidth
                0x000d31d0                mk_wcwidth_cjk
                0x000d330c                mk_wcswidth_cjk
                0x000d33a4                mk_wcwidth_adjsbcs
                0x000d35a4                utf4_isSpacingCombiningMark
                0x000d3660                utf4_isAmbiguous
                0x000d376c                utf4_isAmbiguous_XXE
                0x000d37ec                utf4_isFormat
                0x000d3840                mk_wcwidth_combining2SCM
 .text          0x000d388c     0x1754 ../ulib/libuserxe.a(libuserxe_a-utrace.o)
                0x000d388c                utrace_initmt
                0x000d38e8                utrace_init
                0x000d3b4c                utracepop
                0x000d3cb8                utracepopf
                0x000d3e6c                utracepnop
                0x000d3e8c                utrace_ebc
                0x000d3f84                utrace
                0x000d4368                utracectime
                0x000d458c                utraceopen_force
                0x000d475c                utraceocmsg_force
                0x000d4f00                utrace_term
 .text          0x000d4fe0      0x5b8 ../ulib/libuserxe.a(libuserxe_a-uunxsub.o)
                0x000d4fe0                ugetugid
                0x000d5084                ugetusername
                0x000d511c                ugetgroupname
                0x000d51b4                usrchugname
                0x000d5220                uaddugname
                0x000d5314                unc_setupterm
                0x000d5388                unx_fsetlock
                0x000d544c                unx_fresetlock
                0x000d54a8                unx_fchklock
                0x000d5564                ugethostname
 .text          0x000d5598     0x65fc ../ulib/libuserxe.a(libuserxe_a-uviom.o)
                0x000d5598                uviom_init
                0x000d5830                uviom_setopt2
                0x000d5b2c                uviom_notify
                0x000d5bf4                uvio_wcinit
                0x000d5c54                uviom_savecell
                0x000d5cfc                uviom_readcell
                0x000d5da4                uvio_mvaddchnstrF
                0x000d6450                uviom_mvaddwchnstr
                0x000d64c0                uvio_mvaddchnstrW_ligature
                0x000d6814                uvio_mvaddchnstrW_combine
                0x000d6e14                uvio_mvaddchnstrW
                0x000d70d8                uviom_cht2cchar
                0x000d80d4                uviom_setcchar_itself
                0x000d815c                uviom_setcchar_shadow
                0x000d8234                uviom_setcombine1
                0x000d8694                uviom_setcombine
                0x000d8eac                uviom_setcombineSCM
                0x000d90cc                uvio_ddcht2cchar
                0x000d9df8                uvio_ddcht2cchar_ligature
                0x000dab8c                uvio_getcombinectr
                0x000dacf0                uviom_escrep
                0x000daedc                uviom_set_padattr
                0x000daf40                uviom_fillattrspace
                0x000db05c                uviom_setunpucs
                0x000db42c                uviom_attr_itself
                0x000db4d0                uviom_ISUCSWIDTH0
                0x000db650                uviom_iscombining
                0x000db838                uviom_spaceclear
                0x000db890                uviom_clearscr
                0x000db930                uviom_getcombaltchUcs
                0x000db9b8                uviom_getcombaltchU8
 .text          0x000dbb94     0x3914 ../ulib/libuserxe.a(libuserxe_a-uviol.o)
                0x000dbb94                uviol_cell2attr
                0x000dbcd4                uviol_attr2cell
                0x000dbdb0                uviol_repfg
                0x000dbe30                uviol_altcharset
                0x000dbf78                uvio_initparm
                0x000dbfd0                uviogetmode
                0x000dc164                uviol_init
                0x000dc6a0                uviol_acssetup
                0x000dc7f0                uviol_init2
                0x000dc820                uviol_konchk
                0x000dc914                uviol_konchk2
                0x000dc984                uviol_colorinit
                0x000dcb9c                uviol_termexit
                0x000dcbcc                uviol_cleanup
                0x000dccdc                uviol_term
                0x000dcd60                uviol_beep
                0x000dcd9c                uviosetmode
                0x000dcdd4                uvioreadcellstr
                0x000dcf68                uviowrtcellstr
                0x000dd194                uvioreadcharstr
                0x000dd2b0                uviowrtcharstr
                0x000dd3b8                uviowrtcharstratt
                0x000dd5b4                uviowrtnattr
                0x000dd7c4                uviowrtncell
                0x000dd920                uviowrtnchar
                0x000dda80                uviogetcurpos
                0x000ddb6c                uviosetcurpos
                0x000ddcc8                uviogetcurtype
                0x000ddd78                uviosetcurtype
                0x000ddeac                uviowrttty
                0x000ddeec                uviol_rgb2colorno
                0x000de104                uviol_colorno2rgb
                0x000de25c                uviogetstate
                0x000de510                uviosetstate
                0x000de6f0                uvioscrolldn
                0x000dea1c                uvioscrollup
                0x000ded48                uviol_clear
                0x000ded80                uviol_clearok
                0x000dedcc                uviol_refresh
                0x000dedf4                uviol_mvaddchnstr
                0x000def90                uviol_attrupdate
                0x000df428                uviol_set_padattrsub
 .text          0x000df4a8     0x3778 ../ulib/libuserxe.a(libuserxe_a-u3270.o)
                0x000df4a8                u3270init
                0x000df510                u3270fstat
                0x000dfb04                u3270findfile
                0x000dfd38                u3270fullpathistso
                0x000dfdc4                u3270getcwd
                0x000dfe4c                u3270chdir
                0x000dfee8                u3270fullpath
                0x000e01c4                u3270fullpathwildexp
                0x000e06e0                u3270getmembname
                0x000e0884                u3270chkmembname
                0x000e09cc                u3270getlastname
                0x000e0aa4                u3270getnthname
                0x000e0bac                u3270concatfilename
                0x000e0e94                u3270editname
                0x000e123c                u3270parsedsn
                0x000e12d8                u3270parentdsn
                0x000e1478                u3270getsetdsnwild
                0x000e1798                u3270pathlen
                0x000e18e8                u3270sethostuser
                0x000e199c                u3270cmdrequest
                0x000e1c14                u3270editrespmsg
                0x000e1d2c                u3270dirlistsub
                0x000e1fe8                u3270setdirlist
                0x000e24a8                u3270srchdirlist
                0x000e2574                u3270setdirlistdsn
                0x000e2840                u3270setattr
                0x000e295c                u3270getattrstr
                0x000e2be8                u3270errdsnpath
 .text          0x000e2c20     0x152c ../ulib/libuserxe.a(libuserxe_a-u32702.o)
                0x000e2c20                u3270mkdir
                0x000e2c58                u3270rmdir
                0x000e2c88                u3270xddsub
                0x000e2e08                u3270xdelete
                0x000e3018                u3270wildxdel
                0x000e3050                u3270xdelsub
                0x000e3158                u3270remove
                0x000e32bc                u3270rename
                0x000e350c                u3270renamesub
                0x000e35e0                u3270wildrename
                0x000e3630                u3270spfupdate
                0x000e3800                u3270spfsetparm
                0x000e3d3c                u3270attrib
                0x000e3d74                u3270attrxchk
                0x000e3da8                u3270getftime
                0x000e3de0                u3270setftime
                0x000e3e18                u3270setftime2
                0x000e3e50                u3270copypathinfo
                0x000e3e88                u3270setown
                0x000e3ec0                u3270setmod
                0x000e3ef4                u3270wildfunc
                0x000e40fc                u3270errnotsupported
 .text          0x000e414c     0x3ab0 ../ulib/libuserxe.a(libuserxe_a-u32703.o)
                0x000e414c                u3270xmove
                0x000e42bc                u3270xcopyr2r
                0x000e4584                u3270xcopy
                0x000e474c                u3270xcopyget
                0x000e5208                u3270xcopyput
                0x000e5cbc                u3270filecreateparmproc
                0x000e5f60                u3270filecpymvflags
                0x000e64b4                u3270filewildcopyget
                0x000e66fc                u3270filewildcopyput
                0x000e6a3c                u3270copysubget
                0x000e6c98                u3270copysubput
                0x000e7124                u3270transfer
                0x000e7688                u3270srcdupchk
                0x000e78cc                u3270copyspfupdate
                0x000e7b70                u3270setftpparm
 .text          0x000e7bfc       0x40 ../ulib/libuserxe.a(libuserxe_a-uabend.o)
                0x000e7bfc                uabend
 .text          0x000e7c3c     0x417c ../ulib/libuserxe.a(libuserxe_a-ucalc2.o)
                0x000e7c3c                bc_getxdw
                0x000e7d90                bc_getld
                0x000e7fe0                bc_dwbinop
                0x000e8598                bc_twbinop
                0x000e8ab8                bc_edittod
                0x000e8c2c                bc_dweditnum64
                0x000e8c94                bc_dweditnum
                0x000e8fb0                bc_dwupeditnum
                0x000e9178                ucalc_dwmult
                0x000e93cc                ucalc_twmult
                0x000e9894                ucalc_dwdiv
                0x000e9b74                ucalc_dwdiv2
                0x000e9eac                ucalc_twdiv
                0x000ea034                ucalc_twdivbyup
                0x000ea178                ucalc_twshiftup
                0x000ea294                ucalc_dwshiftdown
                0x000ea3c4                ucalc_ltime
                0x000ea7e4                ucalc_getdate
                0x000ea9d0                ucalc_nextday
                0x000eac80                ucalc_ld2dw
                0x000eb218                ucalc_dw2ld
                0x000eb324                ucalc_nsadd
                0x000eb58c                ucalc_ldedit
                0x000eb6cc                ucalc_dwupinit
                0x000eb72c                ucalc_dwupset
                0x000eb85c                bc_numfmt2dw
                0x000eb90c                bc_dw2numfmt
                0x000eb9e4                ucalc_dwup2dwandup
                0x000ebb88                bc_dword2word
                0x000ebc84                ucalc_dw2err
                0x000ebcbc                ucalc_dw2errresidual
                0x000ebd30                ucalc_dwuperr
                0x000ebd58                ucalc_dwmaxerr
                0x000ebd90                ucalcerrdwordovf
 .text          0x000ebdb8      0x354 ../ulib/libuserxe.a(libuserxe_a-uehl.o)
                0x000ebdb8                useteh
                0x000ebe84                uehl_setsh
                0x000ebed8                ureseteh
                0x000ebfa0                uehl_resetsh
                0x000ebfdc                usighandler
 .text          0x000ec10c      0xd74 ../ulib/libuserxe.a(libuserxe_a-uproc22.o)
                0x000ec10c                ukillpid
                0x000ec1a8                uthread
                0x000ec220                uevent
                0x000ec48c                uevent_wait1
                0x000ec658                uevent_post1
                0x000ec75c                uevent_waitm
                0x000ec940                uevent_postm
                0x000eca80                uevent_reset1
                0x000ecb14                uevent_setuplist
                0x000ecca8                uevent_resetlist
                0x000ecd58                ucriticalsection
 .text          0x000ece80     0x19c4 ../ulib/libuserxe.a(libuserxe_a-uproc3.o)
                0x000ece80                uproc_gvfsinit
                0x000ecee4                ushellexec
                0x000ed398                ushellexecsub
                0x000ed66c                ulnxlgettermpgmopt
                0x000ed7f0                ulnxlgetshellpgm
                0x000ed8bc                ulnxxgettermpgmopt
                0x000edbd0                uproc3pgmchk
                0x000edc74                usystemlnxterm
                0x000edd50                usleepms
                0x000eddf4                uprocconnect
                0x000ee0b0                uprocdisconnect
                0x000ee15c                uprocpipeio
                0x000ee368                startserver
                0x000ee3e4                uprocpiperead
                0x000ee478                uprocpiperecevmsg
                0x000ee5f4                uprocpipeiodata
 .text          0x000ee844     0x5de8 ../ulib/libuserxe.a(libuserxe_a-ucalc.o)
                0x000ee844                ucalc_bcmain
                0x000ef6c4                bc_opdchk
                0x000f05a8                getvarname
                0x000f0688                ucalc_chkvrparm
                0x000f0814                bc_getvalue
                0x000f0f08                ucalc_vrajust
                0x000f122c                ucalc_o2l
                0x000f1314                ucalc_gettimevalue
                0x000f173c                ucalc_getunderpointdata
                0x000f18a0                bc_opdcopy
                0x000f1b60                bc_putwordordword
                0x000f1c38                bc_expand2dword
                0x000f1cd4                ucalc_binop
                0x000f2270                ucalc_binopsub
                0x000f2d24                ucalc_underpoint
                0x000f300c                ucalc_editnum
                0x000f31d4                ucalc_editevenhex
                0x000f3260                ucalc_dwtime
                0x000f3448                ucalc_time
                0x000f3940                ucalc_timeedit
                0x000f3cd0                ucalc_shiftdown
                0x000f3e1c                ucalc_shiftup
                0x000f3f5c                bc_getbase
                0x000f3fa0                calcuperr1
                0x000f3fc8                calcuperr2
                0x000f3ff0                calcuperr3
                0x000f4018                calcerrinvalid
                0x000f4050                calcerrinvalid_dw
                0x000f4088                calcerrformat
                0x000f40b0                calcerrunderflow
                0x000f40dc                calcerrwordovf
                0x000f4120                calcerrminus
                0x000f4148                calcerr0div
                0x000f4170                calcerrtimeop
                0x000f4198                bc_getvalue3
                0x000f444c                bc_setconvtype3
 .text          0x000f462c      0x20c /usr/lib/gcc/arm-linux-gnueabihf/8/libgcc.a(_udivsi3.o)
                0x000f462c                __aeabi_uidiv
                0x000f462c                __udivsi3
                0x000f4818                __aeabi_uidivmod
 .text          0x000f4838      0x240 /usr/lib/gcc/arm-linux-gnueabihf/8/libgcc.a(_divsi3.o)
                0x000f4838                __divsi3
                0x000f4838                __aeabi_idiv
                0x000f4a58                __aeabi_idivmod
 .text          0x000f4a78       0xd4 /usr/lib/gcc/arm-linux-gnueabihf/8/libgcc.a(_aeabi_ldivmod.o)
                0x000f4a78                __aeabi_ldivmod
 .text          0x000f4b4c       0x10 /usr/lib/gcc/arm-linux-gnueabihf/8/libgcc.a(_dvmd_lnx.o)
                0x000f4b4c                __aeabi_idiv0
                0x000f4b4c                __aeabi_ldiv0
 .text          0x000f4b5c      0x128 /usr/lib/gcc/arm-linux-gnueabihf/8/libgcc.a(_udivmoddi4.o)
                0x000f4b5c                __udivmoddi4
 .text          0x000f4c84       0x64 //usr/lib/arm-linux-gnueabihf/libc_nonshared.a(elf-init.oS)
                0x000f4c84                __libc_csu_init
                0x000f4ce4                __libc_csu_fini
 .text          0x000f4ce8       0x10 //usr/lib/arm-linux-gnueabihf/libc_nonshared.a(stat64.oS)
                0x000f4ce8                stat64
 .text          0x000f4cf8       0x10 //usr/lib/arm-linux-gnueabihf/libc_nonshared.a(lstat64.oS)
                0x000f4cf8                lstat64
 .text          0x000f4d08        0x0 /usr/lib/gcc/arm-linux-gnueabihf/8/crtend.o
 .text          0x000f4d08        0x0 /usr/lib/gcc/arm-linux-gnueabihf/8/../../../arm-linux-gnueabihf/crtn.o
 *(.gnu.warning)
 *(.glue_7t)
 .glue_7t       0x000f4d08        0x0 linker stubs
 *(.glue_7)
 .glue_7        0x000f4d08        0x0 linker stubs
 *(.vfp11_veneer)
 .vfp11_veneer  0x000f4d08        0x0 linker stubs
 *(.v4_bx)
 .v4_bx         0x000f4d08        0x0 linker stubs

.fini           0x000f4d08        0x8
 *(SORT_NONE(.fini))
 .fini          0x000f4d08        0x4 /usr/lib/gcc/arm-linux-gnueabihf/8/../../../arm-linux-gnueabihf/crti.o
                0x000f4d08                _fini
 .fini          0x000f4d0c        0x4 /usr/lib/gcc/arm-linux-gnueabihf/8/../../../arm-linux-gnueabihf/crtn.o
                [!provide]                PROVIDE (__etext = .)
                [!provide]                PROVIDE (_etext = .)
                [!provide]                PROVIDE (etext = .)

.rodata         0x000f4d10     0xe0c1
 *(.rodata .rodata.* .gnu.linkonce.r.*)
 .rodata.cst4   0x000f4d10        0x4 /usr/lib/gcc/arm-linux-gnueabihf/8/../../../arm-linux-gnueabihf/crt1.o
                0x000f4d10                _IO_stdin_used
 .rodata        0x000f4d14      0xdc9 xekbchk-xekbchk.o
 *fill*         0x000f5add        0x3 
 .rodata        0x000f5ae0       0xe1 xekbchk-xecsr.o
 *fill*         0x000f5bc1        0x3 
 .rodata        0x000f5bc4      0x1a1 xekbchk-xeebc.o
 *fill*         0x000f5d65        0x3 
 .rodata        0x000f5d68      0x5f1 xekbchk-xeerr.o
 *fill*         0x000f6359        0x3 
 .rodata        0x000f635c      0x342 xekbchk-xefunc.o
 *fill*         0x000f669e        0x2 
 .rodata        0x000f66a0       0x41 xekbchk-xefunct.o
 *fill*         0x000f66e1        0x3 
 .rodata        0x000f66e4      0x2b6 xekbchk-xefunct2.o
 *fill*         0x000f699a        0x2 
 .rodata        0x000f699c       0x35 xekbchk-xegbl.o
 *fill*         0x000f69d1        0x3 
 .rodata        0x000f69d4      0x248 xekbchk-xekbd.o
 .rodata        0x000f6c1c      0x32d xekbchk-xescr.o
 *fill*         0x000f6f49        0x3 
 .rodata        0x000f6f4c       0x44 xekbchk-xescr2.o
 .rodata        0x000f6f90      0x3ea xekbchk-xesub.o
 *fill*         0x000f737a        0x2 
 .rodata        0x000f737c      0x1f0 xekbchk-xeutf2.o
 .rodata        0x000f756c      0x571 ../ulib/libuserxe.a(libuserxe_a-uallocl.o)
 *fill*         0x000f7add        0x3 
 .rodata        0x000f7ae0      0x88e ../ulib/libuserxe.a(libuserxe_a-ucvebc.o)
 *fill*         0x000f836e        0x2 
 .rodata        0x000f8370      0x221 ../ulib/libuserxe.a(libuserxe_a-ucvebc2.o)
 *fill*         0x000f8591        0x3 
 .rodata        0x000f8594       0x8f ../ulib/libuserxe.a(libuserxe_a-ucvebc3.o)
 *fill*         0x000f8623        0x1 
 .rodata        0x000f8624       0xac ../ulib/libuserxe.a(libuserxe_a-ucvebc4.o)
 .rodata        0x000f86d0      0x8e8 ../ulib/libuserxe.a(libuserxe_a-ucvext.o)
 .rodata        0x000f8fb8       0xca ../ulib/libuserxe.a(libuserxe_a-ucvext12.o)
 *fill*         0x000f9082        0x2 
 .rodata        0x000f9084      0x172 ../ulib/libuserxe.a(libuserxe_a-ucvext2.o)
 *fill*         0x000f91f6        0x2 
 .rodata        0x000f91f8       0xa2 ../ulib/libuserxe.a(libuserxe_a-ucvucs.o)
 *fill*         0x000f929a        0x2 
 .rodata        0x000f929c      0x10c ../ulib/libuserxe.a(libuserxe_a-udbcschk.o)
 .rodata        0x000f93a8        0xc ../ulib/libuserxe.a(libuserxe_a-udbcsck2.o)
 .rodata        0x000f93b4       0x47 ../ulib/libuserxe.a(libuserxe_a-udos2.o)
 *fill*         0x000f93fb        0x1 
 .rodata        0x000f93fc       0xed ../ulib/libuserxe.a(libuserxe_a-uedit.o)
 *fill*         0x000f94e9        0x3 
 .rodata        0x000f94ec       0xbd ../ulib/libuserxe.a(libuserxe_a-uedit2.o)
 *fill*         0x000f95a9        0x3 
 .rodata        0x000f95ac      0x30d ../ulib/libuserxe.a(libuserxe_a-uerr.o)
 *fill*         0x000f98b9        0x3 
 .rodata        0x000f98bc      0x8b9 ../ulib/libuserxe.a(libuserxe_a-ufemsg.o)
 *fill*         0x000fa175        0x3 
 .rodata        0x000fa178      0x113 ../ulib/libuserxe.a(libuserxe_a-ufile.o)
 *fill*         0x000fa28b        0x1 
 .rodata        0x000fa28c      0x12b ../ulib/libuserxe.a(libuserxe_a-ufile1f.o)
 *fill*         0x000fa3b7        0x1 
 .rodata        0x000fa3b8      0x6a3 ../ulib/libuserxe.a(libuserxe_a-ufile1l.o)
 *fill*         0x000faa5b        0x1 
 .rodata        0x000faa5c      0x10f ../ulib/libuserxe.a(libuserxe_a-ufile1l2.o)
 *fill*         0x000fab6b        0x1 
 .rodata        0x000fab6c      0x7e4 ../ulib/libuserxe.a(libuserxe_a-ufile2.o)
 .rodata        0x000fb350      0x357 ../ulib/libuserxe.a(libuserxe_a-ufile2f.o)
 *fill*         0x000fb6a7        0x1 
 .rodata        0x000fb6a8       0xf6 ../ulib/libuserxe.a(libuserxe_a-ufile2l.o)
 *fill*         0x000fb79e        0x2 
 .rodata        0x000fb7a0       0xfc ../ulib/libuserxe.a(libuserxe_a-ufile2l2.o)
 .rodata        0x000fb89c      0x4da ../ulib/libuserxe.a(libuserxe_a-ufile3.o)
 *fill*         0x000fbd76        0x2 
 .rodata        0x000fbd78      0x476 ../ulib/libuserxe.a(libuserxe_a-ufile3f.o)
 *fill*         0x000fc1ee        0x2 
 .rodata        0x000fc1f0      0x234 ../ulib/libuserxe.a(libuserxe_a-ufile4.o)
 .rodata        0x000fc424      0x1a6 ../ulib/libuserxe.a(libuserxe_a-ufile5.o)
 *fill*         0x000fc5ca        0x2 
 .rodata        0x000fc5cc      0x619 ../ulib/libuserxe.a(libuserxe_a-uftp.o)
 *fill*         0x000fcbe5        0x3 
 .rodata        0x000fcbe8      0x45c ../ulib/libuserxe.a(libuserxe_a-uftp2.o)
 .rodata        0x000fd044      0x512 ../ulib/libuserxe.a(libuserxe_a-uftp3.o)
 *fill*         0x000fd556        0x2 
 .rodata        0x000fd558        0xb ../ulib/libuserxe.a(libuserxe_a-ugcclib.o)
 *fill*         0x000fd563        0x1 
 .rodata        0x000fd564       0xef ../ulib/libuserxe.a(libuserxe_a-ukbdl.o)
 *fill*         0x000fd653        0x1 
 .rodata        0x000fd654      0xf2a ../ulib/libuserxe.a(libuserxe_a-ukbdlnxc.o)
 *fill*         0x000fe57e        0x2 
 .rodata        0x000fe580       0x2d ../ulib/libuserxe.a(libuserxe_a-uparse.o)
 *fill*         0x000fe5ad        0x3 
 .rodata        0x000fe5b0      0x4fd ../ulib/libuserxe.a(libuserxe_a-uproc.o)
 *fill*         0x000feaad        0x3 
 .rodata        0x000feab0      0x168 ../ulib/libuserxe.a(libuserxe_a-uproc2.o)
 .rodata        0x000fec18      0x341 ../ulib/libuserxe.a(libuserxe_a-uproc4.o)
 *fill*         0x000fef59        0x3 
 .rodata        0x000fef5c      0x384 ../ulib/libuserxe.a(libuserxe_a-uque.o)
 .rodata        0x000ff2e0       0x7e ../ulib/libuserxe.a(libuserxe_a-ustrcpy.o)
 *fill*         0x000ff35e        0x2 
 .rodata        0x000ff360        0x4 ../ulib/libuserxe.a(libuserxe_a-ustring.o)
 .rodata        0x000ff364      0x1cc ../ulib/libuserxe.a(libuserxe_a-utf2.o)
 .rodata        0x000ff530      0x325 ../ulib/libuserxe.a(libuserxe_a-utf22.o)
 *fill*         0x000ff855        0x3 
 .rodata        0x000ff858      0x133 ../ulib/libuserxe.a(libuserxe_a-utf3.o)
 *fill*         0x000ff98b        0x1 
 .rodata        0x000ff98c     0x19d0 ../ulib/libuserxe.a(libuserxe_a-utf4.o)
 .rodata        0x0010135c      0x161 ../ulib/libuserxe.a(libuserxe_a-utrace.o)
 *fill*         0x001014bd        0x3 
 .rodata        0x001014c0       0x98 ../ulib/libuserxe.a(libuserxe_a-uunxsub.o)
 .rodata        0x00101558        0x2 ../ulib/libuserxe.a(libuserxe_a-uviom.o)
 *fill*         0x0010155a        0x2 
 .rodata        0x0010155c       0x7a ../ulib/libuserxe.a(libuserxe_a-uviol.o)
 *fill*         0x001015d6        0x2 
 .rodata        0x001015d8      0x161 ../ulib/libuserxe.a(libuserxe_a-u3270.o)
 *fill*         0x00101739        0x3 
 .rodata        0x0010173c      0x1ad ../ulib/libuserxe.a(libuserxe_a-u32702.o)
 *fill*         0x001018e9        0x3 
 .rodata        0x001018ec      0x395 ../ulib/libuserxe.a(libuserxe_a-u32703.o)
 *fill*         0x00101c81        0x3 
 .rodata        0x00101c84       0x30 ../ulib/libuserxe.a(libuserxe_a-uabend.o)
 .rodata        0x00101cb4      0x7c3 ../ulib/libuserxe.a(libuserxe_a-ucalc2.o)
 *fill*         0x00102477        0x1 
 .rodata        0x00102478       0x33 ../ulib/libuserxe.a(libuserxe_a-uehl.o)
 *fill*         0x001024ab        0x1 
 .rodata        0x001024ac       0x66 ../ulib/libuserxe.a(libuserxe_a-uproc22.o)
 *fill*         0x00102512        0x2 
 .rodata        0x00102514      0x410 ../ulib/libuserxe.a(libuserxe_a-uproc3.o)
 .rodata        0x00102924      0x4ad ../ulib/libuserxe.a(libuserxe_a-ucalc.o)

.rodata1
 *(.rodata1)

.ARM.extab      0x00102dd1        0x0
 *(.ARM.extab* .gnu.linkonce.armextab.*)
 .ARM.extab     0x00102dd1        0x0 /usr/lib/gcc/arm-linux-gnueabihf/8/../../../arm-linux-gnueabihf/crt1.o
 .ARM.extab     0x00102dd1        0x0 /usr/lib/gcc/arm-linux-gnueabihf/8/libgcc.a(_udivmoddi4.o)
                [!provide]                PROVIDE (__exidx_start = .)

.ARM.exidx      0x00102dd4        0x8
 *(.ARM.exidx* .gnu.linkonce.armexidx.*)
 .ARM.exidx     0x00102dd4        0x8 /usr/lib/gcc/arm-linux-gnueabihf/8/../../../arm-linux-gnueabihf/crt1.o
 .ARM.exidx     0x00102ddc        0x0 /usr/lib/gcc/arm-linux-gnueabihf/8/libgcc.a(_udivmoddi4.o)
                                  0x8 (size before relaxing)
                [!provide]                PROVIDE (__exidx_end = .)

.eh_frame_hdr
 *(.eh_frame_hdr)
 *(.eh_frame_entry .eh_frame_entry.*)

.eh_frame       0x00102ddc        0x4
 *(.eh_frame)
 .eh_frame      0x00102ddc        0x4 /usr/lib/gcc/arm-linux-gnueabihf/8/crtend.o
 *(.eh_frame.*)

.gcc_except_table
 *(.gcc_except_table .gcc_except_table.*)

.gnu_extab
 *(.gnu_extab*)

.exception_ranges
 *(.exception_ranges .exception_ranges*)
                0x00112e08                . = DATA_SEGMENT_ALIGN (CONSTANT (MAXPAGESIZE), CONSTANT (COMMONPAGESIZE))

.eh_frame
 *(.eh_frame)
 *(.eh_frame.*)

.gnu_extab
 *(.gnu_extab)

.gcc_except_table
 *(.gcc_except_table .gcc_except_table.*)

.exception_ranges
 *(.exception_ranges .exception_ranges*)

.tdata          0x00112e08        0x0
                [!provide]                PROVIDE (__tdata_start = .)
 *(.tdata .tdata.* .gnu.linkonce.td.*)

.tbss
 *(.tbss .tbss.* .gnu.linkonce.tb.*)
 *(.tcommon)

.preinit_array  0x00112e08        0x0
                [!provide]                PROVIDE (__preinit_array_start = .)
 *(.preinit_array)
                [!provide]                PROVIDE (__preinit_array_end = .)

.init_array     0x00112e08        0x4
                0x00112e08                PROVIDE (__init_array_start = .)
 *(SORT_BY_INIT_PRIORITY(.init_array.*) SORT_BY_INIT_PRIORITY(.ctors.*))
 *(.init_array EXCLUDE_FILE(*crtend?.o *crtend.o *crtbegin?.o *crtbegin.o) .ctors)
 .init_array    0x00112e08        0x4 /usr/lib/gcc/arm-linux-gnueabihf/8/crtbegin.o
                0x00112e0c                PROVIDE (__init_array_end = .)

.fini_array     0x00112e0c        0x4
                [!provide]                PROVIDE (__fini_array_start = .)
 *(SORT_BY_INIT_PRIORITY(.fini_array.*) SORT_BY_INIT_PRIORITY(.dtors.*))
 *(.fini_array EXCLUDE_FILE(*crtend?.o *crtend.o *crtbegin?.o *crtbegin.o) .dtors)
 .fini_array    0x00112e0c        0x4 /usr/lib/gcc/arm-linux-gnueabihf/8/crtbegin.o
                [!provide]                PROVIDE (__fini_array_end = .)

.ctors
 *crtbegin.o(.ctors)
 *crtbegin?.o(.ctors)
 *(EXCLUDE_FILE(*crtend?.o *crtend.o) .ctors)
 *(SORT_BY_NAME(.ctors.*))
 *(.ctors)

.dtors
 *crtbegin.o(.dtors)
 *crtbegin?.o(.dtors)
 *(EXCLUDE_FILE(*crtend?.o *crtend.o) .dtors)
 *(SORT_BY_NAME(.dtors.*))
 *(.dtors)

.jcr
 *(.jcr)

.data.rel.ro    0x00112e10        0x0
 *(.data.rel.ro.local* .gnu.linkonce.d.rel.ro.local.*)
 *(.data.rel.ro .data.rel.ro.* .gnu.linkonce.d.rel.ro.*)
 .data.rel.ro   0x00112e10        0x0 /usr/lib/gcc/arm-linux-gnueabihf/8/../../../arm-linux-gnueabihf/crt1.o

.dynamic        0x00112e10      0x1f0
 *(.dynamic)
 .dynamic       0x00112e10      0x1f0 /usr/lib/gcc/arm-linux-gnueabihf/8/../../../arm-linux-gnueabihf/crt1.o
                0x00112e10                _DYNAMIC
                0x00113000                . = DATA_SEGMENT_RELRO_END (., 0x0)

.got            0x00113000      0x2e0
 *(.got.plt)
 .got.plt       0x00113000      0x2dc /usr/lib/gcc/arm-linux-gnueabihf/8/../../../arm-linux-gnueabihf/crt1.o
                0x00113000                _GLOBAL_OFFSET_TABLE_
 *(.igot.plt)
 .igot.plt      0x001132dc        0x0 /usr/lib/gcc/arm-linux-gnueabihf/8/../../../arm-linux-gnueabihf/crt1.o
 *(.got)
 .got           0x001132dc        0x4 /usr/lib/gcc/arm-linux-gnueabihf/8/../../../arm-linux-gnueabihf/crt1.o
 *(.igot)

.data           0x001132e0    0x2d0ec
                [!provide]                PROVIDE (__data_start = .)
 *(.data .data.* .gnu.linkonce.d.*)
 .data          0x001132e0        0x4 /usr/lib/gcc/arm-linux-gnueabihf/8/../../../arm-linux-gnueabihf/crt1.o
                0x001132e0                __data_start
                0x001132e0                data_start
 .data          0x001132e4        0x0 /usr/lib/gcc/arm-linux-gnueabihf/8/../../../arm-linux-gnueabihf/crti.o
 .data          0x001132e4        0x4 /usr/lib/gcc/arm-linux-gnueabihf/8/crtbegin.o
                0x001132e4                __dso_handle
 .data          0x001132e8       0x50 xekbchk-xekbchk.o
                0x001132e8                Glargefilesz
                0x001132f0                Gcmdmaxstack
                0x001132f4                Gfiletabskip
                0x001132f8                Gkbdspeed
                0x001132fc                Gkbddelay
                0x00113300                Gkbdspeed2
                0x00113304                Gkbddelay2
                0x00113308                Goptopt
                0x00113309                Goptopt2
                0x0011330c                Goptcombaltch
                0x00113310                GoptcombaltchNP
 .data          0x00113338        0x0 xekbchk-xecsr.o
 .data          0x00113338        0x0 xekbchk-xeebc.o
 .data          0x00113338        0x0 xekbchk-xeerr.o
 .data          0x00113338       0x27 xekbchk-xefunc.o
 *fill*         0x0011335f        0x1 
 .data          0x00113360     0x4514 xekbchk-xefunct.o
 .data          0x00117874       0x40 xekbchk-xefunct2.o
 .data          0x001178b4      0x410 xekbchk-xegbl.o
 .data          0x00117cc4     0x1052 xekbchk-xekbd.o
 *fill*         0x00118d16        0x2 
 .data          0x00118d18       0x7c xekbchk-xescr.o
 .data          0x00118d94        0x0 xekbchk-xescr2.o
 .data          0x00118d94        0x2 xekbchk-xesub.o
 .data          0x00118d96        0x0 xekbchk-xesub2.o
 .data          0x00118d96        0x0 xekbchk-xeutf2.o
 .data          0x00118d96        0x0 xekbchk-xeutf.o
 *fill*         0x00118d96        0x2 
 .data          0x00118d98     0x1000 ../ulib/libuserxe.a(libuserxe_a-uallocl.o)
 .data          0x00119d98      0x248 ../ulib/libuserxe.a(libuserxe_a-ucvebc.o)
 .data          0x00119fe0        0x0 ../ulib/libuserxe.a(libuserxe_a-ucvebc2.o)
 .data          0x00119fe0        0x8 ../ulib/libuserxe.a(libuserxe_a-ucvebc3.o)
 .data          0x00119fe8        0x0 ../ulib/libuserxe.a(libuserxe_a-ucvebc32.o)
 .data          0x00119fe8        0x0 ../ulib/libuserxe.a(libuserxe_a-ucvebc4.o)
 .data          0x00119fe8     0xed30 ../ulib/libuserxe.a(libuserxe_a-ucvebct.o)
 .data          0x00128d18      0x316 ../ulib/libuserxe.a(libuserxe_a-ucvext.o)
 .data          0x0012902e        0x6 ../ulib/libuserxe.a(libuserxe_a-ucvext12.o)
 .data          0x00129034        0x0 ../ulib/libuserxe.a(libuserxe_a-ucvext2.o)
 .data          0x00129034       0x28 ../ulib/libuserxe.a(libuserxe_a-ucvucs.o)
 .data          0x0012905c     0x7cb0 ../ulib/libuserxe.a(libuserxe_a-ucvucst.o)
                0x0012905c                Scp932tb
 .data          0x00130d0c        0x8 ../ulib/libuserxe.a(libuserxe_a-udbcschk.o)
                0x00130d0c                Gpdbcstbl
 .data          0x00130d14     0x1148 ../ulib/libuserxe.a(libuserxe_a-udbcsck2.o)
 .data          0x00131e5c        0x0 ../ulib/libuserxe.a(libuserxe_a-udos2.o)
 .data          0x00131e5c        0x0 ../ulib/libuserxe.a(libuserxe_a-uedit.o)
 .data          0x00131e5c       0x78 ../ulib/libuserxe.a(libuserxe_a-uedit2.o)
 .data          0x00131ed4        0xd ../ulib/libuserxe.a(libuserxe_a-uerr.o)
 .data          0x00131ee1        0x0 ../ulib/libuserxe.a(libuserxe_a-ufemsg.o)
 *fill*         0x00131ee1        0x3 
 .data          0x00131ee4        0xc ../ulib/libuserxe.a(libuserxe_a-ufile.o)
 .data          0x00131ef0        0x0 ../ulib/libuserxe.a(libuserxe_a-ufile1f.o)
 .data          0x00131ef0        0x0 ../ulib/libuserxe.a(libuserxe_a-ufile1l.o)
 .data          0x00131ef0       0x2c ../ulib/libuserxe.a(libuserxe_a-ufile1l2.o)
 .data          0x00131f1c        0x0 ../ulib/libuserxe.a(libuserxe_a-ufile2.o)
 .data          0x00131f1c        0x0 ../ulib/libuserxe.a(libuserxe_a-ufile2f.o)
 .data          0x00131f1c        0x0 ../ulib/libuserxe.a(libuserxe_a-ufile2l.o)
 .data          0x00131f1c        0x0 ../ulib/libuserxe.a(libuserxe_a-ufile2l2.o)
 .data          0x00131f1c        0x0 ../ulib/libuserxe.a(libuserxe_a-ufile3.o)
 .data          0x00131f1c        0x0 ../ulib/libuserxe.a(libuserxe_a-ufile3f.o)
 .data          0x00131f1c        0x0 ../ulib/libuserxe.a(libuserxe_a-ufile4.o)
 .data          0x00131f1c        0x0 ../ulib/libuserxe.a(libuserxe_a-ufile5.o)
 .data          0x00131f1c       0x10 ../ulib/libuserxe.a(libuserxe_a-uftp.o)
 .data          0x00131f2c       0x50 ../ulib/libuserxe.a(libuserxe_a-uftp2.o)
 .data          0x00131f7c        0x4 ../ulib/libuserxe.a(libuserxe_a-uftp3.o)
 .data          0x00131f80        0x0 ../ulib/libuserxe.a(libuserxe_a-ugcclib.o)
 .data          0x00131f80        0x0 ../ulib/libuserxe.a(libuserxe_a-ukbdl.o)
 .data          0x00131f80     0xb6bc ../ulib/libuserxe.a(libuserxe_a-ukbdlnxc.o)
 .data          0x0013d63c       0x10 ../ulib/libuserxe.a(libuserxe_a-ukbdlnxm.o)
 .data          0x0013d64c        0x0 ../ulib/libuserxe.a(libuserxe_a-uparse.o)
 .data          0x0013d64c       0x20 ../ulib/libuserxe.a(libuserxe_a-uproc.o)
 .data          0x0013d66c        0x0 ../ulib/libuserxe.a(libuserxe_a-uproc2.o)
 .data          0x0013d66c        0x0 ../ulib/libuserxe.a(libuserxe_a-uproc4.o)
 .data          0x0013d66c        0x0 ../ulib/libuserxe.a(libuserxe_a-uque.o)
 .data          0x0013d66c        0x0 ../ulib/libuserxe.a(libuserxe_a-ustrcpy.o)
 .data          0x0013d66c       0xfb ../ulib/libuserxe.a(libuserxe_a-ustring.o)
 .data          0x0013d767        0x0 ../ulib/libuserxe.a(libuserxe_a-utf.o)
 .data          0x0013d767        0x0 ../ulib/libuserxe.a(libuserxe_a-utf2.o)
 *fill*         0x0013d767        0x1 
 .data          0x0013d768      0x164 ../ulib/libuserxe.a(libuserxe_a-utf22.o)
 .data          0x0013d8cc      0xe98 ../ulib/libuserxe.a(libuserxe_a-utf3.o)
 .data          0x0013e764        0x0 ../ulib/libuserxe.a(libuserxe_a-utf4.o)
 .data          0x0013e764     0x1928 ../ulib/libuserxe.a(libuserxe_a-utrace.o)
 .data          0x0014008c        0x0 ../ulib/libuserxe.a(libuserxe_a-uunxsub.o)
 .data          0x0014008c        0x4 ../ulib/libuserxe.a(libuserxe_a-uviom.o)
                0x0014008c                Guviomdbcspad
 .data          0x00140090        0xc ../ulib/libuserxe.a(libuserxe_a-uviol.o)
 .data          0x0014009c        0x4 ../ulib/libuserxe.a(libuserxe_a-u3270.o)
 .data          0x001400a0        0x0 ../ulib/libuserxe.a(libuserxe_a-u32702.o)
 .data          0x001400a0        0x0 ../ulib/libuserxe.a(libuserxe_a-u32703.o)
 .data          0x001400a0        0x0 ../ulib/libuserxe.a(libuserxe_a-uabend.o)
 .data          0x001400a0      0x24c ../ulib/libuserxe.a(libuserxe_a-ucalc2.o)
 .data          0x001402ec       0x38 ../ulib/libuserxe.a(libuserxe_a-uehl.o)
 .data          0x00140324        0x0 ../ulib/libuserxe.a(libuserxe_a-uproc22.o)
 .data          0x00140324       0x54 ../ulib/libuserxe.a(libuserxe_a-uproc3.o)
 .data          0x00140378       0x54 ../ulib/libuserxe.a(libuserxe_a-ucalc.o)
 .data          0x001403cc        0x0 /usr/lib/gcc/arm-linux-gnueabihf/8/libgcc.a(_udivsi3.o)
 .data          0x001403cc        0x0 /usr/lib/gcc/arm-linux-gnueabihf/8/libgcc.a(_divsi3.o)
 .data          0x001403cc        0x0 /usr/lib/gcc/arm-linux-gnueabihf/8/libgcc.a(_aeabi_ldivmod.o)
 .data          0x001403cc        0x0 /usr/lib/gcc/arm-linux-gnueabihf/8/libgcc.a(_dvmd_lnx.o)
 .data          0x001403cc        0x0 /usr/lib/gcc/arm-linux-gnueabihf/8/libgcc.a(_udivmoddi4.o)
 .data          0x001403cc        0x0 //usr/lib/arm-linux-gnueabihf/libc_nonshared.a(elf-init.oS)
 .data          0x001403cc        0x0 //usr/lib/arm-linux-gnueabihf/libc_nonshared.a(stat64.oS)
 .data          0x001403cc        0x0 //usr/lib/arm-linux-gnueabihf/libc_nonshared.a(lstat64.oS)
 .data          0x001403cc        0x0 /usr/lib/gcc/arm-linux-gnueabihf/8/crtend.o
 .data          0x001403cc        0x0 /usr/lib/gcc/arm-linux-gnueabihf/8/../../../arm-linux-gnueabihf/crtn.o

.tm_clone_table
                0x001403cc        0x0
 .tm_clone_table
                0x001403cc        0x0 /usr/lib/gcc/arm-linux-gnueabihf/8/crtbegin.o
 .tm_clone_table
                0x001403cc        0x0 /usr/lib/gcc/arm-linux-gnueabihf/8/crtend.o

.data1
 *(.data1)
                0x001403cc                _edata = .
                [!provide]                PROVIDE (edata = .)
                0x001403cc                . = .
                0x001403cc                __bss_start = .
                0x001403cc                __bss_start__ = .

.bss            0x001403d0   0x157500
 *(.dynbss)
 .dynbss        0x001403d0      0x230 /usr/lib/gcc/arm-linux-gnueabihf/8/../../../arm-linux-gnueabihf/crt1.o
                0x001403d0                COLORS@@NCURSESW6_5.1.20000708
                0x001403d4                LINES@@NCURSES6_TINFO_5.0.19991023
                0x001403d8                acs_map@@NCURSES6_TINFO_5.0.19991023
                0x001405d8                stdscr@@NCURSES6_TINFO_5.0.19991023
                0x001405dc                cur_term@@NCURSES6_TINFO_5.0.19991023
                0x001405e0                COLS@@NCURSES6_TINFO_5.0.19991023
                0x001405e4                stdout@@GLIBC_2.4
                0x001405e8                COLOR_PAIRS@@NCURSESW6_5.1.20000708
                0x001405f0                stdin@@GLIBC_2.4
                0x001405f8                stderr@@GLIBC_2.4
                0x001405fc                newscr@@NCURSES6_TINFO_5.0.19991023
 *(.bss .bss.* .gnu.linkonce.b.*)
 .bss           0x00140600        0x0 /usr/lib/gcc/arm-linux-gnueabihf/8/../../../arm-linux-gnueabihf/crt1.o
 .bss           0x00140600        0x0 /usr/lib/gcc/arm-linux-gnueabihf/8/../../../arm-linux-gnueabihf/crti.o
 .bss           0x00140600        0x1 /usr/lib/gcc/arm-linux-gnueabihf/8/crtbegin.o
 *fill*         0x00140601        0x3 
 .bss           0x00140604      0x13c xekbchk-xekbchk.o
 .bss           0x00140740       0x49 xekbchk-xecsr.o
 .bss           0x00140789        0x0 xekbchk-xeebc.o
 .bss           0x00140789        0x0 xekbchk-xeerr.o
 *fill*         0x00140789        0x3 
 .bss           0x0014078c     0x2928 xekbchk-xefunc.o
 .bss           0x001430b4        0x4 xekbchk-xefunct.o
 .bss           0x001430b8     0x224c xekbchk-xefunct2.o
 .bss           0x00145304        0x0 xekbchk-xegbl.o
 .bss           0x00145304      0x330 xekbchk-xekbd.o
 .bss           0x00145634      0x1a4 xekbchk-xescr.o
                0x00145634                Gscrbuffheight
                0x00145638                Gscrbuffwidth
                0x0014563c                Gscropt
 .bss           0x001457d8        0x0 xekbchk-xescr2.o
 .bss           0x001457d8       0x10 xekbchk-xesub.o
 .bss           0x001457e8        0x0 xekbchk-xesub2.o
 .bss           0x001457e8        0x0 xekbchk-xeutf2.o
 .bss           0x001457e8     0x5092 xekbchk-xeutf.o
 *fill*         0x0014a87a        0x2 
 .bss           0x0014a87c       0x84 ../ulib/libuserxe.a(libuserxe_a-uallocl.o)
 .bss           0x0014a900      0x790 ../ulib/libuserxe.a(libuserxe_a-ucvebc.o)
 .bss           0x0014b090       0x10 ../ulib/libuserxe.a(libuserxe_a-ucvebc2.o)
 .bss           0x0014b0a0       0x34 ../ulib/libuserxe.a(libuserxe_a-ucvebc3.o)
 .bss           0x0014b0d4        0x0 ../ulib/libuserxe.a(libuserxe_a-ucvebc32.o)
 .bss           0x0014b0d4        0x4 ../ulib/libuserxe.a(libuserxe_a-ucvebc4.o)
 .bss           0x0014b0d8        0x0 ../ulib/libuserxe.a(libuserxe_a-ucvebct.o)
 .bss           0x0014b0d8     0x1cd4 ../ulib/libuserxe.a(libuserxe_a-ucvext.o)
 .bss           0x0014cdac       0x24 ../ulib/libuserxe.a(libuserxe_a-ucvext12.o)
 .bss           0x0014cdd0        0xc ../ulib/libuserxe.a(libuserxe_a-ucvext2.o)
 .bss           0x0014cddc        0xc ../ulib/libuserxe.a(libuserxe_a-ucvucs.o)
 .bss           0x0014cde8        0x0 ../ulib/libuserxe.a(libuserxe_a-ucvucst.o)
 .bss           0x0014cde8      0x2f9 ../ulib/libuserxe.a(libuserxe_a-udbcschk.o)
 .bss           0x0014d0e1        0x0 ../ulib/libuserxe.a(libuserxe_a-udbcsck2.o)
 .bss           0x0014d0e1        0x0 ../ulib/libuserxe.a(libuserxe_a-udos2.o)
 *fill*         0x0014d0e1        0x3 
 .bss           0x0014d0e4       0xd8 ../ulib/libuserxe.a(libuserxe_a-uedit.o)
 .bss           0x0014d1bc      0x268 ../ulib/libuserxe.a(libuserxe_a-uedit2.o)
 .bss           0x0014d424     0x40e4 ../ulib/libuserxe.a(libuserxe_a-uerr.o)
 .bss           0x00151508       0x20 ../ulib/libuserxe.a(libuserxe_a-ufemsg.o)
 .bss           0x00151528       0x18 ../ulib/libuserxe.a(libuserxe_a-ufile.o)
 .bss           0x00151540        0x4 ../ulib/libuserxe.a(libuserxe_a-ufile1f.o)
 .bss           0x00151544    0x64658 ../ulib/libuserxe.a(libuserxe_a-ufile1l.o)
 .bss           0x001b5b9c        0x4 ../ulib/libuserxe.a(libuserxe_a-ufile1l2.o)
 .bss           0x001b5ba0       0x34 ../ulib/libuserxe.a(libuserxe_a-ufile2.o)
 .bss           0x001b5bd4       0x20 ../ulib/libuserxe.a(libuserxe_a-ufile2f.o)
 .bss           0x001b5bf4        0x4 ../ulib/libuserxe.a(libuserxe_a-ufile2l.o)
 .bss           0x001b5bf8        0x0 ../ulib/libuserxe.a(libuserxe_a-ufile2l2.o)
 .bss           0x001b5bf8        0x8 ../ulib/libuserxe.a(libuserxe_a-ufile3.o)
 .bss           0x001b5c00     0x100d ../ulib/libuserxe.a(libuserxe_a-ufile3f.o)
 *fill*         0x001b6c0d        0x3 
 .bss           0x001b6c10     0x1034 ../ulib/libuserxe.a(libuserxe_a-ufile4.o)
 *fill*         0x001b7c44        0x4 
 .bss           0x001b7c48       0x5d ../ulib/libuserxe.a(libuserxe_a-ufile5.o)
 *fill*         0x001b7ca5        0x3 
 .bss           0x001b7ca8    0x64d00 ../ulib/libuserxe.a(libuserxe_a-uftp.o)
 .bss           0x0021c9a8        0x8 ../ulib/libuserxe.a(libuserxe_a-uftp2.o)
 .bss           0x0021c9b0        0x0 ../ulib/libuserxe.a(libuserxe_a-uftp3.o)
 .bss           0x0021c9b0        0x4 ../ulib/libuserxe.a(libuserxe_a-ugcclib.o)
 .bss           0x0021c9b4       0xf4 ../ulib/libuserxe.a(libuserxe_a-ukbdl.o)
                0x0021c9b4                Swcstat
 .bss           0x0021caa8     0x5808 ../ulib/libuserxe.a(libuserxe_a-ukbdlnxc.o)
 .bss           0x002222b0        0x8 ../ulib/libuserxe.a(libuserxe_a-ukbdlnxm.o)
 .bss           0x002222b8      0x205 ../ulib/libuserxe.a(libuserxe_a-uparse.o)
 *fill*         0x002224bd        0x3 
 .bss           0x002224c0       0x1c ../ulib/libuserxe.a(libuserxe_a-uproc.o)
                0x002224c0                Sserverstat
                0x002224c4                Scmdservercallback
                0x002224c8                Scallbackparm
                0x002224cc                Scmdserverchildpid
 .bss           0x002224dc        0x4 ../ulib/libuserxe.a(libuserxe_a-uproc2.o)
 .bss           0x002224e0       0x1c ../ulib/libuserxe.a(libuserxe_a-uproc4.o)
 .bss           0x002224fc        0x0 ../ulib/libuserxe.a(libuserxe_a-uque.o)
 .bss           0x002224fc        0x0 ../ulib/libuserxe.a(libuserxe_a-ustrcpy.o)
 .bss           0x002224fc        0x0 ../ulib/libuserxe.a(libuserxe_a-ustring.o)
 .bss           0x002224fc        0x0 ../ulib/libuserxe.a(libuserxe_a-utf.o)
 .bss           0x002224fc       0x98 ../ulib/libuserxe.a(libuserxe_a-utf2.o)
 .bss           0x00222594       0x14 ../ulib/libuserxe.a(libuserxe_a-utf22.o)
 .bss           0x002225a8        0x8 ../ulib/libuserxe.a(libuserxe_a-utf3.o)
 .bss           0x002225b0        0x4 ../ulib/libuserxe.a(libuserxe_a-utf4.o)
 .bss           0x002225b4     0x1170 ../ulib/libuserxe.a(libuserxe_a-utrace.o)
 .bss           0x00223724       0x20 ../ulib/libuserxe.a(libuserxe_a-uunxsub.o)
 .bss           0x00223744       0x58 ../ulib/libuserxe.a(libuserxe_a-uviom.o)
 .bss           0x0022379c      0x508 ../ulib/libuserxe.a(libuserxe_a-uviol.o)
 .bss           0x00223ca4        0xc ../ulib/libuserxe.a(libuserxe_a-u3270.o)
 .bss           0x00223cb0       0x10 ../ulib/libuserxe.a(libuserxe_a-u32702.o)
 .bss           0x00223cc0     0x1208 ../ulib/libuserxe.a(libuserxe_a-u32703.o)
 .bss           0x00224ec8        0x0 ../ulib/libuserxe.a(libuserxe_a-uabend.o)
 .bss           0x00224ec8        0x0 ../ulib/libuserxe.a(libuserxe_a-ucalc2.o)
 .bss           0x00224ec8       0x64 ../ulib/libuserxe.a(libuserxe_a-uehl.o)
 .bss           0x00224f2c       0x18 ../ulib/libuserxe.a(libuserxe_a-uproc22.o)
 .bss           0x00224f44       0x10 ../ulib/libuserxe.a(libuserxe_a-uproc3.o)
 .bss           0x00224f54      0x114 ../ulib/libuserxe.a(libuserxe_a-ucalc.o)
 .bss           0x00225068        0x0 /usr/lib/gcc/arm-linux-gnueabihf/8/libgcc.a(_udivsi3.o)
 .bss           0x00225068        0x0 /usr/lib/gcc/arm-linux-gnueabihf/8/libgcc.a(_divsi3.o)
 .bss           0x00225068        0x0 /usr/lib/gcc/arm-linux-gnueabihf/8/libgcc.a(_aeabi_ldivmod.o)
 .bss           0x00225068        0x0 /usr/lib/gcc/arm-linux-gnueabihf/8/libgcc.a(_dvmd_lnx.o)
 .bss           0x00225068        0x0 /usr/lib/gcc/arm-linux-gnueabihf/8/libgcc.a(_udivmoddi4.o)
 .bss           0x00225068        0x0 //usr/lib/arm-linux-gnueabihf/libc_nonshared.a(elf-init.oS)
 .bss           0x00225068        0x0 //usr/lib/arm-linux-gnueabihf/libc_nonshared.a(stat64.oS)
 .bss           0x00225068        0x0 //usr/lib/arm-linux-gnueabihf/libc_nonshared.a(lstat64.oS)
 .bss           0x00225068        0x0 /usr/lib/gcc/arm-linux-gnueabihf/8/crtend.o
 .bss           0x00225068        0x0 /usr/lib/gcc/arm-linux-gnueabihf/8/../../../arm-linux-gnueabihf/crtn.o
 *(COMMON)
 COMMON         0x00225068     0x8618 xekbchk-xekbchk.o
                0x00225068                Gopteol
                0x0022506c                Gcappcw
                0x00225070                Gcapplh2
                0x00225074                Gunpdispchartble
                0x00225078                Gopteol2
                0x0022507c                Gvalidchartbl
                0x00225080                Gfiletabdisp1
                0x00225084                Ghelpdir
                0x00226084                Gscrheight
                0x00226088                Gcmdstack
                0x00226098                Giniopt
                0x0022609c                Gscrconfreqid
                0x002260a0                Gcalcplh2
                0x002260a4                Gopt4
                0x002260a8                Gcmdbuffdbcs
                0x0022746c                Gscrdbcstbl
                0x00227470                Gfhwidthtxt
                0x00227474                Gcapplh1
                0x00227478                Gcmdbuffct
                0x0022883c                Gcmdbuff
                0x00229c00                Gfilebuff2
                0x00229c04                Gversion
                0x00229c08                Gpallassigntbl
                0x00229c1e                Gopt2
                0x00229c20                Ginifiletabskip
                0x00229c24                Gfhxwidth
                0x00229c28                Gxdconfindex
                0x00229c2c                Goptopt3
                0x00229c30                Gxprintcmd
                0x00229c34                Gprintcmd
                0x00229c38                Gscrsplitv
                0x00229c3c                Gattrtbl
                0x00229c54                Gfhwidthtxtedit
                0x00229c58                Gunpdispchartble_wxe
                0x00229c5c                Gcmdbufflclen
                0x00229c60                Gcalcpcw
                0x00229c64                Ghexctl
                0x00229c70                Gunpdispchar
                0x00229c74                Gfhwidth
                0x00229c78                Gcmdbufflc
                0x0022b03c                Gxprintcmd0
                0x0022b040                Gopt
                0x0022b044                Gscrcurclient
                0x0022b048                Gfiletabdisp2
                0x0022b04c                Gworkdir
                0x0022c04c                Gcsrposy
                0x0022c050                Gfunctbl
                0x0022c054                Gshellicmd0
                0x0022c058                Gopt5
                0x0022c05c                Gverdate
                0x0022c060                Gshellicmd
                0x0022c064                Gcsrposx
                0x0022c068                Gutfmode
                0x0022c06c                Gopteolcont2
                0x0022c070                Gcmdbuffu8
                0x0022d434                Gdefpallette
                0x0022d444                Gscrstatus
                0x0022d448                Gscrconfactid
                0x0022d44c                Gkeyshiftname
                0x0022d450                Glastsono
                0x0022d451                Gopt3
                0x0022d454                Gcapcbpcw
                0x0022d458                Gscrsplith
                0x0022d45c                Gotherstatus
                0x0022d460                Gunpdispchartblj
                0x0022d464                Gkbdinpctr
                0x0022d468                Gunpdispchartblj_wxe
                0x0022d46c                Gfixcidid
                0x0022d47c                Ginitscroll
                0x0022d490                Gdefaultlocalecode
                0x0022d4d0                Gstrinputdbcs
                0x0022d534                Glocalecode
                0x0022d574                Gstrinputlen
                0x0022d578                Gotheropt
                0x0022d57c                Gpodelmt
                0x0022d580                Glinenosze
                0x0022d584                Gstrinput
                0x0022d5e8                Gproclastpft
                0x0022d5ec                Gutfmode2
                0x0022d5f0                Gfilebuff
                0x0022d5f4                Gunpdispchartbl
                0x0022d5f8                Gscrwidth
                0x0022d5fc                Gprocstatus
                0x0022d600                Gopttabaltch
                0x0022d60c                Glinenoszb
                0x0022d610                Gtabdispchar
                0x0022d614                Gkbdopt
                0x0022d618                Giniopt2
                0x0022d61c                Gcalcplh1
                0x0022d620                Gopteolcont
                0x0022d624                Gkeytbl
                0x0022d628                Glinenoszc
                0x0022d62c                Gparmlocalecode
                0x0022d66c                Gunpdispchar3_after_inigetopt
                0x0022d670                Gpallette
 COMMON         0x0022d680        0x8 xekbchk-xeebc.o
                0x0022d680                Gebcstat
                0x0022d684                Gebccfgfnm
 COMMON         0x0022d688       0x60 xekbchk-xegbl.o
                0x0022d688                Ggrepcmd
                0x0022d68c                Ggroupid
                0x0022d690                Guserid
                0x0022d694                Ghostname2
                0x0022d6b4                Gmaxcolor
                0x0022d6b8                Glocalhostsw
                0x0022d6bc                Gunxflag
                0x0022d6c0                Ghostname
                0x0022d6e0                Gcomparecmdd
                0x0022d6e4                Gcomparecmdf
 COMMON         0x0022d6e8      0x258 xekbchk-xekbd.o
                0x0022d6e8                Gkbdsckt
 COMMON         0x0022d940        0x4 xekbchk-xesub.o
                0x0022d940                Gsubgblopt
 COMMON         0x0022d944        0x8 ../ulib/libuserxe.a(libuserxe_a-uallocl.o)
                0x0022d944                Gualloc_amount
                0x0022d948                Gualloc16_amount
 COMMON         0x0022d94c     0x9c48 ../ulib/libuserxe.a(libuserxe_a-ucvebc.o)
                0x0022d94c                Gucvebchctr
                0x0022d950                Gucvebch
                0x00237590                Gucvebc_stat
 COMMON         0x00237594       0x10 ../ulib/libuserxe.a(libuserxe_a-ucvebc2.o)
                0x00237594                Snewoldctr
                0x00237598                Se2stctr
                0x0023759c                Sduptctr
                0x002375a0                Ss2etctr
 COMMON         0x002375a4        0xc ../ulib/libuserxe.a(libuserxe_a-udbcschk.o)
                0x002375a4                Gudbcschk_flag
                0x002375a8                Gudbcschk_width0top
                0x002375ac                Sdbcschk_hkopt
 COMMON         0x002375b0        0x5 ../ulib/libuserxe.a(libuserxe_a-uerr.o)
                0x002375b0                Guerropt2
                0x002375b4                Guerropt
 *fill*         0x002375b5        0x3 
 COMMON         0x002375b8        0x8 ../ulib/libuserxe.a(libuserxe_a-ufile.o)
                0x002375b8                Gufile_opt
                0x002375bc                Gufile_nomsg
 COMMON         0x002375c0       0x88 ../ulib/libuserxe.a(libuserxe_a-uftp2.o)
                0x002375c0                Gftperr
                0x002375c4                Gftpopt
                0x002375c8                Gftpclient
 COMMON         0x00237648        0x8 ../ulib/libuserxe.a(libuserxe_a-ukbdl.o)
                0x00237648                Sphiconv
                0x0023764c                Gukbdl_flag
 COMMON         0x00237650        0x8 ../ulib/libuserxe.a(libuserxe_a-uproc.o)
                0x00237650                Sfdpiper
                0x00237654                Sfdpipew
 COMMON         0x00237658        0xc ../ulib/libuserxe.a(libuserxe_a-utf.o)
                0x00237658                Gulibutfmode
                0x0023765c                Gutfrc
                0x00237660                Gutfcombaltch
 COMMON         0x00237664    0x60000 ../ulib/libuserxe.a(libuserxe_a-utf22.o)
                0x00237664                Gucs2ddmap_i2u
                0x00257664                Gucs2ddmap
 COMMON         0x00297664      0x104 ../ulib/libuserxe.a(libuserxe_a-utrace.o)
                0x00297664                Gtracehdr
                0x00297764                Slockhandle
 COMMON         0x00297768       0x24 ../ulib/libuserxe.a(libuserxe_a-uviom.o)
                0x00297768                Guviombuffu
                0x0029776c                Guviomopt
                0x00297770                Guviomoptstr
                0x00297774                Guviomopt2
                0x00297778                Gw95buffopt
                0x0029777c                Guviomoptstrucs
 COMMON         0x0029778c        0x4 ../ulib/libuserxe.a(libuserxe_a-uviol.o)
                0x0029778c                Guviol_flag
 COMMON         0x00297790      0x140 ../ulib/libuserxe.a(libuserxe_a-ucalc.o)
                0x00297790                Gucalc_result
                0x002978d0                . = ALIGN ((. != 0x0)?0x4:0x1)
                0x002978d0                _bss_end__ = .
                0x002978d0                __bss_end__ = .
                0x002978d0                . = ALIGN (0x4)
                0x002978d0                . = SEGMENT_START ("ldata-segment", .)
                0x002978d0                . = ALIGN (0x4)
                0x002978d0                __end__ = .
                0x002978d0                _end = .
                [!provide]                PROVIDE (end = .)
                0x002978d0                . = DATA_SEGMENT_END (.)

.stab
 *(.stab)

.stabstr
 *(.stabstr)

.stab.excl
 *(.stab.excl)

.stab.exclstr
 *(.stab.exclstr)

.stab.index
 *(.stab.index)

.stab.indexstr
 *(.stab.indexstr)

.comment        0x00000000       0x23
 *(.comment)
 .comment       0x00000000       0x23 /usr/lib/gcc/arm-linux-gnueabihf/8/crtbegin.o
                                 0x24 (size before relaxing)
 .comment       0x00000023       0x24 xekbchk-xekbchk.o
 .comment       0x00000023       0x24 xekbchk-xecsr.o
 .comment       0x00000023       0x24 xekbchk-xeebc.o
 .comment       0x00000023       0x24 xekbchk-xeerr.o
 .comment       0x00000023       0x24 xekbchk-xefunc.o
 .comment       0x00000023       0x24 xekbchk-xefunct.o
 .comment       0x00000023       0x24 xekbchk-xefunct2.o
 .comment       0x00000023       0x24 xekbchk-xegbl.o
 .comment       0x00000023       0x24 xekbchk-xekbd.o
 .comment       0x00000023       0x24 xekbchk-xescr.o
 .comment       0x00000023       0x24 xekbchk-xescr2.o
 .comment       0x00000023       0x24 xekbchk-xesub.o
 .comment       0x00000023       0x24 xekbchk-xesub2.o
 .comment       0x00000023       0x24 xekbchk-xeutf2.o
 .comment       0x00000023       0x24 xekbchk-xeutf.o
 .comment       0x00000023       0x24 ../ulib/libuserxe.a(libuserxe_a-uallocl.o)
 .comment       0x00000023       0x24 ../ulib/libuserxe.a(libuserxe_a-ucvebc.o)
 .comment       0x00000023       0x24 ../ulib/libuserxe.a(libuserxe_a-ucvebc2.o)
 .comment       0x00000023       0x24 ../ulib/libuserxe.a(libuserxe_a-ucvebc3.o)
 .comment       0x00000023       0x24 ../ulib/libuserxe.a(libuserxe_a-ucvebc32.o)
 .comment       0x00000023       0x24 ../ulib/libuserxe.a(libuserxe_a-ucvebc4.o)
 .comment       0x00000023       0x24 ../ulib/libuserxe.a(libuserxe_a-ucvebct.o)
 .comment       0x00000023       0x24 ../ulib/libuserxe.a(libuserxe_a-ucvext.o)
 .comment       0x00000023       0x24 ../ulib/libuserxe.a(libuserxe_a-ucvext12.o)
 .comment       0x00000023       0x24 ../ulib/libuserxe.a(libuserxe_a-ucvext2.o)
 .comment       0x00000023       0x24 ../ulib/libuserxe.a(libuserxe_a-ucvucs.o)
 .comment       0x00000023       0x24 ../ulib/libuserxe.a(libuserxe_a-ucvucst.o)
 .comment       0x00000023       0x24 ../ulib/libuserxe.a(libuserxe_a-udbcschk.o)
 .comment       0x00000023       0x24 ../ulib/libuserxe.a(libuserxe_a-udbcsck2.o)
 .comment       0x00000023       0x24 ../ulib/libuserxe.a(libuserxe_a-udos2.o)
 .comment       0x00000023       0x24 ../ulib/libuserxe.a(libuserxe_a-uedit.o)
 .comment       0x00000023       0x24 ../ulib/libuserxe.a(libuserxe_a-uedit2.o)
 .comment       0x00000023       0x24 ../ulib/libuserxe.a(libuserxe_a-uerr.o)
 .comment       0x00000023       0x24 ../ulib/libuserxe.a(libuserxe_a-ufemsg.o)
 .comment       0x00000023       0x24 ../ulib/libuserxe.a(libuserxe_a-ufile.o)
 .comment       0x00000023       0x24 ../ulib/libuserxe.a(libuserxe_a-ufile1f.o)
 .comment       0x00000023       0x24 ../ulib/libuserxe.a(libuserxe_a-ufile1l.o)
 .comment       0x00000023       0x24 ../ulib/libuserxe.a(libuserxe_a-ufile1l2.o)
 .comment       0x00000023       0x24 ../ulib/libuserxe.a(libuserxe_a-ufile2.o)
 .comment       0x00000023       0x24 ../ulib/libuserxe.a(libuserxe_a-ufile2f.o)
 .comment       0x00000023       0x24 ../ulib/libuserxe.a(libuserxe_a-ufile2l.o)
 .comment       0x00000023       0x24 ../ulib/libuserxe.a(libuserxe_a-ufile2l2.o)
 .comment       0x00000023       0x24 ../ulib/libuserxe.a(libuserxe_a-ufile3.o)
 .comment       0x00000023       0x24 ../ulib/libuserxe.a(libuserxe_a-ufile3f.o)
 .comment       0x00000023       0x24 ../ulib/libuserxe.a(libuserxe_a-ufile4.o)
 .comment       0x00000023       0x24 ../ulib/libuserxe.a(libuserxe_a-ufile5.o)
 .comment       0x00000023       0x24 ../ulib/libuserxe.a(libuserxe_a-uftp.o)
 .comment       0x00000023       0x24 ../ulib/libuserxe.a(libuserxe_a-uftp2.o)
 .comment       0x00000023       0x24 ../ulib/libuserxe.a(libuserxe_a-uftp3.o)
 .comment       0x00000023       0x24 ../ulib/libuserxe.a(libuserxe_a-ugcclib.o)
 .comment       0x00000023       0x24 ../ulib/libuserxe.a(libuserxe_a-ukbdl.o)
 .comment       0x00000023       0x24 ../ulib/libuserxe.a(libuserxe_a-ukbdlnxc.o)
 .comment       0x00000023       0x24 ../ulib/libuserxe.a(libuserxe_a-ukbdlnxm.o)
 .comment       0x00000023       0x24 ../ulib/libuserxe.a(libuserxe_a-uparse.o)
 .comment       0x00000023       0x24 ../ulib/libuserxe.a(libuserxe_a-uproc.o)
 .comment       0x00000023       0x24 ../ulib/libuserxe.a(libuserxe_a-uproc2.o)
 .comment       0x00000023       0x24 ../ulib/libuserxe.a(libuserxe_a-uproc4.o)
 .comment       0x00000023       0x24 ../ulib/libuserxe.a(libuserxe_a-uque.o)
 .comment       0x00000023       0x24 ../ulib/libuserxe.a(libuserxe_a-ustrcpy.o)
 .comment       0x00000023       0x24 ../ulib/libuserxe.a(libuserxe_a-ustring.o)
 .comment       0x00000023       0x24 ../ulib/libuserxe.a(libuserxe_a-utf.o)
 .comment       0x00000023       0x24 ../ulib/libuserxe.a(libuserxe_a-utf2.o)
 .comment       0x00000023       0x24 ../ulib/libuserxe.a(libuserxe_a-utf22.o)
 .comment       0x00000023       0x24 ../ulib/libuserxe.a(libuserxe_a-utf3.o)
 .comment       0x00000023       0x24 ../ulib/libuserxe.a(libuserxe_a-utf4.o)
 .comment       0x00000023       0x24 ../ulib/libuserxe.a(libuserxe_a-utrace.o)
 .comment       0x00000023       0x24 ../ulib/libuserxe.a(libuserxe_a-uunxsub.o)
 .comment       0x00000023       0x24 ../ulib/libuserxe.a(libuserxe_a-uviom.o)
 .comment       0x00000023       0x24 ../ulib/libuserxe.a(libuserxe_a-uviol.o)
 .comment       0x00000023       0x24 ../ulib/libuserxe.a(libuserxe_a-u3270.o)
 .comment       0x00000023       0x24 ../ulib/libuserxe.a(libuserxe_a-u32702.o)
 .comment       0x00000023       0x24 ../ulib/libuserxe.a(libuserxe_a-u32703.o)
 .comment       0x00000023       0x24 ../ulib/libuserxe.a(libuserxe_a-uabend.o)
 .comment       0x00000023       0x24 ../ulib/libuserxe.a(libuserxe_a-ucalc2.o)
 .comment       0x00000023       0x24 ../ulib/libuserxe.a(libuserxe_a-uehl.o)
 .comment       0x00000023       0x24 ../ulib/libuserxe.a(libuserxe_a-uproc22.o)
 .comment       0x00000023       0x24 ../ulib/libuserxe.a(libuserxe_a-uproc3.o)
 .comment       0x00000023       0x24 ../ulib/libuserxe.a(libuserxe_a-ucalc.o)
 .comment       0x00000023       0x24 /usr/lib/gcc/arm-linux-gnueabihf/8/crtend.o

.ARM.attributes
                0x00000000       0x2f
 .ARM.attributes
                0x00000000       0x2f /usr/lib/gcc/arm-linux-gnueabihf/8/../../../arm-linux-gnueabihf/crt1.o
 .ARM.attributes
                0x0000002f       0x23 /usr/lib/gcc/arm-linux-gnueabihf/8/../../../arm-linux-gnueabihf/crti.o
 .ARM.attributes
                0x00000052       0x2f /usr/lib/gcc/arm-linux-gnueabihf/8/crtbegin.o
 .ARM.attributes
                0x00000081       0x2f xekbchk-xekbchk.o
 .ARM.attributes
                0x000000b0       0x2f xekbchk-xecsr.o
 .ARM.attributes
                0x000000df       0x2f xekbchk-xeebc.o
 .ARM.attributes
                0x0000010e       0x2f xekbchk-xeerr.o
 .ARM.attributes
                0x0000013d       0x2f xekbchk-xefunc.o
 .ARM.attributes
                0x0000016c       0x2f xekbchk-xefunct.o
 .ARM.attributes
                0x0000019b       0x2f xekbchk-xefunct2.o
 .ARM.attributes
                0x000001ca       0x2f xekbchk-xegbl.o
 .ARM.attributes
                0x000001f9       0x2f xekbchk-xekbd.o
 .ARM.attributes
                0x00000228       0x2f xekbchk-xescr.o
 .ARM.attributes
                0x00000257       0x2f xekbchk-xescr2.o
 .ARM.attributes
                0x00000286       0x2f xekbchk-xesub.o
 .ARM.attributes
                0x000002b5       0x2f xekbchk-xesub2.o
 .ARM.attributes
                0x000002e4       0x2f xekbchk-xeutf2.o
 .ARM.attributes
                0x00000313       0x2f xekbchk-xeutf.o
 .ARM.attributes
                0x00000342       0x2f ../ulib/libuserxe.a(libuserxe_a-uallocl.o)
 .ARM.attributes
                0x00000371       0x2f ../ulib/libuserxe.a(libuserxe_a-ucvebc.o)
 .ARM.attributes
                0x000003a0       0x2f ../ulib/libuserxe.a(libuserxe_a-ucvebc2.o)
 .ARM.attributes
                0x000003cf       0x2f ../ulib/libuserxe.a(libuserxe_a-ucvebc3.o)
 .ARM.attributes
                0x000003fe       0x2f ../ulib/libuserxe.a(libuserxe_a-ucvebc32.o)
 .ARM.attributes
                0x0000042d       0x2f ../ulib/libuserxe.a(libuserxe_a-ucvebc4.o)
 .ARM.attributes
                0x0000045c       0x2f ../ulib/libuserxe.a(libuserxe_a-ucvebct.o)
 .ARM.attributes
                0x0000048b       0x2f ../ulib/libuserxe.a(libuserxe_a-ucvext.o)
 .ARM.attributes
                0x000004ba       0x2f ../ulib/libuserxe.a(libuserxe_a-ucvext12.o)
 .ARM.attributes
                0x000004e9       0x2f ../ulib/libuserxe.a(libuserxe_a-ucvext2.o)
 .ARM.attributes
                0x00000518       0x2f ../ulib/libuserxe.a(libuserxe_a-ucvucs.o)
 .ARM.attributes
                0x00000547       0x2f ../ulib/libuserxe.a(libuserxe_a-ucvucst.o)
 .ARM.attributes
                0x00000576       0x2f ../ulib/libuserxe.a(libuserxe_a-udbcschk.o)
 .ARM.attributes
                0x000005a5       0x2f ../ulib/libuserxe.a(libuserxe_a-udbcsck2.o)
 .ARM.attributes
                0x000005d4       0x2f ../ulib/libuserxe.a(libuserxe_a-udos2.o)
 .ARM.attributes
                0x00000603       0x2f ../ulib/libuserxe.a(libuserxe_a-uedit.o)
 .ARM.attributes
                0x00000632       0x2f ../ulib/libuserxe.a(libuserxe_a-uedit2.o)
 .ARM.attributes
                0x00000661       0x2f ../ulib/libuserxe.a(libuserxe_a-uerr.o)
 .ARM.attributes
                0x00000690       0x2f ../ulib/libuserxe.a(libuserxe_a-ufemsg.o)
 .ARM.attributes
                0x000006bf       0x2f ../ulib/libuserxe.a(libuserxe_a-ufile.o)
 .ARM.attributes
                0x000006ee       0x2f ../ulib/libuserxe.a(libuserxe_a-ufile1f.o)
 .ARM.attributes
                0x0000071d       0x2f ../ulib/libuserxe.a(libuserxe_a-ufile1l.o)
 .ARM.attributes
                0x0000074c       0x2f ../ulib/libuserxe.a(libuserxe_a-ufile1l2.o)
 .ARM.attributes
                0x0000077b       0x2f ../ulib/libuserxe.a(libuserxe_a-ufile2.o)
 .ARM.attributes
                0x000007aa       0x2f ../ulib/libuserxe.a(libuserxe_a-ufile2f.o)
 .ARM.attributes
                0x000007d9       0x2f ../ulib/libuserxe.a(libuserxe_a-ufile2l.o)
 .ARM.attributes
                0x00000808       0x2f ../ulib/libuserxe.a(libuserxe_a-ufile2l2.o)
 .ARM.attributes
                0x00000837       0x2f ../ulib/libuserxe.a(libuserxe_a-ufile3.o)
 .ARM.attributes
                0x00000866       0x2f ../ulib/libuserxe.a(libuserxe_a-ufile3f.o)
 .ARM.attributes
                0x00000895       0x2f ../ulib/libuserxe.a(libuserxe_a-ufile4.o)
 .ARM.attributes
                0x000008c4       0x2f ../ulib/libuserxe.a(libuserxe_a-ufile5.o)
 .ARM.attributes
                0x000008f3       0x2f ../ulib/libuserxe.a(libuserxe_a-uftp.o)
 .ARM.attributes
                0x00000922       0x2f ../ulib/libuserxe.a(libuserxe_a-uftp2.o)
 .ARM.attributes
                0x00000951       0x2f ../ulib/libuserxe.a(libuserxe_a-uftp3.o)
 .ARM.attributes
                0x00000980       0x2f ../ulib/libuserxe.a(libuserxe_a-ugcclib.o)
 .ARM.attributes
                0x000009af       0x2f ../ulib/libuserxe.a(libuserxe_a-ukbdl.o)
 .ARM.attributes
                0x000009de       0x2f ../ulib/libuserxe.a(libuserxe_a-ukbdlnxc.o)
 .ARM.attributes
                0x00000a0d       0x2f ../ulib/libuserxe.a(libuserxe_a-ukbdlnxm.o)
 .ARM.attributes
                0x00000a3c       0x2f ../ulib/libuserxe.a(libuserxe_a-uparse.o)
 .ARM.attributes
                0x00000a6b       0x2f ../ulib/libuserxe.a(libuserxe_a-uproc.o)
 .ARM.attributes
                0x00000a9a       0x2f ../ulib/libuserxe.a(libuserxe_a-uproc2.o)
 .ARM.attributes
                0x00000ac9       0x2f ../ulib/libuserxe.a(libuserxe_a-uproc4.o)
 .ARM.attributes
                0x00000af8       0x2f ../ulib/libuserxe.a(libuserxe_a-uque.o)
 .ARM.attributes
                0x00000b27       0x2f ../ulib/libuserxe.a(libuserxe_a-ustrcpy.o)
 .ARM.attributes
                0x00000b56       0x2f ../ulib/libuserxe.a(libuserxe_a-ustring.o)
 .ARM.attributes
                0x00000b85       0x2f ../ulib/libuserxe.a(libuserxe_a-utf.o)
 .ARM.attributes
                0x00000bb4       0x2f ../ulib/libuserxe.a(libuserxe_a-utf2.o)
 .ARM.attributes
                0x00000be3       0x2f ../ulib/libuserxe.a(libuserxe_a-utf22.o)
 .ARM.attributes
                0x00000c12       0x2f ../ulib/libuserxe.a(libuserxe_a-utf3.o)
 .ARM.attributes
                0x00000c41       0x2f ../ulib/libuserxe.a(libuserxe_a-utf4.o)
 .ARM.attributes
                0x00000c70       0x2f ../ulib/libuserxe.a(libuserxe_a-utrace.o)
 .ARM.attributes
                0x00000c9f       0x2f ../ulib/libuserxe.a(libuserxe_a-uunxsub.o)
 .ARM.attributes
                0x00000cce       0x2f ../ulib/libuserxe.a(libuserxe_a-uviom.o)
 .ARM.attributes
                0x00000cfd       0x2f ../ulib/libuserxe.a(libuserxe_a-uviol.o)
 .ARM.attributes
                0x00000d2c       0x2f ../ulib/libuserxe.a(libuserxe_a-u3270.o)
 .ARM.attributes
                0x00000d5b       0x2f ../ulib/libuserxe.a(libuserxe_a-u32702.o)
 .ARM.attributes
                0x00000d8a       0x2f ../ulib/libuserxe.a(libuserxe_a-u32703.o)
 .ARM.attributes
                0x00000db9       0x2f ../ulib/libuserxe.a(libuserxe_a-uabend.o)
 .ARM.attributes
                0x00000de8       0x2f ../ulib/libuserxe.a(libuserxe_a-ucalc2.o)
 .ARM.attributes
                0x00000e17       0x2f ../ulib/libuserxe.a(libuserxe_a-uehl.o)
 .ARM.attributes
                0x00000e46       0x2f ../ulib/libuserxe.a(libuserxe_a-uproc22.o)
 .ARM.attributes
                0x00000e75       0x2f ../ulib/libuserxe.a(libuserxe_a-uproc3.o)
 .ARM.attributes
                0x00000ea4       0x2f ../ulib/libuserxe.a(libuserxe_a-ucalc.o)
 .ARM.attributes
                0x00000ed3       0x1d /usr/lib/gcc/arm-linux-gnueabihf/8/libgcc.a(_udivsi3.o)
 .ARM.attributes
                0x00000ef0       0x1d /usr/lib/gcc/arm-linux-gnueabihf/8/libgcc.a(_divsi3.o)
 .ARM.attributes
                0x00000f0d       0x1d /usr/lib/gcc/arm-linux-gnueabihf/8/libgcc.a(_aeabi_ldivmod.o)
 .ARM.attributes
                0x00000f2a       0x1d /usr/lib/gcc/arm-linux-gnueabihf/8/libgcc.a(_dvmd_lnx.o)
 .ARM.attributes
                0x00000f47       0x2f /usr/lib/gcc/arm-linux-gnueabihf/8/libgcc.a(_udivmoddi4.o)
 .ARM.attributes
                0x00000f76       0x31 //usr/lib/arm-linux-gnueabihf/libc_nonshared.a(elf-init.oS)
 .ARM.attributes
                0x00000fa7       0x31 //usr/lib/arm-linux-gnueabihf/libc_nonshared.a(stat64.oS)
 .ARM.attributes
                0x00000fd8       0x31 //usr/lib/arm-linux-gnueabihf/libc_nonshared.a(lstat64.oS)
 .ARM.attributes
                0x00001009       0x2f /usr/lib/gcc/arm-linux-gnueabihf/8/crtend.o
 .ARM.attributes
                0x00001038       0x23 /usr/lib/gcc/arm-linux-gnueabihf/8/../../../arm-linux-gnueabihf/crtn.o

.debug
 *(.debug)

.line
 *(.line)

.debug_srcinfo
 *(.debug_srcinfo)

.debug_sfnames
 *(.debug_sfnames)

.debug_aranges
 *(.debug_aranges)

.debug_pubnames
 *(.debug_pubnames)

.debug_info
 *(.debug_info .gnu.linkonce.wi.*)

.debug_abbrev
 *(.debug_abbrev)

.debug_line
 *(.debug_line .debug_line.* .debug_line_end)

.debug_frame
 *(.debug_frame)

.debug_str
 *(.debug_str)

.debug_loc
 *(.debug_loc)

.debug_macinfo
 *(.debug_macinfo)

.debug_weaknames
 *(.debug_weaknames)

.debug_funcnames
 *(.debug_funcnames)

.debug_typenames
 *(.debug_typenames)

.debug_varnames
 *(.debug_varnames)

.debug_pubtypes
 *(.debug_pubtypes)

.debug_ranges
 *(.debug_ranges)

.debug_macro
 *(.debug_macro)

.debug_addr
 *(.debug_addr)

.gnu.attributes
 *(.gnu.attributes)

.note.gnu.arm.ident
 *(.note.gnu.arm.ident)

/DISCARD/
 *(.note.GNU-stack)
 *(.gnu_debuglink)
 *(.gnu.lto_*)
OUTPUT(xekbchk elf32-littlearm)
