Archive member included to satisfy reference by file (symbol)

../ulib/libuserxe.a(libuserxe_a-ucalc.o)
                              xbc.o (Gucalc_result)
../ulib/libuserxe.a(libuserxe_a-ucalc2.o)
                              ../ulib/libuserxe.a(libuserxe_a-ucalc.o) (bc_getxdw)
../ulib/libuserxe.a(libuserxe_a-uedit.o)
                              ../ulib/libuserxe.a(libuserxe_a-ucalc.o) (unumedit)
../ulib/libuserxe.a(libuserxe_a-uerr.o)
                              xbc.o (ubell)
../ulib/libuserxe.a(libuserxe_a-ufemsg.o)
                              xbc.o (ufilenotfound)
../ulib/libuserxe.a(libuserxe_a-ufile.o)
                              ../ulib/libuserxe.a(libuserxe_a-ufemsg.o) (Gufile_opt)
../ulib/libuserxe.a(libuserxe_a-ufile1f.o)
                              ../ulib/libuserxe.a(libuserxe_a-ufile.o) (uftpdirlistsub)
../ulib/libuserxe.a(libuserxe_a-ufile1l.o)
                              ../ulib/libuserxe.a(libuserxe_a-ufile.o) (upathlen)
../ulib/libuserxe.a(libuserxe_a-ufile1l2.o)
                              ../ulib/libuserxe.a(libuserxe_a-ufile1l.o) (ufstat_mdos)
../ulib/libuserxe.a(libuserxe_a-ufile2.o)
                              ../ulib/libuserxe.a(libuserxe_a-uerr.o) (uremove)
../ulib/libuserxe.a(libuserxe_a-ufile2f.o)
                              ../ulib/libuserxe.a(libuserxe_a-ufile2.o) (uftpremove)
../ulib/libuserxe.a(libuserxe_a-ufile2l.o)
                              ../ulib/libuserxe.a(libuserxe_a-ufile2.o) (urmdir)
../ulib/libuserxe.a(libuserxe_a-ufile2l2.o)
                              ../ulib/libuserxe.a(libuserxe_a-ufile2l.o) (umkdir_mdos)
../ulib/libuserxe.a(libuserxe_a-ufile3.o)
                              ../ulib/libuserxe.a(libuserxe_a-ufile2l2.o) (udoscopy)
../ulib/libuserxe.a(libuserxe_a-ufile3f.o)
                              ../ulib/libuserxe.a(libuserxe_a-ufile3.o) (uftpxmove)
../ulib/libuserxe.a(libuserxe_a-ufile4.o)
                              ../ulib/libuserxe.a(libuserxe_a-ufile2l2.o) (utempnam)
../ulib/libuserxe.a(libuserxe_a-ufile5.o)
                              ../ulib/libuserxe.a(libuserxe_a-ufile2.o) (udoseditname)
../ulib/libuserxe.a(libuserxe_a-uftp.o)
                              ../ulib/libuserxe.a(libuserxe_a-ufile1f.o) (uftpfstatudl)
../ulib/libuserxe.a(libuserxe_a-uftp2.o)
                              ../ulib/libuserxe.a(libuserxe_a-uftp.o) (Gftpopt)
../ulib/libuserxe.a(libuserxe_a-uftp3.o)
                              ../ulib/libuserxe.a(libuserxe_a-uftp.o) (uftp3setssh)
../ulib/libuserxe.a(libuserxe_a-ugcclib.o)
                              xbc.o (memicmp)
../ulib/libuserxe.a(libuserxe_a-ukbdl.o)
                              ../ulib/libuserxe.a(libuserxe_a-ugcclib.o) (ukbdl_getch_init)
../ulib/libuserxe.a(libuserxe_a-ukbdlnxc.o)
                              ../ulib/libuserxe.a(libuserxe_a-ukbdl.o) (ukbdlnxc_init)
../ulib/libuserxe.a(libuserxe_a-ukbdlnxm.o)
                              ../ulib/libuserxe.a(libuserxe_a-ukbdlnxc.o) (ukbdlnxm_mouseinit)
../ulib/libuserxe.a(libuserxe_a-uparse.o)
                              ../ulib/libuserxe.a(libuserxe_a-uftp.o) (uparsev)
../ulib/libuserxe.a(libuserxe_a-uproc.o)
                              ../ulib/libuserxe.a(libuserxe_a-ukbdl.o) (uproc_getpsinfo)
../ulib/libuserxe.a(libuserxe_a-uproc2.o)
                              ../ulib/libuserxe.a(libuserxe_a-ufile2f.o) (uproc_rsh)
../ulib/libuserxe.a(libuserxe_a-uproc4.o)
                              ../ulib/libuserxe.a(libuserxe_a-ukbdlnxc.o) (uproc_select)
../ulib/libuserxe.a(libuserxe_a-uque.o)
                              ../ulib/libuserxe.a(libuserxe_a-uftp.o) (uenq)
../ulib/libuserxe.a(libuserxe_a-ustrcpy.o)
                              xbc.o (ustring_memcpy)
../ulib/libuserxe.a(libuserxe_a-ustring.o)
                              ../ulib/libuserxe.a(libuserxe_a-ufile.o) (ustrnlen)
../ulib/libuserxe.a(libuserxe_a-utf.o)
                              ../ulib/libuserxe.a(libuserxe_a-ufile1l.o) (Gulibutfmode)
../ulib/libuserxe.a(libuserxe_a-utf2.o)
                              ../ulib/libuserxe.a(libuserxe_a-ufile1l.o) (utfcvl2fany)
../ulib/libuserxe.a(libuserxe_a-utf22.o)
                              ../ulib/libuserxe.a(libuserxe_a-utf2.o) (utfgetwcw)
../ulib/libuserxe.a(libuserxe_a-utf3.o)
                              ../ulib/libuserxe.a(libuserxe_a-utf2.o) (utfmb2wc)
../ulib/libuserxe.a(libuserxe_a-utf4.o)
                              ../ulib/libuserxe.a(libuserxe_a-utf3.o) (mk_wcwidth)
../ulib/libuserxe.a(libuserxe_a-utrace.o)
                              ../ulib/libuserxe.a(libuserxe_a-uftp2.o) (Gtracehdr)
../ulib/libuserxe.a(libuserxe_a-uunxsub.o)
                              ../ulib/libuserxe.a(libuserxe_a-ufile2l.o) (ugetugid)
../ulib/libuserxe.a(libuserxe_a-uviol.o)
                              ../ulib/libuserxe.a(libuserxe_a-uerr.o) (Guviol_flag)
../ulib/libuserxe.a(libuserxe_a-u3270.o)
                              ../ulib/libuserxe.a(libuserxe_a-ufile1f.o) (u3270fstat)
../ulib/libuserxe.a(libuserxe_a-u32702.o)
                              ../ulib/libuserxe.a(libuserxe_a-ufile2f.o) (u3270mkdir)
../ulib/libuserxe.a(libuserxe_a-u32703.o)
                              ../ulib/libuserxe.a(libuserxe_a-ufile3.o) (u3270xmove)
../ulib/libuserxe.a(libuserxe_a-uabend.o)
                              ../ulib/libuserxe.a(libuserxe_a-ukbdl.o) (uabend)
../ulib/libuserxe.a(libuserxe_a-uallocl.o)
                              ../ulib/libuserxe.a(libuserxe_a-uedit.o) (umalloc)
../ulib/libuserxe.a(libuserxe_a-ucvebc.o)
                              ../ulib/libuserxe.a(libuserxe_a-uerr.o) (Gucvebc_stat)
../ulib/libuserxe.a(libuserxe_a-ucvebc2.o)
                              ../ulib/libuserxe.a(libuserxe_a-ucvebc.o) (ucvebc2_stre2s)
../ulib/libuserxe.a(libuserxe_a-ucvebct.o)
                              ../ulib/libuserxe.a(libuserxe_a-ucvebc2.o) (ucvebc2gettbl)
../ulib/libuserxe.a(libuserxe_a-ucvext.o)
                              ../ulib/libuserxe.a(libuserxe_a-utf2.o) (ucvext_icuclose)
../ulib/libuserxe.a(libuserxe_a-ucvext12.o)
                              ../ulib/libuserxe.a(libuserxe_a-ucvext.o) (ucvext12_init)
../ulib/libuserxe.a(libuserxe_a-ucvext2.o)
                              ../ulib/libuserxe.a(libuserxe_a-ucvext.o) (ucvext_iconvmapinit)
../ulib/libuserxe.a(libuserxe_a-ucvucs.o)
                              ../ulib/libuserxe.a(libuserxe_a-utf2.o) (uccvucs2utf)
../ulib/libuserxe.a(libuserxe_a-ucvucst.o)
                              ../ulib/libuserxe.a(libuserxe_a-ucvucs.o) (ugetcp932tbl)
../ulib/libuserxe.a(libuserxe_a-udbcschk.o)
                              ../ulib/libuserxe.a(libuserxe_a-uerr.o) (Gudbcschk_flag)
../ulib/libuserxe.a(libuserxe_a-udbcsck2.o)
                              ../ulib/libuserxe.a(libuserxe_a-uerr.o) (ushift2euc)
../ulib/libuserxe.a(libuserxe_a-udos2.o)
                              ../ulib/libuserxe.a(libuserxe_a-ufile1l2.o) (udos_setenv)
../ulib/libuserxe.a(libuserxe_a-uedit2.o)
                              ../ulib/libuserxe.a(libuserxe_a-ufemsg.o) (ueditfattr)
../ulib/libuserxe.a(libuserxe_a-uehl.o)
                              ../ulib/libuserxe.a(libuserxe_a-ukbdlnxc.o) (uehl_setsh)
../ulib/libuserxe.a(libuserxe_a-uproc22.o)
                              ../ulib/libuserxe.a(libuserxe_a-utrace.o) (ucriticalsection)
../ulib/libuserxe.a(libuserxe_a-uproc3.o)
                              ../ulib/libuserxe.a(libuserxe_a-uproc4.o) (usleepms)
../ulib/libuserxe.a(libuserxe_a-uviom.o)
                              ../ulib/libuserxe.a(libuserxe_a-uviol.o) (Guviomopt)
../ulib/libuserxe.a(libuserxe_a-ucvebc3.o)
                              ../ulib/libuserxe.a(libuserxe_a-ucvext2.o) (ucvebc3_b2dd)
../ulib/libuserxe.a(libuserxe_a-ucvebc4.o)
                              ../ulib/libuserxe.a(libuserxe_a-ucvext.o) (ucvebc4_init)
/usr/lib/gcc/arm-linux-gnueabihf/8/libgcc.a(_divsi3.o)
                              ../ulib/libuserxe.a(libuserxe_a-ucalc.o) (__aeabi_idiv)
/usr/lib/gcc/arm-linux-gnueabihf/8/libgcc.a(_aeabi_ldivmod.o)
                              ../ulib/libuserxe.a(libuserxe_a-u32703.o) (__aeabi_ldivmod)
/usr/lib/gcc/arm-linux-gnueabihf/8/libgcc.a(_dvmd_lnx.o)
                              /usr/lib/gcc/arm-linux-gnueabihf/8/libgcc.a(_aeabi_ldivmod.o) (__aeabi_ldiv0)
/usr/lib/gcc/arm-linux-gnueabihf/8/libgcc.a(_udivmoddi4.o)
                              /usr/lib/gcc/arm-linux-gnueabihf/8/libgcc.a(_aeabi_ldivmod.o) (__udivmoddi4)
//usr/lib/arm-linux-gnueabihf/libc_nonshared.a(elf-init.oS)
                              /usr/lib/gcc/arm-linux-gnueabihf/8/../../../arm-linux-gnueabihf/crt1.o (__libc_csu_init)
//usr/lib/arm-linux-gnueabihf/libc_nonshared.a(stat64.oS)
                              ../ulib/libuserxe.a(libuserxe_a-ufile1l.o) (stat64)
//usr/lib/arm-linux-gnueabihf/libc_nonshared.a(lstat64.oS)
                              ../ulib/libuserxe.a(libuserxe_a-ufile1l.o) (lstat64)

Allocating common symbols
Common symbol       size              file

Gucs2ddmap_i2u      0x20000           ../ulib/libuserxe.a(libuserxe_a-utf22.o)
Guviombuffu         0x4               ../ulib/libuserxe.a(libuserxe_a-uviom.o)
Gufile_opt          0x4               ../ulib/libuserxe.a(libuserxe_a-ufile.o)
Sphiconv            0x4               ../ulib/libuserxe.a(libuserxe_a-ukbdl.o)
Snewoldctr          0x4               ../ulib/libuserxe.a(libuserxe_a-ucvebc2.o)
Gftperr             0x4               ../ulib/libuserxe.a(libuserxe_a-uftp2.o)
Gulibutfmode        0x4               ../ulib/libuserxe.a(libuserxe_a-utf.o)
Se2stctr            0x4               ../ulib/libuserxe.a(libuserxe_a-ucvebc2.o)
Gtracehdr           0x100             ../ulib/libuserxe.a(libuserxe_a-utrace.o)
Sfdpiper            0x4               ../ulib/libuserxe.a(libuserxe_a-uproc.o)
Gutfrc              0x4               ../ulib/libuserxe.a(libuserxe_a-utf.o)
Gualloc_amount      0x4               ../ulib/libuserxe.a(libuserxe_a-uallocl.o)
Guviomopt           0x4               ../ulib/libuserxe.a(libuserxe_a-uviom.o)
Slockhandle         0x4               ../ulib/libuserxe.a(libuserxe_a-utrace.o)
Gucvebchctr         0x4               ../ulib/libuserxe.a(libuserxe_a-ucvebc.o)
Gudbcschk_flag      0x4               ../ulib/libuserxe.a(libuserxe_a-udbcschk.o)
Guerropt2           0x4               ../ulib/libuserxe.a(libuserxe_a-uerr.o)
Sduptctr            0x4               ../ulib/libuserxe.a(libuserxe_a-ucvebc2.o)
Gukbdl_flag         0x4               ../ulib/libuserxe.a(libuserxe_a-ukbdl.o)
Ss2etctr            0x4               ../ulib/libuserxe.a(libuserxe_a-ucvebc2.o)
Gucvebch            0x9c40            ../ulib/libuserxe.a(libuserxe_a-ucvebc.o)
Gucalc_result       0x140             ../ulib/libuserxe.a(libuserxe_a-ucalc.o)
Guviol_flag         0x4               ../ulib/libuserxe.a(libuserxe_a-uviol.o)
Guviomoptstr        0x4               ../ulib/libuserxe.a(libuserxe_a-uviom.o)
Gftpopt             0x4               ../ulib/libuserxe.a(libuserxe_a-uftp2.o)
Gufile_nomsg        0x4               ../ulib/libuserxe.a(libuserxe_a-ufile.o)
Gualloc16_amount    0x4               ../ulib/libuserxe.a(libuserxe_a-uallocl.o)
Gudbcschk_width0top
                    0x4               ../ulib/libuserxe.a(libuserxe_a-udbcschk.o)
Gucvebc_stat        0x4               ../ulib/libuserxe.a(libuserxe_a-ucvebc.o)
Gftpclient          0x80              ../ulib/libuserxe.a(libuserxe_a-uftp2.o)
Guviomopt2          0x4               ../ulib/libuserxe.a(libuserxe_a-uviom.o)
Sdbcschk_hkopt      0x4               ../ulib/libuserxe.a(libuserxe_a-udbcschk.o)
Gutfcombaltch       0x4               ../ulib/libuserxe.a(libuserxe_a-utf.o)
Gucs2ddmap          0x40000           ../ulib/libuserxe.a(libuserxe_a-utf22.o)
Gw95buffopt         0x4               ../ulib/libuserxe.a(libuserxe_a-uviom.o)
Guerropt            0x1               ../ulib/libuserxe.a(libuserxe_a-uerr.o)
Guviomoptstrucs     0x10              ../ulib/libuserxe.a(libuserxe_a-uviom.o)
Sfdpipew            0x4               ../ulib/libuserxe.a(libuserxe_a-uproc.o)

Discarded input sections

 .note.GNU-stack
                0x00000000        0x0 /usr/lib/gcc/arm-linux-gnueabihf/8/../../../arm-linux-gnueabihf/crt1.o
 .note.GNU-stack
                0x00000000        0x0 /usr/lib/gcc/arm-linux-gnueabihf/8/../../../arm-linux-gnueabihf/crti.o
 .note.GNU-stack
                0x00000000        0x0 /usr/lib/gcc/arm-linux-gnueabihf/8/crtbegin.o
 .note.GNU-stack
                0x00000000        0x0 xbc.o
 .note.GNU-stack
                0x00000000        0x0 ../ulib/libuserxe.a(libuserxe_a-ucalc.o)
 .note.GNU-stack
                0x00000000        0x0 ../ulib/libuserxe.a(libuserxe_a-ucalc2.o)
 .note.GNU-stack
                0x00000000        0x0 ../ulib/libuserxe.a(libuserxe_a-uedit.o)
 .note.GNU-stack
                0x00000000        0x0 ../ulib/libuserxe.a(libuserxe_a-uerr.o)
 .note.GNU-stack
                0x00000000        0x0 ../ulib/libuserxe.a(libuserxe_a-ufemsg.o)
 .note.GNU-stack
                0x00000000        0x0 ../ulib/libuserxe.a(libuserxe_a-ufile.o)
 .note.GNU-stack
                0x00000000        0x0 ../ulib/libuserxe.a(libuserxe_a-ufile1f.o)
 .note.GNU-stack
                0x00000000        0x0 ../ulib/libuserxe.a(libuserxe_a-ufile1l.o)
 .note.GNU-stack
                0x00000000        0x0 ../ulib/libuserxe.a(libuserxe_a-ufile1l2.o)
 .note.GNU-stack
                0x00000000        0x0 ../ulib/libuserxe.a(libuserxe_a-ufile2.o)
 .note.GNU-stack
                0x00000000        0x0 ../ulib/libuserxe.a(libuserxe_a-ufile2f.o)
 .note.GNU-stack
                0x00000000        0x0 ../ulib/libuserxe.a(libuserxe_a-ufile2l.o)
 .note.GNU-stack
                0x00000000        0x0 ../ulib/libuserxe.a(libuserxe_a-ufile2l2.o)
 .note.GNU-stack
                0x00000000        0x0 ../ulib/libuserxe.a(libuserxe_a-ufile3.o)
 .note.GNU-stack
                0x00000000        0x0 ../ulib/libuserxe.a(libuserxe_a-ufile3f.o)
 .note.GNU-stack
                0x00000000        0x0 ../ulib/libuserxe.a(libuserxe_a-ufile4.o)
 .note.GNU-stack
                0x00000000        0x0 ../ulib/libuserxe.a(libuserxe_a-ufile5.o)
 .note.GNU-stack
                0x00000000        0x0 ../ulib/libuserxe.a(libuserxe_a-uftp.o)
 .note.GNU-stack
                0x00000000        0x0 ../ulib/libuserxe.a(libuserxe_a-uftp2.o)
 .note.GNU-stack
                0x00000000        0x0 ../ulib/libuserxe.a(libuserxe_a-uftp3.o)
 .note.GNU-stack
                0x00000000        0x0 ../ulib/libuserxe.a(libuserxe_a-ugcclib.o)
 .note.GNU-stack
                0x00000000        0x0 ../ulib/libuserxe.a(libuserxe_a-ukbdl.o)
 .note.GNU-stack
                0x00000000        0x0 ../ulib/libuserxe.a(libuserxe_a-ukbdlnxc.o)
 .note.GNU-stack
                0x00000000        0x0 ../ulib/libuserxe.a(libuserxe_a-ukbdlnxm.o)
 .note.GNU-stack
                0x00000000        0x0 ../ulib/libuserxe.a(libuserxe_a-uparse.o)
 .note.GNU-stack
                0x00000000        0x0 ../ulib/libuserxe.a(libuserxe_a-uproc.o)
 .note.GNU-stack
                0x00000000        0x0 ../ulib/libuserxe.a(libuserxe_a-uproc2.o)
 .note.GNU-stack
                0x00000000        0x0 ../ulib/libuserxe.a(libuserxe_a-uproc4.o)
 .note.GNU-stack
                0x00000000        0x0 ../ulib/libuserxe.a(libuserxe_a-uque.o)
 .note.GNU-stack
                0x00000000        0x0 ../ulib/libuserxe.a(libuserxe_a-ustrcpy.o)
 .note.GNU-stack
                0x00000000        0x0 ../ulib/libuserxe.a(libuserxe_a-ustring.o)
 .note.GNU-stack
                0x00000000        0x0 ../ulib/libuserxe.a(libuserxe_a-utf.o)
 .note.GNU-stack
                0x00000000        0x0 ../ulib/libuserxe.a(libuserxe_a-utf2.o)
 .note.GNU-stack
                0x00000000        0x0 ../ulib/libuserxe.a(libuserxe_a-utf22.o)
 .note.GNU-stack
                0x00000000        0x0 ../ulib/libuserxe.a(libuserxe_a-utf3.o)
 .note.GNU-stack
                0x00000000        0x0 ../ulib/libuserxe.a(libuserxe_a-utf4.o)
 .note.GNU-stack
                0x00000000        0x0 ../ulib/libuserxe.a(libuserxe_a-utrace.o)
 .note.GNU-stack
                0x00000000        0x0 ../ulib/libuserxe.a(libuserxe_a-uunxsub.o)
 .note.GNU-stack
                0x00000000        0x0 ../ulib/libuserxe.a(libuserxe_a-uviol.o)
 .note.GNU-stack
                0x00000000        0x0 ../ulib/libuserxe.a(libuserxe_a-u3270.o)
 .note.GNU-stack
                0x00000000        0x0 ../ulib/libuserxe.a(libuserxe_a-u32702.o)
 .note.GNU-stack
                0x00000000        0x0 ../ulib/libuserxe.a(libuserxe_a-u32703.o)
 .note.GNU-stack
                0x00000000        0x0 ../ulib/libuserxe.a(libuserxe_a-uabend.o)
 .note.GNU-stack
                0x00000000        0x0 ../ulib/libuserxe.a(libuserxe_a-uallocl.o)
 .note.GNU-stack
                0x00000000        0x0 ../ulib/libuserxe.a(libuserxe_a-ucvebc.o)
 .note.GNU-stack
                0x00000000        0x0 ../ulib/libuserxe.a(libuserxe_a-ucvebc2.o)
 .note.GNU-stack
                0x00000000        0x0 ../ulib/libuserxe.a(libuserxe_a-ucvebct.o)
 .note.GNU-stack
                0x00000000        0x0 ../ulib/libuserxe.a(libuserxe_a-ucvext.o)
 .note.GNU-stack
                0x00000000        0x0 ../ulib/libuserxe.a(libuserxe_a-ucvext12.o)
 .note.GNU-stack
                0x00000000        0x0 ../ulib/libuserxe.a(libuserxe_a-ucvext2.o)
 .note.GNU-stack
                0x00000000        0x0 ../ulib/libuserxe.a(libuserxe_a-ucvucs.o)
 .note.GNU-stack
                0x00000000        0x0 ../ulib/libuserxe.a(libuserxe_a-ucvucst.o)
 .note.GNU-stack
                0x00000000        0x0 ../ulib/libuserxe.a(libuserxe_a-udbcschk.o)
 .note.GNU-stack
                0x00000000        0x0 ../ulib/libuserxe.a(libuserxe_a-udbcsck2.o)
 .note.GNU-stack
                0x00000000        0x0 ../ulib/libuserxe.a(libuserxe_a-udos2.o)
 .note.GNU-stack
                0x00000000        0x0 ../ulib/libuserxe.a(libuserxe_a-uedit2.o)
 .note.GNU-stack
                0x00000000        0x0 ../ulib/libuserxe.a(libuserxe_a-uehl.o)
 .note.GNU-stack
                0x00000000        0x0 ../ulib/libuserxe.a(libuserxe_a-uproc22.o)
 .note.GNU-stack
                0x00000000        0x0 ../ulib/libuserxe.a(libuserxe_a-uproc3.o)
 .note.GNU-stack
                0x00000000        0x0 ../ulib/libuserxe.a(libuserxe_a-uviom.o)
 .note.GNU-stack
                0x00000000        0x0 ../ulib/libuserxe.a(libuserxe_a-ucvebc3.o)
 .note.GNU-stack
                0x00000000        0x0 ../ulib/libuserxe.a(libuserxe_a-ucvebc4.o)
 .note.GNU-stack
                0x00000000        0x0 /usr/lib/gcc/arm-linux-gnueabihf/8/libgcc.a(_divsi3.o)
 .note.GNU-stack
                0x00000000        0x0 /usr/lib/gcc/arm-linux-gnueabihf/8/libgcc.a(_aeabi_ldivmod.o)
 .note.GNU-stack
                0x00000000        0x0 /usr/lib/gcc/arm-linux-gnueabihf/8/libgcc.a(_dvmd_lnx.o)
 .note.GNU-stack
                0x00000000        0x0 /usr/lib/gcc/arm-linux-gnueabihf/8/libgcc.a(_udivmoddi4.o)
 .note.GNU-stack
                0x00000000        0x0 //usr/lib/arm-linux-gnueabihf/libc_nonshared.a(elf-init.oS)
 .note.GNU-stack
                0x00000000        0x0 //usr/lib/arm-linux-gnueabihf/libc_nonshared.a(stat64.oS)
 .note.GNU-stack
                0x00000000        0x0 //usr/lib/arm-linux-gnueabihf/libc_nonshared.a(lstat64.oS)
 .note.GNU-stack
                0x00000000        0x0 /usr/lib/gcc/arm-linux-gnueabihf/8/crtend.o
 .note.GNU-stack
                0x00000000        0x0 /usr/lib/gcc/arm-linux-gnueabihf/8/../../../arm-linux-gnueabihf/crtn.o

Memory Configuration

Name             Origin             Length             Attributes
*default*        0x00000000         0xffffffff

Linker script and memory map

LOAD /usr/lib/gcc/arm-linux-gnueabihf/8/../../../arm-linux-gnueabihf/crt1.o
LOAD /usr/lib/gcc/arm-linux-gnueabihf/8/../../../arm-linux-gnueabihf/crti.o
LOAD /usr/lib/gcc/arm-linux-gnueabihf/8/crtbegin.o
LOAD xbc.o
LOAD ../ulib/libuserxe.a
LOAD /usr/lib/gcc/arm-linux-gnueabihf/8/../../../arm-linux-gnueabihf/libgnomeui-2.so
LOAD /usr/lib/gcc/arm-linux-gnueabihf/8/../../../arm-linux-gnueabihf/libSM.so
LOAD /usr/lib/gcc/arm-linux-gnueabihf/8/../../../arm-linux-gnueabihf/libICE.so
LOAD /usr/lib/gcc/arm-linux-gnueabihf/8/../../../arm-linux-gnueabihf/libbonoboui-2.so
LOAD /usr/lib/gcc/arm-linux-gnueabihf/8/../../../arm-linux-gnueabihf/libgnome-2.so
LOAD /usr/lib/gcc/arm-linux-gnueabihf/8/../../../arm-linux-gnueabihf/libpopt.so
LOAD /usr/lib/gcc/arm-linux-gnueabihf/8/../../../arm-linux-gnueabihf/libbonobo-2.so
LOAD /usr/lib/gcc/arm-linux-gnueabihf/8/../../../arm-linux-gnueabihf/libbonobo-activation.so
LOAD /usr/lib/gcc/arm-linux-gnueabihf/8/../../../arm-linux-gnueabihf/libORBit-2.so
LOAD /usr/lib/gcc/arm-linux-gnueabihf/8/../../../arm-linux-gnueabihf/libgnomecanvas-2.so
LOAD /usr/lib/gcc/arm-linux-gnueabihf/8/../../../arm-linux-gnueabihf/libart_lgpl_2.so
LOAD /usr/lib/gcc/arm-linux-gnueabihf/8/../../../arm-linux-gnueabihf/libgnomevfs-2.so
LOAD /usr/lib/gcc/arm-linux-gnueabihf/8/../../../arm-linux-gnueabihf/libgconf-2.so
LOAD /usr/lib/gcc/arm-linux-gnueabihf/8/../../../arm-linux-gnueabihf/libgthread-2.0.so
LOAD /usr/lib/gcc/arm-linux-gnueabihf/8/../../../arm-linux-gnueabihf/libgmodule-2.0.so
LOAD /usr/lib/gcc/arm-linux-gnueabihf/8/../../../arm-linux-gnueabihf/libgtk-x11-2.0.so
LOAD /usr/lib/gcc/arm-linux-gnueabihf/8/../../../arm-linux-gnueabihf/libgdk-x11-2.0.so
LOAD /usr/lib/gcc/arm-linux-gnueabihf/8/../../../arm-linux-gnueabihf/libpangocairo-1.0.so
LOAD /usr/lib/gcc/arm-linux-gnueabihf/8/../../../arm-linux-gnueabihf/libatk-1.0.so
LOAD /usr/lib/gcc/arm-linux-gnueabihf/8/../../../arm-linux-gnueabihf/libcairo.so
LOAD /usr/lib/gcc/arm-linux-gnueabihf/8/../../../arm-linux-gnueabihf/libgdk_pixbuf-2.0.so
LOAD /usr/lib/gcc/arm-linux-gnueabihf/8/../../../arm-linux-gnueabihf/libgio-2.0.so
LOAD /usr/lib/gcc/arm-linux-gnueabihf/8/../../../arm-linux-gnueabihf/libpangoft2-1.0.so
LOAD /usr/lib/gcc/arm-linux-gnueabihf/8/../../../arm-linux-gnueabihf/libpango-1.0.so
LOAD /usr/lib/gcc/arm-linux-gnueabihf/8/../../../arm-linux-gnueabihf/libgobject-2.0.so
LOAD /usr/lib/gcc/arm-linux-gnueabihf/8/../../../arm-linux-gnueabihf/libglib-2.0.so
LOAD /usr/lib/gcc/arm-linux-gnueabihf/8/../../../arm-linux-gnueabihf/libfontconfig.so
LOAD /usr/lib/gcc/arm-linux-gnueabihf/8/../../../arm-linux-gnueabihf/libfreetype.so
LOAD /usr/lib/gcc/arm-linux-gnueabihf/8/../../../arm-linux-gnueabihf/libdl.so
LOAD /usr/lib/gcc/arm-linux-gnueabihf/8/../../../arm-linux-gnueabihf/libncursesw.so
LOAD /lib/arm-linux-gnueabihf/libncursesw.so.6
LOAD /usr/lib/gcc/arm-linux-gnueabihf/8/../../../arm-linux-gnueabihf/libtinfo.so
LOAD /usr/lib/gcc/arm-linux-gnueabihf/8/../../../arm-linux-gnueabihf/libcups.so
LOAD /usr/lib/gcc/arm-linux-gnueabihf/8/libgcc.a
LOAD /usr/lib/gcc/arm-linux-gnueabihf/8/libgcc_s.so
START GROUP
LOAD /usr/lib/gcc/arm-linux-gnueabihf/8/libgcc_s.so.1
LOAD /usr/lib/gcc/arm-linux-gnueabihf/8/libgcc.a
END GROUP
LOAD /usr/lib/gcc/arm-linux-gnueabihf/8/../../../arm-linux-gnueabihf/libpthread.so
LOAD /usr/lib/gcc/arm-linux-gnueabihf/8/../../../arm-linux-gnueabihf/libc.so
START GROUP
LOAD //lib/arm-linux-gnueabihf/libc.so.6
LOAD //usr/lib/arm-linux-gnueabihf/libc_nonshared.a
LOAD //lib/arm-linux-gnueabihf/ld-linux-armhf.so.3
END GROUP
LOAD /usr/lib/gcc/arm-linux-gnueabihf/8/libgcc.a
LOAD /usr/lib/gcc/arm-linux-gnueabihf/8/libgcc_s.so
START GROUP
LOAD /usr/lib/gcc/arm-linux-gnueabihf/8/libgcc_s.so.1
LOAD /usr/lib/gcc/arm-linux-gnueabihf/8/libgcc.a
END GROUP
LOAD /usr/lib/gcc/arm-linux-gnueabihf/8/crtend.o
LOAD /usr/lib/gcc/arm-linux-gnueabihf/8/../../../arm-linux-gnueabihf/crtn.o
                [!provide]                PROVIDE (__executable_start = SEGMENT_START ("text-segment", 0x10000))
                0x00010154                . = (SEGMENT_START ("text-segment", 0x10000) + SIZEOF_HEADERS)

.interp         0x00010154       0x19
 *(.interp)
 .interp        0x00010154       0x19 /usr/lib/gcc/arm-linux-gnueabihf/8/../../../arm-linux-gnueabihf/crt1.o

.note.ABI-tag   0x00010170       0x20
 .note.ABI-tag  0x00010170       0x20 /usr/lib/gcc/arm-linux-gnueabihf/8/../../../arm-linux-gnueabihf/crt1.o

.note.gnu.build-id
                0x00010190       0x24
 *(.note.gnu.build-id)
 .note.gnu.build-id
                0x00010190       0x24 linker stubs

.hash
 *(.hash)

.gnu.hash       0x000101b4      0x738
 *(.gnu.hash)
 .gnu.hash      0x000101b4      0x738 /usr/lib/gcc/arm-linux-gnueabihf/8/../../../arm-linux-gnueabihf/crt1.o

.dynsym         0x000108ec      0xc90
 *(.dynsym)
 .dynsym        0x000108ec      0xc90 /usr/lib/gcc/arm-linux-gnueabihf/8/../../../arm-linux-gnueabihf/crt1.o

.dynstr         0x0001157c      0x9b5
 *(.dynstr)
 .dynstr        0x0001157c      0x9b5 /usr/lib/gcc/arm-linux-gnueabihf/8/../../../arm-linux-gnueabihf/crt1.o

.gnu.version    0x00011f32      0x192
 *(.gnu.version)
 .gnu.version   0x00011f32      0x192 /usr/lib/gcc/arm-linux-gnueabihf/8/../../../arm-linux-gnueabihf/crt1.o

.gnu.version_d  0x000120c4        0x0
 *(.gnu.version_d)
 .gnu.version_d
                0x000120c4        0x0 /usr/lib/gcc/arm-linux-gnueabihf/8/../../../arm-linux-gnueabihf/crt1.o

.gnu.version_r  0x000120c4       0xc0
 *(.gnu.version_r)
 .gnu.version_r
                0x000120c4       0xc0 /usr/lib/gcc/arm-linux-gnueabihf/8/../../../arm-linux-gnueabihf/crt1.o

.rel.dyn        0x00012184       0x60
 *(.rel.init)
 *(.rel.text .rel.text.* .rel.gnu.linkonce.t.*)
 *(.rel.fini)
 *(.rel.rodata .rel.rodata.* .rel.gnu.linkonce.r.*)
 *(.rel.data.rel.ro .rel.data.rel.ro.* .rel.gnu.linkonce.d.rel.ro.*)
 .rel.data.rel.ro
                0x00012184        0x0 /usr/lib/gcc/arm-linux-gnueabihf/8/../../../arm-linux-gnueabihf/crt1.o
 *(.rel.data .rel.data.* .rel.gnu.linkonce.d.*)
 *(.rel.tdata .rel.tdata.* .rel.gnu.linkonce.td.*)
 *(.rel.tbss .rel.tbss.* .rel.gnu.linkonce.tb.*)
 *(.rel.ctors)
 *(.rel.dtors)
 *(.rel.got)
 .rel.got       0x00012184        0x8 /usr/lib/gcc/arm-linux-gnueabihf/8/../../../arm-linux-gnueabihf/crt1.o
 *(.rel.bss .rel.bss.* .rel.gnu.linkonce.b.*)
 .rel.bss       0x0001218c       0x58 /usr/lib/gcc/arm-linux-gnueabihf/8/../../../arm-linux-gnueabihf/crt1.o
                [!provide]                PROVIDE (__rel_iplt_start = .)
 *(.rel.iplt)
 .rel.iplt      0x000121e4        0x0 /usr/lib/gcc/arm-linux-gnueabihf/8/../../../arm-linux-gnueabihf/crt1.o
                [!provide]                PROVIDE (__rel_iplt_end = .)

.rela.dyn       0x000121e4        0x0
 *(.rela.init)
 *(.rela.text .rela.text.* .rela.gnu.linkonce.t.*)
 *(.rela.fini)
 *(.rela.rodata .rela.rodata.* .rela.gnu.linkonce.r.*)
 *(.rela.data .rela.data.* .rela.gnu.linkonce.d.*)
 *(.rela.tdata .rela.tdata.* .rela.gnu.linkonce.td.*)
 *(.rela.tbss .rela.tbss.* .rela.gnu.linkonce.tb.*)
 *(.rela.ctors)
 *(.rela.dtors)
 *(.rela.got)
 *(.rela.bss .rela.bss.* .rela.gnu.linkonce.b.*)
                [!provide]                PROVIDE (__rela_iplt_start = .)
 *(.rela.iplt)
                [!provide]                PROVIDE (__rela_iplt_end = .)

.rel.plt        0x000121e4      0x5a0
 *(.rel.plt)
 .rel.plt       0x000121e4      0x5a0 /usr/lib/gcc/arm-linux-gnueabihf/8/../../../arm-linux-gnueabihf/crt1.o

.rela.plt
 *(.rela.plt)

.init           0x00012784        0xc
 *(SORT_NONE(.init))
 .init          0x00012784        0x8 /usr/lib/gcc/arm-linux-gnueabihf/8/../../../arm-linux-gnueabihf/crti.o
                0x00012784                _init
 .init          0x0001278c        0x4 /usr/lib/gcc/arm-linux-gnueabihf/8/../../../arm-linux-gnueabihf/crtn.o

.plt            0x00012790      0x884
 *(.plt)
 .plt           0x00012790      0x884 /usr/lib/gcc/arm-linux-gnueabihf/8/../../../arm-linux-gnueabihf/crt1.o
                0x000127a4                gethostname@@GLIBC_2.4
                0x000127b0                getuid@@GLIBC_2.4
                0x000127bc                fopen64@@GLIBC_2.4
                0x000127c8                endwin@@NCURSESW6_5.1.20000708
                0x000127d4                fwrite@@GLIBC_2.4
                0x000127e0                mbrtowc@@GLIBC_2.4
                0x000127ec                toupper@@GLIBC_2.4
                0x000127f8                __isoc99_sscanf@@GLIBC_2.7
                0x00012804                fprintf@@GLIBC_2.4
                0x00012810                waddnstr@@NCURSESW6_5.1.20000708
                0x0001281c                strstr@@GLIBC_2.4
                0x00012828                isatty@@GLIBC_2.4
                0x00012834                getppid@@GLIBC_2.4
                0x00012840                wbkgdset@@NCURSESW6_5.1.20000708
                0x0001284c                execvp@@GLIBC_2.4
                0x00012858                write@@GLIBC_2.4
                0x00012864                wctomb@@GLIBC_2.4
                0x00012870                can_change_color@@NCURSESW6_5.1.20000708
                0x0001287c                opendir@@GLIBC_2.4
                0x00012888                printf@@GLIBC_2.4
                0x00012894                gnome_vfs_mime_get_default_application
                0x000128a0                bsearch@@GLIBC_2.4
                0x000128ac                fclose@@GLIBC_2.4
                0x000128b8                atoll@@GLIBC_2.4
                0x000128c4                qsort@@GLIBC_2.4
                0x000128d0                getgid@@GLIBC_2.4
                0x000128dc                wclear@@NCURSESW6_5.1.20000708
                0x000128e8                __ctype_b_loc@@GLIBC_2.4
                0x000128f4                strnlen@@GLIBC_2.4
                0x00012900                nonl@@NCURSESW6_5.1.20000708
                0x0001290c                getmntent@@GLIBC_2.4
                0x00012918                iconv@@GLIBC_2.4
                0x00012924                fputc@@GLIBC_2.4
                0x00012930                dlclose@@GLIBC_2.4
                0x0001293c                beep@@NCURSESW6_5.1.20000708
                0x00012948                __xstat64@@GLIBC_2.4
                0x00012954                chown@@GLIBC_2.4
                0x00012960                strpbrk@@GLIBC_2.4
                0x0001296c                fseek@@GLIBC_2.4
                0x00012978                strerror@@GLIBC_2.4
                0x00012984                color_content@@NCURSESW6_5.1.20000708
                0x00012990                tolower@@GLIBC_2.4
                0x0001299c                putchar@@GLIBC_2.4
                0x000129a8                has_colors@@NCURSESW6_5.1.20000708
                0x000129b4                puts@@GLIBC_2.4
                0x000129c0                init_pair@@NCURSESW6_5.1.20000708
                0x000129cc                __libc_start_main@@GLIBC_2.4
                0x000129e4                setupterm@@NCURSES6_TINFO_5.0.19991023
                0x000129f0                strchr@@GLIBC_2.4
                0x000129fc                __errno_location@@GLIBC_2.4
                0x00012a08                keypad@@NCURSES6_TINFO_5.0.19991023
                0x00012a14                lutimes@@GLIBC_2.4
                0x00012a20                atol@@GLIBC_2.4
                0x00012a2c                ftello64@@GLIBC_2.4
                0x00012a38                tcsetattr@@GLIBC_2.4
                0x00012a44                curs_set@@NCURSES6_TINFO_5.0.19991023
                0x00012a50                symlink@@GLIBC_2.4
                0x00012a5c                setenv@@GLIBC_2.4
                0x00012a68                mkdir@@GLIBC_2.4
                0x00012a74                pthread_mutex_lock@@GLIBC_2.4
                0x00012a80                pipe@@GLIBC_2.4
                0x00012a8c                noecho@@NCURSESW6_5.1.20000708
                0x00012a98                gnome_vfs_get_mime_type
                0x00012aa4                waddchnstr@@NCURSESW6_5.1.20000708
                0x00012ab0                pthread_cond_wait@@GLIBC_2.4
                0x00012abc                free@@GLIBC_2.4
                0x00012ac8                iconv_close@@GLIBC_2.4
                0x00012ad4                wcwidth@@GLIBC_2.4
                0x00012ae0                close@@GLIBC_2.4
                0x00012aec                clearok@@NCURSESW6_5.1.20000708
                0x00012af8                memcpy@@GLIBC_2.4
                0x00012b04                wcstombs@@GLIBC_2.4
                0x00012b10                iconv_open@@GLIBC_2.4
                0x00012b1c                memmove@@GLIBC_2.4
                0x00012b28                strncpy@@GLIBC_2.4
                0x00012b34                winchnstr@@NCURSESW6_5.1.20000708
                0x00012b40                win_wchnstr@@NCURSESW6_5.3.20021019
                0x00012b4c                access@@GLIBC_2.4
                0x00012b58                unlink@@GLIBC_2.4
                0x00012b64                ferror@@GLIBC_2.4
                0x00012b70                strcpy@@GLIBC_2.4
                0x00012b7c                execv@@GLIBC_2.4
                0x00012b88                raise@@GLIBC_2.4
                0x00012b94                getgrgid@@GLIBC_2.4
                0x00012ba0                start_color@@NCURSESW6_5.1.20000708
                0x00012bac                atoi@@GLIBC_2.4
                0x00012bb8                dlsym@@GLIBC_2.4
                0x00012bc4                ftime@@GLIBC_2.4
                0x00012bd0                fork@@GLIBC_2.4
                0x00012bdc                signal@@GLIBC_2.4
                0x00012be8                gettimeofday@@GLIBC_2.4
                0x00012bf4                getpwuid@@GLIBC_2.4
                0x00012c00                system@@GLIBC_2.4
                0x00012c0c                malloc@@GLIBC_2.4
                0x00012c18                localtime@@GLIBC_2.4
                0x00012c24                getcwd@@GLIBC_2.4
                0x00012c30                tcgetattr@@GLIBC_2.4
                0x00012c3c                pthread_cond_init@@GLIBC_2.4
                0x00012c48                kill@@GLIBC_2.4
                0x00012c54                strdup@@GLIBC_2.4
                0x00012c60                strlen@@GLIBC_2.4
                0x00012c6c                pthread_mutex_destroy@@GLIBC_2.4
                0x00012c78                chdir@@GLIBC_2.4
                0x00012c84                chmod@@GLIBC_2.4
                0x00012c90                mktime@@GLIBC_2.4
                0x00012c9c                wadd_wchnstr@@NCURSESW6_5.3.20021019
                0x00012ca8                closedir@@GLIBC_2.4
                0x00012cb4                getpid@@GLIBC_2.4
                0x00012cc0                winnstr@@NCURSESW6_5.1.20000708
                0x00012ccc                __lxstat64@@GLIBC_2.4
                0x00012cd8                select@@GLIBC_2.4
                0x00012ce4                readlink@@GLIBC_2.4
                0x00012cf0                iswalpha@@GLIBC_2.4
                0x00012cfc                fseeko64@@GLIBC_2.4
                0x00012d08                dup@@GLIBC_2.4
                0x00012d14                sprintf@@GLIBC_2.4
                0x00012d20                snprintf@@GLIBC_2.4
                0x00012d2c                fflush@@GLIBC_2.4
                0x00012d38                mbtowc@@GLIBC_2.4
                0x00012d44                curses_version@@NCURSES6_TINFO_5.0.19991023
                0x00012d50                perror@@GLIBC_2.4
                0x00012d5c                setlocale@@GLIBC_2.4
                0x00012d68                vfprintf@@GLIBC_2.4
                0x00012d74                mousemask@@NCURSESW6_5.1.20000708
                0x00012d80                gnome_vfs_mime_application_free
                0x00012d8c                strcmp@@GLIBC_2.4
                0x00012d98                initscr@@NCURSESW6_5.1.20000708
                0x00012da4                memcmp@@GLIBC_2.4
                0x00012db0                memset@@GLIBC_2.4
                0x00012dbc                wrefresh@@NCURSESW6_5.1.20000708
                0x00012dc8                getenv@@GLIBC_2.4
                0x00012dd4                rename@@GLIBC_2.4
                0x00012de0                flock@@GLIBC_2.4
                0x00012dec                mkfifo@@GLIBC_2.4
                0x00012df8                time@@GLIBC_2.4
                0x00012e04                meta@@NCURSES6_TINFO_5.0.19991023
                0x00012e10                wait@@GLIBC_2.4
                0x00012e1c                statfs64@@GLIBC_2.4
                0x00012e28                pthread_cond_broadcast@@GLIBC_2.4
                0x00012e34                fread@@GLIBC_2.4
                0x00012e40                gnome_vfs_init
                0x00012e4c                pthread_create@@GLIBC_2.4
                0x00012e58                strcat@@GLIBC_2.4
                0x00012e64                abort@@GLIBC_2.4
                0x00012e70                init_color@@NCURSESW6_5.1.20000708
                0x00012e7c                gnome_vfs_get_uri_from_local_path
                0x00012e88                waitpid@@GLIBC_2.4
                0x00012e94                gnome_vfs_get_file_info
                0x00012ea0                pthread_cond_timedwait@@GLIBC_2.4
                0x00012eac                exit@@GLIBC_2.4
                0x00012eb8                calloc@@GLIBC_2.4
                0x00012ec4                setmntent@@GLIBC_2.4
                0x00012ed0                rmdir@@GLIBC_2.4
                0x00012edc                strrchr@@GLIBC_2.4
                0x00012ee8                wmove@@NCURSESW6_5.1.20000708
                0x00012ef4                dup2@@GLIBC_2.4
                0x00012f00                getmntent_r@@GLIBC_2.4
                0x00012f0c                fgets@@GLIBC_2.4
                0x00012f18                raw@@NCURSES6_TINFO_5.0.19991023
                0x00012f24                utimes@@GLIBC_2.4
                0x00012f30                endmntent@@GLIBC_2.4
                0x00012f3c                memchr@@GLIBC_2.4
                0x00012f48                read@@GLIBC_2.4
                0x00012f54                readdir64@@GLIBC_2.4
                0x00012f60                pthread_mutex_unlock@@GLIBC_2.4
                0x00012f6c                wcrtomb@@GLIBC_2.4
                0x00012f78                nl_langinfo@@GLIBC_2.4
                0x00012f84                pthread_mutex_init@@GLIBC_2.4
                0x00012f90                fileno@@GLIBC_2.4
                0x00012f9c                mkstemp64@@GLIBC_2.4
                0x00012fa8                strspn@@GLIBC_2.4
                0x00012fb4                open64@@GLIBC_2.4
                0x00012fc0                ioctl@@GLIBC_2.4
                0x00012fcc                fputs@@GLIBC_2.4
                0x00012fd8                nanosleep@@GLIBC_2.4
                0x00012fe4                iswprint@@GLIBC_2.4
                0x00012ff0                putenv@@GLIBC_2.4
                0x00012ffc                ttyname@@GLIBC_2.4
                0x00013008                dlopen@@GLIBC_2.4

.iplt           0x00013014        0x0
 *(.iplt)
 .iplt          0x00013014        0x0 /usr/lib/gcc/arm-linux-gnueabihf/8/../../../arm-linux-gnueabihf/crt1.o

.text           0x00013018    0xaab94
 *(.text.unlikely .text.*_unlikely .text.unlikely.*)
 *(.text.exit .text.exit.*)
 *(.text.startup .text.startup.*)
 *(.text.hot .text.hot.*)
 *(.text .stub .text.* .gnu.linkonce.t.*)
 .text          0x00013018       0x3c /usr/lib/gcc/arm-linux-gnueabihf/8/../../../arm-linux-gnueabihf/crt1.o
                0x00013018                _start
 .text          0x00013054       0x24 /usr/lib/gcc/arm-linux-gnueabihf/8/../../../arm-linux-gnueabihf/crti.o
 .text          0x00013078       0x90 /usr/lib/gcc/arm-linux-gnueabihf/8/crtbegin.o
 .text          0x00013108     0x1024 xbc.o
                0x00013108                main
                0x000135dc                xbcfile
                0x00013b2c                help
 .text          0x0001412c     0x5de8 ../ulib/libuserxe.a(libuserxe_a-ucalc.o)
                0x0001412c                ucalc_bcmain
                0x00014fac                bc_opdchk
                0x00015e90                getvarname
                0x00015f70                ucalc_chkvrparm
                0x000160fc                bc_getvalue
                0x000167f0                ucalc_vrajust
                0x00016b14                ucalc_o2l
                0x00016bfc                ucalc_gettimevalue
                0x00017024                ucalc_getunderpointdata
                0x00017188                bc_opdcopy
                0x00017448                bc_putwordordword
                0x00017520                bc_expand2dword
                0x000175bc                ucalc_binop
                0x00017b58                ucalc_binopsub
                0x0001860c                ucalc_underpoint
                0x000188f4                ucalc_editnum
                0x00018abc                ucalc_editevenhex
                0x00018b48                ucalc_dwtime
                0x00018d30                ucalc_time
                0x00019228                ucalc_timeedit
                0x000195b8                ucalc_shiftdown
                0x00019704                ucalc_shiftup
                0x00019844                bc_getbase
                0x00019888                calcuperr1
                0x000198b0                calcuperr2
                0x000198d8                calcuperr3
                0x00019900                calcerrinvalid
                0x00019938                calcerrinvalid_dw
                0x00019970                calcerrformat
                0x00019998                calcerrunderflow
                0x000199c4                calcerrwordovf
                0x00019a08                calcerrminus
                0x00019a30                calcerr0div
                0x00019a58                calcerrtimeop
                0x00019a80                bc_getvalue3
                0x00019d34                bc_setconvtype3
 .text          0x00019f14     0x417c ../ulib/libuserxe.a(libuserxe_a-ucalc2.o)
                0x00019f14                bc_getxdw
                0x0001a068                bc_getld
                0x0001a2b8                bc_dwbinop
                0x0001a870                bc_twbinop
                0x0001ad90                bc_edittod
                0x0001af04                bc_dweditnum64
                0x0001af6c                bc_dweditnum
                0x0001b288                bc_dwupeditnum
                0x0001b450                ucalc_dwmult
                0x0001b6a4                ucalc_twmult
                0x0001bb6c                ucalc_dwdiv
                0x0001be4c                ucalc_dwdiv2
                0x0001c184                ucalc_twdiv
                0x0001c30c                ucalc_twdivbyup
                0x0001c450                ucalc_twshiftup
                0x0001c56c                ucalc_dwshiftdown
                0x0001c69c                ucalc_ltime
                0x0001cabc                ucalc_getdate
                0x0001cca8                ucalc_nextday
                0x0001cf58                ucalc_ld2dw
                0x0001d4f0                ucalc_dw2ld
                0x0001d5fc                ucalc_nsadd
                0x0001d864                ucalc_ldedit
                0x0001d9a4                ucalc_dwupinit
                0x0001da04                ucalc_dwupset
                0x0001db34                bc_numfmt2dw
                0x0001dbe4                bc_dw2numfmt
                0x0001dcbc                ucalc_dwup2dwandup
                0x0001de60                bc_dword2word
                0x0001df5c                ucalc_dw2err
                0x0001df94                ucalc_dw2errresidual
                0x0001e008                ucalc_dwuperr
                0x0001e030                ucalc_dwmaxerr
                0x0001e068                ucalcerrdwordovf
 .text          0x0001e090     0x3fe8 ../ulib/libuserxe.a(libuserxe_a-uedit.o)
                0x0001e090                uedit
                0x0001e0a8                unumedit
                0x0001e3e0                utimeedit
                0x0001ef58                uitoa10
                0x0001ef8c                ucmdparmedit
                0x0001f6b4                ueditenv
                0x0001fae0                uwordrep
                0x0002018c                ugethex
                0x000202ec                ugethexdump
                0x000204cc                ux2FILESZ
                0x000204fc                ux2l
                0x00020690                ux2ll
                0x00020778                ua2ll
                0x000207a8                ux2s
                0x00020904                ugetnumrange3
                0x00020a7c                ugetnumrange2
                0x00020b78                ugetnumrange2XFILESZ
                0x00020c4c                ugetnumrange
                0x00020e58                ugetxnumrange
                0x0002127c                ugetxnumrangeLL
                0x000216a8                unumlen
                0x000218e8                uatoin
                0x00021968                getKMGTB
                0x00021af0                ueditFILESZ
                0x00021d64                ueditLONGHANDLE
                0x00021f6c                ueditKMG
 .text          0x00022078     0x29f8 ../ulib/libuserxe.a(libuserxe_a-uerr.o)
                0x00022078                uerr
                0x00022090                ubell_init
                0x000220d0                ubell_init2
                0x00022100                ubell
                0x00022218                uerrexit_init
                0x000222e0                uerrexit_optinit
                0x00022310                uerrsetopt2
                0x00022374                uerrexit
                0x0002256c                uerrmsg_init
                0x0002274c                uerrmsg
                0x0002295c                uerrmsg2
                0x00022adc                uerrmsgcat
                0x00022be8                uerrsprintf
                0x00022cd4                uerrfprintfutf
                0x00023140                uerrhelpmsg
                0x0002362c                uerrscrheight
                0x000236dc                useterrmsg
                0x00023750                ugeterrmsg
                0x0002379c                ugeterrmsg2
                0x000237dc                uerrmsgedit
                0x00024170                uconfirmmsg
                0x00024488                uerrornomsg
                0x000244b0                ugeterrdescription
                0x00024534                uerrapi1
                0x0002457c                uerrapi1x
                0x000245c0                uerrapi0
                0x000245fc                uerrapi0x
                0x00024634                uerrapi1t
                0x000246a4                uerrapi1nt
                0x000246f8                uerrapi1tx
                0x00024764                uerrapi0t
                0x000247cc                uerrapi0tx
                0x00024830                uerrnotsupported
                0x00024874                uerrmsg_initstart
                0x00024938                uerrmsg_initstack
                0x0002499c                uerrmsg_initcomp
 .text          0x00024a70      0xec0 ../ulib/libuserxe.a(libuserxe_a-ufemsg.o)
                0x00024a70                ufemsg
                0x00024a88                ufilenotfound
                0x00024ac4                ufilenotfoundotherexist
                0x00024b00                ufilepatherr
                0x00024b3c                ufileapierr
                0x00024b84                ufileapierr_str
                0x00024bdc                ufiledelpath
                0x00024c18                ufilereadonly
                0x00024c54                ufilereadonly2
                0x00024c94                ufiledeleted
                0x00024dc4                ufileshare
                0x00024e00                ufileexist
                0x00024e3c                ufileexistcopy
                0x00024e78                ufileexist2
                0x00024ebc                ufileexistdir
                0x00024ef8                ufilenotdir
                0x00024f34                ufilediskfull
                0x00024f78                ufilewildtarget
                0x00024fac                ufilewildcarderr
                0x00024fe0                ufilewildpatherr
                0x00025014                ufileroot
                0x00025050                ufileapierr2
                0x000250a4                ufiledirna
                0x000250f0                ufileerrdir
                0x0002512c                ufilenotvfat
                0x00025154                ufilenopermission
                0x00025198                ufileslinkloop
                0x000251f0                ufileerrspecialfile
                0x0002522c                ufileerrnotnormal
                0x00025268                ufileerrdir2file
                0x00025298                ufileerrnoentry
                0x000252d0                ufileerrnofileentry
                0x00025308                ufileTooLongFullpathName
                0x00025360                ufileTooLongFullpathName2
                0x000254c0                ufileeditsz
                0x00025858                ufileslinktargeterr
                0x0002589c                ufileopenerrInvalidargument
                0x000258f8                ufileErrInvalidName
 .text          0x00025930     0x3508 ../ulib/libuserxe.a(libuserxe_a-ufile.o)
                0x00025930                ufile
                0x00025948                ufullpathwildexp
                0x00025ffc                ufullpathresolvespecialdirid
                0x000261b8                ufilegetpathdir
                0x000263a4                udirlistnomsg
                0x00026404                udirlist
                0x000265b8                udirlistsub
                0x00026aac                udirlist_set_slinkname
                0x00026c00                ufile_udirlist_copy
                0x00026e5c                ufile_udirlist_swap
                0x00027040                ufile_udirlist_alloc1
                0x000270d4                ufile_udirlist_free
                0x000271d0                udircompare_pointer
                0x00027240                udirlistsort
                0x00027404                udircomp
                0x00027448                udircompare
                0x00027ec8                udircompsub
                0x00027ff0                uredirect
                0x00028438                uredirectrestore
                0x00028554                ufdateedit
                0x00028894                uftimeedit
                0x00028acc                uftimeedit_1sec
                0x00028b28                udirlist_chk_max_entry
                0x00028b90                udirlist_setname
                0x00028d6c                udirlist_setname_cat
 .text          0x00028e38     0x1b00 ../ulib/libuserxe.a(libuserxe_a-ufile1f.o)
                0x00028e38                uftpfstat
                0x00029158                uftpwinchk
                0x00029284                uftpfullpathnorid
                0x000292e4                uftpfullpath
                0x000299ac                uftppathlen
                0x000299fc                uftpgetcwd
                0x00029afc                uftpgethome
                0x00029b7c                uftpgethomesub
                0x00029d50                uftpchdir
                0x00029f1c                uftpchdirsub
                0x0002a0ec                uftplchdirrespchk
                0x0002a2f8                uftpdirlistsub
                0x0002a6d8                uftpfindfirst
                0x0002a828                uftpfindfirstfile
                0x0002a8b0                uftpfindnext
 .text          0x0002a938     0x4344 ../ulib/libuserxe.a(libuserxe_a-ufile1l.o)
                0x0002a938                ufstat
                0x0002b1a8                ufilechkwildmultiple
                0x0002b444                ufstat_wild
                0x0002b4d4                ufilefscomp
                0x0002b54c                ufilegetfsid
                0x0002b62c                ufilegetftime
                0x0002b73c                ufullpath
                0x0002c144                upathlen
                0x0002c194                ugetcwd
                0x0002c1c0                uchdir
                0x0002c2ec                udosfindfirstnomsg
                0x0002c35c                udosfindfirst
                0x0002cad8                udosfindnext
                0x0002cb48                udosfindnextmsg
                0x0002cf4c                ufilelnxwildselect
                0x0002cfb8                ufilelnxattrselect
                0x0002d190                ufilelnxgetmembfstat
                0x0002d3bc                ufilelnxsavehdir
                0x0002d4ec                ufilelnxsrchhdir
                0x0002d5f4                ufilelnxclosehdir
                0x0002d734                ufilemode2attr
                0x0002d8e0                ufilemktime
                0x0002d998                ufilerepwildname
                0x0002da98                errwildname
                0x0002dca0                filesrchmountpoint
                0x0002de78                filegetdevt
                0x0002e0fc                filegetdevicename
                0x0002e2a8                filegetdevicemntent
                0x0002e3c8                filegetmntent
                0x0002e59c                filegetmntoption
                0x0002e700                ufilegetiocharset
                0x0002e804                ufilefnmcvcs
                0x0002ea48                ufullpathCP
 .text          0x0002ec7c     0x1f08 ../ulib/libuserxe.a(libuserxe_a-ufile1l2.o)
                0x0002ec7c                mtoolsinit
                0x0002eca8                ufstat_mdos
                0x0002f1f4                ufilegetmdosattr
                0x0002f2f8                uopendir_mdos
                0x0002f5f4                ureaddir_mdos
                0x0002f838                ufilegetmdosdl
                0x0002fd98                ufilegetmdosattrlist
                0x0002ff90                ugetcwd_mdos
                0x0003010c                uchdir_mdos
                0x000301a8                ustatfs_mdos
                0x000303e8                uminfo
                0x000306c4                ufilegetnum
                0x000307c8                ufilemdoscmd
                0x00030a20                ufilemdoserrchk
 .text          0x00030b84     0x4588 ../ulib/libuserxe.a(libuserxe_a-ufile2.o)
                0x00030b84                ufile2
                0x00030b9c                uxddpchk
                0x00030fec                uxddsub
                0x0003183c                uxdelete
                0x000325bc                ufilewildxdel
                0x000327f0                uxdelsub
                0x00033198                uremovenomsg
                0x000331ec                uremove
                0x0003344c                urenamenomsg
                0x000334a4                urename2
                0x000334fc                urename
                0x00033c00                ufilewildrename
                0x00033c38                uwildfunc
                0x00034034                ufilecdirchk
                0x000343cc                ufilespfnchk
                0x000343f4                wildchk
                0x0003458c                ufilechkwildmemb
                0x000346bc                ufilechkwildname
                0x00034850                ufileopenexclusivewrite
                0x0003490c                ufiledelifnotopened
                0x000349e8                ufile2quietmsg
                0x00034b18                ugetmoveavailablepath
                0x00035004                uwildfunc_LongName
 .text          0x0003510c     0x47cc ../ulib/libuserxe.a(libuserxe_a-ufile2f.o)
                0x0003510c                uftpmkdir
                0x00035704                uftprmdir
                0x00035b10                uftpremove
                0x00035f54                uftprename
                0x00036300                uftprenamesub
                0x000366d4                uftpwildrename
                0x00036724                uftpattrib
                0x00036a30                uftpattrxon
                0x00036a78                uftpattrxchk
                0x00036c50                uftpgetftime
                0x00036da4                uftpgetftime_1sec
                0x00036f1c                uftpsetftime
                0x00036f94                uftpsetftime2
                0x0003700c                uftpcopypathinfo
                0x00037134                uftpsetown
                0x000371ac                uftpsetmod
                0x0003768c                uftpwildfunc
                0x000378b8                uftpwildfunc2
                0x00037c30                uftpmultidel
                0x00037d48                uftpmultirename
                0x00037e60                uftpwildxdel
                0x0003819c                uftpmultidelsub
                0x00038328                uftpmultirenamesub
                0x00038568                uftpbypassreason
                0x000385f4                uftpxdelrchk
                0x00038a00                uftpmultidelrchk
                0x00038c9c                uftpmultirenamerchk
                0x00038f44                ufile2putstmt
                0x00039084                uftpnotsupported
                0x000390dc                uftpnotsupportedforlocal
                0x00039134                uftpdelsubdir
                0x000393b4                ufile3xdeleteinit
                0x00039440                uxdelsubftp
                0x00039890                errtoolongname
 .text          0x000398d8     0x19d8 ../ulib/libuserxe.a(libuserxe_a-ufile2l.o)
                0x000398d8                umkdir
                0x00039944                umkdirmode
                0x00039c78                urmdir
                0x0003a11c                uattrib
                0x0003a468                uattrxon
                0x0003a4e0                uattrxchk
                0x0003a6c0                ugetftime
                0x0003a7f8                ugetftime_1sec
                0x0003a978                usetftime
                0x0003aaf4                usetftime_1sec
                0x0003ab50                usetftime2
                0x0003acac                ucopypathinfo
                0x0003b0b8                ufilesetown
                0x0003b1b0                ufilesetmod
 .text          0x0003b2b0      0xbc8 ../ulib/libuserxe.a(libuserxe_a-ufile2l2.o)
                0x0003b2b0                umkdir_mdos
                0x0003b37c                urmdir_mdos
                0x0003b490                uattrib_mdos
                0x0003b694                uremove_mdos
                0x0003b7a8                urename_mdos
                0x0003b840                ucopy_mdos
                0x0003bad4                uappend_mdos
                0x0003be1c                ufilemdoscopyerr
 .text          0x0003be78     0x4dd0 ../ulib/libuserxe.a(libuserxe_a-ufile3.o)
                0x0003be78                ufile3
                0x0003be90                invalidtargetfilename
                0x0003bec8                uxcopy
                0x0003cdb8                ufilecreateparmproc
                0x0003d524                ufilecpymvflags
                0x0003d7f0                ufilewildcopy
                0x0003da90                ucopysub_slinktarget
                0x0003dc30                ucopysub_slink
                0x0003df28                ucopysub
                0x0003e64c                udoscopy
                0x0003ea04                uxmove
                0x0003f41c                ufilewildmove
                0x0003f5ac                umovesub_slink
                0x0003fce8                umovesub
                0x00040418                ufilecopytschk
                0x00040530                ufilechkslinkpath
                0x00040778                ufilegetslinkfinaltarget
                0x00040900                ufilesymlink
                0x00040984                ufilesymlink_copyfiletime
                0x00040a7c                ufilesymlink_copy
                0x00040b28                ufileerrdirandfile
                0x00040b68                ufileerrslinktarget
                0x00040bac                ufileerrslinkappend
                0x00040bec                ufileerrnotargetslink
 .text          0x00040c48     0x539c ../ulib/libuserxe.a(libuserxe_a-ufile3f.o)
                0x00040c48                uftpxmove
                0x00040e10                uftpxcopy
                0x00041108                uftpxcopyr2r
                0x0004138c                uftpupload
                0x00041a2c                uftpdownload
                0x0004207c                uftptargetflag
                0x00042404                uftpsourceflag
                0x000427bc                uftps2tchk
                0x00042db0                uftpcreateparmproc
                0x000431f4                uftpmoveparmproc
                0x000434a8                uftpupdownctl
                0x00043dac                uftpgetdirlist
                0x00043e80                uftpexistchk1
                0x000440dc                uftpexistchkm
                0x0004463c                uftpcopycallback
                0x00044e60                uftpcopyrchk
                0x000455f4                uftpputstmt
                0x00045738                uftpputstmt2
                0x000458d8                uftpcopyftime
                0x00045c24                ufileftpcopytschk
                0x00045e60                uftpmktdir
                0x00045ec0                uftperrsourceisroot
                0x00045ee8                uftperrtargetisnotdir
                0x00045f1c                uftperrdir2file
                0x00045f5c                uftpfileanddir
                0x00045fa8                uftpappenddir2dir
 .text          0x00045fe4     0x2acc ../ulib/libuserxe.a(libuserxe_a-ufile4.o)
                0x00045fe4                ufile4
                0x00045ffc                utempnam
                0x000462dc                utempnamd
                0x00046334                ufgetpos
                0x00046364                udirwalk
                0x00046a9c                udirwalksub
                0x00047b4c                ufileslinkoutoflinkchk
                0x00047fec                ufileslinkloopchk
                0x00048490                ufileslinkloopchk2
                0x000485a0                ugetdiskfree
                0x00048734                ufileisvfat
                0x00048768                ufileisntfs
                0x0004878c                ufileisvfatMounted
                0x0004880c                ufileisntfsMounted
                0x0004888c                ufileisMSMounted
                0x00048938                ufsetlock
                0x000489a0                uflock
 .text          0x00048ab0     0x4e20 ../ulib/libuserxe.a(libuserxe_a-ufile5.o)
                0x00048ab0                ufile5
                0x00048ac8                ufgetsinit
                0x00048ee4                ufgetscurpos
                0x00048f0c                ufgets_setcurpos
                0x00048f90                ufgets
                0x00049354                ufgetssub
                0x0004993c                ufgetsbinchk_utf8
                0x00049c14                ufgetsbinchk_ebc
                0x00049e34                ufgetsbinchk
                0x0004a2ec                isSameU8c
                0x0004a534                udoseditname
                0x0004adf8                ufileeditname
                0x0004b2c0                ufilewildcomp
                0x0004b640                ufilewildcompsub
                0x0004b810                ufilecomp
                0x0004bce8                ufilecomptextmode
                0x0004c090                ufilecomptextmodefixed
                0x0004c31c                ufilecomptextmodesub
                0x0004c460                ufreads
                0x0004c740                ufgetsVHeader
                0x0004c9c8                ufgetsVRecord
                0x0004ccc0                ufgetsV
                0x0004cf40                ufile5chkvfmt
                0x0004d0a0                ufile5getVfmtstr
                0x0004d164                ufseek
                0x0004d1a0                uftell
                0x0004d1d0                fileeditname_copypath
                0x0004d7ec                fileeditname_copypath_err
                0x0004d850                filetouch
 .text          0x0004d8d0     0x4f50 ../ulib/libuserxe.a(libuserxe_a-uftp.o)
                0x0004d8d0                uftpfstatroot
                0x0004d978                uftplshome
                0x0004dae0                uftpfstatudl
                0x0004de24                uftpisexist
                0x0004df40                uftpopendir
                0x0004e518                uftpreaddir
                0x0004e67c                uftpattrselect
                0x0004e844                uftpgetslinkattr
                0x0004ec24                uftpdirlistslink
                0x0004f214                uftpsortslink
                0x0004f26c                uftpslinkcomp
                0x0004f2f0                uftpslinklscmd
                0x0004f628                uftplsoutchk
                0x0004f99c                uftpmodtimerchk
                0x0004fe78                uftpmodtimeerr
                0x0004fecc                uftplsoutchkslinkerrskip
                0x0004fff8                uftplsoutchkslink
                0x000500f8                uftpsavehdir
                0x00050240                uftpsrchhdir
                0x000502ec                uftpclosehdir
                0x00050350                uftpmode2attr
                0x000504cc                uftpudl2ffb3
                0x0005067c                uftpgetpathname
                0x00050744                uftpnodesrch
                0x000507f4                uftpnodeadd
                0x000508ac                uftpnodedel
                0x00050908                uftpnodeclear
                0x00050924                uftpgethostqhaddr
                0x00050944                uftphoststbinit
                0x00050c64                uftpgethostsdata
                0x00051cd0                uftgetstringopd
                0x00051f50                uftpipachk
                0x00052170                uftpgetportno
                0x000521fc                uftpisremote
                0x00052388                uftpisrootdir
                0x0005240c                uftphostscrypt
                0x000526e8                uftptempnam
                0x00052744                uftp_mempswd
                0x000527dc                uftp_udirlist_setname
 .text          0x00052820     0x2c2c ../ulib/libuserxe.a(libuserxe_a-uftp2.o)
                0x00052820                uftpinit
                0x00052970                uftpterm
                0x000529b8                uftplog
                0x00052d8c                uftpnodeinit
                0x00052f74                uftpcmd
                0x000536ac                uftpcmdrespchk
                0x000537b8                uftpcmdresphdrchk
                0x000538e0                uftpcmdsrchrespid
                0x00053b40                uftpsimplerespchk
                0x00053c18                uftpnextstdo
                0x00053ce8                uftpsrchfname
                0x00053eb0                uftpsrchfnameslink
                0x00054138                uftpgetdl
                0x00054458                uftpgetdl1
                0x00054b60                uftpgetmode
                0x00054ea8                uftpgetdlftime
                0x0005504c                uftpgetmonth
                0x000550c8                uftpgetwday
                0x00055140                uftpajustjst
                0x0005539c                uftpmktempwd
                0x000553e8                uftpdeltempwd
 .text          0x0005544c     0x5ab0 ../ulib/libuserxe.a(libuserxe_a-uftp3.o)
                0x0005544c                uftp3setssh
                0x0005570c                uftp3editpsftpcmd
                0x0005584c                uftp3cmdrespchk
                0x00055968                uftp3cmdresphdrchk
                0x00055abc                uftp3srchcmdecho
                0x00055c10                uftp3gethomesub
                0x00055d70                uftp3simplerespchk
                0x00055edc                uftp3simplerespchkOK
                0x00056078                uftp3simplerespchkCHNG
                0x00056208                uftp3lchdirrespchk
                0x00056274                uftp3getputrespchk
                0x00056390                uftp3cdrespchk
                0x000564cc                uftp3setsmb
                0x00056588                uftp3smb_setcmd
                0x00056a08                uftp3smb_editcmdline
                0x00056cc0                uftp3smb_nodeinit
                0x00056d6c                uftp3smbcmd
                0x00056df0                uftp3smb_cmd
                0x000572f8                uftp3smb_chkstatuserr
                0x00057540                uftp3smb_srchresp
                0x00057768                uftp3smb_stderrlog
                0x000577e0                uftp3smb_getdltime
                0x00057984                uftp3smb_getdltimestat
                0x00057ad4                uftp3smb_setdltime
                0x00057c04                uftp3smb_getmode
                0x00057e34                uftp3smb_getdirlistctr
                0x00057e7c                uftp3smb_getdl1
                0x000580f0                uftp3smb_fstatudl
                0x00058400                uftp3smb_fstatudl_byls
                0x00058630                uftp3smb_fstatudl_byls_root
                0x000588cc                uftp3smb_lsoutchk
                0x00058a50                uftp3smb_getdlattr
                0x00058b48                uftp3smb_fstatdircallback
                0x00058de8                uftp3smb_fstatdirrchk
                0x00059230                uftp3smb_fstatoutchk
                0x00059734                uftp3smb_putstmt
                0x00059cdc                uftp3smb_respchk_srchnext
                0x0005a014                uftp3smb_respchk
                0x0005a43c                uftp3smb_lchdirrespchk
                0x0005a48c                uftp3smb_strfname
                0x0005a73c                uftp3smb_enclosefnm
                0x0005a87c                uftp3smb_editcmdparm
                0x0005aa1c                uftp3smb_dirnameforlist
                0x0005aaec                uftp3smb_mode2attr_winsub
                0x0005ab7c                uftp3smb_mode2attr_win
                0x0005abcc                uftp3smb_strattr
                0x0005acb4                uftp3smb_setmod_win
 .text          0x0005aefc      0x4b0 ../ulib/libuserxe.a(libuserxe_a-ugcclib.o)
                0x0005aefc                strupr
                0x0005af64                strlwr
                0x0005afcc                memicmp
                0x0005b098                stricmp
                0x0005b128                itoa
                0x0005b1bc                kbhit
                0x0005b1d4                getch_nc
                0x0005b1f4                getche
                0x0005b214                spawnvp
                0x0005b26c                spawnv
 .text          0x0005b3ac     0x1d30 ../ulib/libuserxe.a(libuserxe_a-ukbdl.o)
                0x0005b3ac                ukbdpeek
                0x0005b3d8                ukbdcharin
                0x0005b580                ukbdl_init
                0x0005b66c                ukbdl_term
                0x0005b684                ukbdl_setkbmode
                0x0005b70c                ukbdl_shellmode
                0x0005b818                ukbdl_setgetchmode
                0x0005b8d8                ukbdl_tcgetattr
                0x0005b978                ukbdl_tcsetattr
                0x0005ba1c                ukbdl_getch_init
                0x0005ba70                ukbdl_getche_init
                0x0005bac4                ukbdl_getch_term
                0x0005bb10                ukbdl_getche_term
                0x0005bb5c                ukbdl_kbhit
                0x0005bbac                ukbdl_getch
                0x0005bc4c                ukbdl_getche
                0x0005bcec                ukbdl_gettermid
                0x0005be30                ukbdl_gettermsim
                0x0005c368                ukbdl_editstring
                0x0005c430                ukbdsetstatus
                0x0005c4e8                ukbdl_wcinit
                0x0005c5e8                ukbdl_readutf8
                0x0005cbdc                ukbdl_readdbcs
                0x0005cee4                ukbd_simutf8_f2l
 .text          0x0005d0dc     0x8020 ../ulib/libuserxe.a(libuserxe_a-ukbdlnxc.o)
                0x0005d0dc                ukbdlnxc_gettbl
                0x0005d178                ukbdlnxc_init
                0x0005d328                ukbdlnxc_term
                0x0005d3a4                ukbdlnxc_getnext
                0x0005d42c                ukbdlnxc_read
                0x0005d5e0                ukbdlnxc_readkbd
                0x0005e474                ukbdlnxc_optproc
                0x0005e5f0                ukbdlnxc_setupckt
                0x0005ecb4                ukbdlnxc_setupcktsub
                0x0005ef20                ukbdlnxc_setupcktx
                0x000615dc                cktovferr
                0x00061658                ukbdlnxc_addstrtbl
                0x00061930                ukbdlnxc_dupstrchk
                0x00061c8c                ukbdlnxc_cleanup
                0x00061d14                ukbdlnxc_termexit
                0x00061d48                ukbdlnxc_getplainsym
                0x0006201c                ukbdlnxc_chkothersym
                0x00062088                ukbdlnxc_xbsdel
                0x0006218c                ukbdlnxc_delopt
                0x00062270                ukbdlnxc_setfunckey
                0x00062454                ukbdlnxc_setfuncstr
                0x00062838                ukbdlnxc_setcompose
                0x000628d0                ukbdlnxc_getkeysym
                0x000629b0                ukbdlnxc_setkeysym
                0x00062a90                ukbdlnxc_getstring
                0x00062b60                ukbdlnxc_setstring
                0x00062c58                ukbdlnxc_getdiacr
                0x00062d04                ukbdlnxc_setdiacr
                0x00062db0                ukbdlnxc_setmetamode
                0x00062fbc                ukbdlnxc_getconsole
                0x00063140                ukbdlnxc_getptty
                0x0006327c                ukbdlnxc_open
                0x00063304                ukbdlnxc_chkconsole
                0x0006332c                ukbdlnxc_save1st
                0x000636c8                ukbdlnxc_restorelast
                0x00063c84                ukbdlnxc_lockfwrite
                0x00063d08                ukbdlnxc_lockfread
                0x00063d8c                ukbdlnxc_pidsetlock
                0x00063e78                ukbdlnxc_pidresetlock
                0x00063f18                ukbdlnxc_pidchklock
                0x00063fd0                ukbdlnxc_chngttkey
                0x00064b9c                ukbdlnxc_setrctl
                0x00064cd0                ukbdlnxc_setrctlstr
                0x000650d4                uttyname
 .text          0x000650fc      0x848 ../ulib/libuserxe.a(libuserxe_a-ukbdlnxm.o)
                0x000650fc                ukbdlnxm_mouseopt
                0x0006520c                ukbdlnxm_mouseinit
                0x00065274                ukbdlnxm_mouseterm
                0x000652d4                ukbdlnxm_getmouse
                0x0006572c                clickchk
 .text          0x00065944     0x22e0 ../ulib/libuserxe.a(libuserxe_a-uparse.o)
                0x00065944                uparsein
                0x00065bec                uparseindir
                0x00065d60                uparsev
                0x00065f28                uparse2
                0x00066064                uparse
                0x00066d6c                uparsefname
                0x00066ef8                uparsecmd
                0x00067668                uparsecmdin
                0x000678c0                uparsegetopt
 .text          0x00067c24     0x3754 ../ulib/libuserxe.a(libuserxe_a-uproc.o)
                0x00067c24                usystem2
                0x00067d60                usystem
                0x00067e74                uspawnl
                0x00067fa0                uspawnlp
                0x000680cc                uspawnvp
                0x000681c8                uprocopt
                0x00068294                uspawnrc
                0x000684bc                uprocerrmem
                0x000684f8                uprocerrnotf
                0x00068534                uexecchk
                0x0006893c                uextdirsrch
                0x0006897c                ucmdnmcomp
                0x00068af8                ugetexepath
                0x00068b1c                uproc_getpsinfo
                0x00069074                uproc_srchpsinfo
                0x00069204                uproc_freepsinfo
                0x00069274                usystem_redirect
                0x0006955c                uspawn_redirect
                0x00069934                uproc_redirectoutchk
                0x0006a2b0                uspawnvp_pipe
                0x0006a704                uspawnvp_pipeclose
                0x0006a7d0                usystem_cmdserverinit
                0x0006a874                usystem_cmdserverterm
                0x0006a9b0                usystem_cmdserversetup
                0x0006ae20                usystem_cmdtocmdserver
                0x0006aeac                usystem_cmdserverreq
                0x0006b2b8                usystem_cmdserverreqwithoutbuff
                0x0006b34c                usystem_pidalivechk
 .text          0x0006b378     0x142c ../ulib/libuserxe.a(libuserxe_a-uproc2.o)
                0x0006b378                uprocparseredirect
                0x0006b780                uproc_rsh
                0x0006bea0                uproc_redirectrewrite
                0x0006bfc8                uproc_rshlog
                0x0006c098                ugetpid
                0x0006c0e4                uprocredirectchk
                0x0006c134                uproc_loaddllpath
                0x0006c39c                uproc_loaddll
                0x0006c54c                uproc_getdllproc
                0x0006c638                uproc_freedll
                0x0006c694                uproc_getprocaddr
 .text          0x0006c7a4     0x11dc ../ulib/libuserxe.a(libuserxe_a-uproc4.o)
                0x0006c7a4                uproc_shcmd
                0x0006c8ac                uproc_shserverinit
                0x0006c950                uproc_shserverterm
                0x0006ca28                uproc_shserversetup
                0x0006cee8                uproc_shserverreq
                0x0006d32c                uproc_srchprocessw
                0x0006d3f0                uproc_srchprocess
                0x0006d4d4                uproc_select
                0x0006d898                uproc4_fdset
                0x0006d908                uproc4_fdisset
 .text          0x0006d980      0x9d4 ../ulib/libuserxe.a(libuserxe_a-uque.o)
                0x0006d980                uque
                0x0006d998                uenq
                0x0006dc6c                udeq
                0x0006df48                uqscan
                0x0006e06c                uqfree
                0x0006e0c4                uqufree
                0x0006e11c                uenqchain
                0x0006e234                uenqent
                0x0006e2d4                uqhmove
 .text          0x0006e354      0x274 ../ulib/libuserxe.a(libuserxe_a-ustrcpy.o)
                0x0006e354                ustring_memcpy
                0x0006e410                ustring_strncpy
                0x0006e530                ustring_strcpy
 .text          0x0006e5c8     0x2778 ../ulib/libuserxe.a(libuserxe_a-ustring.o)
                0x0006e5c8                ustring
                0x0006e5e0                ustrnchr
                0x0006e668                ustrnpbrk
                0x0006e744                ustrnspn
                0x0006e840                ustrrspn
                0x0006e8e0                ustrnrspn
                0x0006e990                umemrspn
                0x0006ea48                umemspnc
                0x0006ead4                umemspn_spacetab
                0x0006eb64                umemrspnc
                0x0006ebf4                ustrnstr
                0x0006ecfc                ustrrstr
                0x0006ed8c                ustrnrstr
                0x0006ee78                ustrstri
                0x0006efd0                ustrnstri
                0x0006f0c4                ustrrstri
                0x0006f154                ustrnrstri
                0x0006f240                ustrnrchr
                0x0006f334                umemchr_utf
                0x0006f4d0                ustrchr2
                0x0006f618                ustrnchr2
                0x0006f664                umemchr2
                0x0006f7a4                ustrrchr2
                0x0006f8e4                ustrnrchr2
                0x0006f930                umemrchr2
                0x0006fa44                umemrchr
                0x0006fac4                umempbrk
                0x0006fb90                umemrpbrk
                0x0006fc60                ustrnlen
                0x0006fcb4                umemstr
                0x0006fcf8                umemstri
                0x0006fd3c                umemrstr
                0x0006fd80                umemrstri
                0x0006fdc4                umemmem
                0x0006feb4                umemmemi
                0x000700b4                umemrmem
                0x000701ac                umemrmemi
                0x00070390                ustrncpyz
                0x00070434                uispunct
                0x000704fc                uispunctdbcs
                0x00070708                ustrdup
                0x000707d4                umemtrim
                0x00070a20                umemicmpdbcs
                0x00070b1c                umemstridbcs
                0x00070c3c                umemrstridbcs
 .text          0x00070d40       0x70 ../ulib/libuserxe.a(libuserxe_a-utf.o)
                0x00070d40                utf_init
 .text          0x00070db0     0x5ba0 ../ulib/libuserxe.a(libuserxe_a-utf2.o)
                0x00070db0                umbtowc
                0x00070e6c                utfpos2offs
                0x000710fc                utfctr2offs
                0x00071414                utfstrchkmbr2wc
                0x00071894                utfcvf2u
                0x00071d9c                utfcvl2fmix
                0x00072074                utfcvl2f
                0x00072740                utfcvl2ftab
                0x000728fc                utfsetdbcstbl
                0x00072c00                utfisvalidutf8
                0x00072d04                utfgetstrwidth
                0x00072dcc                utfisvalidutf8char
                0x00072f5c                utfstrvalidate
                0x000730c8                utfgetutf8strlen
                0x00073240                utfsplitchk
                0x00073464                utfcvl2fany
                0x00073cec                utfcvf2l1
                0x00073ed4                utfcvf2l
                0x00074370                utfcvf2lany
                0x0007490c                utfcvl2fany1
                0x00074b70                utfcvl2fany1mb
                0x00074cd4                utfcvl2uany1mb
                0x00074e78                utfcvf2lany1
                0x00075288                utfcvf2lany1mb
                0x0007540c                utfcvu2lany1mb
                0x00075570                utfcvlocaleinit
                0x0007579c                utfcvsetdefaultlocale
                0x0007590c                utfcvsetparmlocale
                0x00075a68                utfgetcharset_std
                0x00075d94                utfgetcharset
                0x00075fb8                utflocalechk
                0x00076038                utfcvlocaleopen
                0x00076150                utfcvlocaleclose
                0x0007617c                utfcvlocaletclose
                0x000761bc                utfcviconvdbcschk_topbyte
                0x000762f8                utfcviconvdbcschk1
                0x00076464                utfcvlocaleinitICU
                0x000764cc                utfcvf2lany1ICU
                0x00076648                utfcvl2fany1ICU
                0x000767ec                utfcvsetdefaultlocaleICU
                0x00076830                utflocalechkICU
                0x00076898                utfgetstrlenHK
 .text          0x00076950     0x7bb0 ../ulib/libuserxe.a(libuserxe_a-utf22.o)
                0x00076950                utfwwapichk
                0x00076bb8                utfddflag2sbcsid
                0x00076c50                utfddgetlenflag
                0x00076f10                utf22_mapwidth0_rounddown
                0x0007704c                utf22_mapwidth0
                0x00077264                utfucsmapinit
                0x00077774                utf22setworkdir
                0x0007790c                utf22versionchk
                0x00077b04                utfucsloadmap
                0x00077cfc                utfucssavemap
                0x00077e90                utfucsmapinit_remap
                0x00078220                utfucsmapmodify
                0x00078398                utfmapucs2dd
                0x00078450                utfmapdd2ucs
                0x000784d4                utfddsetsbcs
                0x0007859c                utfddgetsbcs
                0x00078600                utfgetwcw
                0x00078740                utfcvu2dd1w
                0x00078a0c                utfcvu2dd1
                0x00078b08                utfcvf2dd
                0x00078df4                utfdd2u1
                0x00078e60                utfdd2u1vio
                0x00078f3c                utfdd2u1chsz
                0x00079130                utfdd2u
                0x0007965c                utfucs42utf16
                0x00079828                utfddgetucsctr
                0x000799a4                utfu2dd
                0x00079bb8                utfddcmp
                0x0007a4b4                utfddicmp
                0x0007a5f8                utfcvdd2f
                0x0007ac8c                utfchkdd
                0x0007ad74                utfddisasciistr
                0x0007aee8                utfddissbcsstr
                0x0007afa0                utfddasciilen
                0x0007afe8                utfddpos2offs
                0x0007b220                utfddoffs2pos
                0x0007b554                utfddispunct
                0x0007b74c                utfddmemspnc
                0x0007b850                utfddmemrspnc
                0x0007b970                utfddstrnlen
                0x0007ba58                utfddstrlen
                0x0007bb08                utfddstrnspn
                0x0007bb90                utfddmemspn
                0x0007bcc4                utfddmemrspn
                0x0007bdfc                utfddmemchr
                0x0007bf2c                utfddmemchr_nonascii
                0x0007c020                utfddmemrchr
                0x0007c108                utfddmemrchr_nonascii
                0x0007c1b8                utfddmempbrk
                0x0007c298                utfddmempbrk_nonascii
                0x0007c39c                utfddmemrpbrk
                0x0007c498                utfddmemrpbrk_nonascii
                0x0007c5b8                utfddcmpdbcstab
                0x0007c6c8                utfddmemmem
                0x0007c94c                utfddmemrmem
                0x0007ca38                utfddnumlen
                0x0007ccfc                utfddgetdbcslr
                0x0007ce3c                utfddgetcsrposbca
                0x0007d1d0                utfgetvisiblealtch
                0x0007d594                utfgetvisiblealtchprint
                0x0007d630                utf_setsubchar_dbcs
                0x0007d834                utf_subcharcmp
                0x0007d9b0                utfmemrchrDD
                0x0007da6c                utfmemchrDD
                0x0007db48                isASCIIstr
                0x0007dbb0                isPrintableASCIIstr
                0x0007dc28                isPrintableASCIImem
                0x0007dcb4                utf22_setunpucsvio
                0x0007ddf0                utf22_setdbcsspacealt
                0x0007deac                utfsetvisiblealtch
                0x0007e004                utf22_iswidth0Ovf
                0x0007e0f8                utf22_iswidth0DBCS
                0x0007e1d0                utf_iswidth0
                0x0007e310                utf_iscombinable
                0x0007e44c                utf_iscombining
 .text          0x0007e500     0x178c ../ulib/libuserxe.a(libuserxe_a-utf3.o)
                0x0007e500                utfmb2wc
                0x0007e75c                utfwcwidth
                0x0007e9e8                utfwcwidthNoMap
                0x0007eb88                utfwcwidthsub
                0x0007edc8                utfwcwidthsubNoMap
                0x0007eff4                utfiswide
                0x0007f02c                utfisprint
                0x0007f230                utfgetwc
                0x0007f2cc                utftbinit
                0x0007f844                utftbfhelp
                0x0007f864                utftbterm
                0x0007f8b8                utftbsrch
                0x0007fa34                utftbsrch_jeuc
                0x0007faa0                utftbsrch_cjk
                0x0007fbe8                utf3_wcwidthXXE
 .text          0x0007fc8c      0xad0 ../ulib/libuserxe.a(libuserxe_a-utf4.o)
                0x0007fd90                mk_wcwidth_combining
                0x0007fddc                mk_wcwidth
                0x000800a0                mk_wcwidth_cjk
                0x000801dc                mk_wcswidth_cjk
                0x00080274                mk_wcwidth_adjsbcs
                0x00080474                utf4_isSpacingCombiningMark
                0x00080530                utf4_isAmbiguous
                0x0008063c                utf4_isAmbiguous_XXE
                0x000806bc                utf4_isFormat
                0x00080710                mk_wcwidth_combining2SCM
 .text          0x0008075c     0x1754 ../ulib/libuserxe.a(libuserxe_a-utrace.o)
                0x0008075c                utrace_initmt
                0x000807b8                utrace_init
                0x00080a1c                utracepop
                0x00080b88                utracepopf
                0x00080d3c                utracepnop
                0x00080d5c                utrace_ebc
                0x00080e54                utrace
                0x00081238                utracectime
                0x0008145c                utraceopen_force
                0x0008162c                utraceocmsg_force
                0x00081dd0                utrace_term
 .text          0x00081eb0      0x5b8 ../ulib/libuserxe.a(libuserxe_a-uunxsub.o)
                0x00081eb0                ugetugid
                0x00081f54                ugetusername
                0x00081fec                ugetgroupname
                0x00082084                usrchugname
                0x000820f0                uaddugname
                0x000821e4                unc_setupterm
                0x00082258                unx_fsetlock
                0x0008231c                unx_fresetlock
                0x00082378                unx_fchklock
                0x00082434                ugethostname
 .text          0x00082468     0x3914 ../ulib/libuserxe.a(libuserxe_a-uviol.o)
                0x00082468                uviol_cell2attr
                0x000825a8                uviol_attr2cell
                0x00082684                uviol_repfg
                0x00082704                uviol_altcharset
                0x0008284c                uvio_initparm
                0x000828a4                uviogetmode
                0x00082a38                uviol_init
                0x00082f74                uviol_acssetup
                0x000830c4                uviol_init2
                0x000830f4                uviol_konchk
                0x000831e8                uviol_konchk2
                0x00083258                uviol_colorinit
                0x00083470                uviol_termexit
                0x000834a0                uviol_cleanup
                0x000835b0                uviol_term
                0x00083634                uviol_beep
                0x00083670                uviosetmode
                0x000836a8                uvioreadcellstr
                0x0008383c                uviowrtcellstr
                0x00083a68                uvioreadcharstr
                0x00083b84                uviowrtcharstr
                0x00083c8c                uviowrtcharstratt
                0x00083e88                uviowrtnattr
                0x00084098                uviowrtncell
                0x000841f4                uviowrtnchar
                0x00084354                uviogetcurpos
                0x00084440                uviosetcurpos
                0x0008459c                uviogetcurtype
                0x0008464c                uviosetcurtype
                0x00084780                uviowrttty
                0x000847c0                uviol_rgb2colorno
                0x000849d8                uviol_colorno2rgb
                0x00084b30                uviogetstate
                0x00084de4                uviosetstate
                0x00084fc4                uvioscrolldn
                0x000852f0                uvioscrollup
                0x0008561c                uviol_clear
                0x00085654                uviol_clearok
                0x000856a0                uviol_refresh
                0x000856c8                uviol_mvaddchnstr
                0x00085864                uviol_attrupdate
                0x00085cfc                uviol_set_padattrsub
 .text          0x00085d7c     0x3778 ../ulib/libuserxe.a(libuserxe_a-u3270.o)
                0x00085d7c                u3270init
                0x00085de4                u3270fstat
                0x000863d8                u3270findfile
                0x0008660c                u3270fullpathistso
                0x00086698                u3270getcwd
                0x00086720                u3270chdir
                0x000867bc                u3270fullpath
                0x00086a98                u3270fullpathwildexp
                0x00086fb4                u3270getmembname
                0x00087158                u3270chkmembname
                0x000872a0                u3270getlastname
                0x00087378                u3270getnthname
                0x00087480                u3270concatfilename
                0x00087768                u3270editname
                0x00087b10                u3270parsedsn
                0x00087bac                u3270parentdsn
                0x00087d4c                u3270getsetdsnwild
                0x0008806c                u3270pathlen
                0x000881bc                u3270sethostuser
                0x00088270                u3270cmdrequest
                0x000884e8                u3270editrespmsg
                0x00088600                u3270dirlistsub
                0x000888bc                u3270setdirlist
                0x00088d7c                u3270srchdirlist
                0x00088e48                u3270setdirlistdsn
                0x00089114                u3270setattr
                0x00089230                u3270getattrstr
                0x000894bc                u3270errdsnpath
 .text          0x000894f4     0x152c ../ulib/libuserxe.a(libuserxe_a-u32702.o)
                0x000894f4                u3270mkdir
                0x0008952c                u3270rmdir
                0x0008955c                u3270xddsub
                0x000896dc                u3270xdelete
                0x000898ec                u3270wildxdel
                0x00089924                u3270xdelsub
                0x00089a2c                u3270remove
                0x00089b90                u3270rename
                0x00089de0                u3270renamesub
                0x00089eb4                u3270wildrename
                0x00089f04                u3270spfupdate
                0x0008a0d4                u3270spfsetparm
                0x0008a610                u3270attrib
                0x0008a648                u3270attrxchk
                0x0008a67c                u3270getftime
                0x0008a6b4                u3270setftime
                0x0008a6ec                u3270setftime2
                0x0008a724                u3270copypathinfo
                0x0008a75c                u3270setown
                0x0008a794                u3270setmod
                0x0008a7c8                u3270wildfunc
                0x0008a9d0                u3270errnotsupported
 .text          0x0008aa20     0x3ab0 ../ulib/libuserxe.a(libuserxe_a-u32703.o)
                0x0008aa20                u3270xmove
                0x0008ab90                u3270xcopyr2r
                0x0008ae58                u3270xcopy
                0x0008b020                u3270xcopyget
                0x0008badc                u3270xcopyput
                0x0008c590                u3270filecreateparmproc
                0x0008c834                u3270filecpymvflags
                0x0008cd88                u3270filewildcopyget
                0x0008cfd0                u3270filewildcopyput
                0x0008d310                u3270copysubget
                0x0008d56c                u3270copysubput
                0x0008d9f8                u3270transfer
                0x0008df5c                u3270srcdupchk
                0x0008e1a0                u3270copyspfupdate
                0x0008e444                u3270setftpparm
 .text          0x0008e4d0       0x40 ../ulib/libuserxe.a(libuserxe_a-uabend.o)
                0x0008e4d0                uabend
 .text          0x0008e510      0xe50 ../ulib/libuserxe.a(libuserxe_a-uallocl.o)
                0x0008e510                ualloc_init
                0x0008e764                ugetallocdata
                0x0008e89c                ualloc_chk
                0x0008ea64                umalloc
                0x0008eca8                ucalloc
                0x0008ef18                ufree
                0x0008f148                uallocsz
                0x0008f194                ufreesz
                0x0008f1e4                uallocmapset
                0x0008f2f8                ufreesizeerr
                0x0008f32c                umallocsizeerr
 .text          0x0008f360     0x1ad0 ../ulib/libuserxe.a(libuserxe_a-ucvebc.o)
                0x0008f360                ucvebcinite2uJ
                0x0008f4b4                ucvebc
                0x0008f4cc                ucvebc_gettrte2a
                0x0008f4ec                ucvebc2asc_handle
                0x0008f58c                ucvasc2ebc_handle
                0x0008f62c                ucvebc2asc
                0x0008fa44                ucvebc2asc1sbcsJ
                0x0008fbc4                ucvebc2ucs1sbcsJ
                0x0008fd58                ucvasc2ebc
                0x00090300                ucvebc_defaultremap
                0x000905e0                ucvebcinita2e
                0x0009074c                ucvkandl
                0x0009093c                ucvebcinitkandl
                0x00090a60                ucvebc2_chkprintsbcs
                0x00090d3c                ucvebc_chkeolopt
 .text          0x00090e30     0x1718 ../ulib/libuserxe.a(libuserxe_a-ucvebc2.o)
                0x00090e30                ucvebc2
                0x00090e48                ucvebc2_init
                0x00090eb8                ucvebc2_codecomp
                0x00090f00                ucvebc2_s2e
                0x00090f9c                ucvebc2_e2s
                0x00091034                ucvebc2_chkprint
                0x000912fc                ucvebc2_chkprintnewold
                0x00091574                ucvebc2_chkprintdup
                0x00091720                ucvebc2_e2ssub
                0x00091960                ucvebc2_s2esub
                0x00091a18                ucvebc2_stre2s
                0x00091cc8                ucvebc2_ebc2asc1dbcsJ
                0x00091d64                ucvebc2_strs2e
                0x00092318                ucvebc2_setsi
                0x0009243c                ucvebc2_setso
 .text          0x00092548       0xa8 ../ulib/libuserxe.a(libuserxe_a-ucvebct.o)
                0x00092548                ucvebc2gettbl
 .text          0x000925f0     0x6c18 ../ulib/libuserxe.a(libuserxe_a-ucvext.o)
                0x000925f0                ucvext_cfglineerr
                0x0009262c                ucvext_cfgdupoption
                0x00092668                ucvext_ux2s
                0x00092750                ucvext_cfgmap
                0x000928c8                ucvext_getcfg
                0x000936bc                ucvext_setdefaultlocalcv
                0x00093800                ucvext_getarmso1
                0x00093a60                ucvext_getarmso
                0x00093cec                ucvext_getarmdata1
                0x00093e5c                ucvext_getarmdata
                0x0009400c                chkapiver
                0x000941c8                ucvext_icuinit_env
                0x00094464                setdatadir
                0x00094530                ucvext_mapinit
                0x00094f14                ucvext_setupsubch
                0x000954e8                ucvext_loaddll_icudata
                0x0009577c                ucvext_loaddll
                0x0009582c                ucvext_icuinit
                0x00095f50                ucvext_icuenumcvname
                0x00096320                ucvext_icuuerrname
                0x00096390                ucvext_icugetdefaultconvertername2
                0x000964ac                ucvext_getstdcharset
                0x00096884                ucvext_icugetdefaultconvertername
                0x000969c4                ucvext_icugetconvertertype
                0x00096be8                ucvext_icugetsubchars
                0x00096d6c                ucvext_icusetsubchars
                0x00096e60                ucvext_icugetstarter
                0x00096fec                ucvext_icugetconverter
                0x000975fc                ucvext_getparmconverter
                0x00097880                ucvext_openparmconverter
                0x00097a00                ucvext_getcvoption
                0x00097d6c                set_internal_CP037
                0x00097e54                ucvext_mapinitsetdefault
                0x00098090                ucvext_setlocalconverter
                0x0009818c                ucvext_icusubcharchk
                0x00098540                ucvext_isdbcs1st
                0x000985c4                chk_converter_is_ebcdic
                0x000986b8                ucvext_handle0init
                0x000988fc                ucvext_icuclose
                0x00098964                ucvext_icureset
                0x000989cc                ucvext_icugetmbconverter
                0x00098aac                ucvext_icumbinit12
                0x00098b0c                ucvext_icumbinit
                0x00098dd8                ucvext_setdefaultlocale
                0x00098ec8                chkicuversion
                0x00099154                ucvext_getConverterCfg
 .text          0x00099208     0x49f4 ../ulib/libuserxe.a(libuserxe_a-ucvext12.o)
                0x00099208                ucvext12_init
                0x0009936c                ucvext_icuebc2ucs1
                0x00099628                ucvext_iculocal2ucs1
                0x0009991c                ucvext_icuucs2ebc1
                0x00099c34                ucvext_icuucs2local1
                0x00099f00                ucvext_icuebc2mb1
                0x0009a360                ucvext_icumb2ebc1
                0x0009a820                ucvext_icuebc2mbs_handle
                0x0009a8a0                ucvext_icuebc2mbs
                0x0009aba8                ucvext_icumb2ebcdbcs
                0x0009b168                ucvext_icumb2ebcs_handle
                0x0009b1e8                ucvext_icumb2ebcs
                0x0009b6e8                ucvext_icuebc2mbf
                0x0009bbd0                ucvext_icumb2ebcf
                0x0009c36c                ucvext_icumb2ucs1
                0x0009c578                ucvext_icuucs2mb1
                0x0009c7a0                ucvext_icuutf2mb1
                0x0009c94c                ucvext_icumb2utf1
                0x0009cb48                ucvext_icumb2utf
                0x0009cdf0                ucvext_icuisprint
                0x0009ce90                ucvext_locale1ICU
                0x0009cf74                ucvext_getparmconvertermbICU
                0x0009d3ac                ucvext_icua2ainit
                0x0009d470                ucvext_icua2aterm
                0x0009d4e8                ucvext_icua2as
                0x0009dba8                ucvext_icusubcharchk_handle
 .text          0x0009dbfc     0x1ec0 ../ulib/libuserxe.a(libuserxe_a-ucvext2.o)
                0x0009dbfc                ucvext_iconvmapinit
                0x0009dc48                ucvext_iconvgetstarter
                0x0009ddac                ucvext_iconvgetconvertertype
                0x0009de28                ucvext_iconvgetconverter
                0x0009df6c                ucvext_iconvgetparmconverter
                0x0009e174                ucvext_iconvebc2ucs1
                0x0009e2e4                ucvext_iconvlocal2ucs1
                0x0009e5a4                ucvext_iconvucs2ebc1
                0x0009e718                ucvext_iconvucs2local1
                0x0009e880                ucvext_iconva2as
                0x0009ee94                ucvext_iconvb2bs
                0x0009f040                ucvext_iconva2af
                0x0009f750                ucvext_iconva2ainit
                0x0009f870                ucvext_iconva2acont
 .text          0x0009fabc     0x4f64 ../ulib/libuserxe.a(libuserxe_a-ucvucs.o)
                0x0009fabc                ucp932init
                0x000a0044                ucp932term
                0x000a00ec                ucp932sjis2ucs
                0x000a01bc                ucp932ucs2sjis
                0x000a0340                uccvsjis2ucs
                0x000a0474                uccvucs2sjis
                0x000a04a4                uccvucs2utf
                0x000a06d8                uccvutf2ucs
                0x000a0a7c                uccvucss2utf
                0x000a0b60                uccvutf2ucss
                0x000a0d2c                uccvsjis2ucss
                0x000a0dac                uccvucss2sjis
                0x000a0df0                uccvsjis2utf
                0x000a0ed4                uccvutf2sjis
                0x000a0fa0                ucvsucs2utf
                0x000a1344                ucvsescucs2utf
                0x000a1708                ucvssjis2utf
                0x000a1ad4                ucvsmb2utf
                0x000a1e34                ucvsutf2ucs
                0x000a2198                ucvsutf2sjis
                0x000a2634                ucvsutf2mb
                0x000a2a14                ucvssjis2ucs
                0x000a2d38                ucvsucs2sjis
                0x000a30d8                ucvsescucs2sjis
                0x000a345c                ucvfsjis2ucs
                0x000a367c                ucvfucs2sjis
                0x000a3880                ucvfutf2ucs
                0x000a3b1c                ucvfucs2utf
                0x000a3d88                ucvfsjis2utf
                0x000a3ff4                ucvfutf2sjis
                0x000a4290                ucvbomchk
                0x000a4438                ucvbomset
                0x000a4594                ucvsetucss
                0x000a47c4                ucvgetucss
                0x000a4900                ucverrutf
                0x000a4960                ucverrucs
                0x000a49c0                ucverrsjis
 .text          0x000a4a20       0x38 ../ulib/libuserxe.a(libuserxe_a-ucvucst.o)
                0x000a4a20                ugetcp932tbl
 .text          0x000a4a58     0x3084 ../ulib/libuserxe.a(libuserxe_a-udbcschk.o)
                0x000a4a58                udbcschk_wcinit
                0x000a4df8                udbcschk_getbaseconverter
                0x000a4ea0                udbcschk_setunprintable
                0x000a5038                udbcschk_wclocaleinit
                0x000a51a4                udbcschk_wclocalereset
                0x000a55b8                udbcschk_chklocale
                0x000a5678                udbcschk_getlinuxleadbyte
                0x000a57e0                udbcschk
                0x000a596c                udbcschk_hk
                0x000a5a58                udbcschk_getmblen
                0x000a5d18                udbcschk_mblen
                0x000a5de8                udbcschk_mb2nd
                0x000a5f70                udbcschk_isvalidmbchar
                0x000a6054                udbcschk_locale_topbyte
                0x000a6158                udbcschk_getdbcs1st
                0x000a624c                udbcschk_ismbdbcs1st
                0x000a62ac                udbcschk_locale1
                0x000a6598                udbcschk_mb2ucs1
                0x000a6704                udbcschk_ucs2mb1
                0x000a6830                udbcschk_forceenglish
                0x000a689c                udbcschkcp
                0x000a6a08                ugetcp
                0x000a6aec                udbcsenv
                0x000a6b2c                udosquerydbcsenv
                0x000a6ca0                udbcschk2
                0x000a6d64                udbcschk_pos2offs
                0x000a6f40                usetdbcstbl
                0x000a72a4                usetdbcstblmb
                0x000a7714                udbcschk_setlocale
                0x000a7964                udbcschk_setdbcstype
                0x000a7a7c                udbcschk_icugetlocalconverter
 .text          0x000a7adc     0x2e38 ../ulib/libuserxe.a(libuserxe_a-udbcsck2.o)
                0x000a7adc                ujischkx208
                0x000a7bac                usjischkx208
                0x000a7c8c                usjis2jis
                0x000a7d94                ujis2sjis
                0x000a7e84                ustrjis2sjis
                0x000a839c                ustrsjis2jis
                0x000a88a4                ushift2euc
                0x000a8ddc                ushift2euc1
                0x000a8fb8                ushift2euccount
                0x000a91f8                usjischk
                0x000a94ac                ueuc2shift1SS3
                0x000a94dc                ueuc2shift
                0x000a9c68                ueucchk
                0x000aa0a4                ueuc2shift1
                0x000aa318                ueuc2shift1c
                0x000aa4cc                uhan2zen
                0x000aa790                udbcschktty
                0x000aa814                udbcschk_srchSS2
 .text          0x000aa914      0x3dc ../ulib/libuserxe.a(libuserxe_a-udos2.o)
                0x000aa914                udos2
                0x000aa92c                ugetdriveidlist
                0x000aaa20                ugetdrivelist
                0x000aaac0                ugetdrivetype
                0x000aabe8                udos_setenv
 .text          0x000aacf0     0x2890 ../ulib/libuserxe.a(libuserxe_a-uedit2.o)
                0x000aacf0                uedit2
                0x000aad08                uasciidump
                0x000aaf24                uasciidump_utf
                0x000ab1dc                uucsdump
                0x000ab528                ub2x
                0x000ab658                ueditfattr
                0x000aba30                ueditfattrspf
                0x000abb04                ueditfattr_mdos
                0x000abc84                uxdumpline
                0x000ac684                xdlputs
                0x000ac730                ugetdtparm
                0x000ac82c                ugetdateparm
                0x000ac8a0                ugettimeparm
                0x000ac914                ueditgetftnum
                0x000acbe4                ueditsetfdateUSHORT
                0x000acc78                ueditsetfdate
                0x000acd58                ueditsetftimeUSHORT
                0x000acdec                ueditsetftime
                0x000acee4                uxdumpstr
                0x000ad10c                ueditNowFileTime
                0x000ad23c                ueditescrep
 .text          0x000ad580      0x354 ../ulib/libuserxe.a(libuserxe_a-uehl.o)
                0x000ad580                useteh
                0x000ad64c                uehl_setsh
                0x000ad6a0                ureseteh
                0x000ad768                uehl_resetsh
                0x000ad7a4                usighandler
 .text          0x000ad8d4      0xd74 ../ulib/libuserxe.a(libuserxe_a-uproc22.o)
                0x000ad8d4                ukillpid
                0x000ad970                uthread
                0x000ad9e8                uevent
                0x000adc54                uevent_wait1
                0x000ade20                uevent_post1
                0x000adf24                uevent_waitm
                0x000ae108                uevent_postm
                0x000ae248                uevent_reset1
                0x000ae2dc                uevent_setuplist
                0x000ae470                uevent_resetlist
                0x000ae520                ucriticalsection
 .text          0x000ae648     0x19c4 ../ulib/libuserxe.a(libuserxe_a-uproc3.o)
                0x000ae648                uproc_gvfsinit
                0x000ae6ac                ushellexec
                0x000aeb60                ushellexecsub
                0x000aee34                ulnxlgettermpgmopt
                0x000aefb8                ulnxlgetshellpgm
                0x000af084                ulnxxgettermpgmopt
                0x000af398                uproc3pgmchk
                0x000af43c                usystemlnxterm
                0x000af518                usleepms
                0x000af5bc                uprocconnect
                0x000af878                uprocdisconnect
                0x000af924                uprocpipeio
                0x000afb30                startserver
                0x000afbac                uprocpiperead
                0x000afc40                uprocpiperecevmsg
                0x000afdbc                uprocpipeiodata
 .text          0x000b000c     0x65fc ../ulib/libuserxe.a(libuserxe_a-uviom.o)
                0x000b000c                uviom_init
                0x000b02a4                uviom_setopt2
                0x000b05a0                uviom_notify
                0x000b0668                uvio_wcinit
                0x000b06c8                uviom_savecell
                0x000b0770                uviom_readcell
                0x000b0818                uvio_mvaddchnstrF
                0x000b0ec4                uviom_mvaddwchnstr
                0x000b0f34                uvio_mvaddchnstrW_ligature
                0x000b1288                uvio_mvaddchnstrW_combine
                0x000b1888                uvio_mvaddchnstrW
                0x000b1b4c                uviom_cht2cchar
                0x000b2b48                uviom_setcchar_itself
                0x000b2bd0                uviom_setcchar_shadow
                0x000b2ca8                uviom_setcombine1
                0x000b3108                uviom_setcombine
                0x000b3920                uviom_setcombineSCM
                0x000b3b40                uvio_ddcht2cchar
                0x000b486c                uvio_ddcht2cchar_ligature
                0x000b5600                uvio_getcombinectr
                0x000b5764                uviom_escrep
                0x000b5950                uviom_set_padattr
                0x000b59b4                uviom_fillattrspace
                0x000b5ad0                uviom_setunpucs
                0x000b5ea0                uviom_attr_itself
                0x000b5f44                uviom_ISUCSWIDTH0
                0x000b60c4                uviom_iscombining
                0x000b62ac                uviom_spaceclear
                0x000b6304                uviom_clearscr
                0x000b63a4                uviom_getcombaltchUcs
                0x000b642c                uviom_getcombaltchU8
 .text          0x000b6608     0x54c8 ../ulib/libuserxe.a(libuserxe_a-ucvebc3.o)
                0x000b6608                ucvebc3_getcfgparmconverter
                0x000b680c                ucvebc3_init_xcv
                0x000b684c                ucvebc3_getconvertersubchar
                0x000b68c0                ucvebc3_setletter
                0x000b71f4                ucvebc3_init
                0x000b7468                ucvebc3_cfgerr
                0x000b7490                ucvebc3_b2uSbcs1
                0x000b7778                ucvebc3_b2ddSbcs1
                0x000b7968                ucvebc3_b2ddSbcs
                0x000b7e28                ucvebc3_b2uDbcs1
                0x000b8044                ucvebc3_b2ddDbcs1
                0x000b8264                ucvebc3_b2ddDbcsstr
                0x000b8464                ucvebc3_b2ddDbcs
                0x000b8b90                ucvebc3_b2dd
                0x000b8c84                ucvebc3_u2b1map
                0x000b8dc4                ucvebc3_u2b1
                0x000b9168                ucvebc3_m2b1Sbcs1
                0x000b9324                ucvebc3_m2b1
                0x000b965c                ucvebc3_m2b
                0x000b9b6c                ucvebc3_f2b
                0x000ba204                ucvebc3_dd2b
                0x000ba8d4                ucvebc3_b2mSbcs
                0x000bafa0                ucvebc3_b2mDbcsstr
                0x000bb240                ucvebc3_b2m
                0x000bb718                ucvebc3_setdbcstbl
                0x000bb8b8                ucvebc3_getebc3opt
                0x000bb9a8                ucvebc3_b2f
                0x000bba44                ucvebc3_f2bcmd
 .text          0x000bbad0     0x1c0c ../ulib/libuserxe.a(libuserxe_a-ucvebc4.o)
                0x000bbad0                ucvebc4_init
                0x000bbb5c                ucvebc4_compbyname
                0x000bbbb4                ucvebc4_compbyhandle
                0x000bbc04                ucvebc4_srchcveh
                0x000bbd58                ucvebc4_gethandle
                0x000bbe48                ucvebc4_getpucveh
                0x000bbec8                ucvebc4_getcvname
                0x000bbf2c                ucvebc4_getcvtype
                0x000bc0b0                ucvebc4_createhandle
                0x000bc1ec                ucvebc4_getparmconverter
                0x000bc31c                ucvebc4_chkdbcsconverter
                0x000bc434                ucvebc4_setuphandle
                0x000bc544                ucvebc4_setletter
                0x000bcca0                ucvebc4_b2uSbcs1
                0x000bcdbc                ucvebc4_b2mSbcs
                0x000bd1e8                ucvebc4_setupsubch
 .text          0x000bd6dc      0x240 /usr/lib/gcc/arm-linux-gnueabihf/8/libgcc.a(_divsi3.o)
                0x000bd6dc                __divsi3
                0x000bd6dc                __aeabi_idiv
                0x000bd8fc                __aeabi_idivmod
 .text          0x000bd91c       0xd4 /usr/lib/gcc/arm-linux-gnueabihf/8/libgcc.a(_aeabi_ldivmod.o)
                0x000bd91c                __aeabi_ldivmod
 .text          0x000bd9f0       0x10 /usr/lib/gcc/arm-linux-gnueabihf/8/libgcc.a(_dvmd_lnx.o)
                0x000bd9f0                __aeabi_idiv0
                0x000bd9f0                __aeabi_ldiv0
 .text          0x000bda00      0x128 /usr/lib/gcc/arm-linux-gnueabihf/8/libgcc.a(_udivmoddi4.o)
                0x000bda00                __udivmoddi4
 .text          0x000bdb28       0x64 //usr/lib/arm-linux-gnueabihf/libc_nonshared.a(elf-init.oS)
                0x000bdb28                __libc_csu_init
                0x000bdb88                __libc_csu_fini
 .text          0x000bdb8c       0x10 //usr/lib/arm-linux-gnueabihf/libc_nonshared.a(stat64.oS)
                0x000bdb8c                stat64
 .text          0x000bdb9c       0x10 //usr/lib/arm-linux-gnueabihf/libc_nonshared.a(lstat64.oS)
                0x000bdb9c                lstat64
 .text          0x000bdbac        0x0 /usr/lib/gcc/arm-linux-gnueabihf/8/crtend.o
 .text          0x000bdbac        0x0 /usr/lib/gcc/arm-linux-gnueabihf/8/../../../arm-linux-gnueabihf/crtn.o
 *(.gnu.warning)
 *(.glue_7t)
 .glue_7t       0x000bdbac        0x0 linker stubs
 *(.glue_7)
 .glue_7        0x000bdbac        0x0 linker stubs
 *(.vfp11_veneer)
 .vfp11_veneer  0x000bdbac        0x0 linker stubs
 *(.v4_bx)
 .v4_bx         0x000bdbac        0x0 linker stubs

.fini           0x000bdbac        0x8
 *(SORT_NONE(.fini))
 .fini          0x000bdbac        0x4 /usr/lib/gcc/arm-linux-gnueabihf/8/../../../arm-linux-gnueabihf/crti.o
                0x000bdbac                _fini
 .fini          0x000bdbb0        0x4 /usr/lib/gcc/arm-linux-gnueabihf/8/../../../arm-linux-gnueabihf/crtn.o
                [!provide]                PROVIDE (__etext = .)
                [!provide]                PROVIDE (_etext = .)
                [!provide]                PROVIDE (etext = .)

.rodata         0x000bdbb4     0xc92c
 *(.rodata .rodata.* .gnu.linkonce.r.*)
 .rodata.cst4   0x000bdbb4        0x4 /usr/lib/gcc/arm-linux-gnueabihf/8/../../../arm-linux-gnueabihf/crt1.o
                0x000bdbb4                _IO_stdin_used
 .rodata        0x000bdbb8     0x10bd xbc.o
 *fill*         0x000bec75        0x3 
 .rodata        0x000bec78      0x4ad ../ulib/libuserxe.a(libuserxe_a-ucalc.o)
 *fill*         0x000bf125        0x3 
 .rodata        0x000bf128      0x7c3 ../ulib/libuserxe.a(libuserxe_a-ucalc2.o)
 *fill*         0x000bf8eb        0x1 
 .rodata        0x000bf8ec       0xed ../ulib/libuserxe.a(libuserxe_a-uedit.o)
 *fill*         0x000bf9d9        0x3 
 .rodata        0x000bf9dc      0x30d ../ulib/libuserxe.a(libuserxe_a-uerr.o)
 *fill*         0x000bfce9        0x3 
 .rodata        0x000bfcec      0x8b9 ../ulib/libuserxe.a(libuserxe_a-ufemsg.o)
 *fill*         0x000c05a5        0x3 
 .rodata        0x000c05a8      0x113 ../ulib/libuserxe.a(libuserxe_a-ufile.o)
 *fill*         0x000c06bb        0x1 
 .rodata        0x000c06bc      0x12b ../ulib/libuserxe.a(libuserxe_a-ufile1f.o)
 *fill*         0x000c07e7        0x1 
 .rodata        0x000c07e8      0x6a3 ../ulib/libuserxe.a(libuserxe_a-ufile1l.o)
 *fill*         0x000c0e8b        0x1 
 .rodata        0x000c0e8c      0x10f ../ulib/libuserxe.a(libuserxe_a-ufile1l2.o)
 *fill*         0x000c0f9b        0x1 
 .rodata        0x000c0f9c      0x7e4 ../ulib/libuserxe.a(libuserxe_a-ufile2.o)
 .rodata        0x000c1780      0x357 ../ulib/libuserxe.a(libuserxe_a-ufile2f.o)
 *fill*         0x000c1ad7        0x1 
 .rodata        0x000c1ad8       0xf6 ../ulib/libuserxe.a(libuserxe_a-ufile2l.o)
 *fill*         0x000c1bce        0x2 
 .rodata        0x000c1bd0       0xfc ../ulib/libuserxe.a(libuserxe_a-ufile2l2.o)
 .rodata        0x000c1ccc      0x4da ../ulib/libuserxe.a(libuserxe_a-ufile3.o)
 *fill*         0x000c21a6        0x2 
 .rodata        0x000c21a8      0x476 ../ulib/libuserxe.a(libuserxe_a-ufile3f.o)
 *fill*         0x000c261e        0x2 
 .rodata        0x000c2620      0x234 ../ulib/libuserxe.a(libuserxe_a-ufile4.o)
 .rodata        0x000c2854      0x1a6 ../ulib/libuserxe.a(libuserxe_a-ufile5.o)
 *fill*         0x000c29fa        0x2 
 .rodata        0x000c29fc      0x619 ../ulib/libuserxe.a(libuserxe_a-uftp.o)
 *fill*         0x000c3015        0x3 
 .rodata        0x000c3018      0x45c ../ulib/libuserxe.a(libuserxe_a-uftp2.o)
 .rodata        0x000c3474      0x512 ../ulib/libuserxe.a(libuserxe_a-uftp3.o)
 *fill*         0x000c3986        0x2 
 .rodata        0x000c3988        0xb ../ulib/libuserxe.a(libuserxe_a-ugcclib.o)
 *fill*         0x000c3993        0x1 
 .rodata        0x000c3994       0xef ../ulib/libuserxe.a(libuserxe_a-ukbdl.o)
 *fill*         0x000c3a83        0x1 
 .rodata        0x000c3a84      0xf2a ../ulib/libuserxe.a(libuserxe_a-ukbdlnxc.o)
 *fill*         0x000c49ae        0x2 
 .rodata        0x000c49b0       0x2d ../ulib/libuserxe.a(libuserxe_a-uparse.o)
 *fill*         0x000c49dd        0x3 
 .rodata        0x000c49e0      0x4fd ../ulib/libuserxe.a(libuserxe_a-uproc.o)
 *fill*         0x000c4edd        0x3 
 .rodata        0x000c4ee0      0x168 ../ulib/libuserxe.a(libuserxe_a-uproc2.o)
 .rodata        0x000c5048      0x341 ../ulib/libuserxe.a(libuserxe_a-uproc4.o)
 *fill*         0x000c5389        0x3 
 .rodata        0x000c538c      0x384 ../ulib/libuserxe.a(libuserxe_a-uque.o)
 .rodata        0x000c5710       0x7e ../ulib/libuserxe.a(libuserxe_a-ustrcpy.o)
 *fill*         0x000c578e        0x2 
 .rodata        0x000c5790        0x4 ../ulib/libuserxe.a(libuserxe_a-ustring.o)
 .rodata        0x000c5794      0x1cc ../ulib/libuserxe.a(libuserxe_a-utf2.o)
 .rodata        0x000c5960      0x325 ../ulib/libuserxe.a(libuserxe_a-utf22.o)
 *fill*         0x000c5c85        0x3 
 .rodata        0x000c5c88      0x133 ../ulib/libuserxe.a(libuserxe_a-utf3.o)
 *fill*         0x000c5dbb        0x1 
 .rodata        0x000c5dbc     0x19d0 ../ulib/libuserxe.a(libuserxe_a-utf4.o)
 .rodata        0x000c778c      0x161 ../ulib/libuserxe.a(libuserxe_a-utrace.o)
 *fill*         0x000c78ed        0x3 
 .rodata        0x000c78f0       0x98 ../ulib/libuserxe.a(libuserxe_a-uunxsub.o)
 .rodata        0x000c7988       0x7a ../ulib/libuserxe.a(libuserxe_a-uviol.o)
 *fill*         0x000c7a02        0x2 
 .rodata        0x000c7a04      0x161 ../ulib/libuserxe.a(libuserxe_a-u3270.o)
 *fill*         0x000c7b65        0x3 
 .rodata        0x000c7b68      0x1ad ../ulib/libuserxe.a(libuserxe_a-u32702.o)
 *fill*         0x000c7d15        0x3 
 .rodata        0x000c7d18      0x395 ../ulib/libuserxe.a(libuserxe_a-u32703.o)
 *fill*         0x000c80ad        0x3 
 .rodata        0x000c80b0       0x30 ../ulib/libuserxe.a(libuserxe_a-uabend.o)
 .rodata        0x000c80e0      0x571 ../ulib/libuserxe.a(libuserxe_a-uallocl.o)
 *fill*         0x000c8651        0x3 
 .rodata        0x000c8654      0x88e ../ulib/libuserxe.a(libuserxe_a-ucvebc.o)
 *fill*         0x000c8ee2        0x2 
 .rodata        0x000c8ee4      0x221 ../ulib/libuserxe.a(libuserxe_a-ucvebc2.o)
 *fill*         0x000c9105        0x3 
 .rodata        0x000c9108      0x8e8 ../ulib/libuserxe.a(libuserxe_a-ucvext.o)
 .rodata        0x000c99f0       0xca ../ulib/libuserxe.a(libuserxe_a-ucvext12.o)
 *fill*         0x000c9aba        0x2 
 .rodata        0x000c9abc      0x172 ../ulib/libuserxe.a(libuserxe_a-ucvext2.o)
 *fill*         0x000c9c2e        0x2 
 .rodata        0x000c9c30       0xa2 ../ulib/libuserxe.a(libuserxe_a-ucvucs.o)
 *fill*         0x000c9cd2        0x2 
 .rodata        0x000c9cd4      0x10c ../ulib/libuserxe.a(libuserxe_a-udbcschk.o)
 .rodata        0x000c9de0        0xc ../ulib/libuserxe.a(libuserxe_a-udbcsck2.o)
 .rodata        0x000c9dec       0x47 ../ulib/libuserxe.a(libuserxe_a-udos2.o)
 *fill*         0x000c9e33        0x1 
 .rodata        0x000c9e34       0xbd ../ulib/libuserxe.a(libuserxe_a-uedit2.o)
 *fill*         0x000c9ef1        0x3 
 .rodata        0x000c9ef4       0x33 ../ulib/libuserxe.a(libuserxe_a-uehl.o)
 *fill*         0x000c9f27        0x1 
 .rodata        0x000c9f28       0x66 ../ulib/libuserxe.a(libuserxe_a-uproc22.o)
 *fill*         0x000c9f8e        0x2 
 .rodata        0x000c9f90      0x410 ../ulib/libuserxe.a(libuserxe_a-uproc3.o)
 .rodata        0x000ca3a0        0x2 ../ulib/libuserxe.a(libuserxe_a-uviom.o)
 *fill*         0x000ca3a2        0x2 
 .rodata        0x000ca3a4       0x8f ../ulib/libuserxe.a(libuserxe_a-ucvebc3.o)
 *fill*         0x000ca433        0x1 
 .rodata        0x000ca434       0xac ../ulib/libuserxe.a(libuserxe_a-ucvebc4.o)

.rodata1
 *(.rodata1)

.ARM.extab      0x000ca4e0        0x0
 *(.ARM.extab* .gnu.linkonce.armextab.*)
 .ARM.extab     0x000ca4e0        0x0 /usr/lib/gcc/arm-linux-gnueabihf/8/../../../arm-linux-gnueabihf/crt1.o
 .ARM.extab     0x000ca4e0        0x0 /usr/lib/gcc/arm-linux-gnueabihf/8/libgcc.a(_udivmoddi4.o)
                [!provide]                PROVIDE (__exidx_start = .)

.ARM.exidx      0x000ca4e0        0x8
 *(.ARM.exidx* .gnu.linkonce.armexidx.*)
 .ARM.exidx     0x000ca4e0        0x8 /usr/lib/gcc/arm-linux-gnueabihf/8/../../../arm-linux-gnueabihf/crt1.o
 .ARM.exidx     0x000ca4e8        0x0 /usr/lib/gcc/arm-linux-gnueabihf/8/libgcc.a(_udivmoddi4.o)
                                  0x8 (size before relaxing)
                [!provide]                PROVIDE (__exidx_end = .)

.eh_frame_hdr
 *(.eh_frame_hdr)
 *(.eh_frame_entry .eh_frame_entry.*)

.eh_frame       0x000ca4e8        0x4
 *(.eh_frame)
 .eh_frame      0x000ca4e8        0x4 /usr/lib/gcc/arm-linux-gnueabihf/8/crtend.o
 *(.eh_frame.*)

.gcc_except_table
 *(.gcc_except_table .gcc_except_table.*)

.gnu_extab
 *(.gnu_extab*)

.exception_ranges
 *(.exception_ranges .exception_ranges*)
                0x000dae08                . = DATA_SEGMENT_ALIGN (CONSTANT (MAXPAGESIZE), CONSTANT (COMMONPAGESIZE))

.eh_frame
 *(.eh_frame)
 *(.eh_frame.*)

.gnu_extab
 *(.gnu_extab)

.gcc_except_table
 *(.gcc_except_table .gcc_except_table.*)

.exception_ranges
 *(.exception_ranges .exception_ranges*)

.tdata          0x000dae08        0x0
                [!provide]                PROVIDE (__tdata_start = .)
 *(.tdata .tdata.* .gnu.linkonce.td.*)

.tbss
 *(.tbss .tbss.* .gnu.linkonce.tb.*)
 *(.tcommon)

.preinit_array  0x000dae08        0x0
                [!provide]                PROVIDE (__preinit_array_start = .)
 *(.preinit_array)
                [!provide]                PROVIDE (__preinit_array_end = .)

.init_array     0x000dae08        0x4
                0x000dae08                PROVIDE (__init_array_start = .)
 *(SORT_BY_INIT_PRIORITY(.init_array.*) SORT_BY_INIT_PRIORITY(.ctors.*))
 *(.init_array EXCLUDE_FILE(*crtend?.o *crtend.o *crtbegin?.o *crtbegin.o) .ctors)
 .init_array    0x000dae08        0x4 /usr/lib/gcc/arm-linux-gnueabihf/8/crtbegin.o
                0x000dae0c                PROVIDE (__init_array_end = .)

.fini_array     0x000dae0c        0x4
                [!provide]                PROVIDE (__fini_array_start = .)
 *(SORT_BY_INIT_PRIORITY(.fini_array.*) SORT_BY_INIT_PRIORITY(.dtors.*))
 *(.fini_array EXCLUDE_FILE(*crtend?.o *crtend.o *crtbegin?.o *crtbegin.o) .dtors)
 .fini_array    0x000dae0c        0x4 /usr/lib/gcc/arm-linux-gnueabihf/8/crtbegin.o
                [!provide]                PROVIDE (__fini_array_end = .)

.ctors
 *crtbegin.o(.ctors)
 *crtbegin?.o(.ctors)
 *(EXCLUDE_FILE(*crtend?.o *crtend.o) .ctors)
 *(SORT_BY_NAME(.ctors.*))
 *(.ctors)

.dtors
 *crtbegin.o(.dtors)
 *crtbegin?.o(.dtors)
 *(EXCLUDE_FILE(*crtend?.o *crtend.o) .dtors)
 *(SORT_BY_NAME(.dtors.*))
 *(.dtors)

.jcr
 *(.jcr)

.data.rel.ro    0x000dae10        0x0
 *(.data.rel.ro.local* .gnu.linkonce.d.rel.ro.local.*)
 *(.data.rel.ro .data.rel.ro.* .gnu.linkonce.d.rel.ro.*)
 .data.rel.ro   0x000dae10        0x0 /usr/lib/gcc/arm-linux-gnueabihf/8/../../../arm-linux-gnueabihf/crt1.o

.dynamic        0x000dae10      0x1f0
 *(.dynamic)
 .dynamic       0x000dae10      0x1f0 /usr/lib/gcc/arm-linux-gnueabihf/8/../../../arm-linux-gnueabihf/crt1.o
                0x000dae10                _DYNAMIC
                0x000db000                . = DATA_SEGMENT_RELRO_END (., 0x0)

.got            0x000db000      0x2e0
 *(.got.plt)
 .got.plt       0x000db000      0x2dc /usr/lib/gcc/arm-linux-gnueabihf/8/../../../arm-linux-gnueabihf/crt1.o
                0x000db000                _GLOBAL_OFFSET_TABLE_
 *(.igot.plt)
 .igot.plt      0x000db2dc        0x0 /usr/lib/gcc/arm-linux-gnueabihf/8/../../../arm-linux-gnueabihf/crt1.o
 *(.got)
 .got           0x000db2dc        0x4 /usr/lib/gcc/arm-linux-gnueabihf/8/../../../arm-linux-gnueabihf/crt1.o
 *(.igot)

.data           0x000db2e0    0x27640
                [!provide]                PROVIDE (__data_start = .)
 *(.data .data.* .gnu.linkonce.d.*)
 .data          0x000db2e0        0x4 /usr/lib/gcc/arm-linux-gnueabihf/8/../../../arm-linux-gnueabihf/crt1.o
                0x000db2e0                __data_start
                0x000db2e0                data_start
 .data          0x000db2e4        0x0 /usr/lib/gcc/arm-linux-gnueabihf/8/../../../arm-linux-gnueabihf/crti.o
 .data          0x000db2e4        0x4 /usr/lib/gcc/arm-linux-gnueabihf/8/crtbegin.o
                0x000db2e4                __dso_handle
 .data          0x000db2e8        0x4 xbc.o
 .data          0x000db2ec       0x54 ../ulib/libuserxe.a(libuserxe_a-ucalc.o)
 .data          0x000db340      0x24c ../ulib/libuserxe.a(libuserxe_a-ucalc2.o)
 .data          0x000db58c        0x0 ../ulib/libuserxe.a(libuserxe_a-uedit.o)
 .data          0x000db58c        0xd ../ulib/libuserxe.a(libuserxe_a-uerr.o)
 .data          0x000db599        0x0 ../ulib/libuserxe.a(libuserxe_a-ufemsg.o)
 *fill*         0x000db599        0x3 
 .data          0x000db59c        0xc ../ulib/libuserxe.a(libuserxe_a-ufile.o)
 .data          0x000db5a8        0x0 ../ulib/libuserxe.a(libuserxe_a-ufile1f.o)
 .data          0x000db5a8        0x0 ../ulib/libuserxe.a(libuserxe_a-ufile1l.o)
 .data          0x000db5a8       0x2c ../ulib/libuserxe.a(libuserxe_a-ufile1l2.o)
 .data          0x000db5d4        0x0 ../ulib/libuserxe.a(libuserxe_a-ufile2.o)
 .data          0x000db5d4        0x0 ../ulib/libuserxe.a(libuserxe_a-ufile2f.o)
 .data          0x000db5d4        0x0 ../ulib/libuserxe.a(libuserxe_a-ufile2l.o)
 .data          0x000db5d4        0x0 ../ulib/libuserxe.a(libuserxe_a-ufile2l2.o)
 .data          0x000db5d4        0x0 ../ulib/libuserxe.a(libuserxe_a-ufile3.o)
 .data          0x000db5d4        0x0 ../ulib/libuserxe.a(libuserxe_a-ufile3f.o)
 .data          0x000db5d4        0x0 ../ulib/libuserxe.a(libuserxe_a-ufile4.o)
 .data          0x000db5d4        0x0 ../ulib/libuserxe.a(libuserxe_a-ufile5.o)
 .data          0x000db5d4       0x10 ../ulib/libuserxe.a(libuserxe_a-uftp.o)
 .data          0x000db5e4       0x50 ../ulib/libuserxe.a(libuserxe_a-uftp2.o)
 .data          0x000db634        0x4 ../ulib/libuserxe.a(libuserxe_a-uftp3.o)
 .data          0x000db638        0x0 ../ulib/libuserxe.a(libuserxe_a-ugcclib.o)
 .data          0x000db638        0x0 ../ulib/libuserxe.a(libuserxe_a-ukbdl.o)
 .data          0x000db638     0xb6bc ../ulib/libuserxe.a(libuserxe_a-ukbdlnxc.o)
 .data          0x000e6cf4       0x10 ../ulib/libuserxe.a(libuserxe_a-ukbdlnxm.o)
 .data          0x000e6d04        0x0 ../ulib/libuserxe.a(libuserxe_a-uparse.o)
 .data          0x000e6d04       0x20 ../ulib/libuserxe.a(libuserxe_a-uproc.o)
 .data          0x000e6d24        0x0 ../ulib/libuserxe.a(libuserxe_a-uproc2.o)
 .data          0x000e6d24        0x0 ../ulib/libuserxe.a(libuserxe_a-uproc4.o)
 .data          0x000e6d24        0x0 ../ulib/libuserxe.a(libuserxe_a-uque.o)
 .data          0x000e6d24        0x0 ../ulib/libuserxe.a(libuserxe_a-ustrcpy.o)
 .data          0x000e6d24       0xfb ../ulib/libuserxe.a(libuserxe_a-ustring.o)
 .data          0x000e6e1f        0x0 ../ulib/libuserxe.a(libuserxe_a-utf.o)
 .data          0x000e6e1f        0x0 ../ulib/libuserxe.a(libuserxe_a-utf2.o)
 *fill*         0x000e6e1f        0x1 
 .data          0x000e6e20      0x164 ../ulib/libuserxe.a(libuserxe_a-utf22.o)
 .data          0x000e6f84      0xe98 ../ulib/libuserxe.a(libuserxe_a-utf3.o)
 .data          0x000e7e1c        0x0 ../ulib/libuserxe.a(libuserxe_a-utf4.o)
 .data          0x000e7e1c     0x1928 ../ulib/libuserxe.a(libuserxe_a-utrace.o)
 .data          0x000e9744        0x0 ../ulib/libuserxe.a(libuserxe_a-uunxsub.o)
 .data          0x000e9744        0xc ../ulib/libuserxe.a(libuserxe_a-uviol.o)
 .data          0x000e9750        0x4 ../ulib/libuserxe.a(libuserxe_a-u3270.o)
 .data          0x000e9754        0x0 ../ulib/libuserxe.a(libuserxe_a-u32702.o)
 .data          0x000e9754        0x0 ../ulib/libuserxe.a(libuserxe_a-u32703.o)
 .data          0x000e9754        0x0 ../ulib/libuserxe.a(libuserxe_a-uabend.o)
 .data          0x000e9754     0x1000 ../ulib/libuserxe.a(libuserxe_a-uallocl.o)
 .data          0x000ea754      0x248 ../ulib/libuserxe.a(libuserxe_a-ucvebc.o)
 .data          0x000ea99c        0x0 ../ulib/libuserxe.a(libuserxe_a-ucvebc2.o)
 .data          0x000ea99c     0xed30 ../ulib/libuserxe.a(libuserxe_a-ucvebct.o)
 .data          0x000f96cc      0x316 ../ulib/libuserxe.a(libuserxe_a-ucvext.o)
 .data          0x000f99e2        0x6 ../ulib/libuserxe.a(libuserxe_a-ucvext12.o)
 .data          0x000f99e8        0x0 ../ulib/libuserxe.a(libuserxe_a-ucvext2.o)
 .data          0x000f99e8       0x28 ../ulib/libuserxe.a(libuserxe_a-ucvucs.o)
 .data          0x000f9a10     0x7cb0 ../ulib/libuserxe.a(libuserxe_a-ucvucst.o)
                0x000f9a10                Scp932tb
 .data          0x001016c0        0x8 ../ulib/libuserxe.a(libuserxe_a-udbcschk.o)
                0x001016c0                Gpdbcstbl
 .data          0x001016c8     0x1148 ../ulib/libuserxe.a(libuserxe_a-udbcsck2.o)
 .data          0x00102810        0x0 ../ulib/libuserxe.a(libuserxe_a-udos2.o)
 .data          0x00102810       0x78 ../ulib/libuserxe.a(libuserxe_a-uedit2.o)
 .data          0x00102888       0x38 ../ulib/libuserxe.a(libuserxe_a-uehl.o)
 .data          0x001028c0        0x0 ../ulib/libuserxe.a(libuserxe_a-uproc22.o)
 .data          0x001028c0       0x54 ../ulib/libuserxe.a(libuserxe_a-uproc3.o)
 .data          0x00102914        0x4 ../ulib/libuserxe.a(libuserxe_a-uviom.o)
                0x00102914                Guviomdbcspad
 .data          0x00102918        0x8 ../ulib/libuserxe.a(libuserxe_a-ucvebc3.o)
 .data          0x00102920        0x0 ../ulib/libuserxe.a(libuserxe_a-ucvebc4.o)
 .data          0x00102920        0x0 /usr/lib/gcc/arm-linux-gnueabihf/8/libgcc.a(_divsi3.o)
 .data          0x00102920        0x0 /usr/lib/gcc/arm-linux-gnueabihf/8/libgcc.a(_aeabi_ldivmod.o)
 .data          0x00102920        0x0 /usr/lib/gcc/arm-linux-gnueabihf/8/libgcc.a(_dvmd_lnx.o)
 .data          0x00102920        0x0 /usr/lib/gcc/arm-linux-gnueabihf/8/libgcc.a(_udivmoddi4.o)
 .data          0x00102920        0x0 //usr/lib/arm-linux-gnueabihf/libc_nonshared.a(elf-init.oS)
 .data          0x00102920        0x0 //usr/lib/arm-linux-gnueabihf/libc_nonshared.a(stat64.oS)
 .data          0x00102920        0x0 //usr/lib/arm-linux-gnueabihf/libc_nonshared.a(lstat64.oS)
 .data          0x00102920        0x0 /usr/lib/gcc/arm-linux-gnueabihf/8/crtend.o
 .data          0x00102920        0x0 /usr/lib/gcc/arm-linux-gnueabihf/8/../../../arm-linux-gnueabihf/crtn.o

.tm_clone_table
                0x00102920        0x0
 .tm_clone_table
                0x00102920        0x0 /usr/lib/gcc/arm-linux-gnueabihf/8/crtbegin.o
 .tm_clone_table
                0x00102920        0x0 /usr/lib/gcc/arm-linux-gnueabihf/8/crtend.o

.data1
 *(.data1)
                0x00102920                _edata = .
                [!provide]                PROVIDE (edata = .)
                0x00102920                . = .
                0x00102920                __bss_start = .
                0x00102920                __bss_start__ = .

.bss            0x00102920   0x1449b0
 *(.dynbss)
 .dynbss        0x00102920      0x230 /usr/lib/gcc/arm-linux-gnueabihf/8/../../../arm-linux-gnueabihf/crt1.o
                0x00102920                COLORS@@NCURSESW6_5.1.20000708
                0x00102924                LINES@@NCURSES6_TINFO_5.0.19991023
                0x00102928                acs_map@@NCURSES6_TINFO_5.0.19991023
                0x00102b28                stdscr@@NCURSES6_TINFO_5.0.19991023
                0x00102b2c                cur_term@@NCURSES6_TINFO_5.0.19991023
                0x00102b30                COLS@@NCURSES6_TINFO_5.0.19991023
                0x00102b34                stdout@@GLIBC_2.4
                0x00102b38                COLOR_PAIRS@@NCURSESW6_5.1.20000708
                0x00102b40                stdin@@GLIBC_2.4
                0x00102b48                stderr@@GLIBC_2.4
                0x00102b4c                newscr@@NCURSES6_TINFO_5.0.19991023
 *(.bss .bss.* .gnu.linkonce.b.*)
 .bss           0x00102b50        0x0 /usr/lib/gcc/arm-linux-gnueabihf/8/../../../arm-linux-gnueabihf/crt1.o
 .bss           0x00102b50        0x0 /usr/lib/gcc/arm-linux-gnueabihf/8/../../../arm-linux-gnueabihf/crti.o
 .bss           0x00102b50        0x1 /usr/lib/gcc/arm-linux-gnueabihf/8/crtbegin.o
 .bss           0x00102b51        0x0 xbc.o
 *fill*         0x00102b51        0x3 
 .bss           0x00102b54      0x114 ../ulib/libuserxe.a(libuserxe_a-ucalc.o)
 .bss           0x00102c68        0x0 ../ulib/libuserxe.a(libuserxe_a-ucalc2.o)
 .bss           0x00102c68       0xd8 ../ulib/libuserxe.a(libuserxe_a-uedit.o)
 .bss           0x00102d40     0x40e4 ../ulib/libuserxe.a(libuserxe_a-uerr.o)
 .bss           0x00106e24       0x20 ../ulib/libuserxe.a(libuserxe_a-ufemsg.o)
 .bss           0x00106e44       0x18 ../ulib/libuserxe.a(libuserxe_a-ufile.o)
 .bss           0x00106e5c        0x4 ../ulib/libuserxe.a(libuserxe_a-ufile1f.o)
 .bss           0x00106e60    0x64658 ../ulib/libuserxe.a(libuserxe_a-ufile1l.o)
 .bss           0x0016b4b8        0x4 ../ulib/libuserxe.a(libuserxe_a-ufile1l2.o)
 *fill*         0x0016b4bc        0x4 
 .bss           0x0016b4c0       0x34 ../ulib/libuserxe.a(libuserxe_a-ufile2.o)
 .bss           0x0016b4f4       0x20 ../ulib/libuserxe.a(libuserxe_a-ufile2f.o)
 .bss           0x0016b514        0x4 ../ulib/libuserxe.a(libuserxe_a-ufile2l.o)
 .bss           0x0016b518        0x0 ../ulib/libuserxe.a(libuserxe_a-ufile2l2.o)
 .bss           0x0016b518        0x8 ../ulib/libuserxe.a(libuserxe_a-ufile3.o)
 .bss           0x0016b520     0x100d ../ulib/libuserxe.a(libuserxe_a-ufile3f.o)
 *fill*         0x0016c52d        0x3 
 .bss           0x0016c530     0x1034 ../ulib/libuserxe.a(libuserxe_a-ufile4.o)
 *fill*         0x0016d564        0x4 
 .bss           0x0016d568       0x5d ../ulib/libuserxe.a(libuserxe_a-ufile5.o)
 *fill*         0x0016d5c5        0x3 
 .bss           0x0016d5c8    0x64d00 ../ulib/libuserxe.a(libuserxe_a-uftp.o)
 .bss           0x001d22c8        0x8 ../ulib/libuserxe.a(libuserxe_a-uftp2.o)
 .bss           0x001d22d0        0x0 ../ulib/libuserxe.a(libuserxe_a-uftp3.o)
 .bss           0x001d22d0        0x4 ../ulib/libuserxe.a(libuserxe_a-ugcclib.o)
 .bss           0x001d22d4       0xf4 ../ulib/libuserxe.a(libuserxe_a-ukbdl.o)
                0x001d22d4                Swcstat
 .bss           0x001d23c8     0x5808 ../ulib/libuserxe.a(libuserxe_a-ukbdlnxc.o)
 .bss           0x001d7bd0        0x8 ../ulib/libuserxe.a(libuserxe_a-ukbdlnxm.o)
 .bss           0x001d7bd8      0x205 ../ulib/libuserxe.a(libuserxe_a-uparse.o)
 *fill*         0x001d7ddd        0x3 
 .bss           0x001d7de0       0x1c ../ulib/libuserxe.a(libuserxe_a-uproc.o)
                0x001d7de0                Sserverstat
                0x001d7de4                Scmdservercallback
                0x001d7de8                Scallbackparm
                0x001d7dec                Scmdserverchildpid
 .bss           0x001d7dfc        0x4 ../ulib/libuserxe.a(libuserxe_a-uproc2.o)
 .bss           0x001d7e00       0x1c ../ulib/libuserxe.a(libuserxe_a-uproc4.o)
 .bss           0x001d7e1c        0x0 ../ulib/libuserxe.a(libuserxe_a-uque.o)
 .bss           0x001d7e1c        0x0 ../ulib/libuserxe.a(libuserxe_a-ustrcpy.o)
 .bss           0x001d7e1c        0x0 ../ulib/libuserxe.a(libuserxe_a-ustring.o)
 .bss           0x001d7e1c        0x0 ../ulib/libuserxe.a(libuserxe_a-utf.o)
 .bss           0x001d7e1c       0x98 ../ulib/libuserxe.a(libuserxe_a-utf2.o)
 .bss           0x001d7eb4       0x14 ../ulib/libuserxe.a(libuserxe_a-utf22.o)
 .bss           0x001d7ec8        0x8 ../ulib/libuserxe.a(libuserxe_a-utf3.o)
 .bss           0x001d7ed0        0x4 ../ulib/libuserxe.a(libuserxe_a-utf4.o)
 .bss           0x001d7ed4     0x1170 ../ulib/libuserxe.a(libuserxe_a-utrace.o)
 .bss           0x001d9044       0x20 ../ulib/libuserxe.a(libuserxe_a-uunxsub.o)
 .bss           0x001d9064      0x508 ../ulib/libuserxe.a(libuserxe_a-uviol.o)
 .bss           0x001d956c        0xc ../ulib/libuserxe.a(libuserxe_a-u3270.o)
 .bss           0x001d9578       0x10 ../ulib/libuserxe.a(libuserxe_a-u32702.o)
 .bss           0x001d9588     0x1208 ../ulib/libuserxe.a(libuserxe_a-u32703.o)
 .bss           0x001da790        0x0 ../ulib/libuserxe.a(libuserxe_a-uabend.o)
 .bss           0x001da790       0x84 ../ulib/libuserxe.a(libuserxe_a-uallocl.o)
 .bss           0x001da814      0x790 ../ulib/libuserxe.a(libuserxe_a-ucvebc.o)
 .bss           0x001dafa4       0x10 ../ulib/libuserxe.a(libuserxe_a-ucvebc2.o)
 .bss           0x001dafb4        0x0 ../ulib/libuserxe.a(libuserxe_a-ucvebct.o)
 .bss           0x001dafb4     0x1cd4 ../ulib/libuserxe.a(libuserxe_a-ucvext.o)
 .bss           0x001dcc88       0x24 ../ulib/libuserxe.a(libuserxe_a-ucvext12.o)
 .bss           0x001dccac        0xc ../ulib/libuserxe.a(libuserxe_a-ucvext2.o)
 .bss           0x001dccb8        0xc ../ulib/libuserxe.a(libuserxe_a-ucvucs.o)
 .bss           0x001dccc4        0x0 ../ulib/libuserxe.a(libuserxe_a-ucvucst.o)
 .bss           0x001dccc4      0x2f9 ../ulib/libuserxe.a(libuserxe_a-udbcschk.o)
 .bss           0x001dcfbd        0x0 ../ulib/libuserxe.a(libuserxe_a-udbcsck2.o)
 .bss           0x001dcfbd        0x0 ../ulib/libuserxe.a(libuserxe_a-udos2.o)
 *fill*         0x001dcfbd        0x3 
 .bss           0x001dcfc0      0x268 ../ulib/libuserxe.a(libuserxe_a-uedit2.o)
 .bss           0x001dd228       0x64 ../ulib/libuserxe.a(libuserxe_a-uehl.o)
 .bss           0x001dd28c       0x18 ../ulib/libuserxe.a(libuserxe_a-uproc22.o)
 .bss           0x001dd2a4       0x10 ../ulib/libuserxe.a(libuserxe_a-uproc3.o)
 .bss           0x001dd2b4       0x58 ../ulib/libuserxe.a(libuserxe_a-uviom.o)
 .bss           0x001dd30c       0x34 ../ulib/libuserxe.a(libuserxe_a-ucvebc3.o)
 .bss           0x001dd340        0x4 ../ulib/libuserxe.a(libuserxe_a-ucvebc4.o)
 .bss           0x001dd344        0x0 /usr/lib/gcc/arm-linux-gnueabihf/8/libgcc.a(_divsi3.o)
 .bss           0x001dd344        0x0 /usr/lib/gcc/arm-linux-gnueabihf/8/libgcc.a(_aeabi_ldivmod.o)
 .bss           0x001dd344        0x0 /usr/lib/gcc/arm-linux-gnueabihf/8/libgcc.a(_dvmd_lnx.o)
 .bss           0x001dd344        0x0 /usr/lib/gcc/arm-linux-gnueabihf/8/libgcc.a(_udivmoddi4.o)
 .bss           0x001dd344        0x0 //usr/lib/arm-linux-gnueabihf/libc_nonshared.a(elf-init.oS)
 .bss           0x001dd344        0x0 //usr/lib/arm-linux-gnueabihf/libc_nonshared.a(stat64.oS)
 .bss           0x001dd344        0x0 //usr/lib/arm-linux-gnueabihf/libc_nonshared.a(lstat64.oS)
 .bss           0x001dd344        0x0 /usr/lib/gcc/arm-linux-gnueabihf/8/crtend.o
 .bss           0x001dd344        0x0 /usr/lib/gcc/arm-linux-gnueabihf/8/../../../arm-linux-gnueabihf/crtn.o
 *(COMMON)
 COMMON         0x001dd344      0x140 ../ulib/libuserxe.a(libuserxe_a-ucalc.o)
                0x001dd344                Gucalc_result
 COMMON         0x001dd484        0x5 ../ulib/libuserxe.a(libuserxe_a-uerr.o)
                0x001dd484                Guerropt2
                0x001dd488                Guerropt
 *fill*         0x001dd489        0x3 
 COMMON         0x001dd48c        0x8 ../ulib/libuserxe.a(libuserxe_a-ufile.o)
                0x001dd48c                Gufile_opt
                0x001dd490                Gufile_nomsg
 COMMON         0x001dd494       0x88 ../ulib/libuserxe.a(libuserxe_a-uftp2.o)
                0x001dd494                Gftperr
                0x001dd498                Gftpopt
                0x001dd49c                Gftpclient
 COMMON         0x001dd51c        0x8 ../ulib/libuserxe.a(libuserxe_a-ukbdl.o)
                0x001dd51c                Sphiconv
                0x001dd520                Gukbdl_flag
 COMMON         0x001dd524        0x8 ../ulib/libuserxe.a(libuserxe_a-uproc.o)
                0x001dd524                Sfdpiper
                0x001dd528                Sfdpipew
 COMMON         0x001dd52c        0xc ../ulib/libuserxe.a(libuserxe_a-utf.o)
                0x001dd52c                Gulibutfmode
                0x001dd530                Gutfrc
                0x001dd534                Gutfcombaltch
 COMMON         0x001dd538    0x60000 ../ulib/libuserxe.a(libuserxe_a-utf22.o)
                0x001dd538                Gucs2ddmap_i2u
                0x001fd538                Gucs2ddmap
 COMMON         0x0023d538      0x104 ../ulib/libuserxe.a(libuserxe_a-utrace.o)
                0x0023d538                Gtracehdr
                0x0023d638                Slockhandle
 COMMON         0x0023d63c        0x4 ../ulib/libuserxe.a(libuserxe_a-uviol.o)
                0x0023d63c                Guviol_flag
 COMMON         0x0023d640        0x8 ../ulib/libuserxe.a(libuserxe_a-uallocl.o)
                0x0023d640                Gualloc_amount
                0x0023d644                Gualloc16_amount
 COMMON         0x0023d648     0x9c48 ../ulib/libuserxe.a(libuserxe_a-ucvebc.o)
                0x0023d648                Gucvebchctr
                0x0023d64c                Gucvebch
                0x0024728c                Gucvebc_stat
 COMMON         0x00247290       0x10 ../ulib/libuserxe.a(libuserxe_a-ucvebc2.o)
                0x00247290                Snewoldctr
                0x00247294                Se2stctr
                0x00247298                Sduptctr
                0x0024729c                Ss2etctr
 COMMON         0x002472a0        0xc ../ulib/libuserxe.a(libuserxe_a-udbcschk.o)
                0x002472a0                Gudbcschk_flag
                0x002472a4                Gudbcschk_width0top
                0x002472a8                Sdbcschk_hkopt
 COMMON         0x002472ac       0x24 ../ulib/libuserxe.a(libuserxe_a-uviom.o)
                0x002472ac                Guviombuffu
                0x002472b0                Guviomopt
                0x002472b4                Guviomoptstr
                0x002472b8                Guviomopt2
                0x002472bc                Gw95buffopt
                0x002472c0                Guviomoptstrucs
                0x002472d0                . = ALIGN ((. != 0x0)?0x4:0x1)
                0x002472d0                _bss_end__ = .
                0x002472d0                __bss_end__ = .
                0x002472d0                . = ALIGN (0x4)
                0x002472d0                . = SEGMENT_START ("ldata-segment", .)
                0x002472d0                . = ALIGN (0x4)
                0x002472d0                __end__ = .
                0x002472d0                _end = .
                [!provide]                PROVIDE (end = .)
                0x002472d0                . = DATA_SEGMENT_END (.)

.stab
 *(.stab)

.stabstr
 *(.stabstr)

.stab.excl
 *(.stab.excl)

.stab.exclstr
 *(.stab.exclstr)

.stab.index
 *(.stab.index)

.stab.indexstr
 *(.stab.indexstr)

.comment        0x00000000       0x23
 *(.comment)
 .comment       0x00000000       0x23 /usr/lib/gcc/arm-linux-gnueabihf/8/crtbegin.o
                                 0x24 (size before relaxing)
 .comment       0x00000023       0x24 xbc.o
 .comment       0x00000023       0x24 ../ulib/libuserxe.a(libuserxe_a-ucalc.o)
 .comment       0x00000023       0x24 ../ulib/libuserxe.a(libuserxe_a-ucalc2.o)
 .comment       0x00000023       0x24 ../ulib/libuserxe.a(libuserxe_a-uedit.o)
 .comment       0x00000023       0x24 ../ulib/libuserxe.a(libuserxe_a-uerr.o)
 .comment       0x00000023       0x24 ../ulib/libuserxe.a(libuserxe_a-ufemsg.o)
 .comment       0x00000023       0x24 ../ulib/libuserxe.a(libuserxe_a-ufile.o)
 .comment       0x00000023       0x24 ../ulib/libuserxe.a(libuserxe_a-ufile1f.o)
 .comment       0x00000023       0x24 ../ulib/libuserxe.a(libuserxe_a-ufile1l.o)
 .comment       0x00000023       0x24 ../ulib/libuserxe.a(libuserxe_a-ufile1l2.o)
 .comment       0x00000023       0x24 ../ulib/libuserxe.a(libuserxe_a-ufile2.o)
 .comment       0x00000023       0x24 ../ulib/libuserxe.a(libuserxe_a-ufile2f.o)
 .comment       0x00000023       0x24 ../ulib/libuserxe.a(libuserxe_a-ufile2l.o)
 .comment       0x00000023       0x24 ../ulib/libuserxe.a(libuserxe_a-ufile2l2.o)
 .comment       0x00000023       0x24 ../ulib/libuserxe.a(libuserxe_a-ufile3.o)
 .comment       0x00000023       0x24 ../ulib/libuserxe.a(libuserxe_a-ufile3f.o)
 .comment       0x00000023       0x24 ../ulib/libuserxe.a(libuserxe_a-ufile4.o)
 .comment       0x00000023       0x24 ../ulib/libuserxe.a(libuserxe_a-ufile5.o)
 .comment       0x00000023       0x24 ../ulib/libuserxe.a(libuserxe_a-uftp.o)
 .comment       0x00000023       0x24 ../ulib/libuserxe.a(libuserxe_a-uftp2.o)
 .comment       0x00000023       0x24 ../ulib/libuserxe.a(libuserxe_a-uftp3.o)
 .comment       0x00000023       0x24 ../ulib/libuserxe.a(libuserxe_a-ugcclib.o)
 .comment       0x00000023       0x24 ../ulib/libuserxe.a(libuserxe_a-ukbdl.o)
 .comment       0x00000023       0x24 ../ulib/libuserxe.a(libuserxe_a-ukbdlnxc.o)
 .comment       0x00000023       0x24 ../ulib/libuserxe.a(libuserxe_a-ukbdlnxm.o)
 .comment       0x00000023       0x24 ../ulib/libuserxe.a(libuserxe_a-uparse.o)
 .comment       0x00000023       0x24 ../ulib/libuserxe.a(libuserxe_a-uproc.o)
 .comment       0x00000023       0x24 ../ulib/libuserxe.a(libuserxe_a-uproc2.o)
 .comment       0x00000023       0x24 ../ulib/libuserxe.a(libuserxe_a-uproc4.o)
 .comment       0x00000023       0x24 ../ulib/libuserxe.a(libuserxe_a-uque.o)
 .comment       0x00000023       0x24 ../ulib/libuserxe.a(libuserxe_a-ustrcpy.o)
 .comment       0x00000023       0x24 ../ulib/libuserxe.a(libuserxe_a-ustring.o)
 .comment       0x00000023       0x24 ../ulib/libuserxe.a(libuserxe_a-utf.o)
 .comment       0x00000023       0x24 ../ulib/libuserxe.a(libuserxe_a-utf2.o)
 .comment       0x00000023       0x24 ../ulib/libuserxe.a(libuserxe_a-utf22.o)
 .comment       0x00000023       0x24 ../ulib/libuserxe.a(libuserxe_a-utf3.o)
 .comment       0x00000023       0x24 ../ulib/libuserxe.a(libuserxe_a-utf4.o)
 .comment       0x00000023       0x24 ../ulib/libuserxe.a(libuserxe_a-utrace.o)
 .comment       0x00000023       0x24 ../ulib/libuserxe.a(libuserxe_a-uunxsub.o)
 .comment       0x00000023       0x24 ../ulib/libuserxe.a(libuserxe_a-uviol.o)
 .comment       0x00000023       0x24 ../ulib/libuserxe.a(libuserxe_a-u3270.o)
 .comment       0x00000023       0x24 ../ulib/libuserxe.a(libuserxe_a-u32702.o)
 .comment       0x00000023       0x24 ../ulib/libuserxe.a(libuserxe_a-u32703.o)
 .comment       0x00000023       0x24 ../ulib/libuserxe.a(libuserxe_a-uabend.o)
 .comment       0x00000023       0x24 ../ulib/libuserxe.a(libuserxe_a-uallocl.o)
 .comment       0x00000023       0x24 ../ulib/libuserxe.a(libuserxe_a-ucvebc.o)
 .comment       0x00000023       0x24 ../ulib/libuserxe.a(libuserxe_a-ucvebc2.o)
 .comment       0x00000023       0x24 ../ulib/libuserxe.a(libuserxe_a-ucvebct.o)
 .comment       0x00000023       0x24 ../ulib/libuserxe.a(libuserxe_a-ucvext.o)
 .comment       0x00000023       0x24 ../ulib/libuserxe.a(libuserxe_a-ucvext12.o)
 .comment       0x00000023       0x24 ../ulib/libuserxe.a(libuserxe_a-ucvext2.o)
 .comment       0x00000023       0x24 ../ulib/libuserxe.a(libuserxe_a-ucvucs.o)
 .comment       0x00000023       0x24 ../ulib/libuserxe.a(libuserxe_a-ucvucst.o)
 .comment       0x00000023       0x24 ../ulib/libuserxe.a(libuserxe_a-udbcschk.o)
 .comment       0x00000023       0x24 ../ulib/libuserxe.a(libuserxe_a-udbcsck2.o)
 .comment       0x00000023       0x24 ../ulib/libuserxe.a(libuserxe_a-udos2.o)
 .comment       0x00000023       0x24 ../ulib/libuserxe.a(libuserxe_a-uedit2.o)
 .comment       0x00000023       0x24 ../ulib/libuserxe.a(libuserxe_a-uehl.o)
 .comment       0x00000023       0x24 ../ulib/libuserxe.a(libuserxe_a-uproc22.o)
 .comment       0x00000023       0x24 ../ulib/libuserxe.a(libuserxe_a-uproc3.o)
 .comment       0x00000023       0x24 ../ulib/libuserxe.a(libuserxe_a-uviom.o)
 .comment       0x00000023       0x24 ../ulib/libuserxe.a(libuserxe_a-ucvebc3.o)
 .comment       0x00000023       0x24 ../ulib/libuserxe.a(libuserxe_a-ucvebc4.o)
 .comment       0x00000023       0x24 /usr/lib/gcc/arm-linux-gnueabihf/8/crtend.o

.ARM.attributes
                0x00000000       0x2f
 .ARM.attributes
                0x00000000       0x2f /usr/lib/gcc/arm-linux-gnueabihf/8/../../../arm-linux-gnueabihf/crt1.o
 .ARM.attributes
                0x0000002f       0x23 /usr/lib/gcc/arm-linux-gnueabihf/8/../../../arm-linux-gnueabihf/crti.o
 .ARM.attributes
                0x00000052       0x2f /usr/lib/gcc/arm-linux-gnueabihf/8/crtbegin.o
 .ARM.attributes
                0x00000081       0x2f xbc.o
 .ARM.attributes
                0x000000b0       0x2f ../ulib/libuserxe.a(libuserxe_a-ucalc.o)
 .ARM.attributes
                0x000000df       0x2f ../ulib/libuserxe.a(libuserxe_a-ucalc2.o)
 .ARM.attributes
                0x0000010e       0x2f ../ulib/libuserxe.a(libuserxe_a-uedit.o)
 .ARM.attributes
                0x0000013d       0x2f ../ulib/libuserxe.a(libuserxe_a-uerr.o)
 .ARM.attributes
                0x0000016c       0x2f ../ulib/libuserxe.a(libuserxe_a-ufemsg.o)
 .ARM.attributes
                0x0000019b       0x2f ../ulib/libuserxe.a(libuserxe_a-ufile.o)
 .ARM.attributes
                0x000001ca       0x2f ../ulib/libuserxe.a(libuserxe_a-ufile1f.o)
 .ARM.attributes
                0x000001f9       0x2f ../ulib/libuserxe.a(libuserxe_a-ufile1l.o)
 .ARM.attributes
                0x00000228       0x2f ../ulib/libuserxe.a(libuserxe_a-ufile1l2.o)
 .ARM.attributes
                0x00000257       0x2f ../ulib/libuserxe.a(libuserxe_a-ufile2.o)
 .ARM.attributes
                0x00000286       0x2f ../ulib/libuserxe.a(libuserxe_a-ufile2f.o)
 .ARM.attributes
                0x000002b5       0x2f ../ulib/libuserxe.a(libuserxe_a-ufile2l.o)
 .ARM.attributes
                0x000002e4       0x2f ../ulib/libuserxe.a(libuserxe_a-ufile2l2.o)
 .ARM.attributes
                0x00000313       0x2f ../ulib/libuserxe.a(libuserxe_a-ufile3.o)
 .ARM.attributes
                0x00000342       0x2f ../ulib/libuserxe.a(libuserxe_a-ufile3f.o)
 .ARM.attributes
                0x00000371       0x2f ../ulib/libuserxe.a(libuserxe_a-ufile4.o)
 .ARM.attributes
                0x000003a0       0x2f ../ulib/libuserxe.a(libuserxe_a-ufile5.o)
 .ARM.attributes
                0x000003cf       0x2f ../ulib/libuserxe.a(libuserxe_a-uftp.o)
 .ARM.attributes
                0x000003fe       0x2f ../ulib/libuserxe.a(libuserxe_a-uftp2.o)
 .ARM.attributes
                0x0000042d       0x2f ../ulib/libuserxe.a(libuserxe_a-uftp3.o)
 .ARM.attributes
                0x0000045c       0x2f ../ulib/libuserxe.a(libuserxe_a-ugcclib.o)
 .ARM.attributes
                0x0000048b       0x2f ../ulib/libuserxe.a(libuserxe_a-ukbdl.o)
 .ARM.attributes
                0x000004ba       0x2f ../ulib/libuserxe.a(libuserxe_a-ukbdlnxc.o)
 .ARM.attributes
                0x000004e9       0x2f ../ulib/libuserxe.a(libuserxe_a-ukbdlnxm.o)
 .ARM.attributes
                0x00000518       0x2f ../ulib/libuserxe.a(libuserxe_a-uparse.o)
 .ARM.attributes
                0x00000547       0x2f ../ulib/libuserxe.a(libuserxe_a-uproc.o)
 .ARM.attributes
                0x00000576       0x2f ../ulib/libuserxe.a(libuserxe_a-uproc2.o)
 .ARM.attributes
                0x000005a5       0x2f ../ulib/libuserxe.a(libuserxe_a-uproc4.o)
 .ARM.attributes
                0x000005d4       0x2f ../ulib/libuserxe.a(libuserxe_a-uque.o)
 .ARM.attributes
                0x00000603       0x2f ../ulib/libuserxe.a(libuserxe_a-ustrcpy.o)
 .ARM.attributes
                0x00000632       0x2f ../ulib/libuserxe.a(libuserxe_a-ustring.o)
 .ARM.attributes
                0x00000661       0x2f ../ulib/libuserxe.a(libuserxe_a-utf.o)
 .ARM.attributes
                0x00000690       0x2f ../ulib/libuserxe.a(libuserxe_a-utf2.o)
 .ARM.attributes
                0x000006bf       0x2f ../ulib/libuserxe.a(libuserxe_a-utf22.o)
 .ARM.attributes
                0x000006ee       0x2f ../ulib/libuserxe.a(libuserxe_a-utf3.o)
 .ARM.attributes
                0x0000071d       0x2f ../ulib/libuserxe.a(libuserxe_a-utf4.o)
 .ARM.attributes
                0x0000074c       0x2f ../ulib/libuserxe.a(libuserxe_a-utrace.o)
 .ARM.attributes
                0x0000077b       0x2f ../ulib/libuserxe.a(libuserxe_a-uunxsub.o)
 .ARM.attributes
                0x000007aa       0x2f ../ulib/libuserxe.a(libuserxe_a-uviol.o)
 .ARM.attributes
                0x000007d9       0x2f ../ulib/libuserxe.a(libuserxe_a-u3270.o)
 .ARM.attributes
                0x00000808       0x2f ../ulib/libuserxe.a(libuserxe_a-u32702.o)
 .ARM.attributes
                0x00000837       0x2f ../ulib/libuserxe.a(libuserxe_a-u32703.o)
 .ARM.attributes
                0x00000866       0x2f ../ulib/libuserxe.a(libuserxe_a-uabend.o)
 .ARM.attributes
                0x00000895       0x2f ../ulib/libuserxe.a(libuserxe_a-uallocl.o)
 .ARM.attributes
                0x000008c4       0x2f ../ulib/libuserxe.a(libuserxe_a-ucvebc.o)
 .ARM.attributes
                0x000008f3       0x2f ../ulib/libuserxe.a(libuserxe_a-ucvebc2.o)
 .ARM.attributes
                0x00000922       0x2f ../ulib/libuserxe.a(libuserxe_a-ucvebct.o)
 .ARM.attributes
                0x00000951       0x2f ../ulib/libuserxe.a(libuserxe_a-ucvext.o)
 .ARM.attributes
                0x00000980       0x2f ../ulib/libuserxe.a(libuserxe_a-ucvext12.o)
 .ARM.attributes
                0x000009af       0x2f ../ulib/libuserxe.a(libuserxe_a-ucvext2.o)
 .ARM.attributes
                0x000009de       0x2f ../ulib/libuserxe.a(libuserxe_a-ucvucs.o)
 .ARM.attributes
                0x00000a0d       0x2f ../ulib/libuserxe.a(libuserxe_a-ucvucst.o)
 .ARM.attributes
                0x00000a3c       0x2f ../ulib/libuserxe.a(libuserxe_a-udbcschk.o)
 .ARM.attributes
                0x00000a6b       0x2f ../ulib/libuserxe.a(libuserxe_a-udbcsck2.o)
 .ARM.attributes
                0x00000a9a       0x2f ../ulib/libuserxe.a(libuserxe_a-udos2.o)
 .ARM.attributes
                0x00000ac9       0x2f ../ulib/libuserxe.a(libuserxe_a-uedit2.o)
 .ARM.attributes
                0x00000af8       0x2f ../ulib/libuserxe.a(libuserxe_a-uehl.o)
 .ARM.attributes
                0x00000b27       0x2f ../ulib/libuserxe.a(libuserxe_a-uproc22.o)
 .ARM.attributes
                0x00000b56       0x2f ../ulib/libuserxe.a(libuserxe_a-uproc3.o)
 .ARM.attributes
                0x00000b85       0x2f ../ulib/libuserxe.a(libuserxe_a-uviom.o)
 .ARM.attributes
                0x00000bb4       0x2f ../ulib/libuserxe.a(libuserxe_a-ucvebc3.o)
 .ARM.attributes
                0x00000be3       0x2f ../ulib/libuserxe.a(libuserxe_a-ucvebc4.o)
 .ARM.attributes
                0x00000c12       0x1d /usr/lib/gcc/arm-linux-gnueabihf/8/libgcc.a(_divsi3.o)
 .ARM.attributes
                0x00000c2f       0x1d /usr/lib/gcc/arm-linux-gnueabihf/8/libgcc.a(_aeabi_ldivmod.o)
 .ARM.attributes
                0x00000c4c       0x1d /usr/lib/gcc/arm-linux-gnueabihf/8/libgcc.a(_dvmd_lnx.o)
 .ARM.attributes
                0x00000c69       0x2f /usr/lib/gcc/arm-linux-gnueabihf/8/libgcc.a(_udivmoddi4.o)
 .ARM.attributes
                0x00000c98       0x31 //usr/lib/arm-linux-gnueabihf/libc_nonshared.a(elf-init.oS)
 .ARM.attributes
                0x00000cc9       0x31 //usr/lib/arm-linux-gnueabihf/libc_nonshared.a(stat64.oS)
 .ARM.attributes
                0x00000cfa       0x31 //usr/lib/arm-linux-gnueabihf/libc_nonshared.a(lstat64.oS)
 .ARM.attributes
                0x00000d2b       0x2f /usr/lib/gcc/arm-linux-gnueabihf/8/crtend.o
 .ARM.attributes
                0x00000d5a       0x23 /usr/lib/gcc/arm-linux-gnueabihf/8/../../../arm-linux-gnueabihf/crtn.o

.debug
 *(.debug)

.line
 *(.line)

.debug_srcinfo
 *(.debug_srcinfo)

.debug_sfnames
 *(.debug_sfnames)

.debug_aranges
 *(.debug_aranges)

.debug_pubnames
 *(.debug_pubnames)

.debug_info
 *(.debug_info .gnu.linkonce.wi.*)

.debug_abbrev
 *(.debug_abbrev)

.debug_line
 *(.debug_line .debug_line.* .debug_line_end)

.debug_frame
 *(.debug_frame)

.debug_str
 *(.debug_str)

.debug_loc
 *(.debug_loc)

.debug_macinfo
 *(.debug_macinfo)

.debug_weaknames
 *(.debug_weaknames)

.debug_funcnames
 *(.debug_funcnames)

.debug_typenames
 *(.debug_typenames)

.debug_varnames
 *(.debug_varnames)

.debug_pubtypes
 *(.debug_pubtypes)

.debug_ranges
 *(.debug_ranges)

.debug_macro
 *(.debug_macro)

.debug_addr
 *(.debug_addr)

.gnu.attributes
 *(.gnu.attributes)

.note.gnu.arm.ident
 *(.note.gnu.arm.ident)

/DISCARD/
 *(.note.GNU-stack)
 *(.gnu_debuglink)
 *(.gnu.lto_*)
OUTPUT(xbc elf32-littlearm)
