Archive member included to satisfy reference by file (symbol)

../ulib/libuserxe.a(libuserxe_a-uallocl.o)
                              xcv-xcv.o (umalloc)
../ulib/libuserxe.a(libuserxe_a-ucvebc.o)
                              xcv-xcv.o (Gucvebc_stat)
../ulib/libuserxe.a(libuserxe_a-ucvebc2.o)
                              xcv-xcv.o (ucvebc2_chkprint)
../ulib/libuserxe.a(libuserxe_a-ucvebc3.o)
                              xcv-xcv.o (ucvebc3_init)
../ulib/libuserxe.a(libuserxe_a-ucvebc4.o)
                              xcv-xcv.o (ucvebc4_createhandle)
../ulib/libuserxe.a(libuserxe_a-ucvebct.o)
                              ../ulib/libuserxe.a(libuserxe_a-ucvebc2.o) (ucvebc2gettbl)
../ulib/libuserxe.a(libuserxe_a-ucvext.o)
                              xcv-xcv.o (ucvext_mapinit)
../ulib/libuserxe.a(libuserxe_a-ucvext12.o)
                              ../ulib/libuserxe.a(libuserxe_a-ucvext.o) (ucvext12_init)
../ulib/libuserxe.a(libuserxe_a-ucvext2.o)
                              ../ulib/libuserxe.a(libuserxe_a-ucvext.o) (ucvext_iconvmapinit)
../ulib/libuserxe.a(libuserxe_a-ucvucs.o)
                              ../ulib/libuserxe.a(libuserxe_a-ucvebc3.o) (uccvsjis2ucs)
../ulib/libuserxe.a(libuserxe_a-ucvucst.o)
                              ../ulib/libuserxe.a(libuserxe_a-ucvucs.o) (ugetcp932tbl)
../ulib/libuserxe.a(libuserxe_a-udbcschk.o)
                              ../ulib/libuserxe.a(libuserxe_a-ucvebc.o) (Gudbcschk_flag)
../ulib/libuserxe.a(libuserxe_a-udbcsck2.o)
                              xcv-xcv.o (ustrjis2sjis)
../ulib/libuserxe.a(libuserxe_a-udos2.o)
                              ../ulib/libuserxe.a(libuserxe_a-ucvext.o) (udos_setenv)
../ulib/libuserxe.a(libuserxe_a-uedit.o)
                              xcv-xcv.o (ugethex)
../ulib/libuserxe.a(libuserxe_a-uedit2.o)
                              xcv-xcv.o (ub2x)
../ulib/libuserxe.a(libuserxe_a-uerr.o)
                              xcv-xcv.o (Guerropt)
../ulib/libuserxe.a(libuserxe_a-ufemsg.o)
                              xcv-xcv.o (ufileapierr)
../ulib/libuserxe.a(libuserxe_a-ufile.o)
                              ../ulib/libuserxe.a(libuserxe_a-udos2.o) (Gufile_opt)
../ulib/libuserxe.a(libuserxe_a-ufile1f.o)
                              ../ulib/libuserxe.a(libuserxe_a-ufile.o) (uftpdirlistsub)
../ulib/libuserxe.a(libuserxe_a-ufile1l.o)
                              ../ulib/libuserxe.a(libuserxe_a-ucvext.o) (ufstat)
../ulib/libuserxe.a(libuserxe_a-ufile1l2.o)
                              ../ulib/libuserxe.a(libuserxe_a-ufile1l.o) (ufstat_mdos)
../ulib/libuserxe.a(libuserxe_a-ufile2.o)
                              ../ulib/libuserxe.a(libuserxe_a-uerr.o) (uremove)
../ulib/libuserxe.a(libuserxe_a-ufile2f.o)
                              ../ulib/libuserxe.a(libuserxe_a-ufile2.o) (uftpremove)
../ulib/libuserxe.a(libuserxe_a-ufile2l.o)
                              ../ulib/libuserxe.a(libuserxe_a-ufile2.o) (urmdir)
../ulib/libuserxe.a(libuserxe_a-ufile2l2.o)
                              ../ulib/libuserxe.a(libuserxe_a-ufile2l.o) (umkdir_mdos)
../ulib/libuserxe.a(libuserxe_a-ufile3.o)
                              ../ulib/libuserxe.a(libuserxe_a-ufile2l2.o) (udoscopy)
../ulib/libuserxe.a(libuserxe_a-ufile3f.o)
                              ../ulib/libuserxe.a(libuserxe_a-ufile3.o) (uftpxmove)
../ulib/libuserxe.a(libuserxe_a-ufile4.o)
                              ../ulib/libuserxe.a(libuserxe_a-ufile2l2.o) (utempnam)
../ulib/libuserxe.a(libuserxe_a-ufile5.o)
                              xcv-xcv.o (ufgetsinit)
../ulib/libuserxe.a(libuserxe_a-uftp.o)
                              ../ulib/libuserxe.a(libuserxe_a-ufile1f.o) (uftpfstatudl)
../ulib/libuserxe.a(libuserxe_a-uftp2.o)
                              ../ulib/libuserxe.a(libuserxe_a-uftp.o) (Gftpopt)
../ulib/libuserxe.a(libuserxe_a-uftp3.o)
                              ../ulib/libuserxe.a(libuserxe_a-uftp.o) (uftp3setssh)
../ulib/libuserxe.a(libuserxe_a-ugcclib.o)
                              xcv-xcv.o (memicmp)
../ulib/libuserxe.a(libuserxe_a-ukbdl.o)
                              ../ulib/libuserxe.a(libuserxe_a-ugcclib.o) (ukbdl_getch_init)
../ulib/libuserxe.a(libuserxe_a-ukbdlnxc.o)
                              ../ulib/libuserxe.a(libuserxe_a-ukbdl.o) (ukbdlnxc_init)
../ulib/libuserxe.a(libuserxe_a-ukbdlnxm.o)
                              ../ulib/libuserxe.a(libuserxe_a-ukbdlnxc.o) (ukbdlnxm_mouseinit)
../ulib/libuserxe.a(libuserxe_a-uparse.o)
                              ../ulib/libuserxe.a(libuserxe_a-uftp.o) (uparsev)
../ulib/libuserxe.a(libuserxe_a-uproc.o)
                              ../ulib/libuserxe.a(libuserxe_a-ukbdl.o) (uproc_getpsinfo)
../ulib/libuserxe.a(libuserxe_a-uproc2.o)
                              ../ulib/libuserxe.a(libuserxe_a-ufile2f.o) (uproc_rsh)
../ulib/libuserxe.a(libuserxe_a-uproc4.o)
                              ../ulib/libuserxe.a(libuserxe_a-ukbdlnxc.o) (uproc_select)
../ulib/libuserxe.a(libuserxe_a-uque.o)
                              ../ulib/libuserxe.a(libuserxe_a-uftp.o) (uenq)
../ulib/libuserxe.a(libuserxe_a-ustrcpy.o)
                              xcv-xcv.o (ustring_memcpy)
../ulib/libuserxe.a(libuserxe_a-ustring.o)
                              ../ulib/libuserxe.a(libuserxe_a-ufile.o) (ustrnlen)
../ulib/libuserxe.a(libuserxe_a-utf.o)
                              xcv-xcv.o (Gulibutfmode)
../ulib/libuserxe.a(libuserxe_a-utf2.o)
                              ../ulib/libuserxe.a(libuserxe_a-ufile1l.o) (utfcvl2fany)
../ulib/libuserxe.a(libuserxe_a-utf22.o)
                              ../ulib/libuserxe.a(libuserxe_a-udbcschk.o) (utfucsmapinit)
../ulib/libuserxe.a(libuserxe_a-utf3.o)
                              ../ulib/libuserxe.a(libuserxe_a-utf2.o) (utfmb2wc)
../ulib/libuserxe.a(libuserxe_a-utf4.o)
                              ../ulib/libuserxe.a(libuserxe_a-utf3.o) (mk_wcwidth)
../ulib/libuserxe.a(libuserxe_a-utrace.o)
                              ../ulib/libuserxe.a(libuserxe_a-uftp2.o) (Gtracehdr)
../ulib/libuserxe.a(libuserxe_a-uunxsub.o)
                              ../ulib/libuserxe.a(libuserxe_a-ufile2l.o) (ugetugid)
../ulib/libuserxe.a(libuserxe_a-uviom.o)
                              ../ulib/libuserxe.a(libuserxe_a-udbcschk.o) (uvio_wcinit)
../ulib/libuserxe.a(libuserxe_a-uviol.o)
                              ../ulib/libuserxe.a(libuserxe_a-uerr.o) (Guviol_flag)
../ulib/libuserxe.a(libuserxe_a-u3270.o)
                              ../ulib/libuserxe.a(libuserxe_a-ufile1f.o) (u3270fstat)
../ulib/libuserxe.a(libuserxe_a-u32702.o)
                              ../ulib/libuserxe.a(libuserxe_a-ufile2f.o) (u3270mkdir)
../ulib/libuserxe.a(libuserxe_a-u32703.o)
                              ../ulib/libuserxe.a(libuserxe_a-ufile3.o) (u3270xmove)
../ulib/libuserxe.a(libuserxe_a-uabend.o)
                              ../ulib/libuserxe.a(libuserxe_a-ukbdl.o) (uabend)
../ulib/libuserxe.a(libuserxe_a-ucalc2.o)
                              ../ulib/libuserxe.a(libuserxe_a-uftp2.o) (ucalc_ld2dw)
../ulib/libuserxe.a(libuserxe_a-uehl.o)
                              ../ulib/libuserxe.a(libuserxe_a-ukbdlnxc.o) (uehl_setsh)
../ulib/libuserxe.a(libuserxe_a-uproc22.o)
                              ../ulib/libuserxe.a(libuserxe_a-utrace.o) (ucriticalsection)
../ulib/libuserxe.a(libuserxe_a-uproc3.o)
                              ../ulib/libuserxe.a(libuserxe_a-uproc4.o) (usleepms)
../ulib/libuserxe.a(libuserxe_a-ucalc.o)
                              ../ulib/libuserxe.a(libuserxe_a-ucalc2.o) (ucalc_binop)
/usr/lib/gcc/arm-linux-gnueabihf/8/libgcc.a(_divsi3.o)
                              ../ulib/libuserxe.a(libuserxe_a-ufile1l2.o) (__aeabi_idiv)
/usr/lib/gcc/arm-linux-gnueabihf/8/libgcc.a(_aeabi_ldivmod.o)
                              ../ulib/libuserxe.a(libuserxe_a-u32703.o) (__aeabi_ldivmod)
/usr/lib/gcc/arm-linux-gnueabihf/8/libgcc.a(_dvmd_lnx.o)
                              /usr/lib/gcc/arm-linux-gnueabihf/8/libgcc.a(_aeabi_ldivmod.o) (__aeabi_ldiv0)
/usr/lib/gcc/arm-linux-gnueabihf/8/libgcc.a(_udivmoddi4.o)
                              /usr/lib/gcc/arm-linux-gnueabihf/8/libgcc.a(_aeabi_ldivmod.o) (__udivmoddi4)
//usr/lib/arm-linux-gnueabihf/libc_nonshared.a(elf-init.oS)
                              /usr/lib/gcc/arm-linux-gnueabihf/8/../../../arm-linux-gnueabihf/crt1.o (__libc_csu_init)
//usr/lib/arm-linux-gnueabihf/libc_nonshared.a(stat64.oS)
                              ../ulib/libuserxe.a(libuserxe_a-ufile1l.o) (stat64)
//usr/lib/arm-linux-gnueabihf/libc_nonshared.a(lstat64.oS)
                              ../ulib/libuserxe.a(libuserxe_a-ufile1l.o) (lstat64)

Allocating common symbols
Common symbol       size              file

Gucs2ddmap_i2u      0x20000           ../ulib/libuserxe.a(libuserxe_a-utf22.o)
Guviombuffu         0x4               ../ulib/libuserxe.a(libuserxe_a-uviom.o)
Gufile_opt          0x4               ../ulib/libuserxe.a(libuserxe_a-ufile.o)
Sphiconv            0x4               ../ulib/libuserxe.a(libuserxe_a-ukbdl.o)
Snewoldctr          0x4               ../ulib/libuserxe.a(libuserxe_a-ucvebc2.o)
Gftperr             0x4               ../ulib/libuserxe.a(libuserxe_a-uftp2.o)
Gulibutfmode        0x4               ../ulib/libuserxe.a(libuserxe_a-utf.o)
Se2stctr            0x4               ../ulib/libuserxe.a(libuserxe_a-ucvebc2.o)
Gtracehdr           0x100             ../ulib/libuserxe.a(libuserxe_a-utrace.o)
Sfdpiper            0x4               ../ulib/libuserxe.a(libuserxe_a-uproc.o)
Gutfrc              0x4               ../ulib/libuserxe.a(libuserxe_a-utf.o)
Gualloc_amount      0x4               ../ulib/libuserxe.a(libuserxe_a-uallocl.o)
Guviomopt           0x4               ../ulib/libuserxe.a(libuserxe_a-uviom.o)
Slockhandle         0x4               ../ulib/libuserxe.a(libuserxe_a-utrace.o)
Gucvebchctr         0x4               ../ulib/libuserxe.a(libuserxe_a-ucvebc.o)
Gudbcschk_flag      0x4               ../ulib/libuserxe.a(libuserxe_a-udbcschk.o)
Guerropt2           0x4               ../ulib/libuserxe.a(libuserxe_a-uerr.o)
Sduptctr            0x4               ../ulib/libuserxe.a(libuserxe_a-ucvebc2.o)
Gukbdl_flag         0x4               ../ulib/libuserxe.a(libuserxe_a-ukbdl.o)
Ss2etctr            0x4               ../ulib/libuserxe.a(libuserxe_a-ucvebc2.o)
Gucvebch            0x9c40            ../ulib/libuserxe.a(libuserxe_a-ucvebc.o)
Gucalc_result       0x140             ../ulib/libuserxe.a(libuserxe_a-ucalc.o)
Guviol_flag         0x4               ../ulib/libuserxe.a(libuserxe_a-uviol.o)
Guviomoptstr        0x4               ../ulib/libuserxe.a(libuserxe_a-uviom.o)
Gftpopt             0x4               ../ulib/libuserxe.a(libuserxe_a-uftp2.o)
Gufile_nomsg        0x4               ../ulib/libuserxe.a(libuserxe_a-ufile.o)
Gualloc16_amount    0x4               ../ulib/libuserxe.a(libuserxe_a-uallocl.o)
Gudbcschk_width0top
                    0x4               ../ulib/libuserxe.a(libuserxe_a-udbcschk.o)
Gucvebc_stat        0x4               ../ulib/libuserxe.a(libuserxe_a-ucvebc.o)
Gftpclient          0x80              ../ulib/libuserxe.a(libuserxe_a-uftp2.o)
Guviomopt2          0x4               ../ulib/libuserxe.a(libuserxe_a-uviom.o)
Sdbcschk_hkopt      0x4               ../ulib/libuserxe.a(libuserxe_a-udbcschk.o)
Gutfcombaltch       0x4               ../ulib/libuserxe.a(libuserxe_a-utf.o)
Gucs2ddmap          0x40000           ../ulib/libuserxe.a(libuserxe_a-utf22.o)
Gw95buffopt         0x4               ../ulib/libuserxe.a(libuserxe_a-uviom.o)
Guerropt            0x1               ../ulib/libuserxe.a(libuserxe_a-uerr.o)
Guviomoptstrucs     0x10              ../ulib/libuserxe.a(libuserxe_a-uviom.o)
Sfdpipew            0x4               ../ulib/libuserxe.a(libuserxe_a-uproc.o)

Discarded input sections

 .note.GNU-stack
                0x00000000        0x0 /usr/lib/gcc/arm-linux-gnueabihf/8/../../../arm-linux-gnueabihf/crt1.o
 .note.GNU-stack
                0x00000000        0x0 /usr/lib/gcc/arm-linux-gnueabihf/8/../../../arm-linux-gnueabihf/crti.o
 .note.GNU-stack
                0x00000000        0x0 /usr/lib/gcc/arm-linux-gnueabihf/8/crtbegin.o
 .note.GNU-stack
                0x00000000        0x0 xcv-xcv.o
 .note.GNU-stack
                0x00000000        0x0 ../ulib/libuserxe.a(libuserxe_a-uallocl.o)
 .note.GNU-stack
                0x00000000        0x0 ../ulib/libuserxe.a(libuserxe_a-ucvebc.o)
 .note.GNU-stack
                0x00000000        0x0 ../ulib/libuserxe.a(libuserxe_a-ucvebc2.o)
 .note.GNU-stack
                0x00000000        0x0 ../ulib/libuserxe.a(libuserxe_a-ucvebc3.o)
 .note.GNU-stack
                0x00000000        0x0 ../ulib/libuserxe.a(libuserxe_a-ucvebc4.o)
 .note.GNU-stack
                0x00000000        0x0 ../ulib/libuserxe.a(libuserxe_a-ucvebct.o)
 .note.GNU-stack
                0x00000000        0x0 ../ulib/libuserxe.a(libuserxe_a-ucvext.o)
 .note.GNU-stack
                0x00000000        0x0 ../ulib/libuserxe.a(libuserxe_a-ucvext12.o)
 .note.GNU-stack
                0x00000000        0x0 ../ulib/libuserxe.a(libuserxe_a-ucvext2.o)
 .note.GNU-stack
                0x00000000        0x0 ../ulib/libuserxe.a(libuserxe_a-ucvucs.o)
 .note.GNU-stack
                0x00000000        0x0 ../ulib/libuserxe.a(libuserxe_a-ucvucst.o)
 .note.GNU-stack
                0x00000000        0x0 ../ulib/libuserxe.a(libuserxe_a-udbcschk.o)
 .note.GNU-stack
                0x00000000        0x0 ../ulib/libuserxe.a(libuserxe_a-udbcsck2.o)
 .note.GNU-stack
                0x00000000        0x0 ../ulib/libuserxe.a(libuserxe_a-udos2.o)
 .note.GNU-stack
                0x00000000        0x0 ../ulib/libuserxe.a(libuserxe_a-uedit.o)
 .note.GNU-stack
                0x00000000        0x0 ../ulib/libuserxe.a(libuserxe_a-uedit2.o)
 .note.GNU-stack
                0x00000000        0x0 ../ulib/libuserxe.a(libuserxe_a-uerr.o)
 .note.GNU-stack
                0x00000000        0x0 ../ulib/libuserxe.a(libuserxe_a-ufemsg.o)
 .note.GNU-stack
                0x00000000        0x0 ../ulib/libuserxe.a(libuserxe_a-ufile.o)
 .note.GNU-stack
                0x00000000        0x0 ../ulib/libuserxe.a(libuserxe_a-ufile1f.o)
 .note.GNU-stack
                0x00000000        0x0 ../ulib/libuserxe.a(libuserxe_a-ufile1l.o)
 .note.GNU-stack
                0x00000000        0x0 ../ulib/libuserxe.a(libuserxe_a-ufile1l2.o)
 .note.GNU-stack
                0x00000000        0x0 ../ulib/libuserxe.a(libuserxe_a-ufile2.o)
 .note.GNU-stack
                0x00000000        0x0 ../ulib/libuserxe.a(libuserxe_a-ufile2f.o)
 .note.GNU-stack
                0x00000000        0x0 ../ulib/libuserxe.a(libuserxe_a-ufile2l.o)
 .note.GNU-stack
                0x00000000        0x0 ../ulib/libuserxe.a(libuserxe_a-ufile2l2.o)
 .note.GNU-stack
                0x00000000        0x0 ../ulib/libuserxe.a(libuserxe_a-ufile3.o)
 .note.GNU-stack
                0x00000000        0x0 ../ulib/libuserxe.a(libuserxe_a-ufile3f.o)
 .note.GNU-stack
                0x00000000        0x0 ../ulib/libuserxe.a(libuserxe_a-ufile4.o)
 .note.GNU-stack
                0x00000000        0x0 ../ulib/libuserxe.a(libuserxe_a-ufile5.o)
 .note.GNU-stack
                0x00000000        0x0 ../ulib/libuserxe.a(libuserxe_a-uftp.o)
 .note.GNU-stack
                0x00000000        0x0 ../ulib/libuserxe.a(libuserxe_a-uftp2.o)
 .note.GNU-stack
                0x00000000        0x0 ../ulib/libuserxe.a(libuserxe_a-uftp3.o)
 .note.GNU-stack
                0x00000000        0x0 ../ulib/libuserxe.a(libuserxe_a-ugcclib.o)
 .note.GNU-stack
                0x00000000        0x0 ../ulib/libuserxe.a(libuserxe_a-ukbdl.o)
 .note.GNU-stack
                0x00000000        0x0 ../ulib/libuserxe.a(libuserxe_a-ukbdlnxc.o)
 .note.GNU-stack
                0x00000000        0x0 ../ulib/libuserxe.a(libuserxe_a-ukbdlnxm.o)
 .note.GNU-stack
                0x00000000        0x0 ../ulib/libuserxe.a(libuserxe_a-uparse.o)
 .note.GNU-stack
                0x00000000        0x0 ../ulib/libuserxe.a(libuserxe_a-uproc.o)
 .note.GNU-stack
                0x00000000        0x0 ../ulib/libuserxe.a(libuserxe_a-uproc2.o)
 .note.GNU-stack
                0x00000000        0x0 ../ulib/libuserxe.a(libuserxe_a-uproc4.o)
 .note.GNU-stack
                0x00000000        0x0 ../ulib/libuserxe.a(libuserxe_a-uque.o)
 .note.GNU-stack
                0x00000000        0x0 ../ulib/libuserxe.a(libuserxe_a-ustrcpy.o)
 .note.GNU-stack
                0x00000000        0x0 ../ulib/libuserxe.a(libuserxe_a-ustring.o)
 .note.GNU-stack
                0x00000000        0x0 ../ulib/libuserxe.a(libuserxe_a-utf.o)
 .note.GNU-stack
                0x00000000        0x0 ../ulib/libuserxe.a(libuserxe_a-utf2.o)
 .note.GNU-stack
                0x00000000        0x0 ../ulib/libuserxe.a(libuserxe_a-utf22.o)
 .note.GNU-stack
                0x00000000        0x0 ../ulib/libuserxe.a(libuserxe_a-utf3.o)
 .note.GNU-stack
                0x00000000        0x0 ../ulib/libuserxe.a(libuserxe_a-utf4.o)
 .note.GNU-stack
                0x00000000        0x0 ../ulib/libuserxe.a(libuserxe_a-utrace.o)
 .note.GNU-stack
                0x00000000        0x0 ../ulib/libuserxe.a(libuserxe_a-uunxsub.o)
 .note.GNU-stack
                0x00000000        0x0 ../ulib/libuserxe.a(libuserxe_a-uviom.o)
 .note.GNU-stack
                0x00000000        0x0 ../ulib/libuserxe.a(libuserxe_a-uviol.o)
 .note.GNU-stack
                0x00000000        0x0 ../ulib/libuserxe.a(libuserxe_a-u3270.o)
 .note.GNU-stack
                0x00000000        0x0 ../ulib/libuserxe.a(libuserxe_a-u32702.o)
 .note.GNU-stack
                0x00000000        0x0 ../ulib/libuserxe.a(libuserxe_a-u32703.o)
 .note.GNU-stack
                0x00000000        0x0 ../ulib/libuserxe.a(libuserxe_a-uabend.o)
 .note.GNU-stack
                0x00000000        0x0 ../ulib/libuserxe.a(libuserxe_a-ucalc2.o)
 .note.GNU-stack
                0x00000000        0x0 ../ulib/libuserxe.a(libuserxe_a-uehl.o)
 .note.GNU-stack
                0x00000000        0x0 ../ulib/libuserxe.a(libuserxe_a-uproc22.o)
 .note.GNU-stack
                0x00000000        0x0 ../ulib/libuserxe.a(libuserxe_a-uproc3.o)
 .note.GNU-stack
                0x00000000        0x0 ../ulib/libuserxe.a(libuserxe_a-ucalc.o)
 .note.GNU-stack
                0x00000000        0x0 /usr/lib/gcc/arm-linux-gnueabihf/8/libgcc.a(_divsi3.o)
 .note.GNU-stack
                0x00000000        0x0 /usr/lib/gcc/arm-linux-gnueabihf/8/libgcc.a(_aeabi_ldivmod.o)
 .note.GNU-stack
                0x00000000        0x0 /usr/lib/gcc/arm-linux-gnueabihf/8/libgcc.a(_dvmd_lnx.o)
 .note.GNU-stack
                0x00000000        0x0 /usr/lib/gcc/arm-linux-gnueabihf/8/libgcc.a(_udivmoddi4.o)
 .note.GNU-stack
                0x00000000        0x0 //usr/lib/arm-linux-gnueabihf/libc_nonshared.a(elf-init.oS)
 .note.GNU-stack
                0x00000000        0x0 //usr/lib/arm-linux-gnueabihf/libc_nonshared.a(stat64.oS)
 .note.GNU-stack
                0x00000000        0x0 //usr/lib/arm-linux-gnueabihf/libc_nonshared.a(lstat64.oS)
 .note.GNU-stack
                0x00000000        0x0 /usr/lib/gcc/arm-linux-gnueabihf/8/crtend.o
 .note.GNU-stack
                0x00000000        0x0 /usr/lib/gcc/arm-linux-gnueabihf/8/../../../arm-linux-gnueabihf/crtn.o

Memory Configuration

Name             Origin             Length             Attributes
*default*        0x00000000         0xffffffff

Linker script and memory map

LOAD /usr/lib/gcc/arm-linux-gnueabihf/8/../../../arm-linux-gnueabihf/crt1.o
LOAD /usr/lib/gcc/arm-linux-gnueabihf/8/../../../arm-linux-gnueabihf/crti.o
LOAD /usr/lib/gcc/arm-linux-gnueabihf/8/crtbegin.o
LOAD xcv-xcv.o
LOAD ../ulib/libuserxe.a
LOAD /usr/lib/gcc/arm-linux-gnueabihf/8/../../../arm-linux-gnueabihf/libgnomeui-2.so
LOAD /usr/lib/gcc/arm-linux-gnueabihf/8/../../../arm-linux-gnueabihf/libSM.so
LOAD /usr/lib/gcc/arm-linux-gnueabihf/8/../../../arm-linux-gnueabihf/libICE.so
LOAD /usr/lib/gcc/arm-linux-gnueabihf/8/../../../arm-linux-gnueabihf/libbonoboui-2.so
LOAD /usr/lib/gcc/arm-linux-gnueabihf/8/../../../arm-linux-gnueabihf/libgnome-2.so
LOAD /usr/lib/gcc/arm-linux-gnueabihf/8/../../../arm-linux-gnueabihf/libpopt.so
LOAD /usr/lib/gcc/arm-linux-gnueabihf/8/../../../arm-linux-gnueabihf/libbonobo-2.so
LOAD /usr/lib/gcc/arm-linux-gnueabihf/8/../../../arm-linux-gnueabihf/libbonobo-activation.so
LOAD /usr/lib/gcc/arm-linux-gnueabihf/8/../../../arm-linux-gnueabihf/libORBit-2.so
LOAD /usr/lib/gcc/arm-linux-gnueabihf/8/../../../arm-linux-gnueabihf/libgnomecanvas-2.so
LOAD /usr/lib/gcc/arm-linux-gnueabihf/8/../../../arm-linux-gnueabihf/libart_lgpl_2.so
LOAD /usr/lib/gcc/arm-linux-gnueabihf/8/../../../arm-linux-gnueabihf/libgnomevfs-2.so
LOAD /usr/lib/gcc/arm-linux-gnueabihf/8/../../../arm-linux-gnueabihf/libgconf-2.so
LOAD /usr/lib/gcc/arm-linux-gnueabihf/8/../../../arm-linux-gnueabihf/libgthread-2.0.so
LOAD /usr/lib/gcc/arm-linux-gnueabihf/8/../../../arm-linux-gnueabihf/libgmodule-2.0.so
LOAD /usr/lib/gcc/arm-linux-gnueabihf/8/../../../arm-linux-gnueabihf/libgtk-x11-2.0.so
LOAD /usr/lib/gcc/arm-linux-gnueabihf/8/../../../arm-linux-gnueabihf/libgdk-x11-2.0.so
LOAD /usr/lib/gcc/arm-linux-gnueabihf/8/../../../arm-linux-gnueabihf/libpangocairo-1.0.so
LOAD /usr/lib/gcc/arm-linux-gnueabihf/8/../../../arm-linux-gnueabihf/libatk-1.0.so
LOAD /usr/lib/gcc/arm-linux-gnueabihf/8/../../../arm-linux-gnueabihf/libcairo.so
LOAD /usr/lib/gcc/arm-linux-gnueabihf/8/../../../arm-linux-gnueabihf/libgdk_pixbuf-2.0.so
LOAD /usr/lib/gcc/arm-linux-gnueabihf/8/../../../arm-linux-gnueabihf/libgio-2.0.so
LOAD /usr/lib/gcc/arm-linux-gnueabihf/8/../../../arm-linux-gnueabihf/libpangoft2-1.0.so
LOAD /usr/lib/gcc/arm-linux-gnueabihf/8/../../../arm-linux-gnueabihf/libpango-1.0.so
LOAD /usr/lib/gcc/arm-linux-gnueabihf/8/../../../arm-linux-gnueabihf/libgobject-2.0.so
LOAD /usr/lib/gcc/arm-linux-gnueabihf/8/../../../arm-linux-gnueabihf/libglib-2.0.so
LOAD /usr/lib/gcc/arm-linux-gnueabihf/8/../../../arm-linux-gnueabihf/libfontconfig.so
LOAD /usr/lib/gcc/arm-linux-gnueabihf/8/../../../arm-linux-gnueabihf/libfreetype.so
LOAD /usr/lib/gcc/arm-linux-gnueabihf/8/../../../arm-linux-gnueabihf/libdl.so
LOAD /usr/lib/gcc/arm-linux-gnueabihf/8/../../../arm-linux-gnueabihf/libncursesw.so
LOAD /lib/arm-linux-gnueabihf/libncursesw.so.6
LOAD /usr/lib/gcc/arm-linux-gnueabihf/8/../../../arm-linux-gnueabihf/libtinfo.so
LOAD /usr/lib/gcc/arm-linux-gnueabihf/8/../../../arm-linux-gnueabihf/libcups.so
LOAD /usr/lib/gcc/arm-linux-gnueabihf/8/libgcc.a
LOAD /usr/lib/gcc/arm-linux-gnueabihf/8/libgcc_s.so
START GROUP
LOAD /usr/lib/gcc/arm-linux-gnueabihf/8/libgcc_s.so.1
LOAD /usr/lib/gcc/arm-linux-gnueabihf/8/libgcc.a
END GROUP
LOAD /usr/lib/gcc/arm-linux-gnueabihf/8/../../../arm-linux-gnueabihf/libpthread.so
LOAD /usr/lib/gcc/arm-linux-gnueabihf/8/../../../arm-linux-gnueabihf/libc.so
START GROUP
LOAD //lib/arm-linux-gnueabihf/libc.so.6
LOAD //usr/lib/arm-linux-gnueabihf/libc_nonshared.a
LOAD //lib/arm-linux-gnueabihf/ld-linux-armhf.so.3
END GROUP
LOAD /usr/lib/gcc/arm-linux-gnueabihf/8/libgcc.a
LOAD /usr/lib/gcc/arm-linux-gnueabihf/8/libgcc_s.so
START GROUP
LOAD /usr/lib/gcc/arm-linux-gnueabihf/8/libgcc_s.so.1
LOAD /usr/lib/gcc/arm-linux-gnueabihf/8/libgcc.a
END GROUP
LOAD /usr/lib/gcc/arm-linux-gnueabihf/8/crtend.o
LOAD /usr/lib/gcc/arm-linux-gnueabihf/8/../../../arm-linux-gnueabihf/crtn.o
                [!provide]                PROVIDE (__executable_start = SEGMENT_START ("text-segment", 0x10000))
                0x00010154                . = (SEGMENT_START ("text-segment", 0x10000) + SIZEOF_HEADERS)

.interp         0x00010154       0x19
 *(.interp)
 .interp        0x00010154       0x19 /usr/lib/gcc/arm-linux-gnueabihf/8/../../../arm-linux-gnueabihf/crt1.o

.note.ABI-tag   0x00010170       0x20
 .note.ABI-tag  0x00010170       0x20 /usr/lib/gcc/arm-linux-gnueabihf/8/../../../arm-linux-gnueabihf/crt1.o

.note.gnu.build-id
                0x00010190       0x24
 *(.note.gnu.build-id)
 .note.gnu.build-id
                0x00010190       0x24 linker stubs

.hash
 *(.hash)

.gnu.hash       0x000101b4      0x738
 *(.gnu.hash)
 .gnu.hash      0x000101b4      0x738 /usr/lib/gcc/arm-linux-gnueabihf/8/../../../arm-linux-gnueabihf/crt1.o

.dynsym         0x000108ec      0xc90
 *(.dynsym)
 .dynsym        0x000108ec      0xc90 /usr/lib/gcc/arm-linux-gnueabihf/8/../../../arm-linux-gnueabihf/crt1.o

.dynstr         0x0001157c      0x9b5
 *(.dynstr)
 .dynstr        0x0001157c      0x9b5 /usr/lib/gcc/arm-linux-gnueabihf/8/../../../arm-linux-gnueabihf/crt1.o

.gnu.version    0x00011f32      0x192
 *(.gnu.version)
 .gnu.version   0x00011f32      0x192 /usr/lib/gcc/arm-linux-gnueabihf/8/../../../arm-linux-gnueabihf/crt1.o

.gnu.version_d  0x000120c4        0x0
 *(.gnu.version_d)
 .gnu.version_d
                0x000120c4        0x0 /usr/lib/gcc/arm-linux-gnueabihf/8/../../../arm-linux-gnueabihf/crt1.o

.gnu.version_r  0x000120c4       0xc0
 *(.gnu.version_r)
 .gnu.version_r
                0x000120c4       0xc0 /usr/lib/gcc/arm-linux-gnueabihf/8/../../../arm-linux-gnueabihf/crt1.o

.rel.dyn        0x00012184       0x60
 *(.rel.init)
 *(.rel.text .rel.text.* .rel.gnu.linkonce.t.*)
 *(.rel.fini)
 *(.rel.rodata .rel.rodata.* .rel.gnu.linkonce.r.*)
 *(.rel.data.rel.ro .rel.data.rel.ro.* .rel.gnu.linkonce.d.rel.ro.*)
 .rel.data.rel.ro
                0x00012184        0x0 /usr/lib/gcc/arm-linux-gnueabihf/8/../../../arm-linux-gnueabihf/crt1.o
 *(.rel.data .rel.data.* .rel.gnu.linkonce.d.*)
 *(.rel.tdata .rel.tdata.* .rel.gnu.linkonce.td.*)
 *(.rel.tbss .rel.tbss.* .rel.gnu.linkonce.tb.*)
 *(.rel.ctors)
 *(.rel.dtors)
 *(.rel.got)
 .rel.got       0x00012184        0x8 /usr/lib/gcc/arm-linux-gnueabihf/8/../../../arm-linux-gnueabihf/crt1.o
 *(.rel.bss .rel.bss.* .rel.gnu.linkonce.b.*)
 .rel.bss       0x0001218c       0x58 /usr/lib/gcc/arm-linux-gnueabihf/8/../../../arm-linux-gnueabihf/crt1.o
                [!provide]                PROVIDE (__rel_iplt_start = .)
 *(.rel.iplt)
 .rel.iplt      0x000121e4        0x0 /usr/lib/gcc/arm-linux-gnueabihf/8/../../../arm-linux-gnueabihf/crt1.o
                [!provide]                PROVIDE (__rel_iplt_end = .)

.rela.dyn       0x000121e4        0x0
 *(.rela.init)
 *(.rela.text .rela.text.* .rela.gnu.linkonce.t.*)
 *(.rela.fini)
 *(.rela.rodata .rela.rodata.* .rela.gnu.linkonce.r.*)
 *(.rela.data .rela.data.* .rela.gnu.linkonce.d.*)
 *(.rela.tdata .rela.tdata.* .rela.gnu.linkonce.td.*)
 *(.rela.tbss .rela.tbss.* .rela.gnu.linkonce.tb.*)
 *(.rela.ctors)
 *(.rela.dtors)
 *(.rela.got)
 *(.rela.bss .rela.bss.* .rela.gnu.linkonce.b.*)
                [!provide]                PROVIDE (__rela_iplt_start = .)
 *(.rela.iplt)
                [!provide]                PROVIDE (__rela_iplt_end = .)

.rel.plt        0x000121e4      0x5a0
 *(.rel.plt)
 .rel.plt       0x000121e4      0x5a0 /usr/lib/gcc/arm-linux-gnueabihf/8/../../../arm-linux-gnueabihf/crt1.o

.rela.plt
 *(.rela.plt)

.init           0x00012784        0xc
 *(SORT_NONE(.init))
 .init          0x00012784        0x8 /usr/lib/gcc/arm-linux-gnueabihf/8/../../../arm-linux-gnueabihf/crti.o
                0x00012784                _init
 .init          0x0001278c        0x4 /usr/lib/gcc/arm-linux-gnueabihf/8/../../../arm-linux-gnueabihf/crtn.o

.plt            0x00012790      0x884
 *(.plt)
 .plt           0x00012790      0x884 /usr/lib/gcc/arm-linux-gnueabihf/8/../../../arm-linux-gnueabihf/crt1.o
                0x000127a4                gethostname@@GLIBC_2.4
                0x000127b0                getuid@@GLIBC_2.4
                0x000127bc                fopen64@@GLIBC_2.4
                0x000127c8                endwin@@NCURSESW6_5.1.20000708
                0x000127d4                fwrite@@GLIBC_2.4
                0x000127e0                mbrtowc@@GLIBC_2.4
                0x000127ec                toupper@@GLIBC_2.4
                0x000127f8                __isoc99_sscanf@@GLIBC_2.7
                0x00012804                fprintf@@GLIBC_2.4
                0x00012810                waddnstr@@NCURSESW6_5.1.20000708
                0x0001281c                strstr@@GLIBC_2.4
                0x00012828                isatty@@GLIBC_2.4
                0x00012834                getppid@@GLIBC_2.4
                0x00012840                wbkgdset@@NCURSESW6_5.1.20000708
                0x0001284c                execvp@@GLIBC_2.4
                0x00012858                write@@GLIBC_2.4
                0x00012864                wctomb@@GLIBC_2.4
                0x00012870                can_change_color@@NCURSESW6_5.1.20000708
                0x0001287c                opendir@@GLIBC_2.4
                0x00012888                printf@@GLIBC_2.4
                0x00012894                gnome_vfs_mime_get_default_application
                0x000128a0                bsearch@@GLIBC_2.4
                0x000128ac                fclose@@GLIBC_2.4
                0x000128b8                atoll@@GLIBC_2.4
                0x000128c4                qsort@@GLIBC_2.4
                0x000128d0                getgid@@GLIBC_2.4
                0x000128dc                wclear@@NCURSESW6_5.1.20000708
                0x000128e8                __ctype_b_loc@@GLIBC_2.4
                0x000128f4                strnlen@@GLIBC_2.4
                0x00012900                nonl@@NCURSESW6_5.1.20000708
                0x0001290c                getmntent@@GLIBC_2.4
                0x00012918                iconv@@GLIBC_2.4
                0x00012924                fputc@@GLIBC_2.4
                0x00012930                dlclose@@GLIBC_2.4
                0x0001293c                beep@@NCURSESW6_5.1.20000708
                0x00012948                __xstat64@@GLIBC_2.4
                0x00012954                chown@@GLIBC_2.4
                0x00012960                strpbrk@@GLIBC_2.4
                0x0001296c                fseek@@GLIBC_2.4
                0x00012978                strerror@@GLIBC_2.4
                0x00012984                color_content@@NCURSESW6_5.1.20000708
                0x00012990                tolower@@GLIBC_2.4
                0x0001299c                putchar@@GLIBC_2.4
                0x000129a8                has_colors@@NCURSESW6_5.1.20000708
                0x000129b4                puts@@GLIBC_2.4
                0x000129c0                init_pair@@NCURSESW6_5.1.20000708
                0x000129cc                __libc_start_main@@GLIBC_2.4
                0x000129e4                setupterm@@NCURSES6_TINFO_5.0.19991023
                0x000129f0                strchr@@GLIBC_2.4
                0x000129fc                __errno_location@@GLIBC_2.4
                0x00012a08                keypad@@NCURSES6_TINFO_5.0.19991023
                0x00012a14                lutimes@@GLIBC_2.4
                0x00012a20                atol@@GLIBC_2.4
                0x00012a2c                ftello64@@GLIBC_2.4
                0x00012a38                tcsetattr@@GLIBC_2.4
                0x00012a44                curs_set@@NCURSES6_TINFO_5.0.19991023
                0x00012a50                symlink@@GLIBC_2.4
                0x00012a5c                setenv@@GLIBC_2.4
                0x00012a68                mkdir@@GLIBC_2.4
                0x00012a74                pthread_mutex_lock@@GLIBC_2.4
                0x00012a80                pipe@@GLIBC_2.4
                0x00012a8c                noecho@@NCURSESW6_5.1.20000708
                0x00012a98                gnome_vfs_get_mime_type
                0x00012aa4                waddchnstr@@NCURSESW6_5.1.20000708
                0x00012ab0                pthread_cond_wait@@GLIBC_2.4
                0x00012abc                free@@GLIBC_2.4
                0x00012ac8                iconv_close@@GLIBC_2.4
                0x00012ad4                wcwidth@@GLIBC_2.4
                0x00012ae0                close@@GLIBC_2.4
                0x00012aec                clearok@@NCURSESW6_5.1.20000708
                0x00012af8                memcpy@@GLIBC_2.4
                0x00012b04                wcstombs@@GLIBC_2.4
                0x00012b10                iconv_open@@GLIBC_2.4
                0x00012b1c                memmove@@GLIBC_2.4
                0x00012b28                strncpy@@GLIBC_2.4
                0x00012b34                winchnstr@@NCURSESW6_5.1.20000708
                0x00012b40                win_wchnstr@@NCURSESW6_5.3.20021019
                0x00012b4c                access@@GLIBC_2.4
                0x00012b58                unlink@@GLIBC_2.4
                0x00012b64                ferror@@GLIBC_2.4
                0x00012b70                strcpy@@GLIBC_2.4
                0x00012b7c                execv@@GLIBC_2.4
                0x00012b88                raise@@GLIBC_2.4
                0x00012b94                getgrgid@@GLIBC_2.4
                0x00012ba0                start_color@@NCURSESW6_5.1.20000708
                0x00012bac                atoi@@GLIBC_2.4
                0x00012bb8                dlsym@@GLIBC_2.4
                0x00012bc4                ftime@@GLIBC_2.4
                0x00012bd0                fork@@GLIBC_2.4
                0x00012bdc                signal@@GLIBC_2.4
                0x00012be8                gettimeofday@@GLIBC_2.4
                0x00012bf4                getpwuid@@GLIBC_2.4
                0x00012c00                system@@GLIBC_2.4
                0x00012c0c                malloc@@GLIBC_2.4
                0x00012c18                localtime@@GLIBC_2.4
                0x00012c24                getcwd@@GLIBC_2.4
                0x00012c30                tcgetattr@@GLIBC_2.4
                0x00012c3c                pthread_cond_init@@GLIBC_2.4
                0x00012c48                kill@@GLIBC_2.4
                0x00012c54                strdup@@GLIBC_2.4
                0x00012c60                strlen@@GLIBC_2.4
                0x00012c6c                pthread_mutex_destroy@@GLIBC_2.4
                0x00012c78                chdir@@GLIBC_2.4
                0x00012c84                chmod@@GLIBC_2.4
                0x00012c90                mktime@@GLIBC_2.4
                0x00012c9c                wadd_wchnstr@@NCURSESW6_5.3.20021019
                0x00012ca8                closedir@@GLIBC_2.4
                0x00012cb4                getpid@@GLIBC_2.4
                0x00012cc0                winnstr@@NCURSESW6_5.1.20000708
                0x00012ccc                __lxstat64@@GLIBC_2.4
                0x00012cd8                select@@GLIBC_2.4
                0x00012ce4                readlink@@GLIBC_2.4
                0x00012cf0                iswalpha@@GLIBC_2.4
                0x00012cfc                fseeko64@@GLIBC_2.4
                0x00012d08                dup@@GLIBC_2.4
                0x00012d14                sprintf@@GLIBC_2.4
                0x00012d20                snprintf@@GLIBC_2.4
                0x00012d2c                fflush@@GLIBC_2.4
                0x00012d38                mbtowc@@GLIBC_2.4
                0x00012d44                curses_version@@NCURSES6_TINFO_5.0.19991023
                0x00012d50                perror@@GLIBC_2.4
                0x00012d5c                setlocale@@GLIBC_2.4
                0x00012d68                vfprintf@@GLIBC_2.4
                0x00012d74                mousemask@@NCURSESW6_5.1.20000708
                0x00012d80                gnome_vfs_mime_application_free
                0x00012d8c                strcmp@@GLIBC_2.4
                0x00012d98                initscr@@NCURSESW6_5.1.20000708
                0x00012da4                memcmp@@GLIBC_2.4
                0x00012db0                memset@@GLIBC_2.4
                0x00012dbc                wrefresh@@NCURSESW6_5.1.20000708
                0x00012dc8                getenv@@GLIBC_2.4
                0x00012dd4                rename@@GLIBC_2.4
                0x00012de0                flock@@GLIBC_2.4
                0x00012dec                mkfifo@@GLIBC_2.4
                0x00012df8                time@@GLIBC_2.4
                0x00012e04                meta@@NCURSES6_TINFO_5.0.19991023
                0x00012e10                wait@@GLIBC_2.4
                0x00012e1c                statfs64@@GLIBC_2.4
                0x00012e28                pthread_cond_broadcast@@GLIBC_2.4
                0x00012e34                fread@@GLIBC_2.4
                0x00012e40                gnome_vfs_init
                0x00012e4c                pthread_create@@GLIBC_2.4
                0x00012e58                strcat@@GLIBC_2.4
                0x00012e64                abort@@GLIBC_2.4
                0x00012e70                init_color@@NCURSESW6_5.1.20000708
                0x00012e7c                gnome_vfs_get_uri_from_local_path
                0x00012e88                waitpid@@GLIBC_2.4
                0x00012e94                gnome_vfs_get_file_info
                0x00012ea0                pthread_cond_timedwait@@GLIBC_2.4
                0x00012eac                exit@@GLIBC_2.4
                0x00012eb8                calloc@@GLIBC_2.4
                0x00012ec4                setmntent@@GLIBC_2.4
                0x00012ed0                rmdir@@GLIBC_2.4
                0x00012edc                strrchr@@GLIBC_2.4
                0x00012ee8                wmove@@NCURSESW6_5.1.20000708
                0x00012ef4                dup2@@GLIBC_2.4
                0x00012f00                getmntent_r@@GLIBC_2.4
                0x00012f0c                fgets@@GLIBC_2.4
                0x00012f18                raw@@NCURSES6_TINFO_5.0.19991023
                0x00012f24                utimes@@GLIBC_2.4
                0x00012f30                endmntent@@GLIBC_2.4
                0x00012f3c                memchr@@GLIBC_2.4
                0x00012f48                read@@GLIBC_2.4
                0x00012f54                readdir64@@GLIBC_2.4
                0x00012f60                pthread_mutex_unlock@@GLIBC_2.4
                0x00012f6c                wcrtomb@@GLIBC_2.4
                0x00012f78                nl_langinfo@@GLIBC_2.4
                0x00012f84                pthread_mutex_init@@GLIBC_2.4
                0x00012f90                fileno@@GLIBC_2.4
                0x00012f9c                mkstemp64@@GLIBC_2.4
                0x00012fa8                strspn@@GLIBC_2.4
                0x00012fb4                open64@@GLIBC_2.4
                0x00012fc0                ioctl@@GLIBC_2.4
                0x00012fcc                fputs@@GLIBC_2.4
                0x00012fd8                nanosleep@@GLIBC_2.4
                0x00012fe4                iswprint@@GLIBC_2.4
                0x00012ff0                putenv@@GLIBC_2.4
                0x00012ffc                ttyname@@GLIBC_2.4
                0x00013008                dlopen@@GLIBC_2.4

.iplt           0x00013014        0x0
 *(.iplt)
 .iplt          0x00013014        0x0 /usr/lib/gcc/arm-linux-gnueabihf/8/../../../arm-linux-gnueabihf/crt1.o

.text           0x00013018    0xaf2a4
 *(.text.unlikely .text.*_unlikely .text.unlikely.*)
 *(.text.exit .text.exit.*)
 *(.text.startup .text.startup.*)
 *(.text.hot .text.hot.*)
 *(.text .stub .text.* .gnu.linkonce.t.*)
 .text          0x00013018       0x3c /usr/lib/gcc/arm-linux-gnueabihf/8/../../../arm-linux-gnueabihf/crt1.o
                0x00013018                _start
 .text          0x00013054       0x24 /usr/lib/gcc/arm-linux-gnueabihf/8/../../../arm-linux-gnueabihf/crti.o
 .text          0x00013078       0x90 /usr/lib/gcc/arm-linux-gnueabihf/8/crtbegin.o
 .text          0x00013108     0x5734 xcv-xcv.o
                0x00013108                extconv
                0x000134c8                extconva2a
                0x000135dc                main
                0x000137e8                mainproc
                0x000143f0                xcvucsmain
                0x000146d8                xcvfuncread
                0x00014740                xcvfilegetline
                0x00014a20                xcvfuncwrite
                0x00014a84                xcvfileputline
                0x00014d00                xcvfuncerr
                0x00014ea4                getebccodepage
                0x00014f84                mapinit
                0x000150a8                listconverter
                0x000151e0                parmchk
                0x00016cc0                xcvtypechk
                0x00017440                optionerr
                0x00017478                parmconflict
                0x000174b0                help
                0x000186cc                parmchk0
 .text          0x0001883c      0xe50 ../ulib/libuserxe.a(libuserxe_a-uallocl.o)
                0x0001883c                ualloc_init
                0x00018a90                ugetallocdata
                0x00018bc8                ualloc_chk
                0x00018d90                umalloc
                0x00018fd4                ucalloc
                0x00019244                ufree
                0x00019474                uallocsz
                0x000194c0                ufreesz
                0x00019510                uallocmapset
                0x00019624                ufreesizeerr
                0x00019658                umallocsizeerr
 .text          0x0001968c     0x1ad0 ../ulib/libuserxe.a(libuserxe_a-ucvebc.o)
                0x0001968c                ucvebcinite2uJ
                0x000197e0                ucvebc
                0x000197f8                ucvebc_gettrte2a
                0x00019818                ucvebc2asc_handle
                0x000198b8                ucvasc2ebc_handle
                0x00019958                ucvebc2asc
                0x00019d70                ucvebc2asc1sbcsJ
                0x00019ef0                ucvebc2ucs1sbcsJ
                0x0001a084                ucvasc2ebc
                0x0001a62c                ucvebc_defaultremap
                0x0001a90c                ucvebcinita2e
                0x0001aa78                ucvkandl
                0x0001ac68                ucvebcinitkandl
                0x0001ad8c                ucvebc2_chkprintsbcs
                0x0001b068                ucvebc_chkeolopt
 .text          0x0001b15c     0x1718 ../ulib/libuserxe.a(libuserxe_a-ucvebc2.o)
                0x0001b15c                ucvebc2
                0x0001b174                ucvebc2_init
                0x0001b1e4                ucvebc2_codecomp
                0x0001b22c                ucvebc2_s2e
                0x0001b2c8                ucvebc2_e2s
                0x0001b360                ucvebc2_chkprint
                0x0001b628                ucvebc2_chkprintnewold
                0x0001b8a0                ucvebc2_chkprintdup
                0x0001ba4c                ucvebc2_e2ssub
                0x0001bc8c                ucvebc2_s2esub
                0x0001bd44                ucvebc2_stre2s
                0x0001bff4                ucvebc2_ebc2asc1dbcsJ
                0x0001c090                ucvebc2_strs2e
                0x0001c644                ucvebc2_setsi
                0x0001c768                ucvebc2_setso
 .text          0x0001c874     0x54c8 ../ulib/libuserxe.a(libuserxe_a-ucvebc3.o)
                0x0001c874                ucvebc3_getcfgparmconverter
                0x0001ca78                ucvebc3_init_xcv
                0x0001cab8                ucvebc3_getconvertersubchar
                0x0001cb2c                ucvebc3_setletter
                0x0001d460                ucvebc3_init
                0x0001d6d4                ucvebc3_cfgerr
                0x0001d6fc                ucvebc3_b2uSbcs1
                0x0001d9e4                ucvebc3_b2ddSbcs1
                0x0001dbd4                ucvebc3_b2ddSbcs
                0x0001e094                ucvebc3_b2uDbcs1
                0x0001e2b0                ucvebc3_b2ddDbcs1
                0x0001e4d0                ucvebc3_b2ddDbcsstr
                0x0001e6d0                ucvebc3_b2ddDbcs
                0x0001edfc                ucvebc3_b2dd
                0x0001eef0                ucvebc3_u2b1map
                0x0001f030                ucvebc3_u2b1
                0x0001f3d4                ucvebc3_m2b1Sbcs1
                0x0001f590                ucvebc3_m2b1
                0x0001f8c8                ucvebc3_m2b
                0x0001fdd8                ucvebc3_f2b
                0x00020470                ucvebc3_dd2b
                0x00020b40                ucvebc3_b2mSbcs
                0x0002120c                ucvebc3_b2mDbcsstr
                0x000214ac                ucvebc3_b2m
                0x00021984                ucvebc3_setdbcstbl
                0x00021b24                ucvebc3_getebc3opt
                0x00021c14                ucvebc3_b2f
                0x00021cb0                ucvebc3_f2bcmd
 .text          0x00021d3c     0x1c0c ../ulib/libuserxe.a(libuserxe_a-ucvebc4.o)
                0x00021d3c                ucvebc4_init
                0x00021dc8                ucvebc4_compbyname
                0x00021e20                ucvebc4_compbyhandle
                0x00021e70                ucvebc4_srchcveh
                0x00021fc4                ucvebc4_gethandle
                0x000220b4                ucvebc4_getpucveh
                0x00022134                ucvebc4_getcvname
                0x00022198                ucvebc4_getcvtype
                0x0002231c                ucvebc4_createhandle
                0x00022458                ucvebc4_getparmconverter
                0x00022588                ucvebc4_chkdbcsconverter
                0x000226a0                ucvebc4_setuphandle
                0x000227b0                ucvebc4_setletter
                0x00022f0c                ucvebc4_b2uSbcs1
                0x00023028                ucvebc4_b2mSbcs
                0x00023454                ucvebc4_setupsubch
 .text          0x00023948       0xa8 ../ulib/libuserxe.a(libuserxe_a-ucvebct.o)
                0x00023948                ucvebc2gettbl
 .text          0x000239f0     0x6c18 ../ulib/libuserxe.a(libuserxe_a-ucvext.o)
                0x000239f0                ucvext_cfglineerr
                0x00023a2c                ucvext_cfgdupoption
                0x00023a68                ucvext_ux2s
                0x00023b50                ucvext_cfgmap
                0x00023cc8                ucvext_getcfg
                0x00024abc                ucvext_setdefaultlocalcv
                0x00024c00                ucvext_getarmso1
                0x00024e60                ucvext_getarmso
                0x000250ec                ucvext_getarmdata1
                0x0002525c                ucvext_getarmdata
                0x0002540c                chkapiver
                0x000255c8                ucvext_icuinit_env
                0x00025864                setdatadir
                0x00025930                ucvext_mapinit
                0x00026314                ucvext_setupsubch
                0x000268e8                ucvext_loaddll_icudata
                0x00026b7c                ucvext_loaddll
                0x00026c2c                ucvext_icuinit
                0x00027350                ucvext_icuenumcvname
                0x00027720                ucvext_icuuerrname
                0x00027790                ucvext_icugetdefaultconvertername2
                0x000278ac                ucvext_getstdcharset
                0x00027c84                ucvext_icugetdefaultconvertername
                0x00027dc4                ucvext_icugetconvertertype
                0x00027fe8                ucvext_icugetsubchars
                0x0002816c                ucvext_icusetsubchars
                0x00028260                ucvext_icugetstarter
                0x000283ec                ucvext_icugetconverter
                0x000289fc                ucvext_getparmconverter
                0x00028c80                ucvext_openparmconverter
                0x00028e00                ucvext_getcvoption
                0x0002916c                set_internal_CP037
                0x00029254                ucvext_mapinitsetdefault
                0x00029490                ucvext_setlocalconverter
                0x0002958c                ucvext_icusubcharchk
                0x00029940                ucvext_isdbcs1st
                0x000299c4                chk_converter_is_ebcdic
                0x00029ab8                ucvext_handle0init
                0x00029cfc                ucvext_icuclose
                0x00029d64                ucvext_icureset
                0x00029dcc                ucvext_icugetmbconverter
                0x00029eac                ucvext_icumbinit12
                0x00029f0c                ucvext_icumbinit
                0x0002a1d8                ucvext_setdefaultlocale
                0x0002a2c8                chkicuversion
                0x0002a554                ucvext_getConverterCfg
 .text          0x0002a608     0x49f4 ../ulib/libuserxe.a(libuserxe_a-ucvext12.o)
                0x0002a608                ucvext12_init
                0x0002a76c                ucvext_icuebc2ucs1
                0x0002aa28                ucvext_iculocal2ucs1
                0x0002ad1c                ucvext_icuucs2ebc1
                0x0002b034                ucvext_icuucs2local1
                0x0002b300                ucvext_icuebc2mb1
                0x0002b760                ucvext_icumb2ebc1
                0x0002bc20                ucvext_icuebc2mbs_handle
                0x0002bca0                ucvext_icuebc2mbs
                0x0002bfa8                ucvext_icumb2ebcdbcs
                0x0002c568                ucvext_icumb2ebcs_handle
                0x0002c5e8                ucvext_icumb2ebcs
                0x0002cae8                ucvext_icuebc2mbf
                0x0002cfd0                ucvext_icumb2ebcf
                0x0002d76c                ucvext_icumb2ucs1
                0x0002d978                ucvext_icuucs2mb1
                0x0002dba0                ucvext_icuutf2mb1
                0x0002dd4c                ucvext_icumb2utf1
                0x0002df48                ucvext_icumb2utf
                0x0002e1f0                ucvext_icuisprint
                0x0002e290                ucvext_locale1ICU
                0x0002e374                ucvext_getparmconvertermbICU
                0x0002e7ac                ucvext_icua2ainit
                0x0002e870                ucvext_icua2aterm
                0x0002e8e8                ucvext_icua2as
                0x0002efa8                ucvext_icusubcharchk_handle
 .text          0x0002effc     0x1ec0 ../ulib/libuserxe.a(libuserxe_a-ucvext2.o)
                0x0002effc                ucvext_iconvmapinit
                0x0002f048                ucvext_iconvgetstarter
                0x0002f1ac                ucvext_iconvgetconvertertype
                0x0002f228                ucvext_iconvgetconverter
                0x0002f36c                ucvext_iconvgetparmconverter
                0x0002f574                ucvext_iconvebc2ucs1
                0x0002f6e4                ucvext_iconvlocal2ucs1
                0x0002f9a4                ucvext_iconvucs2ebc1
                0x0002fb18                ucvext_iconvucs2local1
                0x0002fc80                ucvext_iconva2as
                0x00030294                ucvext_iconvb2bs
                0x00030440                ucvext_iconva2af
                0x00030b50                ucvext_iconva2ainit
                0x00030c70                ucvext_iconva2acont
 .text          0x00030ebc     0x4f64 ../ulib/libuserxe.a(libuserxe_a-ucvucs.o)
                0x00030ebc                ucp932init
                0x00031444                ucp932term
                0x000314ec                ucp932sjis2ucs
                0x000315bc                ucp932ucs2sjis
                0x00031740                uccvsjis2ucs
                0x00031874                uccvucs2sjis
                0x000318a4                uccvucs2utf
                0x00031ad8                uccvutf2ucs
                0x00031e7c                uccvucss2utf
                0x00031f60                uccvutf2ucss
                0x0003212c                uccvsjis2ucss
                0x000321ac                uccvucss2sjis
                0x000321f0                uccvsjis2utf
                0x000322d4                uccvutf2sjis
                0x000323a0                ucvsucs2utf
                0x00032744                ucvsescucs2utf
                0x00032b08                ucvssjis2utf
                0x00032ed4                ucvsmb2utf
                0x00033234                ucvsutf2ucs
                0x00033598                ucvsutf2sjis
                0x00033a34                ucvsutf2mb
                0x00033e14                ucvssjis2ucs
                0x00034138                ucvsucs2sjis
                0x000344d8                ucvsescucs2sjis
                0x0003485c                ucvfsjis2ucs
                0x00034a7c                ucvfucs2sjis
                0x00034c80                ucvfutf2ucs
                0x00034f1c                ucvfucs2utf
                0x00035188                ucvfsjis2utf
                0x000353f4                ucvfutf2sjis
                0x00035690                ucvbomchk
                0x00035838                ucvbomset
                0x00035994                ucvsetucss
                0x00035bc4                ucvgetucss
                0x00035d00                ucverrutf
                0x00035d60                ucverrucs
                0x00035dc0                ucverrsjis
 .text          0x00035e20       0x38 ../ulib/libuserxe.a(libuserxe_a-ucvucst.o)
                0x00035e20                ugetcp932tbl
 .text          0x00035e58     0x3084 ../ulib/libuserxe.a(libuserxe_a-udbcschk.o)
                0x00035e58                udbcschk_wcinit
                0x000361f8                udbcschk_getbaseconverter
                0x000362a0                udbcschk_setunprintable
                0x00036438                udbcschk_wclocaleinit
                0x000365a4                udbcschk_wclocalereset
                0x000369b8                udbcschk_chklocale
                0x00036a78                udbcschk_getlinuxleadbyte
                0x00036be0                udbcschk
                0x00036d6c                udbcschk_hk
                0x00036e58                udbcschk_getmblen
                0x00037118                udbcschk_mblen
                0x000371e8                udbcschk_mb2nd
                0x00037370                udbcschk_isvalidmbchar
                0x00037454                udbcschk_locale_topbyte
                0x00037558                udbcschk_getdbcs1st
                0x0003764c                udbcschk_ismbdbcs1st
                0x000376ac                udbcschk_locale1
                0x00037998                udbcschk_mb2ucs1
                0x00037b04                udbcschk_ucs2mb1
                0x00037c30                udbcschk_forceenglish
                0x00037c9c                udbcschkcp
                0x00037e08                ugetcp
                0x00037eec                udbcsenv
                0x00037f2c                udosquerydbcsenv
                0x000380a0                udbcschk2
                0x00038164                udbcschk_pos2offs
                0x00038340                usetdbcstbl
                0x000386a4                usetdbcstblmb
                0x00038b14                udbcschk_setlocale
                0x00038d64                udbcschk_setdbcstype
                0x00038e7c                udbcschk_icugetlocalconverter
 .text          0x00038edc     0x2e38 ../ulib/libuserxe.a(libuserxe_a-udbcsck2.o)
                0x00038edc                ujischkx208
                0x00038fac                usjischkx208
                0x0003908c                usjis2jis
                0x00039194                ujis2sjis
                0x00039284                ustrjis2sjis
                0x0003979c                ustrsjis2jis
                0x00039ca4                ushift2euc
                0x0003a1dc                ushift2euc1
                0x0003a3b8                ushift2euccount
                0x0003a5f8                usjischk
                0x0003a8ac                ueuc2shift1SS3
                0x0003a8dc                ueuc2shift
                0x0003b068                ueucchk
                0x0003b4a4                ueuc2shift1
                0x0003b718                ueuc2shift1c
                0x0003b8cc                uhan2zen
                0x0003bb90                udbcschktty
                0x0003bc14                udbcschk_srchSS2
 .text          0x0003bd14      0x3dc ../ulib/libuserxe.a(libuserxe_a-udos2.o)
                0x0003bd14                udos2
                0x0003bd2c                ugetdriveidlist
                0x0003be20                ugetdrivelist
                0x0003bec0                ugetdrivetype
                0x0003bfe8                udos_setenv
 .text          0x0003c0f0     0x3fe8 ../ulib/libuserxe.a(libuserxe_a-uedit.o)
                0x0003c0f0                uedit
                0x0003c108                unumedit
                0x0003c440                utimeedit
                0x0003cfb8                uitoa10
                0x0003cfec                ucmdparmedit
                0x0003d714                ueditenv
                0x0003db40                uwordrep
                0x0003e1ec                ugethex
                0x0003e34c                ugethexdump
                0x0003e52c                ux2FILESZ
                0x0003e55c                ux2l
                0x0003e6f0                ux2ll
                0x0003e7d8                ua2ll
                0x0003e808                ux2s
                0x0003e964                ugetnumrange3
                0x0003eadc                ugetnumrange2
                0x0003ebd8                ugetnumrange2XFILESZ
                0x0003ecac                ugetnumrange
                0x0003eeb8                ugetxnumrange
                0x0003f2dc                ugetxnumrangeLL
                0x0003f708                unumlen
                0x0003f948                uatoin
                0x0003f9c8                getKMGTB
                0x0003fb50                ueditFILESZ
                0x0003fdc4                ueditLONGHANDLE
                0x0003ffcc                ueditKMG
 .text          0x000400d8     0x2890 ../ulib/libuserxe.a(libuserxe_a-uedit2.o)
                0x000400d8                uedit2
                0x000400f0                uasciidump
                0x0004030c                uasciidump_utf
                0x000405c4                uucsdump
                0x00040910                ub2x
                0x00040a40                ueditfattr
                0x00040e18                ueditfattrspf
                0x00040eec                ueditfattr_mdos
                0x0004106c                uxdumpline
                0x00041a6c                xdlputs
                0x00041b18                ugetdtparm
                0x00041c14                ugetdateparm
                0x00041c88                ugettimeparm
                0x00041cfc                ueditgetftnum
                0x00041fcc                ueditsetfdateUSHORT
                0x00042060                ueditsetfdate
                0x00042140                ueditsetftimeUSHORT
                0x000421d4                ueditsetftime
                0x000422cc                uxdumpstr
                0x000424f4                ueditNowFileTime
                0x00042624                ueditescrep
 .text          0x00042968     0x29f8 ../ulib/libuserxe.a(libuserxe_a-uerr.o)
                0x00042968                uerr
                0x00042980                ubell_init
                0x000429c0                ubell_init2
                0x000429f0                ubell
                0x00042b08                uerrexit_init
                0x00042bd0                uerrexit_optinit
                0x00042c00                uerrsetopt2
                0x00042c64                uerrexit
                0x00042e5c                uerrmsg_init
                0x0004303c                uerrmsg
                0x0004324c                uerrmsg2
                0x000433cc                uerrmsgcat
                0x000434d8                uerrsprintf
                0x000435c4                uerrfprintfutf
                0x00043a30                uerrhelpmsg
                0x00043f1c                uerrscrheight
                0x00043fcc                useterrmsg
                0x00044040                ugeterrmsg
                0x0004408c                ugeterrmsg2
                0x000440cc                uerrmsgedit
                0x00044a60                uconfirmmsg
                0x00044d78                uerrornomsg
                0x00044da0                ugeterrdescription
                0x00044e24                uerrapi1
                0x00044e6c                uerrapi1x
                0x00044eb0                uerrapi0
                0x00044eec                uerrapi0x
                0x00044f24                uerrapi1t
                0x00044f94                uerrapi1nt
                0x00044fe8                uerrapi1tx
                0x00045054                uerrapi0t
                0x000450bc                uerrapi0tx
                0x00045120                uerrnotsupported
                0x00045164                uerrmsg_initstart
                0x00045228                uerrmsg_initstack
                0x0004528c                uerrmsg_initcomp
 .text          0x00045360      0xec0 ../ulib/libuserxe.a(libuserxe_a-ufemsg.o)
                0x00045360                ufemsg
                0x00045378                ufilenotfound
                0x000453b4                ufilenotfoundotherexist
                0x000453f0                ufilepatherr
                0x0004542c                ufileapierr
                0x00045474                ufileapierr_str
                0x000454cc                ufiledelpath
                0x00045508                ufilereadonly
                0x00045544                ufilereadonly2
                0x00045584                ufiledeleted
                0x000456b4                ufileshare
                0x000456f0                ufileexist
                0x0004572c                ufileexistcopy
                0x00045768                ufileexist2
                0x000457ac                ufileexistdir
                0x000457e8                ufilenotdir
                0x00045824                ufilediskfull
                0x00045868                ufilewildtarget
                0x0004589c                ufilewildcarderr
                0x000458d0                ufilewildpatherr
                0x00045904                ufileroot
                0x00045940                ufileapierr2
                0x00045994                ufiledirna
                0x000459e0                ufileerrdir
                0x00045a1c                ufilenotvfat
                0x00045a44                ufilenopermission
                0x00045a88                ufileslinkloop
                0x00045ae0                ufileerrspecialfile
                0x00045b1c                ufileerrnotnormal
                0x00045b58                ufileerrdir2file
                0x00045b88                ufileerrnoentry
                0x00045bc0                ufileerrnofileentry
                0x00045bf8                ufileTooLongFullpathName
                0x00045c50                ufileTooLongFullpathName2
                0x00045db0                ufileeditsz
                0x00046148                ufileslinktargeterr
                0x0004618c                ufileopenerrInvalidargument
                0x000461e8                ufileErrInvalidName
 .text          0x00046220     0x3508 ../ulib/libuserxe.a(libuserxe_a-ufile.o)
                0x00046220                ufile
                0x00046238                ufullpathwildexp
                0x000468ec                ufullpathresolvespecialdirid
                0x00046aa8                ufilegetpathdir
                0x00046c94                udirlistnomsg
                0x00046cf4                udirlist
                0x00046ea8                udirlistsub
                0x0004739c                udirlist_set_slinkname
                0x000474f0                ufile_udirlist_copy
                0x0004774c                ufile_udirlist_swap
                0x00047930                ufile_udirlist_alloc1
                0x000479c4                ufile_udirlist_free
                0x00047ac0                udircompare_pointer
                0x00047b30                udirlistsort
                0x00047cf4                udircomp
                0x00047d38                udircompare
                0x000487b8                udircompsub
                0x000488e0                uredirect
                0x00048d28                uredirectrestore
                0x00048e44                ufdateedit
                0x00049184                uftimeedit
                0x000493bc                uftimeedit_1sec
                0x00049418                udirlist_chk_max_entry
                0x00049480                udirlist_setname
                0x0004965c                udirlist_setname_cat
 .text          0x00049728     0x1b00 ../ulib/libuserxe.a(libuserxe_a-ufile1f.o)
                0x00049728                uftpfstat
                0x00049a48                uftpwinchk
                0x00049b74                uftpfullpathnorid
                0x00049bd4                uftpfullpath
                0x0004a29c                uftppathlen
                0x0004a2ec                uftpgetcwd
                0x0004a3ec                uftpgethome
                0x0004a46c                uftpgethomesub
                0x0004a640                uftpchdir
                0x0004a80c                uftpchdirsub
                0x0004a9dc                uftplchdirrespchk
                0x0004abe8                uftpdirlistsub
                0x0004afc8                uftpfindfirst
                0x0004b118                uftpfindfirstfile
                0x0004b1a0                uftpfindnext
 .text          0x0004b228     0x4344 ../ulib/libuserxe.a(libuserxe_a-ufile1l.o)
                0x0004b228                ufstat
                0x0004ba98                ufilechkwildmultiple
                0x0004bd34                ufstat_wild
                0x0004bdc4                ufilefscomp
                0x0004be3c                ufilegetfsid
                0x0004bf1c                ufilegetftime
                0x0004c02c                ufullpath
                0x0004ca34                upathlen
                0x0004ca84                ugetcwd
                0x0004cab0                uchdir
                0x0004cbdc                udosfindfirstnomsg
                0x0004cc4c                udosfindfirst
                0x0004d3c8                udosfindnext
                0x0004d438                udosfindnextmsg
                0x0004d83c                ufilelnxwildselect
                0x0004d8a8                ufilelnxattrselect
                0x0004da80                ufilelnxgetmembfstat
                0x0004dcac                ufilelnxsavehdir
                0x0004dddc                ufilelnxsrchhdir
                0x0004dee4                ufilelnxclosehdir
                0x0004e024                ufilemode2attr
                0x0004e1d0                ufilemktime
                0x0004e288                ufilerepwildname
                0x0004e388                errwildname
                0x0004e590                filesrchmountpoint
                0x0004e768                filegetdevt
                0x0004e9ec                filegetdevicename
                0x0004eb98                filegetdevicemntent
                0x0004ecb8                filegetmntent
                0x0004ee8c                filegetmntoption
                0x0004eff0                ufilegetiocharset
                0x0004f0f4                ufilefnmcvcs
                0x0004f338                ufullpathCP
 .text          0x0004f56c     0x1f08 ../ulib/libuserxe.a(libuserxe_a-ufile1l2.o)
                0x0004f56c                mtoolsinit
                0x0004f598                ufstat_mdos
                0x0004fae4                ufilegetmdosattr
                0x0004fbe8                uopendir_mdos
                0x0004fee4                ureaddir_mdos
                0x00050128                ufilegetmdosdl
                0x00050688                ufilegetmdosattrlist
                0x00050880                ugetcwd_mdos
                0x000509fc                uchdir_mdos
                0x00050a98                ustatfs_mdos
                0x00050cd8                uminfo
                0x00050fb4                ufilegetnum
                0x000510b8                ufilemdoscmd
                0x00051310                ufilemdoserrchk
 .text          0x00051474     0x4588 ../ulib/libuserxe.a(libuserxe_a-ufile2.o)
                0x00051474                ufile2
                0x0005148c                uxddpchk
                0x000518dc                uxddsub
                0x0005212c                uxdelete
                0x00052eac                ufilewildxdel
                0x000530e0                uxdelsub
                0x00053a88                uremovenomsg
                0x00053adc                uremove
                0x00053d3c                urenamenomsg
                0x00053d94                urename2
                0x00053dec                urename
                0x000544f0                ufilewildrename
                0x00054528                uwildfunc
                0x00054924                ufilecdirchk
                0x00054cbc                ufilespfnchk
                0x00054ce4                wildchk
                0x00054e7c                ufilechkwildmemb
                0x00054fac                ufilechkwildname
                0x00055140                ufileopenexclusivewrite
                0x000551fc                ufiledelifnotopened
                0x000552d8                ufile2quietmsg
                0x00055408                ugetmoveavailablepath
                0x000558f4                uwildfunc_LongName
 .text          0x000559fc     0x47cc ../ulib/libuserxe.a(libuserxe_a-ufile2f.o)
                0x000559fc                uftpmkdir
                0x00055ff4                uftprmdir
                0x00056400                uftpremove
                0x00056844                uftprename
                0x00056bf0                uftprenamesub
                0x00056fc4                uftpwildrename
                0x00057014                uftpattrib
                0x00057320                uftpattrxon
                0x00057368                uftpattrxchk
                0x00057540                uftpgetftime
                0x00057694                uftpgetftime_1sec
                0x0005780c                uftpsetftime
                0x00057884                uftpsetftime2
                0x000578fc                uftpcopypathinfo
                0x00057a24                uftpsetown
                0x00057a9c                uftpsetmod
                0x00057f7c                uftpwildfunc
                0x000581a8                uftpwildfunc2
                0x00058520                uftpmultidel
                0x00058638                uftpmultirename
                0x00058750                uftpwildxdel
                0x00058a8c                uftpmultidelsub
                0x00058c18                uftpmultirenamesub
                0x00058e58                uftpbypassreason
                0x00058ee4                uftpxdelrchk
                0x000592f0                uftpmultidelrchk
                0x0005958c                uftpmultirenamerchk
                0x00059834                ufile2putstmt
                0x00059974                uftpnotsupported
                0x000599cc                uftpnotsupportedforlocal
                0x00059a24                uftpdelsubdir
                0x00059ca4                ufile3xdeleteinit
                0x00059d30                uxdelsubftp
                0x0005a180                errtoolongname
 .text          0x0005a1c8     0x19d8 ../ulib/libuserxe.a(libuserxe_a-ufile2l.o)
                0x0005a1c8                umkdir
                0x0005a234                umkdirmode
                0x0005a568                urmdir
                0x0005aa0c                uattrib
                0x0005ad58                uattrxon
                0x0005add0                uattrxchk
                0x0005afb0                ugetftime
                0x0005b0e8                ugetftime_1sec
                0x0005b268                usetftime
                0x0005b3e4                usetftime_1sec
                0x0005b440                usetftime2
                0x0005b59c                ucopypathinfo
                0x0005b9a8                ufilesetown
                0x0005baa0                ufilesetmod
 .text          0x0005bba0      0xbc8 ../ulib/libuserxe.a(libuserxe_a-ufile2l2.o)
                0x0005bba0                umkdir_mdos
                0x0005bc6c                urmdir_mdos
                0x0005bd80                uattrib_mdos
                0x0005bf84                uremove_mdos
                0x0005c098                urename_mdos
                0x0005c130                ucopy_mdos
                0x0005c3c4                uappend_mdos
                0x0005c70c                ufilemdoscopyerr
 .text          0x0005c768     0x4dd0 ../ulib/libuserxe.a(libuserxe_a-ufile3.o)
                0x0005c768                ufile3
                0x0005c780                invalidtargetfilename
                0x0005c7b8                uxcopy
                0x0005d6a8                ufilecreateparmproc
                0x0005de14                ufilecpymvflags
                0x0005e0e0                ufilewildcopy
                0x0005e380                ucopysub_slinktarget
                0x0005e520                ucopysub_slink
                0x0005e818                ucopysub
                0x0005ef3c                udoscopy
                0x0005f2f4                uxmove
                0x0005fd0c                ufilewildmove
                0x0005fe9c                umovesub_slink
                0x000605d8                umovesub
                0x00060d08                ufilecopytschk
                0x00060e20                ufilechkslinkpath
                0x00061068                ufilegetslinkfinaltarget
                0x000611f0                ufilesymlink
                0x00061274                ufilesymlink_copyfiletime
                0x0006136c                ufilesymlink_copy
                0x00061418                ufileerrdirandfile
                0x00061458                ufileerrslinktarget
                0x0006149c                ufileerrslinkappend
                0x000614dc                ufileerrnotargetslink
 .text          0x00061538     0x539c ../ulib/libuserxe.a(libuserxe_a-ufile3f.o)
                0x00061538                uftpxmove
                0x00061700                uftpxcopy
                0x000619f8                uftpxcopyr2r
                0x00061c7c                uftpupload
                0x0006231c                uftpdownload
                0x0006296c                uftptargetflag
                0x00062cf4                uftpsourceflag
                0x000630ac                uftps2tchk
                0x000636a0                uftpcreateparmproc
                0x00063ae4                uftpmoveparmproc
                0x00063d98                uftpupdownctl
                0x0006469c                uftpgetdirlist
                0x00064770                uftpexistchk1
                0x000649cc                uftpexistchkm
                0x00064f2c                uftpcopycallback
                0x00065750                uftpcopyrchk
                0x00065ee4                uftpputstmt
                0x00066028                uftpputstmt2
                0x000661c8                uftpcopyftime
                0x00066514                ufileftpcopytschk
                0x00066750                uftpmktdir
                0x000667b0                uftperrsourceisroot
                0x000667d8                uftperrtargetisnotdir
                0x0006680c                uftperrdir2file
                0x0006684c                uftpfileanddir
                0x00066898                uftpappenddir2dir
 .text          0x000668d4     0x2acc ../ulib/libuserxe.a(libuserxe_a-ufile4.o)
                0x000668d4                ufile4
                0x000668ec                utempnam
                0x00066bcc                utempnamd
                0x00066c24                ufgetpos
                0x00066c54                udirwalk
                0x0006738c                udirwalksub
                0x0006843c                ufileslinkoutoflinkchk
                0x000688dc                ufileslinkloopchk
                0x00068d80                ufileslinkloopchk2
                0x00068e90                ugetdiskfree
                0x00069024                ufileisvfat
                0x00069058                ufileisntfs
                0x0006907c                ufileisvfatMounted
                0x000690fc                ufileisntfsMounted
                0x0006917c                ufileisMSMounted
                0x00069228                ufsetlock
                0x00069290                uflock
 .text          0x000693a0     0x4e20 ../ulib/libuserxe.a(libuserxe_a-ufile5.o)
                0x000693a0                ufile5
                0x000693b8                ufgetsinit
                0x000697d4                ufgetscurpos
                0x000697fc                ufgets_setcurpos
                0x00069880                ufgets
                0x00069c44                ufgetssub
                0x0006a22c                ufgetsbinchk_utf8
                0x0006a504                ufgetsbinchk_ebc
                0x0006a724                ufgetsbinchk
                0x0006abdc                isSameU8c
                0x0006ae24                udoseditname
                0x0006b6e8                ufileeditname
                0x0006bbb0                ufilewildcomp
                0x0006bf30                ufilewildcompsub
                0x0006c100                ufilecomp
                0x0006c5d8                ufilecomptextmode
                0x0006c980                ufilecomptextmodefixed
                0x0006cc0c                ufilecomptextmodesub
                0x0006cd50                ufreads
                0x0006d030                ufgetsVHeader
                0x0006d2b8                ufgetsVRecord
                0x0006d5b0                ufgetsV
                0x0006d830                ufile5chkvfmt
                0x0006d990                ufile5getVfmtstr
                0x0006da54                ufseek
                0x0006da90                uftell
                0x0006dac0                fileeditname_copypath
                0x0006e0dc                fileeditname_copypath_err
                0x0006e140                filetouch
 .text          0x0006e1c0     0x4f50 ../ulib/libuserxe.a(libuserxe_a-uftp.o)
                0x0006e1c0                uftpfstatroot
                0x0006e268                uftplshome
                0x0006e3d0                uftpfstatudl
                0x0006e714                uftpisexist
                0x0006e830                uftpopendir
                0x0006ee08                uftpreaddir
                0x0006ef6c                uftpattrselect
                0x0006f134                uftpgetslinkattr
                0x0006f514                uftpdirlistslink
                0x0006fb04                uftpsortslink
                0x0006fb5c                uftpslinkcomp
                0x0006fbe0                uftpslinklscmd
                0x0006ff18                uftplsoutchk
                0x0007028c                uftpmodtimerchk
                0x00070768                uftpmodtimeerr
                0x000707bc                uftplsoutchkslinkerrskip
                0x000708e8                uftplsoutchkslink
                0x000709e8                uftpsavehdir
                0x00070b30                uftpsrchhdir
                0x00070bdc                uftpclosehdir
                0x00070c40                uftpmode2attr
                0x00070dbc                uftpudl2ffb3
                0x00070f6c                uftpgetpathname
                0x00071034                uftpnodesrch
                0x000710e4                uftpnodeadd
                0x0007119c                uftpnodedel
                0x000711f8                uftpnodeclear
                0x00071214                uftpgethostqhaddr
                0x00071234                uftphoststbinit
                0x00071554                uftpgethostsdata
                0x000725c0                uftgetstringopd
                0x00072840                uftpipachk
                0x00072a60                uftpgetportno
                0x00072aec                uftpisremote
                0x00072c78                uftpisrootdir
                0x00072cfc                uftphostscrypt
                0x00072fd8                uftptempnam
                0x00073034                uftp_mempswd
                0x000730cc                uftp_udirlist_setname
 .text          0x00073110     0x2c2c ../ulib/libuserxe.a(libuserxe_a-uftp2.o)
                0x00073110                uftpinit
                0x00073260                uftpterm
                0x000732a8                uftplog
                0x0007367c                uftpnodeinit
                0x00073864                uftpcmd
                0x00073f9c                uftpcmdrespchk
                0x000740a8                uftpcmdresphdrchk
                0x000741d0                uftpcmdsrchrespid
                0x00074430                uftpsimplerespchk
                0x00074508                uftpnextstdo
                0x000745d8                uftpsrchfname
                0x000747a0                uftpsrchfnameslink
                0x00074a28                uftpgetdl
                0x00074d48                uftpgetdl1
                0x00075450                uftpgetmode
                0x00075798                uftpgetdlftime
                0x0007593c                uftpgetmonth
                0x000759b8                uftpgetwday
                0x00075a30                uftpajustjst
                0x00075c8c                uftpmktempwd
                0x00075cd8                uftpdeltempwd
 .text          0x00075d3c     0x5ab0 ../ulib/libuserxe.a(libuserxe_a-uftp3.o)
                0x00075d3c                uftp3setssh
                0x00075ffc                uftp3editpsftpcmd
                0x0007613c                uftp3cmdrespchk
                0x00076258                uftp3cmdresphdrchk
                0x000763ac                uftp3srchcmdecho
                0x00076500                uftp3gethomesub
                0x00076660                uftp3simplerespchk
                0x000767cc                uftp3simplerespchkOK
                0x00076968                uftp3simplerespchkCHNG
                0x00076af8                uftp3lchdirrespchk
                0x00076b64                uftp3getputrespchk
                0x00076c80                uftp3cdrespchk
                0x00076dbc                uftp3setsmb
                0x00076e78                uftp3smb_setcmd
                0x000772f8                uftp3smb_editcmdline
                0x000775b0                uftp3smb_nodeinit
                0x0007765c                uftp3smbcmd
                0x000776e0                uftp3smb_cmd
                0x00077be8                uftp3smb_chkstatuserr
                0x00077e30                uftp3smb_srchresp
                0x00078058                uftp3smb_stderrlog
                0x000780d0                uftp3smb_getdltime
                0x00078274                uftp3smb_getdltimestat
                0x000783c4                uftp3smb_setdltime
                0x000784f4                uftp3smb_getmode
                0x00078724                uftp3smb_getdirlistctr
                0x0007876c                uftp3smb_getdl1
                0x000789e0                uftp3smb_fstatudl
                0x00078cf0                uftp3smb_fstatudl_byls
                0x00078f20                uftp3smb_fstatudl_byls_root
                0x000791bc                uftp3smb_lsoutchk
                0x00079340                uftp3smb_getdlattr
                0x00079438                uftp3smb_fstatdircallback
                0x000796d8                uftp3smb_fstatdirrchk
                0x00079b20                uftp3smb_fstatoutchk
                0x0007a024                uftp3smb_putstmt
                0x0007a5cc                uftp3smb_respchk_srchnext
                0x0007a904                uftp3smb_respchk
                0x0007ad2c                uftp3smb_lchdirrespchk
                0x0007ad7c                uftp3smb_strfname
                0x0007b02c                uftp3smb_enclosefnm
                0x0007b16c                uftp3smb_editcmdparm
                0x0007b30c                uftp3smb_dirnameforlist
                0x0007b3dc                uftp3smb_mode2attr_winsub
                0x0007b46c                uftp3smb_mode2attr_win
                0x0007b4bc                uftp3smb_strattr
                0x0007b5a4                uftp3smb_setmod_win
 .text          0x0007b7ec      0x4b0 ../ulib/libuserxe.a(libuserxe_a-ugcclib.o)
                0x0007b7ec                strupr
                0x0007b854                strlwr
                0x0007b8bc                memicmp
                0x0007b988                stricmp
                0x0007ba18                itoa
                0x0007baac                kbhit
                0x0007bac4                getch_nc
                0x0007bae4                getche
                0x0007bb04                spawnvp
                0x0007bb5c                spawnv
 .text          0x0007bc9c     0x1d30 ../ulib/libuserxe.a(libuserxe_a-ukbdl.o)
                0x0007bc9c                ukbdpeek
                0x0007bcc8                ukbdcharin
                0x0007be70                ukbdl_init
                0x0007bf5c                ukbdl_term
                0x0007bf74                ukbdl_setkbmode
                0x0007bffc                ukbdl_shellmode
                0x0007c108                ukbdl_setgetchmode
                0x0007c1c8                ukbdl_tcgetattr
                0x0007c268                ukbdl_tcsetattr
                0x0007c30c                ukbdl_getch_init
                0x0007c360                ukbdl_getche_init
                0x0007c3b4                ukbdl_getch_term
                0x0007c400                ukbdl_getche_term
                0x0007c44c                ukbdl_kbhit
                0x0007c49c                ukbdl_getch
                0x0007c53c                ukbdl_getche
                0x0007c5dc                ukbdl_gettermid
                0x0007c720                ukbdl_gettermsim
                0x0007cc58                ukbdl_editstring
                0x0007cd20                ukbdsetstatus
                0x0007cdd8                ukbdl_wcinit
                0x0007ced8                ukbdl_readutf8
                0x0007d4cc                ukbdl_readdbcs
                0x0007d7d4                ukbd_simutf8_f2l
 .text          0x0007d9cc     0x8020 ../ulib/libuserxe.a(libuserxe_a-ukbdlnxc.o)
                0x0007d9cc                ukbdlnxc_gettbl
                0x0007da68                ukbdlnxc_init
                0x0007dc18                ukbdlnxc_term
                0x0007dc94                ukbdlnxc_getnext
                0x0007dd1c                ukbdlnxc_read
                0x0007ded0                ukbdlnxc_readkbd
                0x0007ed64                ukbdlnxc_optproc
                0x0007eee0                ukbdlnxc_setupckt
                0x0007f5a4                ukbdlnxc_setupcktsub
                0x0007f810                ukbdlnxc_setupcktx
                0x00081ecc                cktovferr
                0x00081f48                ukbdlnxc_addstrtbl
                0x00082220                ukbdlnxc_dupstrchk
                0x0008257c                ukbdlnxc_cleanup
                0x00082604                ukbdlnxc_termexit
                0x00082638                ukbdlnxc_getplainsym
                0x0008290c                ukbdlnxc_chkothersym
                0x00082978                ukbdlnxc_xbsdel
                0x00082a7c                ukbdlnxc_delopt
                0x00082b60                ukbdlnxc_setfunckey
                0x00082d44                ukbdlnxc_setfuncstr
                0x00083128                ukbdlnxc_setcompose
                0x000831c0                ukbdlnxc_getkeysym
                0x000832a0                ukbdlnxc_setkeysym
                0x00083380                ukbdlnxc_getstring
                0x00083450                ukbdlnxc_setstring
                0x00083548                ukbdlnxc_getdiacr
                0x000835f4                ukbdlnxc_setdiacr
                0x000836a0                ukbdlnxc_setmetamode
                0x000838ac                ukbdlnxc_getconsole
                0x00083a30                ukbdlnxc_getptty
                0x00083b6c                ukbdlnxc_open
                0x00083bf4                ukbdlnxc_chkconsole
                0x00083c1c                ukbdlnxc_save1st
                0x00083fb8                ukbdlnxc_restorelast
                0x00084574                ukbdlnxc_lockfwrite
                0x000845f8                ukbdlnxc_lockfread
                0x0008467c                ukbdlnxc_pidsetlock
                0x00084768                ukbdlnxc_pidresetlock
                0x00084808                ukbdlnxc_pidchklock
                0x000848c0                ukbdlnxc_chngttkey
                0x0008548c                ukbdlnxc_setrctl
                0x000855c0                ukbdlnxc_setrctlstr
                0x000859c4                uttyname
 .text          0x000859ec      0x848 ../ulib/libuserxe.a(libuserxe_a-ukbdlnxm.o)
                0x000859ec                ukbdlnxm_mouseopt
                0x00085afc                ukbdlnxm_mouseinit
                0x00085b64                ukbdlnxm_mouseterm
                0x00085bc4                ukbdlnxm_getmouse
                0x0008601c                clickchk
 .text          0x00086234     0x22e0 ../ulib/libuserxe.a(libuserxe_a-uparse.o)
                0x00086234                uparsein
                0x000864dc                uparseindir
                0x00086650                uparsev
                0x00086818                uparse2
                0x00086954                uparse
                0x0008765c                uparsefname
                0x000877e8                uparsecmd
                0x00087f58                uparsecmdin
                0x000881b0                uparsegetopt
 .text          0x00088514     0x3754 ../ulib/libuserxe.a(libuserxe_a-uproc.o)
                0x00088514                usystem2
                0x00088650                usystem
                0x00088764                uspawnl
                0x00088890                uspawnlp
                0x000889bc                uspawnvp
                0x00088ab8                uprocopt
                0x00088b84                uspawnrc
                0x00088dac                uprocerrmem
                0x00088de8                uprocerrnotf
                0x00088e24                uexecchk
                0x0008922c                uextdirsrch
                0x0008926c                ucmdnmcomp
                0x000893e8                ugetexepath
                0x0008940c                uproc_getpsinfo
                0x00089964                uproc_srchpsinfo
                0x00089af4                uproc_freepsinfo
                0x00089b64                usystem_redirect
                0x00089e4c                uspawn_redirect
                0x0008a224                uproc_redirectoutchk
                0x0008aba0                uspawnvp_pipe
                0x0008aff4                uspawnvp_pipeclose
                0x0008b0c0                usystem_cmdserverinit
                0x0008b164                usystem_cmdserverterm
                0x0008b2a0                usystem_cmdserversetup
                0x0008b710                usystem_cmdtocmdserver
                0x0008b79c                usystem_cmdserverreq
                0x0008bba8                usystem_cmdserverreqwithoutbuff
                0x0008bc3c                usystem_pidalivechk
 .text          0x0008bc68     0x142c ../ulib/libuserxe.a(libuserxe_a-uproc2.o)
                0x0008bc68                uprocparseredirect
                0x0008c070                uproc_rsh
                0x0008c790                uproc_redirectrewrite
                0x0008c8b8                uproc_rshlog
                0x0008c988                ugetpid
                0x0008c9d4                uprocredirectchk
                0x0008ca24                uproc_loaddllpath
                0x0008cc8c                uproc_loaddll
                0x0008ce3c                uproc_getdllproc
                0x0008cf28                uproc_freedll
                0x0008cf84                uproc_getprocaddr
 .text          0x0008d094     0x11dc ../ulib/libuserxe.a(libuserxe_a-uproc4.o)
                0x0008d094                uproc_shcmd
                0x0008d19c                uproc_shserverinit
                0x0008d240                uproc_shserverterm
                0x0008d318                uproc_shserversetup
                0x0008d7d8                uproc_shserverreq
                0x0008dc1c                uproc_srchprocessw
                0x0008dce0                uproc_srchprocess
                0x0008ddc4                uproc_select
                0x0008e188                uproc4_fdset
                0x0008e1f8                uproc4_fdisset
 .text          0x0008e270      0x9d4 ../ulib/libuserxe.a(libuserxe_a-uque.o)
                0x0008e270                uque
                0x0008e288                uenq
                0x0008e55c                udeq
                0x0008e838                uqscan
                0x0008e95c                uqfree
                0x0008e9b4                uqufree
                0x0008ea0c                uenqchain
                0x0008eb24                uenqent
                0x0008ebc4                uqhmove
 .text          0x0008ec44      0x274 ../ulib/libuserxe.a(libuserxe_a-ustrcpy.o)
                0x0008ec44                ustring_memcpy
                0x0008ed00                ustring_strncpy
                0x0008ee20                ustring_strcpy
 .text          0x0008eeb8     0x2778 ../ulib/libuserxe.a(libuserxe_a-ustring.o)
                0x0008eeb8                ustring
                0x0008eed0                ustrnchr
                0x0008ef58                ustrnpbrk
                0x0008f034                ustrnspn
                0x0008f130                ustrrspn
                0x0008f1d0                ustrnrspn
                0x0008f280                umemrspn
                0x0008f338                umemspnc
                0x0008f3c4                umemspn_spacetab
                0x0008f454                umemrspnc
                0x0008f4e4                ustrnstr
                0x0008f5ec                ustrrstr
                0x0008f67c                ustrnrstr
                0x0008f768                ustrstri
                0x0008f8c0                ustrnstri
                0x0008f9b4                ustrrstri
                0x0008fa44                ustrnrstri
                0x0008fb30                ustrnrchr
                0x0008fc24                umemchr_utf
                0x0008fdc0                ustrchr2
                0x0008ff08                ustrnchr2
                0x0008ff54                umemchr2
                0x00090094                ustrrchr2
                0x000901d4                ustrnrchr2
                0x00090220                umemrchr2
                0x00090334                umemrchr
                0x000903b4                umempbrk
                0x00090480                umemrpbrk
                0x00090550                ustrnlen
                0x000905a4                umemstr
                0x000905e8                umemstri
                0x0009062c                umemrstr
                0x00090670                umemrstri
                0x000906b4                umemmem
                0x000907a4                umemmemi
                0x000909a4                umemrmem
                0x00090a9c                umemrmemi
                0x00090c80                ustrncpyz
                0x00090d24                uispunct
                0x00090dec                uispunctdbcs
                0x00090ff8                ustrdup
                0x000910c4                umemtrim
                0x00091310                umemicmpdbcs
                0x0009140c                umemstridbcs
                0x0009152c                umemrstridbcs
 .text          0x00091630       0x70 ../ulib/libuserxe.a(libuserxe_a-utf.o)
                0x00091630                utf_init
 .text          0x000916a0     0x5ba0 ../ulib/libuserxe.a(libuserxe_a-utf2.o)
                0x000916a0                umbtowc
                0x0009175c                utfpos2offs
                0x000919ec                utfctr2offs
                0x00091d04                utfstrchkmbr2wc
                0x00092184                utfcvf2u
                0x0009268c                utfcvl2fmix
                0x00092964                utfcvl2f
                0x00093030                utfcvl2ftab
                0x000931ec                utfsetdbcstbl
                0x000934f0                utfisvalidutf8
                0x000935f4                utfgetstrwidth
                0x000936bc                utfisvalidutf8char
                0x0009384c                utfstrvalidate
                0x000939b8                utfgetutf8strlen
                0x00093b30                utfsplitchk
                0x00093d54                utfcvl2fany
                0x000945dc                utfcvf2l1
                0x000947c4                utfcvf2l
                0x00094c60                utfcvf2lany
                0x000951fc                utfcvl2fany1
                0x00095460                utfcvl2fany1mb
                0x000955c4                utfcvl2uany1mb
                0x00095768                utfcvf2lany1
                0x00095b78                utfcvf2lany1mb
                0x00095cfc                utfcvu2lany1mb
                0x00095e60                utfcvlocaleinit
                0x0009608c                utfcvsetdefaultlocale
                0x000961fc                utfcvsetparmlocale
                0x00096358                utfgetcharset_std
                0x00096684                utfgetcharset
                0x000968a8                utflocalechk
                0x00096928                utfcvlocaleopen
                0x00096a40                utfcvlocaleclose
                0x00096a6c                utfcvlocaletclose
                0x00096aac                utfcviconvdbcschk_topbyte
                0x00096be8                utfcviconvdbcschk1
                0x00096d54                utfcvlocaleinitICU
                0x00096dbc                utfcvf2lany1ICU
                0x00096f38                utfcvl2fany1ICU
                0x000970dc                utfcvsetdefaultlocaleICU
                0x00097120                utflocalechkICU
                0x00097188                utfgetstrlenHK
 .text          0x00097240     0x7bb0 ../ulib/libuserxe.a(libuserxe_a-utf22.o)
                0x00097240                utfwwapichk
                0x000974a8                utfddflag2sbcsid
                0x00097540                utfddgetlenflag
                0x00097800                utf22_mapwidth0_rounddown
                0x0009793c                utf22_mapwidth0
                0x00097b54                utfucsmapinit
                0x00098064                utf22setworkdir
                0x000981fc                utf22versionchk
                0x000983f4                utfucsloadmap
                0x000985ec                utfucssavemap
                0x00098780                utfucsmapinit_remap
                0x00098b10                utfucsmapmodify
                0x00098c88                utfmapucs2dd
                0x00098d40                utfmapdd2ucs
                0x00098dc4                utfddsetsbcs
                0x00098e8c                utfddgetsbcs
                0x00098ef0                utfgetwcw
                0x00099030                utfcvu2dd1w
                0x000992fc                utfcvu2dd1
                0x000993f8                utfcvf2dd
                0x000996e4                utfdd2u1
                0x00099750                utfdd2u1vio
                0x0009982c                utfdd2u1chsz
                0x00099a20                utfdd2u
                0x00099f4c                utfucs42utf16
                0x0009a118                utfddgetucsctr
                0x0009a294                utfu2dd
                0x0009a4a8                utfddcmp
                0x0009ada4                utfddicmp
                0x0009aee8                utfcvdd2f
                0x0009b57c                utfchkdd
                0x0009b664                utfddisasciistr
                0x0009b7d8                utfddissbcsstr
                0x0009b890                utfddasciilen
                0x0009b8d8                utfddpos2offs
                0x0009bb10                utfddoffs2pos
                0x0009be44                utfddispunct
                0x0009c03c                utfddmemspnc
                0x0009c140                utfddmemrspnc
                0x0009c260                utfddstrnlen
                0x0009c348                utfddstrlen
                0x0009c3f8                utfddstrnspn
                0x0009c480                utfddmemspn
                0x0009c5b4                utfddmemrspn
                0x0009c6ec                utfddmemchr
                0x0009c81c                utfddmemchr_nonascii
                0x0009c910                utfddmemrchr
                0x0009c9f8                utfddmemrchr_nonascii
                0x0009caa8                utfddmempbrk
                0x0009cb88                utfddmempbrk_nonascii
                0x0009cc8c                utfddmemrpbrk
                0x0009cd88                utfddmemrpbrk_nonascii
                0x0009cea8                utfddcmpdbcstab
                0x0009cfb8                utfddmemmem
                0x0009d23c                utfddmemrmem
                0x0009d328                utfddnumlen
                0x0009d5ec                utfddgetdbcslr
                0x0009d72c                utfddgetcsrposbca
                0x0009dac0                utfgetvisiblealtch
                0x0009de84                utfgetvisiblealtchprint
                0x0009df20                utf_setsubchar_dbcs
                0x0009e124                utf_subcharcmp
                0x0009e2a0                utfmemrchrDD
                0x0009e35c                utfmemchrDD
                0x0009e438                isASCIIstr
                0x0009e4a0                isPrintableASCIIstr
                0x0009e518                isPrintableASCIImem
                0x0009e5a4                utf22_setunpucsvio
                0x0009e6e0                utf22_setdbcsspacealt
                0x0009e79c                utfsetvisiblealtch
                0x0009e8f4                utf22_iswidth0Ovf
                0x0009e9e8                utf22_iswidth0DBCS
                0x0009eac0                utf_iswidth0
                0x0009ec00                utf_iscombinable
                0x0009ed3c                utf_iscombining
 .text          0x0009edf0     0x178c ../ulib/libuserxe.a(libuserxe_a-utf3.o)
                0x0009edf0                utfmb2wc
                0x0009f04c                utfwcwidth
                0x0009f2d8                utfwcwidthNoMap
                0x0009f478                utfwcwidthsub
                0x0009f6b8                utfwcwidthsubNoMap
                0x0009f8e4                utfiswide
                0x0009f91c                utfisprint
                0x0009fb20                utfgetwc
                0x0009fbbc                utftbinit
                0x000a0134                utftbfhelp
                0x000a0154                utftbterm
                0x000a01a8                utftbsrch
                0x000a0324                utftbsrch_jeuc
                0x000a0390                utftbsrch_cjk
                0x000a04d8                utf3_wcwidthXXE
 .text          0x000a057c      0xad0 ../ulib/libuserxe.a(libuserxe_a-utf4.o)
                0x000a0680                mk_wcwidth_combining
                0x000a06cc                mk_wcwidth
                0x000a0990                mk_wcwidth_cjk
                0x000a0acc                mk_wcswidth_cjk
                0x000a0b64                mk_wcwidth_adjsbcs
                0x000a0d64                utf4_isSpacingCombiningMark
                0x000a0e20                utf4_isAmbiguous
                0x000a0f2c                utf4_isAmbiguous_XXE
                0x000a0fac                utf4_isFormat
                0x000a1000                mk_wcwidth_combining2SCM
 .text          0x000a104c     0x1754 ../ulib/libuserxe.a(libuserxe_a-utrace.o)
                0x000a104c                utrace_initmt
                0x000a10a8                utrace_init
                0x000a130c                utracepop
                0x000a1478                utracepopf
                0x000a162c                utracepnop
                0x000a164c                utrace_ebc
                0x000a1744                utrace
                0x000a1b28                utracectime
                0x000a1d4c                utraceopen_force
                0x000a1f1c                utraceocmsg_force
                0x000a26c0                utrace_term
 .text          0x000a27a0      0x5b8 ../ulib/libuserxe.a(libuserxe_a-uunxsub.o)
                0x000a27a0                ugetugid
                0x000a2844                ugetusername
                0x000a28dc                ugetgroupname
                0x000a2974                usrchugname
                0x000a29e0                uaddugname
                0x000a2ad4                unc_setupterm
                0x000a2b48                unx_fsetlock
                0x000a2c0c                unx_fresetlock
                0x000a2c68                unx_fchklock
                0x000a2d24                ugethostname
 .text          0x000a2d58     0x65fc ../ulib/libuserxe.a(libuserxe_a-uviom.o)
                0x000a2d58                uviom_init
                0x000a2ff0                uviom_setopt2
                0x000a32ec                uviom_notify
                0x000a33b4                uvio_wcinit
                0x000a3414                uviom_savecell
                0x000a34bc                uviom_readcell
                0x000a3564                uvio_mvaddchnstrF
                0x000a3c10                uviom_mvaddwchnstr
                0x000a3c80                uvio_mvaddchnstrW_ligature
                0x000a3fd4                uvio_mvaddchnstrW_combine
                0x000a45d4                uvio_mvaddchnstrW
                0x000a4898                uviom_cht2cchar
                0x000a5894                uviom_setcchar_itself
                0x000a591c                uviom_setcchar_shadow
                0x000a59f4                uviom_setcombine1
                0x000a5e54                uviom_setcombine
                0x000a666c                uviom_setcombineSCM
                0x000a688c                uvio_ddcht2cchar
                0x000a75b8                uvio_ddcht2cchar_ligature
                0x000a834c                uvio_getcombinectr
                0x000a84b0                uviom_escrep
                0x000a869c                uviom_set_padattr
                0x000a8700                uviom_fillattrspace
                0x000a881c                uviom_setunpucs
                0x000a8bec                uviom_attr_itself
                0x000a8c90                uviom_ISUCSWIDTH0
                0x000a8e10                uviom_iscombining
                0x000a8ff8                uviom_spaceclear
                0x000a9050                uviom_clearscr
                0x000a90f0                uviom_getcombaltchUcs
                0x000a9178                uviom_getcombaltchU8
 .text          0x000a9354     0x3914 ../ulib/libuserxe.a(libuserxe_a-uviol.o)
                0x000a9354                uviol_cell2attr
                0x000a9494                uviol_attr2cell
                0x000a9570                uviol_repfg
                0x000a95f0                uviol_altcharset
                0x000a9738                uvio_initparm
                0x000a9790                uviogetmode
                0x000a9924                uviol_init
                0x000a9e60                uviol_acssetup
                0x000a9fb0                uviol_init2
                0x000a9fe0                uviol_konchk
                0x000aa0d4                uviol_konchk2
                0x000aa144                uviol_colorinit
                0x000aa35c                uviol_termexit
                0x000aa38c                uviol_cleanup
                0x000aa49c                uviol_term
                0x000aa520                uviol_beep
                0x000aa55c                uviosetmode
                0x000aa594                uvioreadcellstr
                0x000aa728                uviowrtcellstr
                0x000aa954                uvioreadcharstr
                0x000aaa70                uviowrtcharstr
                0x000aab78                uviowrtcharstratt
                0x000aad74                uviowrtnattr
                0x000aaf84                uviowrtncell
                0x000ab0e0                uviowrtnchar
                0x000ab240                uviogetcurpos
                0x000ab32c                uviosetcurpos
                0x000ab488                uviogetcurtype
                0x000ab538                uviosetcurtype
                0x000ab66c                uviowrttty
                0x000ab6ac                uviol_rgb2colorno
                0x000ab8c4                uviol_colorno2rgb
                0x000aba1c                uviogetstate
                0x000abcd0                uviosetstate
                0x000abeb0                uvioscrolldn
                0x000ac1dc                uvioscrollup
                0x000ac508                uviol_clear
                0x000ac540                uviol_clearok
                0x000ac58c                uviol_refresh
                0x000ac5b4                uviol_mvaddchnstr
                0x000ac750                uviol_attrupdate
                0x000acbe8                uviol_set_padattrsub
 .text          0x000acc68     0x3778 ../ulib/libuserxe.a(libuserxe_a-u3270.o)
                0x000acc68                u3270init
                0x000accd0                u3270fstat
                0x000ad2c4                u3270findfile
                0x000ad4f8                u3270fullpathistso
                0x000ad584                u3270getcwd
                0x000ad60c                u3270chdir
                0x000ad6a8                u3270fullpath
                0x000ad984                u3270fullpathwildexp
                0x000adea0                u3270getmembname
                0x000ae044                u3270chkmembname
                0x000ae18c                u3270getlastname
                0x000ae264                u3270getnthname
                0x000ae36c                u3270concatfilename
                0x000ae654                u3270editname
                0x000ae9fc                u3270parsedsn
                0x000aea98                u3270parentdsn
                0x000aec38                u3270getsetdsnwild
                0x000aef58                u3270pathlen
                0x000af0a8                u3270sethostuser
                0x000af15c                u3270cmdrequest
                0x000af3d4                u3270editrespmsg
                0x000af4ec                u3270dirlistsub
                0x000af7a8                u3270setdirlist
                0x000afc68                u3270srchdirlist
                0x000afd34                u3270setdirlistdsn
                0x000b0000                u3270setattr
                0x000b011c                u3270getattrstr
                0x000b03a8                u3270errdsnpath
 .text          0x000b03e0     0x152c ../ulib/libuserxe.a(libuserxe_a-u32702.o)
                0x000b03e0                u3270mkdir
                0x000b0418                u3270rmdir
                0x000b0448                u3270xddsub
                0x000b05c8                u3270xdelete
                0x000b07d8                u3270wildxdel
                0x000b0810                u3270xdelsub
                0x000b0918                u3270remove
                0x000b0a7c                u3270rename
                0x000b0ccc                u3270renamesub
                0x000b0da0                u3270wildrename
                0x000b0df0                u3270spfupdate
                0x000b0fc0                u3270spfsetparm
                0x000b14fc                u3270attrib
                0x000b1534                u3270attrxchk
                0x000b1568                u3270getftime
                0x000b15a0                u3270setftime
                0x000b15d8                u3270setftime2
                0x000b1610                u3270copypathinfo
                0x000b1648                u3270setown
                0x000b1680                u3270setmod
                0x000b16b4                u3270wildfunc
                0x000b18bc                u3270errnotsupported
 .text          0x000b190c     0x3ab0 ../ulib/libuserxe.a(libuserxe_a-u32703.o)
                0x000b190c                u3270xmove
                0x000b1a7c                u3270xcopyr2r
                0x000b1d44                u3270xcopy
                0x000b1f0c                u3270xcopyget
                0x000b29c8                u3270xcopyput
                0x000b347c                u3270filecreateparmproc
                0x000b3720                u3270filecpymvflags
                0x000b3c74                u3270filewildcopyget
                0x000b3ebc                u3270filewildcopyput
                0x000b41fc                u3270copysubget
                0x000b4458                u3270copysubput
                0x000b48e4                u3270transfer
                0x000b4e48                u3270srcdupchk
                0x000b508c                u3270copyspfupdate
                0x000b5330                u3270setftpparm
 .text          0x000b53bc       0x40 ../ulib/libuserxe.a(libuserxe_a-uabend.o)
                0x000b53bc                uabend
 .text          0x000b53fc     0x417c ../ulib/libuserxe.a(libuserxe_a-ucalc2.o)
                0x000b53fc                bc_getxdw
                0x000b5550                bc_getld
                0x000b57a0                bc_dwbinop
                0x000b5d58                bc_twbinop
                0x000b6278                bc_edittod
                0x000b63ec                bc_dweditnum64
                0x000b6454                bc_dweditnum
                0x000b6770                bc_dwupeditnum
                0x000b6938                ucalc_dwmult
                0x000b6b8c                ucalc_twmult
                0x000b7054                ucalc_dwdiv
                0x000b7334                ucalc_dwdiv2
                0x000b766c                ucalc_twdiv
                0x000b77f4                ucalc_twdivbyup
                0x000b7938                ucalc_twshiftup
                0x000b7a54                ucalc_dwshiftdown
                0x000b7b84                ucalc_ltime
                0x000b7fa4                ucalc_getdate
                0x000b8190                ucalc_nextday
                0x000b8440                ucalc_ld2dw
                0x000b89d8                ucalc_dw2ld
                0x000b8ae4                ucalc_nsadd
                0x000b8d4c                ucalc_ldedit
                0x000b8e8c                ucalc_dwupinit
                0x000b8eec                ucalc_dwupset
                0x000b901c                bc_numfmt2dw
                0x000b90cc                bc_dw2numfmt
                0x000b91a4                ucalc_dwup2dwandup
                0x000b9348                bc_dword2word
                0x000b9444                ucalc_dw2err
                0x000b947c                ucalc_dw2errresidual
                0x000b94f0                ucalc_dwuperr
                0x000b9518                ucalc_dwmaxerr
                0x000b9550                ucalcerrdwordovf
 .text          0x000b9578      0x354 ../ulib/libuserxe.a(libuserxe_a-uehl.o)
                0x000b9578                useteh
                0x000b9644                uehl_setsh
                0x000b9698                ureseteh
                0x000b9760                uehl_resetsh
                0x000b979c                usighandler
 .text          0x000b98cc      0xd74 ../ulib/libuserxe.a(libuserxe_a-uproc22.o)
                0x000b98cc                ukillpid
                0x000b9968                uthread
                0x000b99e0                uevent
                0x000b9c4c                uevent_wait1
                0x000b9e18                uevent_post1
                0x000b9f1c                uevent_waitm
                0x000ba100                uevent_postm
                0x000ba240                uevent_reset1
                0x000ba2d4                uevent_setuplist
                0x000ba468                uevent_resetlist
                0x000ba518                ucriticalsection
 .text          0x000ba640     0x19c4 ../ulib/libuserxe.a(libuserxe_a-uproc3.o)
                0x000ba640                uproc_gvfsinit
                0x000ba6a4                ushellexec
                0x000bab58                ushellexecsub
                0x000bae2c                ulnxlgettermpgmopt
                0x000bafb0                ulnxlgetshellpgm
                0x000bb07c                ulnxxgettermpgmopt
                0x000bb390                uproc3pgmchk
                0x000bb434                usystemlnxterm
                0x000bb510                usleepms
                0x000bb5b4                uprocconnect
                0x000bb870                uprocdisconnect
                0x000bb91c                uprocpipeio
                0x000bbb28                startserver
                0x000bbba4                uprocpiperead
                0x000bbc38                uprocpiperecevmsg
                0x000bbdb4                uprocpipeiodata
 .text          0x000bc004     0x5de8 ../ulib/libuserxe.a(libuserxe_a-ucalc.o)
                0x000bc004                ucalc_bcmain
                0x000bce84                bc_opdchk
                0x000bdd68                getvarname
                0x000bde48                ucalc_chkvrparm
                0x000bdfd4                bc_getvalue
                0x000be6c8                ucalc_vrajust
                0x000be9ec                ucalc_o2l
                0x000bead4                ucalc_gettimevalue
                0x000beefc                ucalc_getunderpointdata
                0x000bf060                bc_opdcopy
                0x000bf320                bc_putwordordword
                0x000bf3f8                bc_expand2dword
                0x000bf494                ucalc_binop
                0x000bfa30                ucalc_binopsub
                0x000c04e4                ucalc_underpoint
                0x000c07cc                ucalc_editnum
                0x000c0994                ucalc_editevenhex
                0x000c0a20                ucalc_dwtime
                0x000c0c08                ucalc_time
                0x000c1100                ucalc_timeedit
                0x000c1490                ucalc_shiftdown
                0x000c15dc                ucalc_shiftup
                0x000c171c                bc_getbase
                0x000c1760                calcuperr1
                0x000c1788                calcuperr2
                0x000c17b0                calcuperr3
                0x000c17d8                calcerrinvalid
                0x000c1810                calcerrinvalid_dw
                0x000c1848                calcerrformat
                0x000c1870                calcerrunderflow
                0x000c189c                calcerrwordovf
                0x000c18e0                calcerrminus
                0x000c1908                calcerr0div
                0x000c1930                calcerrtimeop
                0x000c1958                bc_getvalue3
                0x000c1c0c                bc_setconvtype3
 .text          0x000c1dec      0x240 /usr/lib/gcc/arm-linux-gnueabihf/8/libgcc.a(_divsi3.o)
                0x000c1dec                __divsi3
                0x000c1dec                __aeabi_idiv
                0x000c200c                __aeabi_idivmod
 .text          0x000c202c       0xd4 /usr/lib/gcc/arm-linux-gnueabihf/8/libgcc.a(_aeabi_ldivmod.o)
                0x000c202c                __aeabi_ldivmod
 .text          0x000c2100       0x10 /usr/lib/gcc/arm-linux-gnueabihf/8/libgcc.a(_dvmd_lnx.o)
                0x000c2100                __aeabi_idiv0
                0x000c2100                __aeabi_ldiv0
 .text          0x000c2110      0x128 /usr/lib/gcc/arm-linux-gnueabihf/8/libgcc.a(_udivmoddi4.o)
                0x000c2110                __udivmoddi4
 .text          0x000c2238       0x64 //usr/lib/arm-linux-gnueabihf/libc_nonshared.a(elf-init.oS)
                0x000c2238                __libc_csu_init
                0x000c2298                __libc_csu_fini
 .text          0x000c229c       0x10 //usr/lib/arm-linux-gnueabihf/libc_nonshared.a(stat64.oS)
                0x000c229c                stat64
 .text          0x000c22ac       0x10 //usr/lib/arm-linux-gnueabihf/libc_nonshared.a(lstat64.oS)
                0x000c22ac                lstat64
 .text          0x000c22bc        0x0 /usr/lib/gcc/arm-linux-gnueabihf/8/crtend.o
 .text          0x000c22bc        0x0 /usr/lib/gcc/arm-linux-gnueabihf/8/../../../arm-linux-gnueabihf/crtn.o
 *(.gnu.warning)
 *(.glue_7t)
 .glue_7t       0x000c22bc        0x0 linker stubs
 *(.glue_7)
 .glue_7        0x000c22bc        0x0 linker stubs
 *(.vfp11_veneer)
 .vfp11_veneer  0x000c22bc        0x0 linker stubs
 *(.v4_bx)
 .v4_bx         0x000c22bc        0x0 linker stubs

.fini           0x000c22bc        0x8
 *(SORT_NONE(.fini))
 .fini          0x000c22bc        0x4 /usr/lib/gcc/arm-linux-gnueabihf/8/../../../arm-linux-gnueabihf/crti.o
                0x000c22bc                _fini
 .fini          0x000c22c0        0x4 /usr/lib/gcc/arm-linux-gnueabihf/8/../../../arm-linux-gnueabihf/crtn.o
                [!provide]                PROVIDE (__etext = .)
                [!provide]                PROVIDE (_etext = .)
                [!provide]                PROVIDE (etext = .)

.rodata         0x000c22c4     0xebcd
 *(.rodata .rodata.* .gnu.linkonce.r.*)
 .rodata.cst4   0x000c22c4        0x4 /usr/lib/gcc/arm-linux-gnueabihf/8/../../../arm-linux-gnueabihf/crt1.o
                0x000c22c4                _IO_stdin_used
 .rodata        0x000c22c8     0x3361 xcv-xcv.o
 *fill*         0x000c5629        0x3 
 .rodata        0x000c562c      0x571 ../ulib/libuserxe.a(libuserxe_a-uallocl.o)
 *fill*         0x000c5b9d        0x3 
 .rodata        0x000c5ba0      0x88e ../ulib/libuserxe.a(libuserxe_a-ucvebc.o)
 *fill*         0x000c642e        0x2 
 .rodata        0x000c6430      0x221 ../ulib/libuserxe.a(libuserxe_a-ucvebc2.o)
 *fill*         0x000c6651        0x3 
 .rodata        0x000c6654       0x8f ../ulib/libuserxe.a(libuserxe_a-ucvebc3.o)
 *fill*         0x000c66e3        0x1 
 .rodata        0x000c66e4       0xac ../ulib/libuserxe.a(libuserxe_a-ucvebc4.o)
 .rodata        0x000c6790      0x8e8 ../ulib/libuserxe.a(libuserxe_a-ucvext.o)
 .rodata        0x000c7078       0xca ../ulib/libuserxe.a(libuserxe_a-ucvext12.o)
 *fill*         0x000c7142        0x2 
 .rodata        0x000c7144      0x172 ../ulib/libuserxe.a(libuserxe_a-ucvext2.o)
 *fill*         0x000c72b6        0x2 
 .rodata        0x000c72b8       0xa2 ../ulib/libuserxe.a(libuserxe_a-ucvucs.o)
 *fill*         0x000c735a        0x2 
 .rodata        0x000c735c      0x10c ../ulib/libuserxe.a(libuserxe_a-udbcschk.o)
 .rodata        0x000c7468        0xc ../ulib/libuserxe.a(libuserxe_a-udbcsck2.o)
 .rodata        0x000c7474       0x47 ../ulib/libuserxe.a(libuserxe_a-udos2.o)
 *fill*         0x000c74bb        0x1 
 .rodata        0x000c74bc       0xed ../ulib/libuserxe.a(libuserxe_a-uedit.o)
 *fill*         0x000c75a9        0x3 
 .rodata        0x000c75ac       0xbd ../ulib/libuserxe.a(libuserxe_a-uedit2.o)
 *fill*         0x000c7669        0x3 
 .rodata        0x000c766c      0x30d ../ulib/libuserxe.a(libuserxe_a-uerr.o)
 *fill*         0x000c7979        0x3 
 .rodata        0x000c797c      0x8b9 ../ulib/libuserxe.a(libuserxe_a-ufemsg.o)
 *fill*         0x000c8235        0x3 
 .rodata        0x000c8238      0x113 ../ulib/libuserxe.a(libuserxe_a-ufile.o)
 *fill*         0x000c834b        0x1 
 .rodata        0x000c834c      0x12b ../ulib/libuserxe.a(libuserxe_a-ufile1f.o)
 *fill*         0x000c8477        0x1 
 .rodata        0x000c8478      0x6a3 ../ulib/libuserxe.a(libuserxe_a-ufile1l.o)
 *fill*         0x000c8b1b        0x1 
 .rodata        0x000c8b1c      0x10f ../ulib/libuserxe.a(libuserxe_a-ufile1l2.o)
 *fill*         0x000c8c2b        0x1 
 .rodata        0x000c8c2c      0x7e4 ../ulib/libuserxe.a(libuserxe_a-ufile2.o)
 .rodata        0x000c9410      0x357 ../ulib/libuserxe.a(libuserxe_a-ufile2f.o)
 *fill*         0x000c9767        0x1 
 .rodata        0x000c9768       0xf6 ../ulib/libuserxe.a(libuserxe_a-ufile2l.o)
 *fill*         0x000c985e        0x2 
 .rodata        0x000c9860       0xfc ../ulib/libuserxe.a(libuserxe_a-ufile2l2.o)
 .rodata        0x000c995c      0x4da ../ulib/libuserxe.a(libuserxe_a-ufile3.o)
 *fill*         0x000c9e36        0x2 
 .rodata        0x000c9e38      0x476 ../ulib/libuserxe.a(libuserxe_a-ufile3f.o)
 *fill*         0x000ca2ae        0x2 
 .rodata        0x000ca2b0      0x234 ../ulib/libuserxe.a(libuserxe_a-ufile4.o)
 .rodata        0x000ca4e4      0x1a6 ../ulib/libuserxe.a(libuserxe_a-ufile5.o)
 *fill*         0x000ca68a        0x2 
 .rodata        0x000ca68c      0x619 ../ulib/libuserxe.a(libuserxe_a-uftp.o)
 *fill*         0x000caca5        0x3 
 .rodata        0x000caca8      0x45c ../ulib/libuserxe.a(libuserxe_a-uftp2.o)
 .rodata        0x000cb104      0x512 ../ulib/libuserxe.a(libuserxe_a-uftp3.o)
 *fill*         0x000cb616        0x2 
 .rodata        0x000cb618        0xb ../ulib/libuserxe.a(libuserxe_a-ugcclib.o)
 *fill*         0x000cb623        0x1 
 .rodata        0x000cb624       0xef ../ulib/libuserxe.a(libuserxe_a-ukbdl.o)
 *fill*         0x000cb713        0x1 
 .rodata        0x000cb714      0xf2a ../ulib/libuserxe.a(libuserxe_a-ukbdlnxc.o)
 *fill*         0x000cc63e        0x2 
 .rodata        0x000cc640       0x2d ../ulib/libuserxe.a(libuserxe_a-uparse.o)
 *fill*         0x000cc66d        0x3 
 .rodata        0x000cc670      0x4fd ../ulib/libuserxe.a(libuserxe_a-uproc.o)
 *fill*         0x000ccb6d        0x3 
 .rodata        0x000ccb70      0x168 ../ulib/libuserxe.a(libuserxe_a-uproc2.o)
 .rodata        0x000cccd8      0x341 ../ulib/libuserxe.a(libuserxe_a-uproc4.o)
 *fill*         0x000cd019        0x3 
 .rodata        0x000cd01c      0x384 ../ulib/libuserxe.a(libuserxe_a-uque.o)
 .rodata        0x000cd3a0       0x7e ../ulib/libuserxe.a(libuserxe_a-ustrcpy.o)
 *fill*         0x000cd41e        0x2 
 .rodata        0x000cd420        0x4 ../ulib/libuserxe.a(libuserxe_a-ustring.o)
 .rodata        0x000cd424      0x1cc ../ulib/libuserxe.a(libuserxe_a-utf2.o)
 .rodata        0x000cd5f0      0x325 ../ulib/libuserxe.a(libuserxe_a-utf22.o)
 *fill*         0x000cd915        0x3 
 .rodata        0x000cd918      0x133 ../ulib/libuserxe.a(libuserxe_a-utf3.o)
 *fill*         0x000cda4b        0x1 
 .rodata        0x000cda4c     0x19d0 ../ulib/libuserxe.a(libuserxe_a-utf4.o)
 .rodata        0x000cf41c      0x161 ../ulib/libuserxe.a(libuserxe_a-utrace.o)
 *fill*         0x000cf57d        0x3 
 .rodata        0x000cf580       0x98 ../ulib/libuserxe.a(libuserxe_a-uunxsub.o)
 .rodata        0x000cf618        0x2 ../ulib/libuserxe.a(libuserxe_a-uviom.o)
 *fill*         0x000cf61a        0x2 
 .rodata        0x000cf61c       0x7a ../ulib/libuserxe.a(libuserxe_a-uviol.o)
 *fill*         0x000cf696        0x2 
 .rodata        0x000cf698      0x161 ../ulib/libuserxe.a(libuserxe_a-u3270.o)
 *fill*         0x000cf7f9        0x3 
 .rodata        0x000cf7fc      0x1ad ../ulib/libuserxe.a(libuserxe_a-u32702.o)
 *fill*         0x000cf9a9        0x3 
 .rodata        0x000cf9ac      0x395 ../ulib/libuserxe.a(libuserxe_a-u32703.o)
 *fill*         0x000cfd41        0x3 
 .rodata        0x000cfd44       0x30 ../ulib/libuserxe.a(libuserxe_a-uabend.o)
 .rodata        0x000cfd74      0x7c3 ../ulib/libuserxe.a(libuserxe_a-ucalc2.o)
 *fill*         0x000d0537        0x1 
 .rodata        0x000d0538       0x33 ../ulib/libuserxe.a(libuserxe_a-uehl.o)
 *fill*         0x000d056b        0x1 
 .rodata        0x000d056c       0x66 ../ulib/libuserxe.a(libuserxe_a-uproc22.o)
 *fill*         0x000d05d2        0x2 
 .rodata        0x000d05d4      0x410 ../ulib/libuserxe.a(libuserxe_a-uproc3.o)
 .rodata        0x000d09e4      0x4ad ../ulib/libuserxe.a(libuserxe_a-ucalc.o)

.rodata1
 *(.rodata1)

.ARM.extab      0x000d0e91        0x0
 *(.ARM.extab* .gnu.linkonce.armextab.*)
 .ARM.extab     0x000d0e91        0x0 /usr/lib/gcc/arm-linux-gnueabihf/8/../../../arm-linux-gnueabihf/crt1.o
 .ARM.extab     0x000d0e91        0x0 /usr/lib/gcc/arm-linux-gnueabihf/8/libgcc.a(_udivmoddi4.o)
                [!provide]                PROVIDE (__exidx_start = .)

.ARM.exidx      0x000d0e94        0x8
 *(.ARM.exidx* .gnu.linkonce.armexidx.*)
 .ARM.exidx     0x000d0e94        0x8 /usr/lib/gcc/arm-linux-gnueabihf/8/../../../arm-linux-gnueabihf/crt1.o
 .ARM.exidx     0x000d0e9c        0x0 /usr/lib/gcc/arm-linux-gnueabihf/8/libgcc.a(_udivmoddi4.o)
                                  0x8 (size before relaxing)
                [!provide]                PROVIDE (__exidx_end = .)

.eh_frame_hdr
 *(.eh_frame_hdr)
 *(.eh_frame_entry .eh_frame_entry.*)

.eh_frame       0x000d0e9c        0x4
 *(.eh_frame)
 .eh_frame      0x000d0e9c        0x4 /usr/lib/gcc/arm-linux-gnueabihf/8/crtend.o
 *(.eh_frame.*)

.gcc_except_table
 *(.gcc_except_table .gcc_except_table.*)

.gnu_extab
 *(.gnu_extab*)

.exception_ranges
 *(.exception_ranges .exception_ranges*)
                0x000e1e08                . = DATA_SEGMENT_ALIGN (CONSTANT (MAXPAGESIZE), CONSTANT (COMMONPAGESIZE))

.eh_frame
 *(.eh_frame)
 *(.eh_frame.*)

.gnu_extab
 *(.gnu_extab)

.gcc_except_table
 *(.gcc_except_table .gcc_except_table.*)

.exception_ranges
 *(.exception_ranges .exception_ranges*)

.tdata          0x000e1e08        0x0
                [!provide]                PROVIDE (__tdata_start = .)
 *(.tdata .tdata.* .gnu.linkonce.td.*)

.tbss
 *(.tbss .tbss.* .gnu.linkonce.tb.*)
 *(.tcommon)

.preinit_array  0x000e1e08        0x0
                [!provide]                PROVIDE (__preinit_array_start = .)
 *(.preinit_array)
                [!provide]                PROVIDE (__preinit_array_end = .)

.init_array     0x000e1e08        0x4
                0x000e1e08                PROVIDE (__init_array_start = .)
 *(SORT_BY_INIT_PRIORITY(.init_array.*) SORT_BY_INIT_PRIORITY(.ctors.*))
 *(.init_array EXCLUDE_FILE(*crtend?.o *crtend.o *crtbegin?.o *crtbegin.o) .ctors)
 .init_array    0x000e1e08        0x4 /usr/lib/gcc/arm-linux-gnueabihf/8/crtbegin.o
                0x000e1e0c                PROVIDE (__init_array_end = .)

.fini_array     0x000e1e0c        0x4
                [!provide]                PROVIDE (__fini_array_start = .)
 *(SORT_BY_INIT_PRIORITY(.fini_array.*) SORT_BY_INIT_PRIORITY(.dtors.*))
 *(.fini_array EXCLUDE_FILE(*crtend?.o *crtend.o *crtbegin?.o *crtbegin.o) .dtors)
 .fini_array    0x000e1e0c        0x4 /usr/lib/gcc/arm-linux-gnueabihf/8/crtbegin.o
                [!provide]                PROVIDE (__fini_array_end = .)

.ctors
 *crtbegin.o(.ctors)
 *crtbegin?.o(.ctors)
 *(EXCLUDE_FILE(*crtend?.o *crtend.o) .ctors)
 *(SORT_BY_NAME(.ctors.*))
 *(.ctors)

.dtors
 *crtbegin.o(.dtors)
 *crtbegin?.o(.dtors)
 *(EXCLUDE_FILE(*crtend?.o *crtend.o) .dtors)
 *(SORT_BY_NAME(.dtors.*))
 *(.dtors)

.jcr
 *(.jcr)

.data.rel.ro    0x000e1e10        0x0
 *(.data.rel.ro.local* .gnu.linkonce.d.rel.ro.local.*)
 *(.data.rel.ro .data.rel.ro.* .gnu.linkonce.d.rel.ro.*)
 .data.rel.ro   0x000e1e10        0x0 /usr/lib/gcc/arm-linux-gnueabihf/8/../../../arm-linux-gnueabihf/crt1.o

.dynamic        0x000e1e10      0x1f0
 *(.dynamic)
 .dynamic       0x000e1e10      0x1f0 /usr/lib/gcc/arm-linux-gnueabihf/8/../../../arm-linux-gnueabihf/crt1.o
                0x000e1e10                _DYNAMIC
                0x000e2000                . = DATA_SEGMENT_RELRO_END (., 0x0)

.got            0x000e2000      0x2e0
 *(.got.plt)
 .got.plt       0x000e2000      0x2dc /usr/lib/gcc/arm-linux-gnueabihf/8/../../../arm-linux-gnueabihf/crt1.o
                0x000e2000                _GLOBAL_OFFSET_TABLE_
 *(.igot.plt)
 .igot.plt      0x000e22dc        0x0 /usr/lib/gcc/arm-linux-gnueabihf/8/../../../arm-linux-gnueabihf/crt1.o
 *(.got)
 .got           0x000e22dc        0x4 /usr/lib/gcc/arm-linux-gnueabihf/8/../../../arm-linux-gnueabihf/crt1.o
 *(.igot)

.data           0x000e22e0    0x27650
                [!provide]                PROVIDE (__data_start = .)
 *(.data .data.* .gnu.linkonce.d.*)
 .data          0x000e22e0        0x4 /usr/lib/gcc/arm-linux-gnueabihf/8/../../../arm-linux-gnueabihf/crt1.o
                0x000e22e0                __data_start
                0x000e22e0                data_start
 .data          0x000e22e4        0x0 /usr/lib/gcc/arm-linux-gnueabihf/8/../../../arm-linux-gnueabihf/crti.o
 .data          0x000e22e4        0x4 /usr/lib/gcc/arm-linux-gnueabihf/8/crtbegin.o
                0x000e22e4                __dso_handle
 .data          0x000e22e8       0x14 xcv-xcv.o
 .data          0x000e22fc     0x1000 ../ulib/libuserxe.a(libuserxe_a-uallocl.o)
 .data          0x000e32fc      0x248 ../ulib/libuserxe.a(libuserxe_a-ucvebc.o)
 .data          0x000e3544        0x0 ../ulib/libuserxe.a(libuserxe_a-ucvebc2.o)
 .data          0x000e3544        0x8 ../ulib/libuserxe.a(libuserxe_a-ucvebc3.o)
 .data          0x000e354c        0x0 ../ulib/libuserxe.a(libuserxe_a-ucvebc4.o)
 .data          0x000e354c     0xed30 ../ulib/libuserxe.a(libuserxe_a-ucvebct.o)
 .data          0x000f227c      0x316 ../ulib/libuserxe.a(libuserxe_a-ucvext.o)
 .data          0x000f2592        0x6 ../ulib/libuserxe.a(libuserxe_a-ucvext12.o)
 .data          0x000f2598        0x0 ../ulib/libuserxe.a(libuserxe_a-ucvext2.o)
 .data          0x000f2598       0x28 ../ulib/libuserxe.a(libuserxe_a-ucvucs.o)
 .data          0x000f25c0     0x7cb0 ../ulib/libuserxe.a(libuserxe_a-ucvucst.o)
                0x000f25c0                Scp932tb
 .data          0x000fa270        0x8 ../ulib/libuserxe.a(libuserxe_a-udbcschk.o)
                0x000fa270                Gpdbcstbl
 .data          0x000fa278     0x1148 ../ulib/libuserxe.a(libuserxe_a-udbcsck2.o)
 .data          0x000fb3c0        0x0 ../ulib/libuserxe.a(libuserxe_a-udos2.o)
 .data          0x000fb3c0        0x0 ../ulib/libuserxe.a(libuserxe_a-uedit.o)
 .data          0x000fb3c0       0x78 ../ulib/libuserxe.a(libuserxe_a-uedit2.o)
 .data          0x000fb438        0xd ../ulib/libuserxe.a(libuserxe_a-uerr.o)
 .data          0x000fb445        0x0 ../ulib/libuserxe.a(libuserxe_a-ufemsg.o)
 *fill*         0x000fb445        0x3 
 .data          0x000fb448        0xc ../ulib/libuserxe.a(libuserxe_a-ufile.o)
 .data          0x000fb454        0x0 ../ulib/libuserxe.a(libuserxe_a-ufile1f.o)
 .data          0x000fb454        0x0 ../ulib/libuserxe.a(libuserxe_a-ufile1l.o)
 .data          0x000fb454       0x2c ../ulib/libuserxe.a(libuserxe_a-ufile1l2.o)
 .data          0x000fb480        0x0 ../ulib/libuserxe.a(libuserxe_a-ufile2.o)
 .data          0x000fb480        0x0 ../ulib/libuserxe.a(libuserxe_a-ufile2f.o)
 .data          0x000fb480        0x0 ../ulib/libuserxe.a(libuserxe_a-ufile2l.o)
 .data          0x000fb480        0x0 ../ulib/libuserxe.a(libuserxe_a-ufile2l2.o)
 .data          0x000fb480        0x0 ../ulib/libuserxe.a(libuserxe_a-ufile3.o)
 .data          0x000fb480        0x0 ../ulib/libuserxe.a(libuserxe_a-ufile3f.o)
 .data          0x000fb480        0x0 ../ulib/libuserxe.a(libuserxe_a-ufile4.o)
 .data          0x000fb480        0x0 ../ulib/libuserxe.a(libuserxe_a-ufile5.o)
 .data          0x000fb480       0x10 ../ulib/libuserxe.a(libuserxe_a-uftp.o)
 .data          0x000fb490       0x50 ../ulib/libuserxe.a(libuserxe_a-uftp2.o)
 .data          0x000fb4e0        0x4 ../ulib/libuserxe.a(libuserxe_a-uftp3.o)
 .data          0x000fb4e4        0x0 ../ulib/libuserxe.a(libuserxe_a-ugcclib.o)
 .data          0x000fb4e4        0x0 ../ulib/libuserxe.a(libuserxe_a-ukbdl.o)
 .data          0x000fb4e4     0xb6bc ../ulib/libuserxe.a(libuserxe_a-ukbdlnxc.o)
 .data          0x00106ba0       0x10 ../ulib/libuserxe.a(libuserxe_a-ukbdlnxm.o)
 .data          0x00106bb0        0x0 ../ulib/libuserxe.a(libuserxe_a-uparse.o)
 .data          0x00106bb0       0x20 ../ulib/libuserxe.a(libuserxe_a-uproc.o)
 .data          0x00106bd0        0x0 ../ulib/libuserxe.a(libuserxe_a-uproc2.o)
 .data          0x00106bd0        0x0 ../ulib/libuserxe.a(libuserxe_a-uproc4.o)
 .data          0x00106bd0        0x0 ../ulib/libuserxe.a(libuserxe_a-uque.o)
 .data          0x00106bd0        0x0 ../ulib/libuserxe.a(libuserxe_a-ustrcpy.o)
 .data          0x00106bd0       0xfb ../ulib/libuserxe.a(libuserxe_a-ustring.o)
 .data          0x00106ccb        0x0 ../ulib/libuserxe.a(libuserxe_a-utf.o)
 .data          0x00106ccb        0x0 ../ulib/libuserxe.a(libuserxe_a-utf2.o)
 *fill*         0x00106ccb        0x1 
 .data          0x00106ccc      0x164 ../ulib/libuserxe.a(libuserxe_a-utf22.o)
 .data          0x00106e30      0xe98 ../ulib/libuserxe.a(libuserxe_a-utf3.o)
 .data          0x00107cc8        0x0 ../ulib/libuserxe.a(libuserxe_a-utf4.o)
 .data          0x00107cc8     0x1928 ../ulib/libuserxe.a(libuserxe_a-utrace.o)
 .data          0x001095f0        0x0 ../ulib/libuserxe.a(libuserxe_a-uunxsub.o)
 .data          0x001095f0        0x4 ../ulib/libuserxe.a(libuserxe_a-uviom.o)
                0x001095f0                Guviomdbcspad
 .data          0x001095f4        0xc ../ulib/libuserxe.a(libuserxe_a-uviol.o)
 .data          0x00109600        0x4 ../ulib/libuserxe.a(libuserxe_a-u3270.o)
 .data          0x00109604        0x0 ../ulib/libuserxe.a(libuserxe_a-u32702.o)
 .data          0x00109604        0x0 ../ulib/libuserxe.a(libuserxe_a-u32703.o)
 .data          0x00109604        0x0 ../ulib/libuserxe.a(libuserxe_a-uabend.o)
 .data          0x00109604      0x24c ../ulib/libuserxe.a(libuserxe_a-ucalc2.o)
 .data          0x00109850       0x38 ../ulib/libuserxe.a(libuserxe_a-uehl.o)
 .data          0x00109888        0x0 ../ulib/libuserxe.a(libuserxe_a-uproc22.o)
 .data          0x00109888       0x54 ../ulib/libuserxe.a(libuserxe_a-uproc3.o)
 .data          0x001098dc       0x54 ../ulib/libuserxe.a(libuserxe_a-ucalc.o)
 .data          0x00109930        0x0 /usr/lib/gcc/arm-linux-gnueabihf/8/libgcc.a(_divsi3.o)
 .data          0x00109930        0x0 /usr/lib/gcc/arm-linux-gnueabihf/8/libgcc.a(_aeabi_ldivmod.o)
 .data          0x00109930        0x0 /usr/lib/gcc/arm-linux-gnueabihf/8/libgcc.a(_dvmd_lnx.o)
 .data          0x00109930        0x0 /usr/lib/gcc/arm-linux-gnueabihf/8/libgcc.a(_udivmoddi4.o)
 .data          0x00109930        0x0 //usr/lib/arm-linux-gnueabihf/libc_nonshared.a(elf-init.oS)
 .data          0x00109930        0x0 //usr/lib/arm-linux-gnueabihf/libc_nonshared.a(stat64.oS)
 .data          0x00109930        0x0 //usr/lib/arm-linux-gnueabihf/libc_nonshared.a(lstat64.oS)
 .data          0x00109930        0x0 /usr/lib/gcc/arm-linux-gnueabihf/8/crtend.o
 .data          0x00109930        0x0 /usr/lib/gcc/arm-linux-gnueabihf/8/../../../arm-linux-gnueabihf/crtn.o

.tm_clone_table
                0x00109930        0x0
 .tm_clone_table
                0x00109930        0x0 /usr/lib/gcc/arm-linux-gnueabihf/8/crtbegin.o
 .tm_clone_table
                0x00109930        0x0 /usr/lib/gcc/arm-linux-gnueabihf/8/crtend.o

.data1
 *(.data1)
                0x00109930                _edata = .
                [!provide]                PROVIDE (edata = .)
                0x00109930                . = .
                0x00109930                __bss_start = .
                0x00109930                __bss_start__ = .

.bss            0x00109930   0x144ae4
 *(.dynbss)
 .dynbss        0x00109930      0x230 /usr/lib/gcc/arm-linux-gnueabihf/8/../../../arm-linux-gnueabihf/crt1.o
                0x00109930                COLORS@@NCURSESW6_5.1.20000708
                0x00109934                LINES@@NCURSES6_TINFO_5.0.19991023
                0x00109938                acs_map@@NCURSES6_TINFO_5.0.19991023
                0x00109b38                stdscr@@NCURSES6_TINFO_5.0.19991023
                0x00109b3c                cur_term@@NCURSES6_TINFO_5.0.19991023
                0x00109b40                COLS@@NCURSES6_TINFO_5.0.19991023
                0x00109b44                stdout@@GLIBC_2.4
                0x00109b48                COLOR_PAIRS@@NCURSESW6_5.1.20000708
                0x00109b50                stdin@@GLIBC_2.4
                0x00109b58                stderr@@GLIBC_2.4
                0x00109b5c                newscr@@NCURSES6_TINFO_5.0.19991023
 *(.bss .bss.* .gnu.linkonce.b.*)
 .bss           0x00109b60        0x0 /usr/lib/gcc/arm-linux-gnueabihf/8/../../../arm-linux-gnueabihf/crt1.o
 .bss           0x00109b60        0x0 /usr/lib/gcc/arm-linux-gnueabihf/8/../../../arm-linux-gnueabihf/crti.o
 .bss           0x00109b60        0x1 /usr/lib/gcc/arm-linux-gnueabihf/8/crtbegin.o
 *fill*         0x00109b61        0x3 
 .bss           0x00109b64      0x138 xcv-xcv.o
 .bss           0x00109c9c       0x84 ../ulib/libuserxe.a(libuserxe_a-uallocl.o)
 .bss           0x00109d20      0x790 ../ulib/libuserxe.a(libuserxe_a-ucvebc.o)
 .bss           0x0010a4b0       0x10 ../ulib/libuserxe.a(libuserxe_a-ucvebc2.o)
 .bss           0x0010a4c0       0x34 ../ulib/libuserxe.a(libuserxe_a-ucvebc3.o)
 .bss           0x0010a4f4        0x4 ../ulib/libuserxe.a(libuserxe_a-ucvebc4.o)
 .bss           0x0010a4f8        0x0 ../ulib/libuserxe.a(libuserxe_a-ucvebct.o)
 .bss           0x0010a4f8     0x1cd4 ../ulib/libuserxe.a(libuserxe_a-ucvext.o)
 .bss           0x0010c1cc       0x24 ../ulib/libuserxe.a(libuserxe_a-ucvext12.o)
 .bss           0x0010c1f0        0xc ../ulib/libuserxe.a(libuserxe_a-ucvext2.o)
 .bss           0x0010c1fc        0xc ../ulib/libuserxe.a(libuserxe_a-ucvucs.o)
 .bss           0x0010c208        0x0 ../ulib/libuserxe.a(libuserxe_a-ucvucst.o)
 .bss           0x0010c208      0x2f9 ../ulib/libuserxe.a(libuserxe_a-udbcschk.o)
 .bss           0x0010c501        0x0 ../ulib/libuserxe.a(libuserxe_a-udbcsck2.o)
 .bss           0x0010c501        0x0 ../ulib/libuserxe.a(libuserxe_a-udos2.o)
 *fill*         0x0010c501        0x3 
 .bss           0x0010c504       0xd8 ../ulib/libuserxe.a(libuserxe_a-uedit.o)
 .bss           0x0010c5dc      0x268 ../ulib/libuserxe.a(libuserxe_a-uedit2.o)
 .bss           0x0010c844     0x40e4 ../ulib/libuserxe.a(libuserxe_a-uerr.o)
 .bss           0x00110928       0x20 ../ulib/libuserxe.a(libuserxe_a-ufemsg.o)
 .bss           0x00110948       0x18 ../ulib/libuserxe.a(libuserxe_a-ufile.o)
 .bss           0x00110960        0x4 ../ulib/libuserxe.a(libuserxe_a-ufile1f.o)
 .bss           0x00110964    0x64658 ../ulib/libuserxe.a(libuserxe_a-ufile1l.o)
 .bss           0x00174fbc        0x4 ../ulib/libuserxe.a(libuserxe_a-ufile1l2.o)
 .bss           0x00174fc0       0x34 ../ulib/libuserxe.a(libuserxe_a-ufile2.o)
 .bss           0x00174ff4       0x20 ../ulib/libuserxe.a(libuserxe_a-ufile2f.o)
 .bss           0x00175014        0x4 ../ulib/libuserxe.a(libuserxe_a-ufile2l.o)
 .bss           0x00175018        0x0 ../ulib/libuserxe.a(libuserxe_a-ufile2l2.o)
 .bss           0x00175018        0x8 ../ulib/libuserxe.a(libuserxe_a-ufile3.o)
 .bss           0x00175020     0x100d ../ulib/libuserxe.a(libuserxe_a-ufile3f.o)
 *fill*         0x0017602d        0x3 
 .bss           0x00176030     0x1034 ../ulib/libuserxe.a(libuserxe_a-ufile4.o)
 *fill*         0x00177064        0x4 
 .bss           0x00177068       0x5d ../ulib/libuserxe.a(libuserxe_a-ufile5.o)
 *fill*         0x001770c5        0x3 
 .bss           0x001770c8    0x64d00 ../ulib/libuserxe.a(libuserxe_a-uftp.o)
 .bss           0x001dbdc8        0x8 ../ulib/libuserxe.a(libuserxe_a-uftp2.o)
 .bss           0x001dbdd0        0x0 ../ulib/libuserxe.a(libuserxe_a-uftp3.o)
 .bss           0x001dbdd0        0x4 ../ulib/libuserxe.a(libuserxe_a-ugcclib.o)
 .bss           0x001dbdd4       0xf4 ../ulib/libuserxe.a(libuserxe_a-ukbdl.o)
                0x001dbdd4                Swcstat
 .bss           0x001dbec8     0x5808 ../ulib/libuserxe.a(libuserxe_a-ukbdlnxc.o)
 .bss           0x001e16d0        0x8 ../ulib/libuserxe.a(libuserxe_a-ukbdlnxm.o)
 .bss           0x001e16d8      0x205 ../ulib/libuserxe.a(libuserxe_a-uparse.o)
 *fill*         0x001e18dd        0x3 
 .bss           0x001e18e0       0x1c ../ulib/libuserxe.a(libuserxe_a-uproc.o)
                0x001e18e0                Sserverstat
                0x001e18e4                Scmdservercallback
                0x001e18e8                Scallbackparm
                0x001e18ec                Scmdserverchildpid
 .bss           0x001e18fc        0x4 ../ulib/libuserxe.a(libuserxe_a-uproc2.o)
 .bss           0x001e1900       0x1c ../ulib/libuserxe.a(libuserxe_a-uproc4.o)
 .bss           0x001e191c        0x0 ../ulib/libuserxe.a(libuserxe_a-uque.o)
 .bss           0x001e191c        0x0 ../ulib/libuserxe.a(libuserxe_a-ustrcpy.o)
 .bss           0x001e191c        0x0 ../ulib/libuserxe.a(libuserxe_a-ustring.o)
 .bss           0x001e191c        0x0 ../ulib/libuserxe.a(libuserxe_a-utf.o)
 .bss           0x001e191c       0x98 ../ulib/libuserxe.a(libuserxe_a-utf2.o)
 .bss           0x001e19b4       0x14 ../ulib/libuserxe.a(libuserxe_a-utf22.o)
 .bss           0x001e19c8        0x8 ../ulib/libuserxe.a(libuserxe_a-utf3.o)
 .bss           0x001e19d0        0x4 ../ulib/libuserxe.a(libuserxe_a-utf4.o)
 .bss           0x001e19d4     0x1170 ../ulib/libuserxe.a(libuserxe_a-utrace.o)
 .bss           0x001e2b44       0x20 ../ulib/libuserxe.a(libuserxe_a-uunxsub.o)
 .bss           0x001e2b64       0x58 ../ulib/libuserxe.a(libuserxe_a-uviom.o)
 .bss           0x001e2bbc      0x508 ../ulib/libuserxe.a(libuserxe_a-uviol.o)
 .bss           0x001e30c4        0xc ../ulib/libuserxe.a(libuserxe_a-u3270.o)
 .bss           0x001e30d0       0x10 ../ulib/libuserxe.a(libuserxe_a-u32702.o)
 .bss           0x001e30e0     0x1208 ../ulib/libuserxe.a(libuserxe_a-u32703.o)
 .bss           0x001e42e8        0x0 ../ulib/libuserxe.a(libuserxe_a-uabend.o)
 .bss           0x001e42e8        0x0 ../ulib/libuserxe.a(libuserxe_a-ucalc2.o)
 .bss           0x001e42e8       0x64 ../ulib/libuserxe.a(libuserxe_a-uehl.o)
 .bss           0x001e434c       0x18 ../ulib/libuserxe.a(libuserxe_a-uproc22.o)
 .bss           0x001e4364       0x10 ../ulib/libuserxe.a(libuserxe_a-uproc3.o)
 .bss           0x001e4374      0x114 ../ulib/libuserxe.a(libuserxe_a-ucalc.o)
 .bss           0x001e4488        0x0 /usr/lib/gcc/arm-linux-gnueabihf/8/libgcc.a(_divsi3.o)
 .bss           0x001e4488        0x0 /usr/lib/gcc/arm-linux-gnueabihf/8/libgcc.a(_aeabi_ldivmod.o)
 .bss           0x001e4488        0x0 /usr/lib/gcc/arm-linux-gnueabihf/8/libgcc.a(_dvmd_lnx.o)
 .bss           0x001e4488        0x0 /usr/lib/gcc/arm-linux-gnueabihf/8/libgcc.a(_udivmoddi4.o)
 .bss           0x001e4488        0x0 //usr/lib/arm-linux-gnueabihf/libc_nonshared.a(elf-init.oS)
 .bss           0x001e4488        0x0 //usr/lib/arm-linux-gnueabihf/libc_nonshared.a(stat64.oS)
 .bss           0x001e4488        0x0 //usr/lib/arm-linux-gnueabihf/libc_nonshared.a(lstat64.oS)
 .bss           0x001e4488        0x0 /usr/lib/gcc/arm-linux-gnueabihf/8/crtend.o
 .bss           0x001e4488        0x0 /usr/lib/gcc/arm-linux-gnueabihf/8/../../../arm-linux-gnueabihf/crtn.o
 *(COMMON)
 COMMON         0x001e4488        0x8 ../ulib/libuserxe.a(libuserxe_a-uallocl.o)
                0x001e4488                Gualloc_amount
                0x001e448c                Gualloc16_amount
 COMMON         0x001e4490     0x9c48 ../ulib/libuserxe.a(libuserxe_a-ucvebc.o)
                0x001e4490                Gucvebchctr
                0x001e4494                Gucvebch
                0x001ee0d4                Gucvebc_stat
 COMMON         0x001ee0d8       0x10 ../ulib/libuserxe.a(libuserxe_a-ucvebc2.o)
                0x001ee0d8                Snewoldctr
                0x001ee0dc                Se2stctr
                0x001ee0e0                Sduptctr
                0x001ee0e4                Ss2etctr
 COMMON         0x001ee0e8        0xc ../ulib/libuserxe.a(libuserxe_a-udbcschk.o)
                0x001ee0e8                Gudbcschk_flag
                0x001ee0ec                Gudbcschk_width0top
                0x001ee0f0                Sdbcschk_hkopt
 COMMON         0x001ee0f4        0x5 ../ulib/libuserxe.a(libuserxe_a-uerr.o)
                0x001ee0f4                Guerropt2
                0x001ee0f8                Guerropt
 *fill*         0x001ee0f9        0x3 
 COMMON         0x001ee0fc        0x8 ../ulib/libuserxe.a(libuserxe_a-ufile.o)
                0x001ee0fc                Gufile_opt
                0x001ee100                Gufile_nomsg
 COMMON         0x001ee104       0x88 ../ulib/libuserxe.a(libuserxe_a-uftp2.o)
                0x001ee104                Gftperr
                0x001ee108                Gftpopt
                0x001ee10c                Gftpclient
 COMMON         0x001ee18c        0x8 ../ulib/libuserxe.a(libuserxe_a-ukbdl.o)
                0x001ee18c                Sphiconv
                0x001ee190                Gukbdl_flag
 COMMON         0x001ee194        0x8 ../ulib/libuserxe.a(libuserxe_a-uproc.o)
                0x001ee194                Sfdpiper
                0x001ee198                Sfdpipew
 COMMON         0x001ee19c        0xc ../ulib/libuserxe.a(libuserxe_a-utf.o)
                0x001ee19c                Gulibutfmode
                0x001ee1a0                Gutfrc
                0x001ee1a4                Gutfcombaltch
 COMMON         0x001ee1a8    0x60000 ../ulib/libuserxe.a(libuserxe_a-utf22.o)
                0x001ee1a8                Gucs2ddmap_i2u
                0x0020e1a8                Gucs2ddmap
 COMMON         0x0024e1a8      0x104 ../ulib/libuserxe.a(libuserxe_a-utrace.o)
                0x0024e1a8                Gtracehdr
                0x0024e2a8                Slockhandle
 COMMON         0x0024e2ac       0x24 ../ulib/libuserxe.a(libuserxe_a-uviom.o)
                0x0024e2ac                Guviombuffu
                0x0024e2b0                Guviomopt
                0x0024e2b4                Guviomoptstr
                0x0024e2b8                Guviomopt2
                0x0024e2bc                Gw95buffopt
                0x0024e2c0                Guviomoptstrucs
 COMMON         0x0024e2d0        0x4 ../ulib/libuserxe.a(libuserxe_a-uviol.o)
                0x0024e2d0                Guviol_flag
 COMMON         0x0024e2d4      0x140 ../ulib/libuserxe.a(libuserxe_a-ucalc.o)
                0x0024e2d4                Gucalc_result
                0x0024e414                . = ALIGN ((. != 0x0)?0x4:0x1)
                0x0024e414                _bss_end__ = .
                0x0024e414                __bss_end__ = .
                0x0024e414                . = ALIGN (0x4)
                0x0024e414                . = SEGMENT_START ("ldata-segment", .)
                0x0024e414                . = ALIGN (0x4)
                0x0024e414                __end__ = .
                0x0024e414                _end = .
                [!provide]                PROVIDE (end = .)
                0x0024e414                . = DATA_SEGMENT_END (.)

.stab
 *(.stab)

.stabstr
 *(.stabstr)

.stab.excl
 *(.stab.excl)

.stab.exclstr
 *(.stab.exclstr)

.stab.index
 *(.stab.index)

.stab.indexstr
 *(.stab.indexstr)

.comment        0x00000000       0x23
 *(.comment)
 .comment       0x00000000       0x23 /usr/lib/gcc/arm-linux-gnueabihf/8/crtbegin.o
                                 0x24 (size before relaxing)
 .comment       0x00000023       0x24 xcv-xcv.o
 .comment       0x00000023       0x24 ../ulib/libuserxe.a(libuserxe_a-uallocl.o)
 .comment       0x00000023       0x24 ../ulib/libuserxe.a(libuserxe_a-ucvebc.o)
 .comment       0x00000023       0x24 ../ulib/libuserxe.a(libuserxe_a-ucvebc2.o)
 .comment       0x00000023       0x24 ../ulib/libuserxe.a(libuserxe_a-ucvebc3.o)
 .comment       0x00000023       0x24 ../ulib/libuserxe.a(libuserxe_a-ucvebc4.o)
 .comment       0x00000023       0x24 ../ulib/libuserxe.a(libuserxe_a-ucvebct.o)
 .comment       0x00000023       0x24 ../ulib/libuserxe.a(libuserxe_a-ucvext.o)
 .comment       0x00000023       0x24 ../ulib/libuserxe.a(libuserxe_a-ucvext12.o)
 .comment       0x00000023       0x24 ../ulib/libuserxe.a(libuserxe_a-ucvext2.o)
 .comment       0x00000023       0x24 ../ulib/libuserxe.a(libuserxe_a-ucvucs.o)
 .comment       0x00000023       0x24 ../ulib/libuserxe.a(libuserxe_a-ucvucst.o)
 .comment       0x00000023       0x24 ../ulib/libuserxe.a(libuserxe_a-udbcschk.o)
 .comment       0x00000023       0x24 ../ulib/libuserxe.a(libuserxe_a-udbcsck2.o)
 .comment       0x00000023       0x24 ../ulib/libuserxe.a(libuserxe_a-udos2.o)
 .comment       0x00000023       0x24 ../ulib/libuserxe.a(libuserxe_a-uedit.o)
 .comment       0x00000023       0x24 ../ulib/libuserxe.a(libuserxe_a-uedit2.o)
 .comment       0x00000023       0x24 ../ulib/libuserxe.a(libuserxe_a-uerr.o)
 .comment       0x00000023       0x24 ../ulib/libuserxe.a(libuserxe_a-ufemsg.o)
 .comment       0x00000023       0x24 ../ulib/libuserxe.a(libuserxe_a-ufile.o)
 .comment       0x00000023       0x24 ../ulib/libuserxe.a(libuserxe_a-ufile1f.o)
 .comment       0x00000023       0x24 ../ulib/libuserxe.a(libuserxe_a-ufile1l.o)
 .comment       0x00000023       0x24 ../ulib/libuserxe.a(libuserxe_a-ufile1l2.o)
 .comment       0x00000023       0x24 ../ulib/libuserxe.a(libuserxe_a-ufile2.o)
 .comment       0x00000023       0x24 ../ulib/libuserxe.a(libuserxe_a-ufile2f.o)
 .comment       0x00000023       0x24 ../ulib/libuserxe.a(libuserxe_a-ufile2l.o)
 .comment       0x00000023       0x24 ../ulib/libuserxe.a(libuserxe_a-ufile2l2.o)
 .comment       0x00000023       0x24 ../ulib/libuserxe.a(libuserxe_a-ufile3.o)
 .comment       0x00000023       0x24 ../ulib/libuserxe.a(libuserxe_a-ufile3f.o)
 .comment       0x00000023       0x24 ../ulib/libuserxe.a(libuserxe_a-ufile4.o)
 .comment       0x00000023       0x24 ../ulib/libuserxe.a(libuserxe_a-ufile5.o)
 .comment       0x00000023       0x24 ../ulib/libuserxe.a(libuserxe_a-uftp.o)
 .comment       0x00000023       0x24 ../ulib/libuserxe.a(libuserxe_a-uftp2.o)
 .comment       0x00000023       0x24 ../ulib/libuserxe.a(libuserxe_a-uftp3.o)
 .comment       0x00000023       0x24 ../ulib/libuserxe.a(libuserxe_a-ugcclib.o)
 .comment       0x00000023       0x24 ../ulib/libuserxe.a(libuserxe_a-ukbdl.o)
 .comment       0x00000023       0x24 ../ulib/libuserxe.a(libuserxe_a-ukbdlnxc.o)
 .comment       0x00000023       0x24 ../ulib/libuserxe.a(libuserxe_a-ukbdlnxm.o)
 .comment       0x00000023       0x24 ../ulib/libuserxe.a(libuserxe_a-uparse.o)
 .comment       0x00000023       0x24 ../ulib/libuserxe.a(libuserxe_a-uproc.o)
 .comment       0x00000023       0x24 ../ulib/libuserxe.a(libuserxe_a-uproc2.o)
 .comment       0x00000023       0x24 ../ulib/libuserxe.a(libuserxe_a-uproc4.o)
 .comment       0x00000023       0x24 ../ulib/libuserxe.a(libuserxe_a-uque.o)
 .comment       0x00000023       0x24 ../ulib/libuserxe.a(libuserxe_a-ustrcpy.o)
 .comment       0x00000023       0x24 ../ulib/libuserxe.a(libuserxe_a-ustring.o)
 .comment       0x00000023       0x24 ../ulib/libuserxe.a(libuserxe_a-utf.o)
 .comment       0x00000023       0x24 ../ulib/libuserxe.a(libuserxe_a-utf2.o)
 .comment       0x00000023       0x24 ../ulib/libuserxe.a(libuserxe_a-utf22.o)
 .comment       0x00000023       0x24 ../ulib/libuserxe.a(libuserxe_a-utf3.o)
 .comment       0x00000023       0x24 ../ulib/libuserxe.a(libuserxe_a-utf4.o)
 .comment       0x00000023       0x24 ../ulib/libuserxe.a(libuserxe_a-utrace.o)
 .comment       0x00000023       0x24 ../ulib/libuserxe.a(libuserxe_a-uunxsub.o)
 .comment       0x00000023       0x24 ../ulib/libuserxe.a(libuserxe_a-uviom.o)
 .comment       0x00000023       0x24 ../ulib/libuserxe.a(libuserxe_a-uviol.o)
 .comment       0x00000023       0x24 ../ulib/libuserxe.a(libuserxe_a-u3270.o)
 .comment       0x00000023       0x24 ../ulib/libuserxe.a(libuserxe_a-u32702.o)
 .comment       0x00000023       0x24 ../ulib/libuserxe.a(libuserxe_a-u32703.o)
 .comment       0x00000023       0x24 ../ulib/libuserxe.a(libuserxe_a-uabend.o)
 .comment       0x00000023       0x24 ../ulib/libuserxe.a(libuserxe_a-ucalc2.o)
 .comment       0x00000023       0x24 ../ulib/libuserxe.a(libuserxe_a-uehl.o)
 .comment       0x00000023       0x24 ../ulib/libuserxe.a(libuserxe_a-uproc22.o)
 .comment       0x00000023       0x24 ../ulib/libuserxe.a(libuserxe_a-uproc3.o)
 .comment       0x00000023       0x24 ../ulib/libuserxe.a(libuserxe_a-ucalc.o)
 .comment       0x00000023       0x24 /usr/lib/gcc/arm-linux-gnueabihf/8/crtend.o

.ARM.attributes
                0x00000000       0x2f
 .ARM.attributes
                0x00000000       0x2f /usr/lib/gcc/arm-linux-gnueabihf/8/../../../arm-linux-gnueabihf/crt1.o
 .ARM.attributes
                0x0000002f       0x23 /usr/lib/gcc/arm-linux-gnueabihf/8/../../../arm-linux-gnueabihf/crti.o
 .ARM.attributes
                0x00000052       0x2f /usr/lib/gcc/arm-linux-gnueabihf/8/crtbegin.o
 .ARM.attributes
                0x00000081       0x2f xcv-xcv.o
 .ARM.attributes
                0x000000b0       0x2f ../ulib/libuserxe.a(libuserxe_a-uallocl.o)
 .ARM.attributes
                0x000000df       0x2f ../ulib/libuserxe.a(libuserxe_a-ucvebc.o)
 .ARM.attributes
                0x0000010e       0x2f ../ulib/libuserxe.a(libuserxe_a-ucvebc2.o)
 .ARM.attributes
                0x0000013d       0x2f ../ulib/libuserxe.a(libuserxe_a-ucvebc3.o)
 .ARM.attributes
                0x0000016c       0x2f ../ulib/libuserxe.a(libuserxe_a-ucvebc4.o)
 .ARM.attributes
                0x0000019b       0x2f ../ulib/libuserxe.a(libuserxe_a-ucvebct.o)
 .ARM.attributes
                0x000001ca       0x2f ../ulib/libuserxe.a(libuserxe_a-ucvext.o)
 .ARM.attributes
                0x000001f9       0x2f ../ulib/libuserxe.a(libuserxe_a-ucvext12.o)
 .ARM.attributes
                0x00000228       0x2f ../ulib/libuserxe.a(libuserxe_a-ucvext2.o)
 .ARM.attributes
                0x00000257       0x2f ../ulib/libuserxe.a(libuserxe_a-ucvucs.o)
 .ARM.attributes
                0x00000286       0x2f ../ulib/libuserxe.a(libuserxe_a-ucvucst.o)
 .ARM.attributes
                0x000002b5       0x2f ../ulib/libuserxe.a(libuserxe_a-udbcschk.o)
 .ARM.attributes
                0x000002e4       0x2f ../ulib/libuserxe.a(libuserxe_a-udbcsck2.o)
 .ARM.attributes
                0x00000313       0x2f ../ulib/libuserxe.a(libuserxe_a-udos2.o)
 .ARM.attributes
                0x00000342       0x2f ../ulib/libuserxe.a(libuserxe_a-uedit.o)
 .ARM.attributes
                0x00000371       0x2f ../ulib/libuserxe.a(libuserxe_a-uedit2.o)
 .ARM.attributes
                0x000003a0       0x2f ../ulib/libuserxe.a(libuserxe_a-uerr.o)
 .ARM.attributes
                0x000003cf       0x2f ../ulib/libuserxe.a(libuserxe_a-ufemsg.o)
 .ARM.attributes
                0x000003fe       0x2f ../ulib/libuserxe.a(libuserxe_a-ufile.o)
 .ARM.attributes
                0x0000042d       0x2f ../ulib/libuserxe.a(libuserxe_a-ufile1f.o)
 .ARM.attributes
                0x0000045c       0x2f ../ulib/libuserxe.a(libuserxe_a-ufile1l.o)
 .ARM.attributes
                0x0000048b       0x2f ../ulib/libuserxe.a(libuserxe_a-ufile1l2.o)
 .ARM.attributes
                0x000004ba       0x2f ../ulib/libuserxe.a(libuserxe_a-ufile2.o)
 .ARM.attributes
                0x000004e9       0x2f ../ulib/libuserxe.a(libuserxe_a-ufile2f.o)
 .ARM.attributes
                0x00000518       0x2f ../ulib/libuserxe.a(libuserxe_a-ufile2l.o)
 .ARM.attributes
                0x00000547       0x2f ../ulib/libuserxe.a(libuserxe_a-ufile2l2.o)
 .ARM.attributes
                0x00000576       0x2f ../ulib/libuserxe.a(libuserxe_a-ufile3.o)
 .ARM.attributes
                0x000005a5       0x2f ../ulib/libuserxe.a(libuserxe_a-ufile3f.o)
 .ARM.attributes
                0x000005d4       0x2f ../ulib/libuserxe.a(libuserxe_a-ufile4.o)
 .ARM.attributes
                0x00000603       0x2f ../ulib/libuserxe.a(libuserxe_a-ufile5.o)
 .ARM.attributes
                0x00000632       0x2f ../ulib/libuserxe.a(libuserxe_a-uftp.o)
 .ARM.attributes
                0x00000661       0x2f ../ulib/libuserxe.a(libuserxe_a-uftp2.o)
 .ARM.attributes
                0x00000690       0x2f ../ulib/libuserxe.a(libuserxe_a-uftp3.o)
 .ARM.attributes
                0x000006bf       0x2f ../ulib/libuserxe.a(libuserxe_a-ugcclib.o)
 .ARM.attributes
                0x000006ee       0x2f ../ulib/libuserxe.a(libuserxe_a-ukbdl.o)
 .ARM.attributes
                0x0000071d       0x2f ../ulib/libuserxe.a(libuserxe_a-ukbdlnxc.o)
 .ARM.attributes
                0x0000074c       0x2f ../ulib/libuserxe.a(libuserxe_a-ukbdlnxm.o)
 .ARM.attributes
                0x0000077b       0x2f ../ulib/libuserxe.a(libuserxe_a-uparse.o)
 .ARM.attributes
                0x000007aa       0x2f ../ulib/libuserxe.a(libuserxe_a-uproc.o)
 .ARM.attributes
                0x000007d9       0x2f ../ulib/libuserxe.a(libuserxe_a-uproc2.o)
 .ARM.attributes
                0x00000808       0x2f ../ulib/libuserxe.a(libuserxe_a-uproc4.o)
 .ARM.attributes
                0x00000837       0x2f ../ulib/libuserxe.a(libuserxe_a-uque.o)
 .ARM.attributes
                0x00000866       0x2f ../ulib/libuserxe.a(libuserxe_a-ustrcpy.o)
 .ARM.attributes
                0x00000895       0x2f ../ulib/libuserxe.a(libuserxe_a-ustring.o)
 .ARM.attributes
                0x000008c4       0x2f ../ulib/libuserxe.a(libuserxe_a-utf.o)
 .ARM.attributes
                0x000008f3       0x2f ../ulib/libuserxe.a(libuserxe_a-utf2.o)
 .ARM.attributes
                0x00000922       0x2f ../ulib/libuserxe.a(libuserxe_a-utf22.o)
 .ARM.attributes
                0x00000951       0x2f ../ulib/libuserxe.a(libuserxe_a-utf3.o)
 .ARM.attributes
                0x00000980       0x2f ../ulib/libuserxe.a(libuserxe_a-utf4.o)
 .ARM.attributes
                0x000009af       0x2f ../ulib/libuserxe.a(libuserxe_a-utrace.o)
 .ARM.attributes
                0x000009de       0x2f ../ulib/libuserxe.a(libuserxe_a-uunxsub.o)
 .ARM.attributes
                0x00000a0d       0x2f ../ulib/libuserxe.a(libuserxe_a-uviom.o)
 .ARM.attributes
                0x00000a3c       0x2f ../ulib/libuserxe.a(libuserxe_a-uviol.o)
 .ARM.attributes
                0x00000a6b       0x2f ../ulib/libuserxe.a(libuserxe_a-u3270.o)
 .ARM.attributes
                0x00000a9a       0x2f ../ulib/libuserxe.a(libuserxe_a-u32702.o)
 .ARM.attributes
                0x00000ac9       0x2f ../ulib/libuserxe.a(libuserxe_a-u32703.o)
 .ARM.attributes
                0x00000af8       0x2f ../ulib/libuserxe.a(libuserxe_a-uabend.o)
 .ARM.attributes
                0x00000b27       0x2f ../ulib/libuserxe.a(libuserxe_a-ucalc2.o)
 .ARM.attributes
                0x00000b56       0x2f ../ulib/libuserxe.a(libuserxe_a-uehl.o)
 .ARM.attributes
                0x00000b85       0x2f ../ulib/libuserxe.a(libuserxe_a-uproc22.o)
 .ARM.attributes
                0x00000bb4       0x2f ../ulib/libuserxe.a(libuserxe_a-uproc3.o)
 .ARM.attributes
                0x00000be3       0x2f ../ulib/libuserxe.a(libuserxe_a-ucalc.o)
 .ARM.attributes
                0x00000c12       0x1d /usr/lib/gcc/arm-linux-gnueabihf/8/libgcc.a(_divsi3.o)
 .ARM.attributes
                0x00000c2f       0x1d /usr/lib/gcc/arm-linux-gnueabihf/8/libgcc.a(_aeabi_ldivmod.o)
 .ARM.attributes
                0x00000c4c       0x1d /usr/lib/gcc/arm-linux-gnueabihf/8/libgcc.a(_dvmd_lnx.o)
 .ARM.attributes
                0x00000c69       0x2f /usr/lib/gcc/arm-linux-gnueabihf/8/libgcc.a(_udivmoddi4.o)
 .ARM.attributes
                0x00000c98       0x31 //usr/lib/arm-linux-gnueabihf/libc_nonshared.a(elf-init.oS)
 .ARM.attributes
                0x00000cc9       0x31 //usr/lib/arm-linux-gnueabihf/libc_nonshared.a(stat64.oS)
 .ARM.attributes
                0x00000cfa       0x31 //usr/lib/arm-linux-gnueabihf/libc_nonshared.a(lstat64.oS)
 .ARM.attributes
                0x00000d2b       0x2f /usr/lib/gcc/arm-linux-gnueabihf/8/crtend.o
 .ARM.attributes
                0x00000d5a       0x23 /usr/lib/gcc/arm-linux-gnueabihf/8/../../../arm-linux-gnueabihf/crtn.o

.debug
 *(.debug)

.line
 *(.line)

.debug_srcinfo
 *(.debug_srcinfo)

.debug_sfnames
 *(.debug_sfnames)

.debug_aranges
 *(.debug_aranges)

.debug_pubnames
 *(.debug_pubnames)

.debug_info
 *(.debug_info .gnu.linkonce.wi.*)

.debug_abbrev
 *(.debug_abbrev)

.debug_line
 *(.debug_line .debug_line.* .debug_line_end)

.debug_frame
 *(.debug_frame)

.debug_str
 *(.debug_str)

.debug_loc
 *(.debug_loc)

.debug_macinfo
 *(.debug_macinfo)

.debug_weaknames
 *(.debug_weaknames)

.debug_funcnames
 *(.debug_funcnames)

.debug_typenames
 *(.debug_typenames)

.debug_varnames
 *(.debug_varnames)

.debug_pubtypes
 *(.debug_pubtypes)

.debug_ranges
 *(.debug_ranges)

.debug_macro
 *(.debug_macro)

.debug_addr
 *(.debug_addr)

.gnu.attributes
 *(.gnu.attributes)

.note.gnu.arm.ident
 *(.note.gnu.arm.ident)

/DISCARD/
 *(.note.GNU-stack)
 *(.gnu_debuglink)
 *(.gnu.lto_*)
OUTPUT(xcv elf32-littlearm)
