Archive member included to satisfy reference by file (symbol)

../ulib/libuserxe.a(libuserxe_a-uallocl.o)
                              xdd.o (ufree)
../ulib/libuserxe.a(libuserxe_a-uedit2.o)
                              xdd.o (ueditfattr)
../ulib/libuserxe.a(libuserxe_a-uerr.o)
                              ../ulib/libuserxe.a(libuserxe_a-uallocl.o) (ubell)
../ulib/libuserxe.a(libuserxe_a-ufemsg.o)
                              ../ulib/libuserxe.a(libuserxe_a-uallocl.o) (ufileapierr)
../ulib/libuserxe.a(libuserxe_a-ufile.o)
                              xdd.o (Gufile_opt)
../ulib/libuserxe.a(libuserxe_a-ufile1f.o)
                              ../ulib/libuserxe.a(libuserxe_a-ufile.o) (uftpdirlistsub)
../ulib/libuserxe.a(libuserxe_a-ufile1l.o)
                              xdd.o (ufstat)
../ulib/libuserxe.a(libuserxe_a-ufile1l2.o)
                              ../ulib/libuserxe.a(libuserxe_a-ufile1l.o) (ufstat_mdos)
../ulib/libuserxe.a(libuserxe_a-ufile2.o)
                              xdd.o (uxddpchk)
../ulib/libuserxe.a(libuserxe_a-ufile2f.o)
                              ../ulib/libuserxe.a(libuserxe_a-ufile2.o) (uftpremove)
../ulib/libuserxe.a(libuserxe_a-ufile2l.o)
                              ../ulib/libuserxe.a(libuserxe_a-ufile2.o) (urmdir)
../ulib/libuserxe.a(libuserxe_a-ufile2l2.o)
                              ../ulib/libuserxe.a(libuserxe_a-ufile2l.o) (umkdir_mdos)
../ulib/libuserxe.a(libuserxe_a-ufile3.o)
                              ../ulib/libuserxe.a(libuserxe_a-ufile2l2.o) (udoscopy)
../ulib/libuserxe.a(libuserxe_a-ufile3f.o)
                              ../ulib/libuserxe.a(libuserxe_a-ufile3.o) (uftpxmove)
../ulib/libuserxe.a(libuserxe_a-ufile4.o)
                              ../ulib/libuserxe.a(libuserxe_a-ufile2l2.o) (utempnam)
../ulib/libuserxe.a(libuserxe_a-ufile5.o)
                              ../ulib/libuserxe.a(libuserxe_a-ufile2.o) (udoseditname)
../ulib/libuserxe.a(libuserxe_a-uftp.o)
                              ../ulib/libuserxe.a(libuserxe_a-ufile1f.o) (uftpfstatudl)
../ulib/libuserxe.a(libuserxe_a-uftp2.o)
                              ../ulib/libuserxe.a(libuserxe_a-uftp.o) (Gftpopt)
../ulib/libuserxe.a(libuserxe_a-uftp3.o)
                              ../ulib/libuserxe.a(libuserxe_a-uftp.o) (uftp3setssh)
../ulib/libuserxe.a(libuserxe_a-ugcclib.o)
                              ../ulib/libuserxe.a(libuserxe_a-uftp.o) (memicmp)
../ulib/libuserxe.a(libuserxe_a-ukbdl.o)
                              ../ulib/libuserxe.a(libuserxe_a-ugcclib.o) (ukbdl_getch_init)
../ulib/libuserxe.a(libuserxe_a-ukbdlnxc.o)
                              ../ulib/libuserxe.a(libuserxe_a-ukbdl.o) (ukbdlnxc_init)
../ulib/libuserxe.a(libuserxe_a-ukbdlnxm.o)
                              ../ulib/libuserxe.a(libuserxe_a-ukbdlnxc.o) (ukbdlnxm_mouseinit)
../ulib/libuserxe.a(libuserxe_a-uparse.o)
                              ../ulib/libuserxe.a(libuserxe_a-uftp.o) (uparsev)
../ulib/libuserxe.a(libuserxe_a-uproc.o)
                              ../ulib/libuserxe.a(libuserxe_a-ukbdl.o) (uproc_getpsinfo)
../ulib/libuserxe.a(libuserxe_a-uproc2.o)
                              ../ulib/libuserxe.a(libuserxe_a-ufile2f.o) (uproc_rsh)
../ulib/libuserxe.a(libuserxe_a-uproc4.o)
                              ../ulib/libuserxe.a(libuserxe_a-ukbdlnxc.o) (uproc_select)
../ulib/libuserxe.a(libuserxe_a-uque.o)
                              ../ulib/libuserxe.a(libuserxe_a-uftp.o) (uenq)
../ulib/libuserxe.a(libuserxe_a-ustrcpy.o)
                              ../ulib/libuserxe.a(libuserxe_a-uedit2.o) (ustring_memcpy)
../ulib/libuserxe.a(libuserxe_a-ustring.o)
                              ../ulib/libuserxe.a(libuserxe_a-ufile.o) (ustrnlen)
../ulib/libuserxe.a(libuserxe_a-utf.o)
                              ../ulib/libuserxe.a(libuserxe_a-ufile1l.o) (Gulibutfmode)
../ulib/libuserxe.a(libuserxe_a-utf2.o)
                              ../ulib/libuserxe.a(libuserxe_a-ufile1l.o) (utfcvl2fany)
../ulib/libuserxe.a(libuserxe_a-utf22.o)
                              ../ulib/libuserxe.a(libuserxe_a-utf2.o) (utfgetwcw)
../ulib/libuserxe.a(libuserxe_a-utf3.o)
                              ../ulib/libuserxe.a(libuserxe_a-utf2.o) (utfmb2wc)
../ulib/libuserxe.a(libuserxe_a-utf4.o)
                              ../ulib/libuserxe.a(libuserxe_a-utf3.o) (mk_wcwidth)
../ulib/libuserxe.a(libuserxe_a-utrace.o)
                              ../ulib/libuserxe.a(libuserxe_a-uftp2.o) (Gtracehdr)
../ulib/libuserxe.a(libuserxe_a-uunxsub.o)
                              ../ulib/libuserxe.a(libuserxe_a-ufile2l.o) (ugetugid)
../ulib/libuserxe.a(libuserxe_a-uviol.o)
                              ../ulib/libuserxe.a(libuserxe_a-uerr.o) (Guviol_flag)
../ulib/libuserxe.a(libuserxe_a-u3270.o)
                              ../ulib/libuserxe.a(libuserxe_a-ufile1f.o) (u3270fstat)
../ulib/libuserxe.a(libuserxe_a-u32702.o)
                              ../ulib/libuserxe.a(libuserxe_a-ufile2f.o) (u3270mkdir)
../ulib/libuserxe.a(libuserxe_a-u32703.o)
                              ../ulib/libuserxe.a(libuserxe_a-ufile3.o) (u3270xmove)
../ulib/libuserxe.a(libuserxe_a-uabend.o)
                              ../ulib/libuserxe.a(libuserxe_a-ukbdl.o) (uabend)
../ulib/libuserxe.a(libuserxe_a-ucalc2.o)
                              ../ulib/libuserxe.a(libuserxe_a-uftp2.o) (ucalc_ld2dw)
../ulib/libuserxe.a(libuserxe_a-ucvebc.o)
                              ../ulib/libuserxe.a(libuserxe_a-uerr.o) (Gucvebc_stat)
../ulib/libuserxe.a(libuserxe_a-ucvebc2.o)
                              ../ulib/libuserxe.a(libuserxe_a-ucvebc.o) (ucvebc2_stre2s)
../ulib/libuserxe.a(libuserxe_a-ucvebct.o)
                              ../ulib/libuserxe.a(libuserxe_a-ucvebc2.o) (ucvebc2gettbl)
../ulib/libuserxe.a(libuserxe_a-ucvext.o)
                              ../ulib/libuserxe.a(libuserxe_a-utf2.o) (ucvext_icuclose)
../ulib/libuserxe.a(libuserxe_a-ucvext12.o)
                              ../ulib/libuserxe.a(libuserxe_a-ucvext.o) (ucvext12_init)
../ulib/libuserxe.a(libuserxe_a-ucvext2.o)
                              ../ulib/libuserxe.a(libuserxe_a-ucvext.o) (ucvext_iconvmapinit)
../ulib/libuserxe.a(libuserxe_a-ucvucs.o)
                              ../ulib/libuserxe.a(libuserxe_a-uedit2.o) (uccvucs2sjis)
../ulib/libuserxe.a(libuserxe_a-ucvucst.o)
                              ../ulib/libuserxe.a(libuserxe_a-ucvucs.o) (ugetcp932tbl)
../ulib/libuserxe.a(libuserxe_a-udbcschk.o)
                              ../ulib/libuserxe.a(libuserxe_a-uedit2.o) (Gudbcschk_flag)
../ulib/libuserxe.a(libuserxe_a-udbcsck2.o)
                              ../ulib/libuserxe.a(libuserxe_a-uerr.o) (ushift2euc)
../ulib/libuserxe.a(libuserxe_a-udos2.o)
                              ../ulib/libuserxe.a(libuserxe_a-ufile1l2.o) (udos_setenv)
../ulib/libuserxe.a(libuserxe_a-uedit.o)
                              ../ulib/libuserxe.a(libuserxe_a-ufemsg.o) (unumedit)
../ulib/libuserxe.a(libuserxe_a-uehl.o)
                              ../ulib/libuserxe.a(libuserxe_a-ukbdlnxc.o) (uehl_setsh)
../ulib/libuserxe.a(libuserxe_a-uproc22.o)
                              ../ulib/libuserxe.a(libuserxe_a-utrace.o) (ucriticalsection)
../ulib/libuserxe.a(libuserxe_a-uproc3.o)
                              ../ulib/libuserxe.a(libuserxe_a-uproc4.o) (usleepms)
../ulib/libuserxe.a(libuserxe_a-uviom.o)
                              ../ulib/libuserxe.a(libuserxe_a-uviol.o) (Guviomopt)
../ulib/libuserxe.a(libuserxe_a-ucalc.o)
                              ../ulib/libuserxe.a(libuserxe_a-ucalc2.o) (ucalc_binop)
../ulib/libuserxe.a(libuserxe_a-ucvebc3.o)
                              ../ulib/libuserxe.a(libuserxe_a-ucvext2.o) (ucvebc3_b2dd)
../ulib/libuserxe.a(libuserxe_a-ucvebc4.o)
                              ../ulib/libuserxe.a(libuserxe_a-ucvext.o) (ucvebc4_init)
/usr/lib/gcc/arm-linux-gnueabihf/8/libgcc.a(_divsi3.o)
                              ../ulib/libuserxe.a(libuserxe_a-ufile1l2.o) (__aeabi_idiv)
/usr/lib/gcc/arm-linux-gnueabihf/8/libgcc.a(_aeabi_ldivmod.o)
                              ../ulib/libuserxe.a(libuserxe_a-u32703.o) (__aeabi_ldivmod)
/usr/lib/gcc/arm-linux-gnueabihf/8/libgcc.a(_dvmd_lnx.o)
                              /usr/lib/gcc/arm-linux-gnueabihf/8/libgcc.a(_aeabi_ldivmod.o) (__aeabi_ldiv0)
/usr/lib/gcc/arm-linux-gnueabihf/8/libgcc.a(_udivmoddi4.o)
                              /usr/lib/gcc/arm-linux-gnueabihf/8/libgcc.a(_aeabi_ldivmod.o) (__udivmoddi4)
//usr/lib/arm-linux-gnueabihf/libc_nonshared.a(elf-init.oS)
                              /usr/lib/gcc/arm-linux-gnueabihf/8/../../../arm-linux-gnueabihf/crt1.o (__libc_csu_init)
//usr/lib/arm-linux-gnueabihf/libc_nonshared.a(stat64.oS)
                              ../ulib/libuserxe.a(libuserxe_a-ufile1l.o) (stat64)
//usr/lib/arm-linux-gnueabihf/libc_nonshared.a(lstat64.oS)
                              ../ulib/libuserxe.a(libuserxe_a-ufile1l.o) (lstat64)

Allocating common symbols
Common symbol       size              file

Gucs2ddmap_i2u      0x20000           ../ulib/libuserxe.a(libuserxe_a-utf22.o)
Guviombuffu         0x4               ../ulib/libuserxe.a(libuserxe_a-uviom.o)
Gufile_opt          0x4               ../ulib/libuserxe.a(libuserxe_a-ufile.o)
Sphiconv            0x4               ../ulib/libuserxe.a(libuserxe_a-ukbdl.o)
Snewoldctr          0x4               ../ulib/libuserxe.a(libuserxe_a-ucvebc2.o)
Gftperr             0x4               ../ulib/libuserxe.a(libuserxe_a-uftp2.o)
Gulibutfmode        0x4               ../ulib/libuserxe.a(libuserxe_a-utf.o)
Se2stctr            0x4               ../ulib/libuserxe.a(libuserxe_a-ucvebc2.o)
Gtracehdr           0x100             ../ulib/libuserxe.a(libuserxe_a-utrace.o)
Sfdpiper            0x4               ../ulib/libuserxe.a(libuserxe_a-uproc.o)
Gutfrc              0x4               ../ulib/libuserxe.a(libuserxe_a-utf.o)
Gualloc_amount      0x4               ../ulib/libuserxe.a(libuserxe_a-uallocl.o)
Guviomopt           0x4               ../ulib/libuserxe.a(libuserxe_a-uviom.o)
Slockhandle         0x4               ../ulib/libuserxe.a(libuserxe_a-utrace.o)
Gucvebchctr         0x4               ../ulib/libuserxe.a(libuserxe_a-ucvebc.o)
Gudbcschk_flag      0x4               ../ulib/libuserxe.a(libuserxe_a-udbcschk.o)
Guerropt2           0x4               ../ulib/libuserxe.a(libuserxe_a-uerr.o)
Sduptctr            0x4               ../ulib/libuserxe.a(libuserxe_a-ucvebc2.o)
Gukbdl_flag         0x4               ../ulib/libuserxe.a(libuserxe_a-ukbdl.o)
Ss2etctr            0x4               ../ulib/libuserxe.a(libuserxe_a-ucvebc2.o)
Gucvebch            0x9c40            ../ulib/libuserxe.a(libuserxe_a-ucvebc.o)
Gucalc_result       0x140             ../ulib/libuserxe.a(libuserxe_a-ucalc.o)
Guviol_flag         0x4               ../ulib/libuserxe.a(libuserxe_a-uviol.o)
Guviomoptstr        0x4               ../ulib/libuserxe.a(libuserxe_a-uviom.o)
Gftpopt             0x4               ../ulib/libuserxe.a(libuserxe_a-uftp2.o)
Gufile_nomsg        0x4               ../ulib/libuserxe.a(libuserxe_a-ufile.o)
Gualloc16_amount    0x4               ../ulib/libuserxe.a(libuserxe_a-uallocl.o)
Gudbcschk_width0top
                    0x4               ../ulib/libuserxe.a(libuserxe_a-udbcschk.o)
Gucvebc_stat        0x4               ../ulib/libuserxe.a(libuserxe_a-ucvebc.o)
Gftpclient          0x80              ../ulib/libuserxe.a(libuserxe_a-uftp2.o)
Guviomopt2          0x4               ../ulib/libuserxe.a(libuserxe_a-uviom.o)
Sdbcschk_hkopt      0x4               ../ulib/libuserxe.a(libuserxe_a-udbcschk.o)
Gutfcombaltch       0x4               ../ulib/libuserxe.a(libuserxe_a-utf.o)
Gucs2ddmap          0x40000           ../ulib/libuserxe.a(libuserxe_a-utf22.o)
Gw95buffopt         0x4               ../ulib/libuserxe.a(libuserxe_a-uviom.o)
Guerropt            0x1               ../ulib/libuserxe.a(libuserxe_a-uerr.o)
Guviomoptstrucs     0x10              ../ulib/libuserxe.a(libuserxe_a-uviom.o)
Sfdpipew            0x4               ../ulib/libuserxe.a(libuserxe_a-uproc.o)

Discarded input sections

 .note.GNU-stack
                0x00000000        0x0 /usr/lib/gcc/arm-linux-gnueabihf/8/../../../arm-linux-gnueabihf/crt1.o
 .note.GNU-stack
                0x00000000        0x0 /usr/lib/gcc/arm-linux-gnueabihf/8/../../../arm-linux-gnueabihf/crti.o
 .note.GNU-stack
                0x00000000        0x0 /usr/lib/gcc/arm-linux-gnueabihf/8/crtbegin.o
 .note.GNU-stack
                0x00000000        0x0 xdd.o
 .note.GNU-stack
                0x00000000        0x0 ../ulib/libuserxe.a(libuserxe_a-uallocl.o)
 .note.GNU-stack
                0x00000000        0x0 ../ulib/libuserxe.a(libuserxe_a-uedit2.o)
 .note.GNU-stack
                0x00000000        0x0 ../ulib/libuserxe.a(libuserxe_a-uerr.o)
 .note.GNU-stack
                0x00000000        0x0 ../ulib/libuserxe.a(libuserxe_a-ufemsg.o)
 .note.GNU-stack
                0x00000000        0x0 ../ulib/libuserxe.a(libuserxe_a-ufile.o)
 .note.GNU-stack
                0x00000000        0x0 ../ulib/libuserxe.a(libuserxe_a-ufile1f.o)
 .note.GNU-stack
                0x00000000        0x0 ../ulib/libuserxe.a(libuserxe_a-ufile1l.o)
 .note.GNU-stack
                0x00000000        0x0 ../ulib/libuserxe.a(libuserxe_a-ufile1l2.o)
 .note.GNU-stack
                0x00000000        0x0 ../ulib/libuserxe.a(libuserxe_a-ufile2.o)
 .note.GNU-stack
                0x00000000        0x0 ../ulib/libuserxe.a(libuserxe_a-ufile2f.o)
 .note.GNU-stack
                0x00000000        0x0 ../ulib/libuserxe.a(libuserxe_a-ufile2l.o)
 .note.GNU-stack
                0x00000000        0x0 ../ulib/libuserxe.a(libuserxe_a-ufile2l2.o)
 .note.GNU-stack
                0x00000000        0x0 ../ulib/libuserxe.a(libuserxe_a-ufile3.o)
 .note.GNU-stack
                0x00000000        0x0 ../ulib/libuserxe.a(libuserxe_a-ufile3f.o)
 .note.GNU-stack
                0x00000000        0x0 ../ulib/libuserxe.a(libuserxe_a-ufile4.o)
 .note.GNU-stack
                0x00000000        0x0 ../ulib/libuserxe.a(libuserxe_a-ufile5.o)
 .note.GNU-stack
                0x00000000        0x0 ../ulib/libuserxe.a(libuserxe_a-uftp.o)
 .note.GNU-stack
                0x00000000        0x0 ../ulib/libuserxe.a(libuserxe_a-uftp2.o)
 .note.GNU-stack
                0x00000000        0x0 ../ulib/libuserxe.a(libuserxe_a-uftp3.o)
 .note.GNU-stack
                0x00000000        0x0 ../ulib/libuserxe.a(libuserxe_a-ugcclib.o)
 .note.GNU-stack
                0x00000000        0x0 ../ulib/libuserxe.a(libuserxe_a-ukbdl.o)
 .note.GNU-stack
                0x00000000        0x0 ../ulib/libuserxe.a(libuserxe_a-ukbdlnxc.o)
 .note.GNU-stack
                0x00000000        0x0 ../ulib/libuserxe.a(libuserxe_a-ukbdlnxm.o)
 .note.GNU-stack
                0x00000000        0x0 ../ulib/libuserxe.a(libuserxe_a-uparse.o)
 .note.GNU-stack
                0x00000000        0x0 ../ulib/libuserxe.a(libuserxe_a-uproc.o)
 .note.GNU-stack
                0x00000000        0x0 ../ulib/libuserxe.a(libuserxe_a-uproc2.o)
 .note.GNU-stack
                0x00000000        0x0 ../ulib/libuserxe.a(libuserxe_a-uproc4.o)
 .note.GNU-stack
                0x00000000        0x0 ../ulib/libuserxe.a(libuserxe_a-uque.o)
 .note.GNU-stack
                0x00000000        0x0 ../ulib/libuserxe.a(libuserxe_a-ustrcpy.o)
 .note.GNU-stack
                0x00000000        0x0 ../ulib/libuserxe.a(libuserxe_a-ustring.o)
 .note.GNU-stack
                0x00000000        0x0 ../ulib/libuserxe.a(libuserxe_a-utf.o)
 .note.GNU-stack
                0x00000000        0x0 ../ulib/libuserxe.a(libuserxe_a-utf2.o)
 .note.GNU-stack
                0x00000000        0x0 ../ulib/libuserxe.a(libuserxe_a-utf22.o)
 .note.GNU-stack
                0x00000000        0x0 ../ulib/libuserxe.a(libuserxe_a-utf3.o)
 .note.GNU-stack
                0x00000000        0x0 ../ulib/libuserxe.a(libuserxe_a-utf4.o)
 .note.GNU-stack
                0x00000000        0x0 ../ulib/libuserxe.a(libuserxe_a-utrace.o)
 .note.GNU-stack
                0x00000000        0x0 ../ulib/libuserxe.a(libuserxe_a-uunxsub.o)
 .note.GNU-stack
                0x00000000        0x0 ../ulib/libuserxe.a(libuserxe_a-uviol.o)
 .note.GNU-stack
                0x00000000        0x0 ../ulib/libuserxe.a(libuserxe_a-u3270.o)
 .note.GNU-stack
                0x00000000        0x0 ../ulib/libuserxe.a(libuserxe_a-u32702.o)
 .note.GNU-stack
                0x00000000        0x0 ../ulib/libuserxe.a(libuserxe_a-u32703.o)
 .note.GNU-stack
                0x00000000        0x0 ../ulib/libuserxe.a(libuserxe_a-uabend.o)
 .note.GNU-stack
                0x00000000        0x0 ../ulib/libuserxe.a(libuserxe_a-ucalc2.o)
 .note.GNU-stack
                0x00000000        0x0 ../ulib/libuserxe.a(libuserxe_a-ucvebc.o)
 .note.GNU-stack
                0x00000000        0x0 ../ulib/libuserxe.a(libuserxe_a-ucvebc2.o)
 .note.GNU-stack
                0x00000000        0x0 ../ulib/libuserxe.a(libuserxe_a-ucvebct.o)
 .note.GNU-stack
                0x00000000        0x0 ../ulib/libuserxe.a(libuserxe_a-ucvext.o)
 .note.GNU-stack
                0x00000000        0x0 ../ulib/libuserxe.a(libuserxe_a-ucvext12.o)
 .note.GNU-stack
                0x00000000        0x0 ../ulib/libuserxe.a(libuserxe_a-ucvext2.o)
 .note.GNU-stack
                0x00000000        0x0 ../ulib/libuserxe.a(libuserxe_a-ucvucs.o)
 .note.GNU-stack
                0x00000000        0x0 ../ulib/libuserxe.a(libuserxe_a-ucvucst.o)
 .note.GNU-stack
                0x00000000        0x0 ../ulib/libuserxe.a(libuserxe_a-udbcschk.o)
 .note.GNU-stack
                0x00000000        0x0 ../ulib/libuserxe.a(libuserxe_a-udbcsck2.o)
 .note.GNU-stack
                0x00000000        0x0 ../ulib/libuserxe.a(libuserxe_a-udos2.o)
 .note.GNU-stack
                0x00000000        0x0 ../ulib/libuserxe.a(libuserxe_a-uedit.o)
 .note.GNU-stack
                0x00000000        0x0 ../ulib/libuserxe.a(libuserxe_a-uehl.o)
 .note.GNU-stack
                0x00000000        0x0 ../ulib/libuserxe.a(libuserxe_a-uproc22.o)
 .note.GNU-stack
                0x00000000        0x0 ../ulib/libuserxe.a(libuserxe_a-uproc3.o)
 .note.GNU-stack
                0x00000000        0x0 ../ulib/libuserxe.a(libuserxe_a-uviom.o)
 .note.GNU-stack
                0x00000000        0x0 ../ulib/libuserxe.a(libuserxe_a-ucalc.o)
 .note.GNU-stack
                0x00000000        0x0 ../ulib/libuserxe.a(libuserxe_a-ucvebc3.o)
 .note.GNU-stack
                0x00000000        0x0 ../ulib/libuserxe.a(libuserxe_a-ucvebc4.o)
 .note.GNU-stack
                0x00000000        0x0 /usr/lib/gcc/arm-linux-gnueabihf/8/libgcc.a(_divsi3.o)
 .note.GNU-stack
                0x00000000        0x0 /usr/lib/gcc/arm-linux-gnueabihf/8/libgcc.a(_aeabi_ldivmod.o)
 .note.GNU-stack
                0x00000000        0x0 /usr/lib/gcc/arm-linux-gnueabihf/8/libgcc.a(_dvmd_lnx.o)
 .note.GNU-stack
                0x00000000        0x0 /usr/lib/gcc/arm-linux-gnueabihf/8/libgcc.a(_udivmoddi4.o)
 .note.GNU-stack
                0x00000000        0x0 //usr/lib/arm-linux-gnueabihf/libc_nonshared.a(elf-init.oS)
 .note.GNU-stack
                0x00000000        0x0 //usr/lib/arm-linux-gnueabihf/libc_nonshared.a(stat64.oS)
 .note.GNU-stack
                0x00000000        0x0 //usr/lib/arm-linux-gnueabihf/libc_nonshared.a(lstat64.oS)
 .note.GNU-stack
                0x00000000        0x0 /usr/lib/gcc/arm-linux-gnueabihf/8/crtend.o
 .note.GNU-stack
                0x00000000        0x0 /usr/lib/gcc/arm-linux-gnueabihf/8/../../../arm-linux-gnueabihf/crtn.o

Memory Configuration

Name             Origin             Length             Attributes
*default*        0x00000000         0xffffffff

Linker script and memory map

LOAD /usr/lib/gcc/arm-linux-gnueabihf/8/../../../arm-linux-gnueabihf/crt1.o
LOAD /usr/lib/gcc/arm-linux-gnueabihf/8/../../../arm-linux-gnueabihf/crti.o
LOAD /usr/lib/gcc/arm-linux-gnueabihf/8/crtbegin.o
LOAD xdd.o
LOAD ../ulib/libuserxe.a
LOAD /usr/lib/gcc/arm-linux-gnueabihf/8/../../../arm-linux-gnueabihf/libgnomeui-2.so
LOAD /usr/lib/gcc/arm-linux-gnueabihf/8/../../../arm-linux-gnueabihf/libSM.so
LOAD /usr/lib/gcc/arm-linux-gnueabihf/8/../../../arm-linux-gnueabihf/libICE.so
LOAD /usr/lib/gcc/arm-linux-gnueabihf/8/../../../arm-linux-gnueabihf/libbonoboui-2.so
LOAD /usr/lib/gcc/arm-linux-gnueabihf/8/../../../arm-linux-gnueabihf/libgnome-2.so
LOAD /usr/lib/gcc/arm-linux-gnueabihf/8/../../../arm-linux-gnueabihf/libpopt.so
LOAD /usr/lib/gcc/arm-linux-gnueabihf/8/../../../arm-linux-gnueabihf/libbonobo-2.so
LOAD /usr/lib/gcc/arm-linux-gnueabihf/8/../../../arm-linux-gnueabihf/libbonobo-activation.so
LOAD /usr/lib/gcc/arm-linux-gnueabihf/8/../../../arm-linux-gnueabihf/libORBit-2.so
LOAD /usr/lib/gcc/arm-linux-gnueabihf/8/../../../arm-linux-gnueabihf/libgnomecanvas-2.so
LOAD /usr/lib/gcc/arm-linux-gnueabihf/8/../../../arm-linux-gnueabihf/libart_lgpl_2.so
LOAD /usr/lib/gcc/arm-linux-gnueabihf/8/../../../arm-linux-gnueabihf/libgnomevfs-2.so
LOAD /usr/lib/gcc/arm-linux-gnueabihf/8/../../../arm-linux-gnueabihf/libgconf-2.so
LOAD /usr/lib/gcc/arm-linux-gnueabihf/8/../../../arm-linux-gnueabihf/libgthread-2.0.so
LOAD /usr/lib/gcc/arm-linux-gnueabihf/8/../../../arm-linux-gnueabihf/libgmodule-2.0.so
LOAD /usr/lib/gcc/arm-linux-gnueabihf/8/../../../arm-linux-gnueabihf/libgtk-x11-2.0.so
LOAD /usr/lib/gcc/arm-linux-gnueabihf/8/../../../arm-linux-gnueabihf/libgdk-x11-2.0.so
LOAD /usr/lib/gcc/arm-linux-gnueabihf/8/../../../arm-linux-gnueabihf/libpangocairo-1.0.so
LOAD /usr/lib/gcc/arm-linux-gnueabihf/8/../../../arm-linux-gnueabihf/libatk-1.0.so
LOAD /usr/lib/gcc/arm-linux-gnueabihf/8/../../../arm-linux-gnueabihf/libcairo.so
LOAD /usr/lib/gcc/arm-linux-gnueabihf/8/../../../arm-linux-gnueabihf/libgdk_pixbuf-2.0.so
LOAD /usr/lib/gcc/arm-linux-gnueabihf/8/../../../arm-linux-gnueabihf/libgio-2.0.so
LOAD /usr/lib/gcc/arm-linux-gnueabihf/8/../../../arm-linux-gnueabihf/libpangoft2-1.0.so
LOAD /usr/lib/gcc/arm-linux-gnueabihf/8/../../../arm-linux-gnueabihf/libpango-1.0.so
LOAD /usr/lib/gcc/arm-linux-gnueabihf/8/../../../arm-linux-gnueabihf/libgobject-2.0.so
LOAD /usr/lib/gcc/arm-linux-gnueabihf/8/../../../arm-linux-gnueabihf/libglib-2.0.so
LOAD /usr/lib/gcc/arm-linux-gnueabihf/8/../../../arm-linux-gnueabihf/libfontconfig.so
LOAD /usr/lib/gcc/arm-linux-gnueabihf/8/../../../arm-linux-gnueabihf/libfreetype.so
LOAD /usr/lib/gcc/arm-linux-gnueabihf/8/../../../arm-linux-gnueabihf/libdl.so
LOAD /usr/lib/gcc/arm-linux-gnueabihf/8/../../../arm-linux-gnueabihf/libncursesw.so
LOAD /lib/arm-linux-gnueabihf/libncursesw.so.6
LOAD /usr/lib/gcc/arm-linux-gnueabihf/8/../../../arm-linux-gnueabihf/libtinfo.so
LOAD /usr/lib/gcc/arm-linux-gnueabihf/8/../../../arm-linux-gnueabihf/libcups.so
LOAD /usr/lib/gcc/arm-linux-gnueabihf/8/libgcc.a
LOAD /usr/lib/gcc/arm-linux-gnueabihf/8/libgcc_s.so
START GROUP
LOAD /usr/lib/gcc/arm-linux-gnueabihf/8/libgcc_s.so.1
LOAD /usr/lib/gcc/arm-linux-gnueabihf/8/libgcc.a
END GROUP
LOAD /usr/lib/gcc/arm-linux-gnueabihf/8/../../../arm-linux-gnueabihf/libpthread.so
LOAD /usr/lib/gcc/arm-linux-gnueabihf/8/../../../arm-linux-gnueabihf/libc.so
START GROUP
LOAD //lib/arm-linux-gnueabihf/libc.so.6
LOAD //usr/lib/arm-linux-gnueabihf/libc_nonshared.a
LOAD //lib/arm-linux-gnueabihf/ld-linux-armhf.so.3
END GROUP
LOAD /usr/lib/gcc/arm-linux-gnueabihf/8/libgcc.a
LOAD /usr/lib/gcc/arm-linux-gnueabihf/8/libgcc_s.so
START GROUP
LOAD /usr/lib/gcc/arm-linux-gnueabihf/8/libgcc_s.so.1
LOAD /usr/lib/gcc/arm-linux-gnueabihf/8/libgcc.a
END GROUP
LOAD /usr/lib/gcc/arm-linux-gnueabihf/8/crtend.o
LOAD /usr/lib/gcc/arm-linux-gnueabihf/8/../../../arm-linux-gnueabihf/crtn.o
                [!provide]                PROVIDE (__executable_start = SEGMENT_START ("text-segment", 0x10000))
                0x00010154                . = (SEGMENT_START ("text-segment", 0x10000) + SIZEOF_HEADERS)

.interp         0x00010154       0x19
 *(.interp)
 .interp        0x00010154       0x19 /usr/lib/gcc/arm-linux-gnueabihf/8/../../../arm-linux-gnueabihf/crt1.o

.note.ABI-tag   0x00010170       0x20
 .note.ABI-tag  0x00010170       0x20 /usr/lib/gcc/arm-linux-gnueabihf/8/../../../arm-linux-gnueabihf/crt1.o

.note.gnu.build-id
                0x00010190       0x24
 *(.note.gnu.build-id)
 .note.gnu.build-id
                0x00010190       0x24 linker stubs

.hash
 *(.hash)

.gnu.hash       0x000101b4      0x738
 *(.gnu.hash)
 .gnu.hash      0x000101b4      0x738 /usr/lib/gcc/arm-linux-gnueabihf/8/../../../arm-linux-gnueabihf/crt1.o

.dynsym         0x000108ec      0xc90
 *(.dynsym)
 .dynsym        0x000108ec      0xc90 /usr/lib/gcc/arm-linux-gnueabihf/8/../../../arm-linux-gnueabihf/crt1.o

.dynstr         0x0001157c      0x9b5
 *(.dynstr)
 .dynstr        0x0001157c      0x9b5 /usr/lib/gcc/arm-linux-gnueabihf/8/../../../arm-linux-gnueabihf/crt1.o

.gnu.version    0x00011f32      0x192
 *(.gnu.version)
 .gnu.version   0x00011f32      0x192 /usr/lib/gcc/arm-linux-gnueabihf/8/../../../arm-linux-gnueabihf/crt1.o

.gnu.version_d  0x000120c4        0x0
 *(.gnu.version_d)
 .gnu.version_d
                0x000120c4        0x0 /usr/lib/gcc/arm-linux-gnueabihf/8/../../../arm-linux-gnueabihf/crt1.o

.gnu.version_r  0x000120c4       0xc0
 *(.gnu.version_r)
 .gnu.version_r
                0x000120c4       0xc0 /usr/lib/gcc/arm-linux-gnueabihf/8/../../../arm-linux-gnueabihf/crt1.o

.rel.dyn        0x00012184       0x60
 *(.rel.init)
 *(.rel.text .rel.text.* .rel.gnu.linkonce.t.*)
 *(.rel.fini)
 *(.rel.rodata .rel.rodata.* .rel.gnu.linkonce.r.*)
 *(.rel.data.rel.ro .rel.data.rel.ro.* .rel.gnu.linkonce.d.rel.ro.*)
 .rel.data.rel.ro
                0x00012184        0x0 /usr/lib/gcc/arm-linux-gnueabihf/8/../../../arm-linux-gnueabihf/crt1.o
 *(.rel.data .rel.data.* .rel.gnu.linkonce.d.*)
 *(.rel.tdata .rel.tdata.* .rel.gnu.linkonce.td.*)
 *(.rel.tbss .rel.tbss.* .rel.gnu.linkonce.tb.*)
 *(.rel.ctors)
 *(.rel.dtors)
 *(.rel.got)
 .rel.got       0x00012184        0x8 /usr/lib/gcc/arm-linux-gnueabihf/8/../../../arm-linux-gnueabihf/crt1.o
 *(.rel.bss .rel.bss.* .rel.gnu.linkonce.b.*)
 .rel.bss       0x0001218c       0x58 /usr/lib/gcc/arm-linux-gnueabihf/8/../../../arm-linux-gnueabihf/crt1.o
                [!provide]                PROVIDE (__rel_iplt_start = .)
 *(.rel.iplt)
 .rel.iplt      0x000121e4        0x0 /usr/lib/gcc/arm-linux-gnueabihf/8/../../../arm-linux-gnueabihf/crt1.o
                [!provide]                PROVIDE (__rel_iplt_end = .)

.rela.dyn       0x000121e4        0x0
 *(.rela.init)
 *(.rela.text .rela.text.* .rela.gnu.linkonce.t.*)
 *(.rela.fini)
 *(.rela.rodata .rela.rodata.* .rela.gnu.linkonce.r.*)
 *(.rela.data .rela.data.* .rela.gnu.linkonce.d.*)
 *(.rela.tdata .rela.tdata.* .rela.gnu.linkonce.td.*)
 *(.rela.tbss .rela.tbss.* .rela.gnu.linkonce.tb.*)
 *(.rela.ctors)
 *(.rela.dtors)
 *(.rela.got)
 *(.rela.bss .rela.bss.* .rela.gnu.linkonce.b.*)
                [!provide]                PROVIDE (__rela_iplt_start = .)
 *(.rela.iplt)
                [!provide]                PROVIDE (__rela_iplt_end = .)

.rel.plt        0x000121e4      0x5a0
 *(.rel.plt)
 .rel.plt       0x000121e4      0x5a0 /usr/lib/gcc/arm-linux-gnueabihf/8/../../../arm-linux-gnueabihf/crt1.o

.rela.plt
 *(.rela.plt)

.init           0x00012784        0xc
 *(SORT_NONE(.init))
 .init          0x00012784        0x8 /usr/lib/gcc/arm-linux-gnueabihf/8/../../../arm-linux-gnueabihf/crti.o
                0x00012784                _init
 .init          0x0001278c        0x4 /usr/lib/gcc/arm-linux-gnueabihf/8/../../../arm-linux-gnueabihf/crtn.o

.plt            0x00012790      0x884
 *(.plt)
 .plt           0x00012790      0x884 /usr/lib/gcc/arm-linux-gnueabihf/8/../../../arm-linux-gnueabihf/crt1.o
                0x000127a4                gethostname@@GLIBC_2.4
                0x000127b0                getuid@@GLIBC_2.4
                0x000127bc                fopen64@@GLIBC_2.4
                0x000127c8                endwin@@NCURSESW6_5.1.20000708
                0x000127d4                fwrite@@GLIBC_2.4
                0x000127e0                mbrtowc@@GLIBC_2.4
                0x000127ec                toupper@@GLIBC_2.4
                0x000127f8                __isoc99_sscanf@@GLIBC_2.7
                0x00012804                fprintf@@GLIBC_2.4
                0x00012810                waddnstr@@NCURSESW6_5.1.20000708
                0x0001281c                strstr@@GLIBC_2.4
                0x00012828                isatty@@GLIBC_2.4
                0x00012834                getppid@@GLIBC_2.4
                0x00012840                wbkgdset@@NCURSESW6_5.1.20000708
                0x0001284c                execvp@@GLIBC_2.4
                0x00012858                write@@GLIBC_2.4
                0x00012864                wctomb@@GLIBC_2.4
                0x00012870                can_change_color@@NCURSESW6_5.1.20000708
                0x0001287c                opendir@@GLIBC_2.4
                0x00012888                printf@@GLIBC_2.4
                0x00012894                gnome_vfs_mime_get_default_application
                0x000128a0                bsearch@@GLIBC_2.4
                0x000128ac                fclose@@GLIBC_2.4
                0x000128b8                atoll@@GLIBC_2.4
                0x000128c4                qsort@@GLIBC_2.4
                0x000128d0                getgid@@GLIBC_2.4
                0x000128dc                wclear@@NCURSESW6_5.1.20000708
                0x000128e8                __ctype_b_loc@@GLIBC_2.4
                0x000128f4                strnlen@@GLIBC_2.4
                0x00012900                nonl@@NCURSESW6_5.1.20000708
                0x0001290c                getmntent@@GLIBC_2.4
                0x00012918                iconv@@GLIBC_2.4
                0x00012924                fputc@@GLIBC_2.4
                0x00012930                dlclose@@GLIBC_2.4
                0x0001293c                beep@@NCURSESW6_5.1.20000708
                0x00012948                __xstat64@@GLIBC_2.4
                0x00012954                chown@@GLIBC_2.4
                0x00012960                strpbrk@@GLIBC_2.4
                0x0001296c                fseek@@GLIBC_2.4
                0x00012978                strerror@@GLIBC_2.4
                0x00012984                color_content@@NCURSESW6_5.1.20000708
                0x00012990                tolower@@GLIBC_2.4
                0x0001299c                putchar@@GLIBC_2.4
                0x000129a8                has_colors@@NCURSESW6_5.1.20000708
                0x000129b4                puts@@GLIBC_2.4
                0x000129c0                init_pair@@NCURSESW6_5.1.20000708
                0x000129cc                __libc_start_main@@GLIBC_2.4
                0x000129e4                setupterm@@NCURSES6_TINFO_5.0.19991023
                0x000129f0                strchr@@GLIBC_2.4
                0x000129fc                __errno_location@@GLIBC_2.4
                0x00012a08                keypad@@NCURSES6_TINFO_5.0.19991023
                0x00012a14                lutimes@@GLIBC_2.4
                0x00012a20                atol@@GLIBC_2.4
                0x00012a2c                ftello64@@GLIBC_2.4
                0x00012a38                tcsetattr@@GLIBC_2.4
                0x00012a44                curs_set@@NCURSES6_TINFO_5.0.19991023
                0x00012a50                symlink@@GLIBC_2.4
                0x00012a5c                setenv@@GLIBC_2.4
                0x00012a68                mkdir@@GLIBC_2.4
                0x00012a74                pthread_mutex_lock@@GLIBC_2.4
                0x00012a80                pipe@@GLIBC_2.4
                0x00012a8c                noecho@@NCURSESW6_5.1.20000708
                0x00012a98                gnome_vfs_get_mime_type
                0x00012aa4                waddchnstr@@NCURSESW6_5.1.20000708
                0x00012ab0                pthread_cond_wait@@GLIBC_2.4
                0x00012abc                free@@GLIBC_2.4
                0x00012ac8                iconv_close@@GLIBC_2.4
                0x00012ad4                wcwidth@@GLIBC_2.4
                0x00012ae0                close@@GLIBC_2.4
                0x00012aec                clearok@@NCURSESW6_5.1.20000708
                0x00012af8                memcpy@@GLIBC_2.4
                0x00012b04                wcstombs@@GLIBC_2.4
                0x00012b10                iconv_open@@GLIBC_2.4
                0x00012b1c                memmove@@GLIBC_2.4
                0x00012b28                strncpy@@GLIBC_2.4
                0x00012b34                winchnstr@@NCURSESW6_5.1.20000708
                0x00012b40                win_wchnstr@@NCURSESW6_5.3.20021019
                0x00012b4c                access@@GLIBC_2.4
                0x00012b58                unlink@@GLIBC_2.4
                0x00012b64                ferror@@GLIBC_2.4
                0x00012b70                strcpy@@GLIBC_2.4
                0x00012b7c                execv@@GLIBC_2.4
                0x00012b88                raise@@GLIBC_2.4
                0x00012b94                getgrgid@@GLIBC_2.4
                0x00012ba0                start_color@@NCURSESW6_5.1.20000708
                0x00012bac                atoi@@GLIBC_2.4
                0x00012bb8                dlsym@@GLIBC_2.4
                0x00012bc4                ftime@@GLIBC_2.4
                0x00012bd0                fork@@GLIBC_2.4
                0x00012bdc                signal@@GLIBC_2.4
                0x00012be8                gettimeofday@@GLIBC_2.4
                0x00012bf4                getpwuid@@GLIBC_2.4
                0x00012c00                system@@GLIBC_2.4
                0x00012c0c                malloc@@GLIBC_2.4
                0x00012c18                localtime@@GLIBC_2.4
                0x00012c24                getcwd@@GLIBC_2.4
                0x00012c30                tcgetattr@@GLIBC_2.4
                0x00012c3c                pthread_cond_init@@GLIBC_2.4
                0x00012c48                kill@@GLIBC_2.4
                0x00012c54                strdup@@GLIBC_2.4
                0x00012c60                strlen@@GLIBC_2.4
                0x00012c6c                pthread_mutex_destroy@@GLIBC_2.4
                0x00012c78                chdir@@GLIBC_2.4
                0x00012c84                chmod@@GLIBC_2.4
                0x00012c90                mktime@@GLIBC_2.4
                0x00012c9c                wadd_wchnstr@@NCURSESW6_5.3.20021019
                0x00012ca8                closedir@@GLIBC_2.4
                0x00012cb4                getpid@@GLIBC_2.4
                0x00012cc0                winnstr@@NCURSESW6_5.1.20000708
                0x00012ccc                __lxstat64@@GLIBC_2.4
                0x00012cd8                select@@GLIBC_2.4
                0x00012ce4                readlink@@GLIBC_2.4
                0x00012cf0                iswalpha@@GLIBC_2.4
                0x00012cfc                fseeko64@@GLIBC_2.4
                0x00012d08                dup@@GLIBC_2.4
                0x00012d14                sprintf@@GLIBC_2.4
                0x00012d20                snprintf@@GLIBC_2.4
                0x00012d2c                fflush@@GLIBC_2.4
                0x00012d38                mbtowc@@GLIBC_2.4
                0x00012d44                curses_version@@NCURSES6_TINFO_5.0.19991023
                0x00012d50                perror@@GLIBC_2.4
                0x00012d5c                setlocale@@GLIBC_2.4
                0x00012d68                vfprintf@@GLIBC_2.4
                0x00012d74                mousemask@@NCURSESW6_5.1.20000708
                0x00012d80                gnome_vfs_mime_application_free
                0x00012d8c                strcmp@@GLIBC_2.4
                0x00012d98                initscr@@NCURSESW6_5.1.20000708
                0x00012da4                memcmp@@GLIBC_2.4
                0x00012db0                memset@@GLIBC_2.4
                0x00012dbc                wrefresh@@NCURSESW6_5.1.20000708
                0x00012dc8                getenv@@GLIBC_2.4
                0x00012dd4                rename@@GLIBC_2.4
                0x00012de0                flock@@GLIBC_2.4
                0x00012dec                mkfifo@@GLIBC_2.4
                0x00012df8                time@@GLIBC_2.4
                0x00012e04                meta@@NCURSES6_TINFO_5.0.19991023
                0x00012e10                wait@@GLIBC_2.4
                0x00012e1c                statfs64@@GLIBC_2.4
                0x00012e28                pthread_cond_broadcast@@GLIBC_2.4
                0x00012e34                fread@@GLIBC_2.4
                0x00012e40                gnome_vfs_init
                0x00012e4c                pthread_create@@GLIBC_2.4
                0x00012e58                strcat@@GLIBC_2.4
                0x00012e64                abort@@GLIBC_2.4
                0x00012e70                init_color@@NCURSESW6_5.1.20000708
                0x00012e7c                gnome_vfs_get_uri_from_local_path
                0x00012e88                waitpid@@GLIBC_2.4
                0x00012e94                gnome_vfs_get_file_info
                0x00012ea0                pthread_cond_timedwait@@GLIBC_2.4
                0x00012eac                exit@@GLIBC_2.4
                0x00012eb8                calloc@@GLIBC_2.4
                0x00012ec4                setmntent@@GLIBC_2.4
                0x00012ed0                rmdir@@GLIBC_2.4
                0x00012edc                strrchr@@GLIBC_2.4
                0x00012ee8                wmove@@NCURSESW6_5.1.20000708
                0x00012ef4                dup2@@GLIBC_2.4
                0x00012f00                getmntent_r@@GLIBC_2.4
                0x00012f0c                fgets@@GLIBC_2.4
                0x00012f18                raw@@NCURSES6_TINFO_5.0.19991023
                0x00012f24                utimes@@GLIBC_2.4
                0x00012f30                endmntent@@GLIBC_2.4
                0x00012f3c                memchr@@GLIBC_2.4
                0x00012f48                read@@GLIBC_2.4
                0x00012f54                readdir64@@GLIBC_2.4
                0x00012f60                pthread_mutex_unlock@@GLIBC_2.4
                0x00012f6c                wcrtomb@@GLIBC_2.4
                0x00012f78                nl_langinfo@@GLIBC_2.4
                0x00012f84                pthread_mutex_init@@GLIBC_2.4
                0x00012f90                fileno@@GLIBC_2.4
                0x00012f9c                mkstemp64@@GLIBC_2.4
                0x00012fa8                strspn@@GLIBC_2.4
                0x00012fb4                open64@@GLIBC_2.4
                0x00012fc0                ioctl@@GLIBC_2.4
                0x00012fcc                fputs@@GLIBC_2.4
                0x00012fd8                nanosleep@@GLIBC_2.4
                0x00012fe4                iswprint@@GLIBC_2.4
                0x00012ff0                putenv@@GLIBC_2.4
                0x00012ffc                ttyname@@GLIBC_2.4
                0x00013008                dlopen@@GLIBC_2.4

.iplt           0x00013014        0x0
 *(.iplt)
 .iplt          0x00013014        0x0 /usr/lib/gcc/arm-linux-gnueabihf/8/../../../arm-linux-gnueabihf/crt1.o

.text           0x00013018    0xaa760
 *(.text.unlikely .text.*_unlikely .text.unlikely.*)
 *(.text.exit .text.exit.*)
 *(.text.startup .text.startup.*)
 *(.text.hot .text.hot.*)
 *(.text .stub .text.* .gnu.linkonce.t.*)
 .text          0x00013018       0x3c /usr/lib/gcc/arm-linux-gnueabihf/8/../../../arm-linux-gnueabihf/crt1.o
                0x00013018                _start
 .text          0x00013054       0x24 /usr/lib/gcc/arm-linux-gnueabihf/8/../../../arm-linux-gnueabihf/crti.o
 .text          0x00013078       0x90 /usr/lib/gcc/arm-linux-gnueabihf/8/crtbegin.o
 .text          0x00013108      0xbf0 xdd.o
                0x00013108                main
                0x0001351c                listdir
                0x000137e4                chkrootgrp
                0x00013b5c                help
 .text          0x00013cf8      0xe50 ../ulib/libuserxe.a(libuserxe_a-uallocl.o)
                0x00013cf8                ualloc_init
                0x00013f4c                ugetallocdata
                0x00014084                ualloc_chk
                0x0001424c                umalloc
                0x00014490                ucalloc
                0x00014700                ufree
                0x00014930                uallocsz
                0x0001497c                ufreesz
                0x000149cc                uallocmapset
                0x00014ae0                ufreesizeerr
                0x00014b14                umallocsizeerr
 .text          0x00014b48     0x2890 ../ulib/libuserxe.a(libuserxe_a-uedit2.o)
                0x00014b48                uedit2
                0x00014b60                uasciidump
                0x00014d7c                uasciidump_utf
                0x00015034                uucsdump
                0x00015380                ub2x
                0x000154b0                ueditfattr
                0x00015888                ueditfattrspf
                0x0001595c                ueditfattr_mdos
                0x00015adc                uxdumpline
                0x000164dc                xdlputs
                0x00016588                ugetdtparm
                0x00016684                ugetdateparm
                0x000166f8                ugettimeparm
                0x0001676c                ueditgetftnum
                0x00016a3c                ueditsetfdateUSHORT
                0x00016ad0                ueditsetfdate
                0x00016bb0                ueditsetftimeUSHORT
                0x00016c44                ueditsetftime
                0x00016d3c                uxdumpstr
                0x00016f64                ueditNowFileTime
                0x00017094                ueditescrep
 .text          0x000173d8     0x29f8 ../ulib/libuserxe.a(libuserxe_a-uerr.o)
                0x000173d8                uerr
                0x000173f0                ubell_init
                0x00017430                ubell_init2
                0x00017460                ubell
                0x00017578                uerrexit_init
                0x00017640                uerrexit_optinit
                0x00017670                uerrsetopt2
                0x000176d4                uerrexit
                0x000178cc                uerrmsg_init
                0x00017aac                uerrmsg
                0x00017cbc                uerrmsg2
                0x00017e3c                uerrmsgcat
                0x00017f48                uerrsprintf
                0x00018034                uerrfprintfutf
                0x000184a0                uerrhelpmsg
                0x0001898c                uerrscrheight
                0x00018a3c                useterrmsg
                0x00018ab0                ugeterrmsg
                0x00018afc                ugeterrmsg2
                0x00018b3c                uerrmsgedit
                0x000194d0                uconfirmmsg
                0x000197e8                uerrornomsg
                0x00019810                ugeterrdescription
                0x00019894                uerrapi1
                0x000198dc                uerrapi1x
                0x00019920                uerrapi0
                0x0001995c                uerrapi0x
                0x00019994                uerrapi1t
                0x00019a04                uerrapi1nt
                0x00019a58                uerrapi1tx
                0x00019ac4                uerrapi0t
                0x00019b2c                uerrapi0tx
                0x00019b90                uerrnotsupported
                0x00019bd4                uerrmsg_initstart
                0x00019c98                uerrmsg_initstack
                0x00019cfc                uerrmsg_initcomp
 .text          0x00019dd0      0xec0 ../ulib/libuserxe.a(libuserxe_a-ufemsg.o)
                0x00019dd0                ufemsg
                0x00019de8                ufilenotfound
                0x00019e24                ufilenotfoundotherexist
                0x00019e60                ufilepatherr
                0x00019e9c                ufileapierr
                0x00019ee4                ufileapierr_str
                0x00019f3c                ufiledelpath
                0x00019f78                ufilereadonly
                0x00019fb4                ufilereadonly2
                0x00019ff4                ufiledeleted
                0x0001a124                ufileshare
                0x0001a160                ufileexist
                0x0001a19c                ufileexistcopy
                0x0001a1d8                ufileexist2
                0x0001a21c                ufileexistdir
                0x0001a258                ufilenotdir
                0x0001a294                ufilediskfull
                0x0001a2d8                ufilewildtarget
                0x0001a30c                ufilewildcarderr
                0x0001a340                ufilewildpatherr
                0x0001a374                ufileroot
                0x0001a3b0                ufileapierr2
                0x0001a404                ufiledirna
                0x0001a450                ufileerrdir
                0x0001a48c                ufilenotvfat
                0x0001a4b4                ufilenopermission
                0x0001a4f8                ufileslinkloop
                0x0001a550                ufileerrspecialfile
                0x0001a58c                ufileerrnotnormal
                0x0001a5c8                ufileerrdir2file
                0x0001a5f8                ufileerrnoentry
                0x0001a630                ufileerrnofileentry
                0x0001a668                ufileTooLongFullpathName
                0x0001a6c0                ufileTooLongFullpathName2
                0x0001a820                ufileeditsz
                0x0001abb8                ufileslinktargeterr
                0x0001abfc                ufileopenerrInvalidargument
                0x0001ac58                ufileErrInvalidName
 .text          0x0001ac90     0x3508 ../ulib/libuserxe.a(libuserxe_a-ufile.o)
                0x0001ac90                ufile
                0x0001aca8                ufullpathwildexp
                0x0001b35c                ufullpathresolvespecialdirid
                0x0001b518                ufilegetpathdir
                0x0001b704                udirlistnomsg
                0x0001b764                udirlist
                0x0001b918                udirlistsub
                0x0001be0c                udirlist_set_slinkname
                0x0001bf60                ufile_udirlist_copy
                0x0001c1bc                ufile_udirlist_swap
                0x0001c3a0                ufile_udirlist_alloc1
                0x0001c434                ufile_udirlist_free
                0x0001c530                udircompare_pointer
                0x0001c5a0                udirlistsort
                0x0001c764                udircomp
                0x0001c7a8                udircompare
                0x0001d228                udircompsub
                0x0001d350                uredirect
                0x0001d798                uredirectrestore
                0x0001d8b4                ufdateedit
                0x0001dbf4                uftimeedit
                0x0001de2c                uftimeedit_1sec
                0x0001de88                udirlist_chk_max_entry
                0x0001def0                udirlist_setname
                0x0001e0cc                udirlist_setname_cat
 .text          0x0001e198     0x1b00 ../ulib/libuserxe.a(libuserxe_a-ufile1f.o)
                0x0001e198                uftpfstat
                0x0001e4b8                uftpwinchk
                0x0001e5e4                uftpfullpathnorid
                0x0001e644                uftpfullpath
                0x0001ed0c                uftppathlen
                0x0001ed5c                uftpgetcwd
                0x0001ee5c                uftpgethome
                0x0001eedc                uftpgethomesub
                0x0001f0b0                uftpchdir
                0x0001f27c                uftpchdirsub
                0x0001f44c                uftplchdirrespchk
                0x0001f658                uftpdirlistsub
                0x0001fa38                uftpfindfirst
                0x0001fb88                uftpfindfirstfile
                0x0001fc10                uftpfindnext
 .text          0x0001fc98     0x4344 ../ulib/libuserxe.a(libuserxe_a-ufile1l.o)
                0x0001fc98                ufstat
                0x00020508                ufilechkwildmultiple
                0x000207a4                ufstat_wild
                0x00020834                ufilefscomp
                0x000208ac                ufilegetfsid
                0x0002098c                ufilegetftime
                0x00020a9c                ufullpath
                0x000214a4                upathlen
                0x000214f4                ugetcwd
                0x00021520                uchdir
                0x0002164c                udosfindfirstnomsg
                0x000216bc                udosfindfirst
                0x00021e38                udosfindnext
                0x00021ea8                udosfindnextmsg
                0x000222ac                ufilelnxwildselect
                0x00022318                ufilelnxattrselect
                0x000224f0                ufilelnxgetmembfstat
                0x0002271c                ufilelnxsavehdir
                0x0002284c                ufilelnxsrchhdir
                0x00022954                ufilelnxclosehdir
                0x00022a94                ufilemode2attr
                0x00022c40                ufilemktime
                0x00022cf8                ufilerepwildname
                0x00022df8                errwildname
                0x00023000                filesrchmountpoint
                0x000231d8                filegetdevt
                0x0002345c                filegetdevicename
                0x00023608                filegetdevicemntent
                0x00023728                filegetmntent
                0x000238fc                filegetmntoption
                0x00023a60                ufilegetiocharset
                0x00023b64                ufilefnmcvcs
                0x00023da8                ufullpathCP
 .text          0x00023fdc     0x1f08 ../ulib/libuserxe.a(libuserxe_a-ufile1l2.o)
                0x00023fdc                mtoolsinit
                0x00024008                ufstat_mdos
                0x00024554                ufilegetmdosattr
                0x00024658                uopendir_mdos
                0x00024954                ureaddir_mdos
                0x00024b98                ufilegetmdosdl
                0x000250f8                ufilegetmdosattrlist
                0x000252f0                ugetcwd_mdos
                0x0002546c                uchdir_mdos
                0x00025508                ustatfs_mdos
                0x00025748                uminfo
                0x00025a24                ufilegetnum
                0x00025b28                ufilemdoscmd
                0x00025d80                ufilemdoserrchk
 .text          0x00025ee4     0x4588 ../ulib/libuserxe.a(libuserxe_a-ufile2.o)
                0x00025ee4                ufile2
                0x00025efc                uxddpchk
                0x0002634c                uxddsub
                0x00026b9c                uxdelete
                0x0002791c                ufilewildxdel
                0x00027b50                uxdelsub
                0x000284f8                uremovenomsg
                0x0002854c                uremove
                0x000287ac                urenamenomsg
                0x00028804                urename2
                0x0002885c                urename
                0x00028f60                ufilewildrename
                0x00028f98                uwildfunc
                0x00029394                ufilecdirchk
                0x0002972c                ufilespfnchk
                0x00029754                wildchk
                0x000298ec                ufilechkwildmemb
                0x00029a1c                ufilechkwildname
                0x00029bb0                ufileopenexclusivewrite
                0x00029c6c                ufiledelifnotopened
                0x00029d48                ufile2quietmsg
                0x00029e78                ugetmoveavailablepath
                0x0002a364                uwildfunc_LongName
 .text          0x0002a46c     0x47cc ../ulib/libuserxe.a(libuserxe_a-ufile2f.o)
                0x0002a46c                uftpmkdir
                0x0002aa64                uftprmdir
                0x0002ae70                uftpremove
                0x0002b2b4                uftprename
                0x0002b660                uftprenamesub
                0x0002ba34                uftpwildrename
                0x0002ba84                uftpattrib
                0x0002bd90                uftpattrxon
                0x0002bdd8                uftpattrxchk
                0x0002bfb0                uftpgetftime
                0x0002c104                uftpgetftime_1sec
                0x0002c27c                uftpsetftime
                0x0002c2f4                uftpsetftime2
                0x0002c36c                uftpcopypathinfo
                0x0002c494                uftpsetown
                0x0002c50c                uftpsetmod
                0x0002c9ec                uftpwildfunc
                0x0002cc18                uftpwildfunc2
                0x0002cf90                uftpmultidel
                0x0002d0a8                uftpmultirename
                0x0002d1c0                uftpwildxdel
                0x0002d4fc                uftpmultidelsub
                0x0002d688                uftpmultirenamesub
                0x0002d8c8                uftpbypassreason
                0x0002d954                uftpxdelrchk
                0x0002dd60                uftpmultidelrchk
                0x0002dffc                uftpmultirenamerchk
                0x0002e2a4                ufile2putstmt
                0x0002e3e4                uftpnotsupported
                0x0002e43c                uftpnotsupportedforlocal
                0x0002e494                uftpdelsubdir
                0x0002e714                ufile3xdeleteinit
                0x0002e7a0                uxdelsubftp
                0x0002ebf0                errtoolongname
 .text          0x0002ec38     0x19d8 ../ulib/libuserxe.a(libuserxe_a-ufile2l.o)
                0x0002ec38                umkdir
                0x0002eca4                umkdirmode
                0x0002efd8                urmdir
                0x0002f47c                uattrib
                0x0002f7c8                uattrxon
                0x0002f840                uattrxchk
                0x0002fa20                ugetftime
                0x0002fb58                ugetftime_1sec
                0x0002fcd8                usetftime
                0x0002fe54                usetftime_1sec
                0x0002feb0                usetftime2
                0x0003000c                ucopypathinfo
                0x00030418                ufilesetown
                0x00030510                ufilesetmod
 .text          0x00030610      0xbc8 ../ulib/libuserxe.a(libuserxe_a-ufile2l2.o)
                0x00030610                umkdir_mdos
                0x000306dc                urmdir_mdos
                0x000307f0                uattrib_mdos
                0x000309f4                uremove_mdos
                0x00030b08                urename_mdos
                0x00030ba0                ucopy_mdos
                0x00030e34                uappend_mdos
                0x0003117c                ufilemdoscopyerr
 .text          0x000311d8     0x4dd0 ../ulib/libuserxe.a(libuserxe_a-ufile3.o)
                0x000311d8                ufile3
                0x000311f0                invalidtargetfilename
                0x00031228                uxcopy
                0x00032118                ufilecreateparmproc
                0x00032884                ufilecpymvflags
                0x00032b50                ufilewildcopy
                0x00032df0                ucopysub_slinktarget
                0x00032f90                ucopysub_slink
                0x00033288                ucopysub
                0x000339ac                udoscopy
                0x00033d64                uxmove
                0x0003477c                ufilewildmove
                0x0003490c                umovesub_slink
                0x00035048                umovesub
                0x00035778                ufilecopytschk
                0x00035890                ufilechkslinkpath
                0x00035ad8                ufilegetslinkfinaltarget
                0x00035c60                ufilesymlink
                0x00035ce4                ufilesymlink_copyfiletime
                0x00035ddc                ufilesymlink_copy
                0x00035e88                ufileerrdirandfile
                0x00035ec8                ufileerrslinktarget
                0x00035f0c                ufileerrslinkappend
                0x00035f4c                ufileerrnotargetslink
 .text          0x00035fa8     0x539c ../ulib/libuserxe.a(libuserxe_a-ufile3f.o)
                0x00035fa8                uftpxmove
                0x00036170                uftpxcopy
                0x00036468                uftpxcopyr2r
                0x000366ec                uftpupload
                0x00036d8c                uftpdownload
                0x000373dc                uftptargetflag
                0x00037764                uftpsourceflag
                0x00037b1c                uftps2tchk
                0x00038110                uftpcreateparmproc
                0x00038554                uftpmoveparmproc
                0x00038808                uftpupdownctl
                0x0003910c                uftpgetdirlist
                0x000391e0                uftpexistchk1
                0x0003943c                uftpexistchkm
                0x0003999c                uftpcopycallback
                0x0003a1c0                uftpcopyrchk
                0x0003a954                uftpputstmt
                0x0003aa98                uftpputstmt2
                0x0003ac38                uftpcopyftime
                0x0003af84                ufileftpcopytschk
                0x0003b1c0                uftpmktdir
                0x0003b220                uftperrsourceisroot
                0x0003b248                uftperrtargetisnotdir
                0x0003b27c                uftperrdir2file
                0x0003b2bc                uftpfileanddir
                0x0003b308                uftpappenddir2dir
 .text          0x0003b344     0x2acc ../ulib/libuserxe.a(libuserxe_a-ufile4.o)
                0x0003b344                ufile4
                0x0003b35c                utempnam
                0x0003b63c                utempnamd
                0x0003b694                ufgetpos
                0x0003b6c4                udirwalk
                0x0003bdfc                udirwalksub
                0x0003ceac                ufileslinkoutoflinkchk
                0x0003d34c                ufileslinkloopchk
                0x0003d7f0                ufileslinkloopchk2
                0x0003d900                ugetdiskfree
                0x0003da94                ufileisvfat
                0x0003dac8                ufileisntfs
                0x0003daec                ufileisvfatMounted
                0x0003db6c                ufileisntfsMounted
                0x0003dbec                ufileisMSMounted
                0x0003dc98                ufsetlock
                0x0003dd00                uflock
 .text          0x0003de10     0x4e20 ../ulib/libuserxe.a(libuserxe_a-ufile5.o)
                0x0003de10                ufile5
                0x0003de28                ufgetsinit
                0x0003e244                ufgetscurpos
                0x0003e26c                ufgets_setcurpos
                0x0003e2f0                ufgets
                0x0003e6b4                ufgetssub
                0x0003ec9c                ufgetsbinchk_utf8
                0x0003ef74                ufgetsbinchk_ebc
                0x0003f194                ufgetsbinchk
                0x0003f64c                isSameU8c
                0x0003f894                udoseditname
                0x00040158                ufileeditname
                0x00040620                ufilewildcomp
                0x000409a0                ufilewildcompsub
                0x00040b70                ufilecomp
                0x00041048                ufilecomptextmode
                0x000413f0                ufilecomptextmodefixed
                0x0004167c                ufilecomptextmodesub
                0x000417c0                ufreads
                0x00041aa0                ufgetsVHeader
                0x00041d28                ufgetsVRecord
                0x00042020                ufgetsV
                0x000422a0                ufile5chkvfmt
                0x00042400                ufile5getVfmtstr
                0x000424c4                ufseek
                0x00042500                uftell
                0x00042530                fileeditname_copypath
                0x00042b4c                fileeditname_copypath_err
                0x00042bb0                filetouch
 .text          0x00042c30     0x4f50 ../ulib/libuserxe.a(libuserxe_a-uftp.o)
                0x00042c30                uftpfstatroot
                0x00042cd8                uftplshome
                0x00042e40                uftpfstatudl
                0x00043184                uftpisexist
                0x000432a0                uftpopendir
                0x00043878                uftpreaddir
                0x000439dc                uftpattrselect
                0x00043ba4                uftpgetslinkattr
                0x00043f84                uftpdirlistslink
                0x00044574                uftpsortslink
                0x000445cc                uftpslinkcomp
                0x00044650                uftpslinklscmd
                0x00044988                uftplsoutchk
                0x00044cfc                uftpmodtimerchk
                0x000451d8                uftpmodtimeerr
                0x0004522c                uftplsoutchkslinkerrskip
                0x00045358                uftplsoutchkslink
                0x00045458                uftpsavehdir
                0x000455a0                uftpsrchhdir
                0x0004564c                uftpclosehdir
                0x000456b0                uftpmode2attr
                0x0004582c                uftpudl2ffb3
                0x000459dc                uftpgetpathname
                0x00045aa4                uftpnodesrch
                0x00045b54                uftpnodeadd
                0x00045c0c                uftpnodedel
                0x00045c68                uftpnodeclear
                0x00045c84                uftpgethostqhaddr
                0x00045ca4                uftphoststbinit
                0x00045fc4                uftpgethostsdata
                0x00047030                uftgetstringopd
                0x000472b0                uftpipachk
                0x000474d0                uftpgetportno
                0x0004755c                uftpisremote
                0x000476e8                uftpisrootdir
                0x0004776c                uftphostscrypt
                0x00047a48                uftptempnam
                0x00047aa4                uftp_mempswd
                0x00047b3c                uftp_udirlist_setname
 .text          0x00047b80     0x2c2c ../ulib/libuserxe.a(libuserxe_a-uftp2.o)
                0x00047b80                uftpinit
                0x00047cd0                uftpterm
                0x00047d18                uftplog
                0x000480ec                uftpnodeinit
                0x000482d4                uftpcmd
                0x00048a0c                uftpcmdrespchk
                0x00048b18                uftpcmdresphdrchk
                0x00048c40                uftpcmdsrchrespid
                0x00048ea0                uftpsimplerespchk
                0x00048f78                uftpnextstdo
                0x00049048                uftpsrchfname
                0x00049210                uftpsrchfnameslink
                0x00049498                uftpgetdl
                0x000497b8                uftpgetdl1
                0x00049ec0                uftpgetmode
                0x0004a208                uftpgetdlftime
                0x0004a3ac                uftpgetmonth
                0x0004a428                uftpgetwday
                0x0004a4a0                uftpajustjst
                0x0004a6fc                uftpmktempwd
                0x0004a748                uftpdeltempwd
 .text          0x0004a7ac     0x5ab0 ../ulib/libuserxe.a(libuserxe_a-uftp3.o)
                0x0004a7ac                uftp3setssh
                0x0004aa6c                uftp3editpsftpcmd
                0x0004abac                uftp3cmdrespchk
                0x0004acc8                uftp3cmdresphdrchk
                0x0004ae1c                uftp3srchcmdecho
                0x0004af70                uftp3gethomesub
                0x0004b0d0                uftp3simplerespchk
                0x0004b23c                uftp3simplerespchkOK
                0x0004b3d8                uftp3simplerespchkCHNG
                0x0004b568                uftp3lchdirrespchk
                0x0004b5d4                uftp3getputrespchk
                0x0004b6f0                uftp3cdrespchk
                0x0004b82c                uftp3setsmb
                0x0004b8e8                uftp3smb_setcmd
                0x0004bd68                uftp3smb_editcmdline
                0x0004c020                uftp3smb_nodeinit
                0x0004c0cc                uftp3smbcmd
                0x0004c150                uftp3smb_cmd
                0x0004c658                uftp3smb_chkstatuserr
                0x0004c8a0                uftp3smb_srchresp
                0x0004cac8                uftp3smb_stderrlog
                0x0004cb40                uftp3smb_getdltime
                0x0004cce4                uftp3smb_getdltimestat
                0x0004ce34                uftp3smb_setdltime
                0x0004cf64                uftp3smb_getmode
                0x0004d194                uftp3smb_getdirlistctr
                0x0004d1dc                uftp3smb_getdl1
                0x0004d450                uftp3smb_fstatudl
                0x0004d760                uftp3smb_fstatudl_byls
                0x0004d990                uftp3smb_fstatudl_byls_root
                0x0004dc2c                uftp3smb_lsoutchk
                0x0004ddb0                uftp3smb_getdlattr
                0x0004dea8                uftp3smb_fstatdircallback
                0x0004e148                uftp3smb_fstatdirrchk
                0x0004e590                uftp3smb_fstatoutchk
                0x0004ea94                uftp3smb_putstmt
                0x0004f03c                uftp3smb_respchk_srchnext
                0x0004f374                uftp3smb_respchk
                0x0004f79c                uftp3smb_lchdirrespchk
                0x0004f7ec                uftp3smb_strfname
                0x0004fa9c                uftp3smb_enclosefnm
                0x0004fbdc                uftp3smb_editcmdparm
                0x0004fd7c                uftp3smb_dirnameforlist
                0x0004fe4c                uftp3smb_mode2attr_winsub
                0x0004fedc                uftp3smb_mode2attr_win
                0x0004ff2c                uftp3smb_strattr
                0x00050014                uftp3smb_setmod_win
 .text          0x0005025c      0x4b0 ../ulib/libuserxe.a(libuserxe_a-ugcclib.o)
                0x0005025c                strupr
                0x000502c4                strlwr
                0x0005032c                memicmp
                0x000503f8                stricmp
                0x00050488                itoa
                0x0005051c                kbhit
                0x00050534                getch_nc
                0x00050554                getche
                0x00050574                spawnvp
                0x000505cc                spawnv
 .text          0x0005070c     0x1d30 ../ulib/libuserxe.a(libuserxe_a-ukbdl.o)
                0x0005070c                ukbdpeek
                0x00050738                ukbdcharin
                0x000508e0                ukbdl_init
                0x000509cc                ukbdl_term
                0x000509e4                ukbdl_setkbmode
                0x00050a6c                ukbdl_shellmode
                0x00050b78                ukbdl_setgetchmode
                0x00050c38                ukbdl_tcgetattr
                0x00050cd8                ukbdl_tcsetattr
                0x00050d7c                ukbdl_getch_init
                0x00050dd0                ukbdl_getche_init
                0x00050e24                ukbdl_getch_term
                0x00050e70                ukbdl_getche_term
                0x00050ebc                ukbdl_kbhit
                0x00050f0c                ukbdl_getch
                0x00050fac                ukbdl_getche
                0x0005104c                ukbdl_gettermid
                0x00051190                ukbdl_gettermsim
                0x000516c8                ukbdl_editstring
                0x00051790                ukbdsetstatus
                0x00051848                ukbdl_wcinit
                0x00051948                ukbdl_readutf8
                0x00051f3c                ukbdl_readdbcs
                0x00052244                ukbd_simutf8_f2l
 .text          0x0005243c     0x8020 ../ulib/libuserxe.a(libuserxe_a-ukbdlnxc.o)
                0x0005243c                ukbdlnxc_gettbl
                0x000524d8                ukbdlnxc_init
                0x00052688                ukbdlnxc_term
                0x00052704                ukbdlnxc_getnext
                0x0005278c                ukbdlnxc_read
                0x00052940                ukbdlnxc_readkbd
                0x000537d4                ukbdlnxc_optproc
                0x00053950                ukbdlnxc_setupckt
                0x00054014                ukbdlnxc_setupcktsub
                0x00054280                ukbdlnxc_setupcktx
                0x0005693c                cktovferr
                0x000569b8                ukbdlnxc_addstrtbl
                0x00056c90                ukbdlnxc_dupstrchk
                0x00056fec                ukbdlnxc_cleanup
                0x00057074                ukbdlnxc_termexit
                0x000570a8                ukbdlnxc_getplainsym
                0x0005737c                ukbdlnxc_chkothersym
                0x000573e8                ukbdlnxc_xbsdel
                0x000574ec                ukbdlnxc_delopt
                0x000575d0                ukbdlnxc_setfunckey
                0x000577b4                ukbdlnxc_setfuncstr
                0x00057b98                ukbdlnxc_setcompose
                0x00057c30                ukbdlnxc_getkeysym
                0x00057d10                ukbdlnxc_setkeysym
                0x00057df0                ukbdlnxc_getstring
                0x00057ec0                ukbdlnxc_setstring
                0x00057fb8                ukbdlnxc_getdiacr
                0x00058064                ukbdlnxc_setdiacr
                0x00058110                ukbdlnxc_setmetamode
                0x0005831c                ukbdlnxc_getconsole
                0x000584a0                ukbdlnxc_getptty
                0x000585dc                ukbdlnxc_open
                0x00058664                ukbdlnxc_chkconsole
                0x0005868c                ukbdlnxc_save1st
                0x00058a28                ukbdlnxc_restorelast
                0x00058fe4                ukbdlnxc_lockfwrite
                0x00059068                ukbdlnxc_lockfread
                0x000590ec                ukbdlnxc_pidsetlock
                0x000591d8                ukbdlnxc_pidresetlock
                0x00059278                ukbdlnxc_pidchklock
                0x00059330                ukbdlnxc_chngttkey
                0x00059efc                ukbdlnxc_setrctl
                0x0005a030                ukbdlnxc_setrctlstr
                0x0005a434                uttyname
 .text          0x0005a45c      0x848 ../ulib/libuserxe.a(libuserxe_a-ukbdlnxm.o)
                0x0005a45c                ukbdlnxm_mouseopt
                0x0005a56c                ukbdlnxm_mouseinit
                0x0005a5d4                ukbdlnxm_mouseterm
                0x0005a634                ukbdlnxm_getmouse
                0x0005aa8c                clickchk
 .text          0x0005aca4     0x22e0 ../ulib/libuserxe.a(libuserxe_a-uparse.o)
                0x0005aca4                uparsein
                0x0005af4c                uparseindir
                0x0005b0c0                uparsev
                0x0005b288                uparse2
                0x0005b3c4                uparse
                0x0005c0cc                uparsefname
                0x0005c258                uparsecmd
                0x0005c9c8                uparsecmdin
                0x0005cc20                uparsegetopt
 .text          0x0005cf84     0x3754 ../ulib/libuserxe.a(libuserxe_a-uproc.o)
                0x0005cf84                usystem2
                0x0005d0c0                usystem
                0x0005d1d4                uspawnl
                0x0005d300                uspawnlp
                0x0005d42c                uspawnvp
                0x0005d528                uprocopt
                0x0005d5f4                uspawnrc
                0x0005d81c                uprocerrmem
                0x0005d858                uprocerrnotf
                0x0005d894                uexecchk
                0x0005dc9c                uextdirsrch
                0x0005dcdc                ucmdnmcomp
                0x0005de58                ugetexepath
                0x0005de7c                uproc_getpsinfo
                0x0005e3d4                uproc_srchpsinfo
                0x0005e564                uproc_freepsinfo
                0x0005e5d4                usystem_redirect
                0x0005e8bc                uspawn_redirect
                0x0005ec94                uproc_redirectoutchk
                0x0005f610                uspawnvp_pipe
                0x0005fa64                uspawnvp_pipeclose
                0x0005fb30                usystem_cmdserverinit
                0x0005fbd4                usystem_cmdserverterm
                0x0005fd10                usystem_cmdserversetup
                0x00060180                usystem_cmdtocmdserver
                0x0006020c                usystem_cmdserverreq
                0x00060618                usystem_cmdserverreqwithoutbuff
                0x000606ac                usystem_pidalivechk
 .text          0x000606d8     0x142c ../ulib/libuserxe.a(libuserxe_a-uproc2.o)
                0x000606d8                uprocparseredirect
                0x00060ae0                uproc_rsh
                0x00061200                uproc_redirectrewrite
                0x00061328                uproc_rshlog
                0x000613f8                ugetpid
                0x00061444                uprocredirectchk
                0x00061494                uproc_loaddllpath
                0x000616fc                uproc_loaddll
                0x000618ac                uproc_getdllproc
                0x00061998                uproc_freedll
                0x000619f4                uproc_getprocaddr
 .text          0x00061b04     0x11dc ../ulib/libuserxe.a(libuserxe_a-uproc4.o)
                0x00061b04                uproc_shcmd
                0x00061c0c                uproc_shserverinit
                0x00061cb0                uproc_shserverterm
                0x00061d88                uproc_shserversetup
                0x00062248                uproc_shserverreq
                0x0006268c                uproc_srchprocessw
                0x00062750                uproc_srchprocess
                0x00062834                uproc_select
                0x00062bf8                uproc4_fdset
                0x00062c68                uproc4_fdisset
 .text          0x00062ce0      0x9d4 ../ulib/libuserxe.a(libuserxe_a-uque.o)
                0x00062ce0                uque
                0x00062cf8                uenq
                0x00062fcc                udeq
                0x000632a8                uqscan
                0x000633cc                uqfree
                0x00063424                uqufree
                0x0006347c                uenqchain
                0x00063594                uenqent
                0x00063634                uqhmove
 .text          0x000636b4      0x274 ../ulib/libuserxe.a(libuserxe_a-ustrcpy.o)
                0x000636b4                ustring_memcpy
                0x00063770                ustring_strncpy
                0x00063890                ustring_strcpy
 .text          0x00063928     0x2778 ../ulib/libuserxe.a(libuserxe_a-ustring.o)
                0x00063928                ustring
                0x00063940                ustrnchr
                0x000639c8                ustrnpbrk
                0x00063aa4                ustrnspn
                0x00063ba0                ustrrspn
                0x00063c40                ustrnrspn
                0x00063cf0                umemrspn
                0x00063da8                umemspnc
                0x00063e34                umemspn_spacetab
                0x00063ec4                umemrspnc
                0x00063f54                ustrnstr
                0x0006405c                ustrrstr
                0x000640ec                ustrnrstr
                0x000641d8                ustrstri
                0x00064330                ustrnstri
                0x00064424                ustrrstri
                0x000644b4                ustrnrstri
                0x000645a0                ustrnrchr
                0x00064694                umemchr_utf
                0x00064830                ustrchr2
                0x00064978                ustrnchr2
                0x000649c4                umemchr2
                0x00064b04                ustrrchr2
                0x00064c44                ustrnrchr2
                0x00064c90                umemrchr2
                0x00064da4                umemrchr
                0x00064e24                umempbrk
                0x00064ef0                umemrpbrk
                0x00064fc0                ustrnlen
                0x00065014                umemstr
                0x00065058                umemstri
                0x0006509c                umemrstr
                0x000650e0                umemrstri
                0x00065124                umemmem
                0x00065214                umemmemi
                0x00065414                umemrmem
                0x0006550c                umemrmemi
                0x000656f0                ustrncpyz
                0x00065794                uispunct
                0x0006585c                uispunctdbcs
                0x00065a68                ustrdup
                0x00065b34                umemtrim
                0x00065d80                umemicmpdbcs
                0x00065e7c                umemstridbcs
                0x00065f9c                umemrstridbcs
 .text          0x000660a0       0x70 ../ulib/libuserxe.a(libuserxe_a-utf.o)
                0x000660a0                utf_init
 .text          0x00066110     0x5ba0 ../ulib/libuserxe.a(libuserxe_a-utf2.o)
                0x00066110                umbtowc
                0x000661cc                utfpos2offs
                0x0006645c                utfctr2offs
                0x00066774                utfstrchkmbr2wc
                0x00066bf4                utfcvf2u
                0x000670fc                utfcvl2fmix
                0x000673d4                utfcvl2f
                0x00067aa0                utfcvl2ftab
                0x00067c5c                utfsetdbcstbl
                0x00067f60                utfisvalidutf8
                0x00068064                utfgetstrwidth
                0x0006812c                utfisvalidutf8char
                0x000682bc                utfstrvalidate
                0x00068428                utfgetutf8strlen
                0x000685a0                utfsplitchk
                0x000687c4                utfcvl2fany
                0x0006904c                utfcvf2l1
                0x00069234                utfcvf2l
                0x000696d0                utfcvf2lany
                0x00069c6c                utfcvl2fany1
                0x00069ed0                utfcvl2fany1mb
                0x0006a034                utfcvl2uany1mb
                0x0006a1d8                utfcvf2lany1
                0x0006a5e8                utfcvf2lany1mb
                0x0006a76c                utfcvu2lany1mb
                0x0006a8d0                utfcvlocaleinit
                0x0006aafc                utfcvsetdefaultlocale
                0x0006ac6c                utfcvsetparmlocale
                0x0006adc8                utfgetcharset_std
                0x0006b0f4                utfgetcharset
                0x0006b318                utflocalechk
                0x0006b398                utfcvlocaleopen
                0x0006b4b0                utfcvlocaleclose
                0x0006b4dc                utfcvlocaletclose
                0x0006b51c                utfcviconvdbcschk_topbyte
                0x0006b658                utfcviconvdbcschk1
                0x0006b7c4                utfcvlocaleinitICU
                0x0006b82c                utfcvf2lany1ICU
                0x0006b9a8                utfcvl2fany1ICU
                0x0006bb4c                utfcvsetdefaultlocaleICU
                0x0006bb90                utflocalechkICU
                0x0006bbf8                utfgetstrlenHK
 .text          0x0006bcb0     0x7bb0 ../ulib/libuserxe.a(libuserxe_a-utf22.o)
                0x0006bcb0                utfwwapichk
                0x0006bf18                utfddflag2sbcsid
                0x0006bfb0                utfddgetlenflag
                0x0006c270                utf22_mapwidth0_rounddown
                0x0006c3ac                utf22_mapwidth0
                0x0006c5c4                utfucsmapinit
                0x0006cad4                utf22setworkdir
                0x0006cc6c                utf22versionchk
                0x0006ce64                utfucsloadmap
                0x0006d05c                utfucssavemap
                0x0006d1f0                utfucsmapinit_remap
                0x0006d580                utfucsmapmodify
                0x0006d6f8                utfmapucs2dd
                0x0006d7b0                utfmapdd2ucs
                0x0006d834                utfddsetsbcs
                0x0006d8fc                utfddgetsbcs
                0x0006d960                utfgetwcw
                0x0006daa0                utfcvu2dd1w
                0x0006dd6c                utfcvu2dd1
                0x0006de68                utfcvf2dd
                0x0006e154                utfdd2u1
                0x0006e1c0                utfdd2u1vio
                0x0006e29c                utfdd2u1chsz
                0x0006e490                utfdd2u
                0x0006e9bc                utfucs42utf16
                0x0006eb88                utfddgetucsctr
                0x0006ed04                utfu2dd
                0x0006ef18                utfddcmp
                0x0006f814                utfddicmp
                0x0006f958                utfcvdd2f
                0x0006ffec                utfchkdd
                0x000700d4                utfddisasciistr
                0x00070248                utfddissbcsstr
                0x00070300                utfddasciilen
                0x00070348                utfddpos2offs
                0x00070580                utfddoffs2pos
                0x000708b4                utfddispunct
                0x00070aac                utfddmemspnc
                0x00070bb0                utfddmemrspnc
                0x00070cd0                utfddstrnlen
                0x00070db8                utfddstrlen
                0x00070e68                utfddstrnspn
                0x00070ef0                utfddmemspn
                0x00071024                utfddmemrspn
                0x0007115c                utfddmemchr
                0x0007128c                utfddmemchr_nonascii
                0x00071380                utfddmemrchr
                0x00071468                utfddmemrchr_nonascii
                0x00071518                utfddmempbrk
                0x000715f8                utfddmempbrk_nonascii
                0x000716fc                utfddmemrpbrk
                0x000717f8                utfddmemrpbrk_nonascii
                0x00071918                utfddcmpdbcstab
                0x00071a28                utfddmemmem
                0x00071cac                utfddmemrmem
                0x00071d98                utfddnumlen
                0x0007205c                utfddgetdbcslr
                0x0007219c                utfddgetcsrposbca
                0x00072530                utfgetvisiblealtch
                0x000728f4                utfgetvisiblealtchprint
                0x00072990                utf_setsubchar_dbcs
                0x00072b94                utf_subcharcmp
                0x00072d10                utfmemrchrDD
                0x00072dcc                utfmemchrDD
                0x00072ea8                isASCIIstr
                0x00072f10                isPrintableASCIIstr
                0x00072f88                isPrintableASCIImem
                0x00073014                utf22_setunpucsvio
                0x00073150                utf22_setdbcsspacealt
                0x0007320c                utfsetvisiblealtch
                0x00073364                utf22_iswidth0Ovf
                0x00073458                utf22_iswidth0DBCS
                0x00073530                utf_iswidth0
                0x00073670                utf_iscombinable
                0x000737ac                utf_iscombining
 .text          0x00073860     0x178c ../ulib/libuserxe.a(libuserxe_a-utf3.o)
                0x00073860                utfmb2wc
                0x00073abc                utfwcwidth
                0x00073d48                utfwcwidthNoMap
                0x00073ee8                utfwcwidthsub
                0x00074128                utfwcwidthsubNoMap
                0x00074354                utfiswide
                0x0007438c                utfisprint
                0x00074590                utfgetwc
                0x0007462c                utftbinit
                0x00074ba4                utftbfhelp
                0x00074bc4                utftbterm
                0x00074c18                utftbsrch
                0x00074d94                utftbsrch_jeuc
                0x00074e00                utftbsrch_cjk
                0x00074f48                utf3_wcwidthXXE
 .text          0x00074fec      0xad0 ../ulib/libuserxe.a(libuserxe_a-utf4.o)
                0x000750f0                mk_wcwidth_combining
                0x0007513c                mk_wcwidth
                0x00075400                mk_wcwidth_cjk
                0x0007553c                mk_wcswidth_cjk
                0x000755d4                mk_wcwidth_adjsbcs
                0x000757d4                utf4_isSpacingCombiningMark
                0x00075890                utf4_isAmbiguous
                0x0007599c                utf4_isAmbiguous_XXE
                0x00075a1c                utf4_isFormat
                0x00075a70                mk_wcwidth_combining2SCM
 .text          0x00075abc     0x1754 ../ulib/libuserxe.a(libuserxe_a-utrace.o)
                0x00075abc                utrace_initmt
                0x00075b18                utrace_init
                0x00075d7c                utracepop
                0x00075ee8                utracepopf
                0x0007609c                utracepnop
                0x000760bc                utrace_ebc
                0x000761b4                utrace
                0x00076598                utracectime
                0x000767bc                utraceopen_force
                0x0007698c                utraceocmsg_force
                0x00077130                utrace_term
 .text          0x00077210      0x5b8 ../ulib/libuserxe.a(libuserxe_a-uunxsub.o)
                0x00077210                ugetugid
                0x000772b4                ugetusername
                0x0007734c                ugetgroupname
                0x000773e4                usrchugname
                0x00077450                uaddugname
                0x00077544                unc_setupterm
                0x000775b8                unx_fsetlock
                0x0007767c                unx_fresetlock
                0x000776d8                unx_fchklock
                0x00077794                ugethostname
 .text          0x000777c8     0x3914 ../ulib/libuserxe.a(libuserxe_a-uviol.o)
                0x000777c8                uviol_cell2attr
                0x00077908                uviol_attr2cell
                0x000779e4                uviol_repfg
                0x00077a64                uviol_altcharset
                0x00077bac                uvio_initparm
                0x00077c04                uviogetmode
                0x00077d98                uviol_init
                0x000782d4                uviol_acssetup
                0x00078424                uviol_init2
                0x00078454                uviol_konchk
                0x00078548                uviol_konchk2
                0x000785b8                uviol_colorinit
                0x000787d0                uviol_termexit
                0x00078800                uviol_cleanup
                0x00078910                uviol_term
                0x00078994                uviol_beep
                0x000789d0                uviosetmode
                0x00078a08                uvioreadcellstr
                0x00078b9c                uviowrtcellstr
                0x00078dc8                uvioreadcharstr
                0x00078ee4                uviowrtcharstr
                0x00078fec                uviowrtcharstratt
                0x000791e8                uviowrtnattr
                0x000793f8                uviowrtncell
                0x00079554                uviowrtnchar
                0x000796b4                uviogetcurpos
                0x000797a0                uviosetcurpos
                0x000798fc                uviogetcurtype
                0x000799ac                uviosetcurtype
                0x00079ae0                uviowrttty
                0x00079b20                uviol_rgb2colorno
                0x00079d38                uviol_colorno2rgb
                0x00079e90                uviogetstate
                0x0007a144                uviosetstate
                0x0007a324                uvioscrolldn
                0x0007a650                uvioscrollup
                0x0007a97c                uviol_clear
                0x0007a9b4                uviol_clearok
                0x0007aa00                uviol_refresh
                0x0007aa28                uviol_mvaddchnstr
                0x0007abc4                uviol_attrupdate
                0x0007b05c                uviol_set_padattrsub
 .text          0x0007b0dc     0x3778 ../ulib/libuserxe.a(libuserxe_a-u3270.o)
                0x0007b0dc                u3270init
                0x0007b144                u3270fstat
                0x0007b738                u3270findfile
                0x0007b96c                u3270fullpathistso
                0x0007b9f8                u3270getcwd
                0x0007ba80                u3270chdir
                0x0007bb1c                u3270fullpath
                0x0007bdf8                u3270fullpathwildexp
                0x0007c314                u3270getmembname
                0x0007c4b8                u3270chkmembname
                0x0007c600                u3270getlastname
                0x0007c6d8                u3270getnthname
                0x0007c7e0                u3270concatfilename
                0x0007cac8                u3270editname
                0x0007ce70                u3270parsedsn
                0x0007cf0c                u3270parentdsn
                0x0007d0ac                u3270getsetdsnwild
                0x0007d3cc                u3270pathlen
                0x0007d51c                u3270sethostuser
                0x0007d5d0                u3270cmdrequest
                0x0007d848                u3270editrespmsg
                0x0007d960                u3270dirlistsub
                0x0007dc1c                u3270setdirlist
                0x0007e0dc                u3270srchdirlist
                0x0007e1a8                u3270setdirlistdsn
                0x0007e474                u3270setattr
                0x0007e590                u3270getattrstr
                0x0007e81c                u3270errdsnpath
 .text          0x0007e854     0x152c ../ulib/libuserxe.a(libuserxe_a-u32702.o)
                0x0007e854                u3270mkdir
                0x0007e88c                u3270rmdir
                0x0007e8bc                u3270xddsub
                0x0007ea3c                u3270xdelete
                0x0007ec4c                u3270wildxdel
                0x0007ec84                u3270xdelsub
                0x0007ed8c                u3270remove
                0x0007eef0                u3270rename
                0x0007f140                u3270renamesub
                0x0007f214                u3270wildrename
                0x0007f264                u3270spfupdate
                0x0007f434                u3270spfsetparm
                0x0007f970                u3270attrib
                0x0007f9a8                u3270attrxchk
                0x0007f9dc                u3270getftime
                0x0007fa14                u3270setftime
                0x0007fa4c                u3270setftime2
                0x0007fa84                u3270copypathinfo
                0x0007fabc                u3270setown
                0x0007faf4                u3270setmod
                0x0007fb28                u3270wildfunc
                0x0007fd30                u3270errnotsupported
 .text          0x0007fd80     0x3ab0 ../ulib/libuserxe.a(libuserxe_a-u32703.o)
                0x0007fd80                u3270xmove
                0x0007fef0                u3270xcopyr2r
                0x000801b8                u3270xcopy
                0x00080380                u3270xcopyget
                0x00080e3c                u3270xcopyput
                0x000818f0                u3270filecreateparmproc
                0x00081b94                u3270filecpymvflags
                0x000820e8                u3270filewildcopyget
                0x00082330                u3270filewildcopyput
                0x00082670                u3270copysubget
                0x000828cc                u3270copysubput
                0x00082d58                u3270transfer
                0x000832bc                u3270srcdupchk
                0x00083500                u3270copyspfupdate
                0x000837a4                u3270setftpparm
 .text          0x00083830       0x40 ../ulib/libuserxe.a(libuserxe_a-uabend.o)
                0x00083830                uabend
 .text          0x00083870     0x417c ../ulib/libuserxe.a(libuserxe_a-ucalc2.o)
                0x00083870                bc_getxdw
                0x000839c4                bc_getld
                0x00083c14                bc_dwbinop
                0x000841cc                bc_twbinop
                0x000846ec                bc_edittod
                0x00084860                bc_dweditnum64
                0x000848c8                bc_dweditnum
                0x00084be4                bc_dwupeditnum
                0x00084dac                ucalc_dwmult
                0x00085000                ucalc_twmult
                0x000854c8                ucalc_dwdiv
                0x000857a8                ucalc_dwdiv2
                0x00085ae0                ucalc_twdiv
                0x00085c68                ucalc_twdivbyup
                0x00085dac                ucalc_twshiftup
                0x00085ec8                ucalc_dwshiftdown
                0x00085ff8                ucalc_ltime
                0x00086418                ucalc_getdate
                0x00086604                ucalc_nextday
                0x000868b4                ucalc_ld2dw
                0x00086e4c                ucalc_dw2ld
                0x00086f58                ucalc_nsadd
                0x000871c0                ucalc_ldedit
                0x00087300                ucalc_dwupinit
                0x00087360                ucalc_dwupset
                0x00087490                bc_numfmt2dw
                0x00087540                bc_dw2numfmt
                0x00087618                ucalc_dwup2dwandup
                0x000877bc                bc_dword2word
                0x000878b8                ucalc_dw2err
                0x000878f0                ucalc_dw2errresidual
                0x00087964                ucalc_dwuperr
                0x0008798c                ucalc_dwmaxerr
                0x000879c4                ucalcerrdwordovf
 .text          0x000879ec     0x1ad0 ../ulib/libuserxe.a(libuserxe_a-ucvebc.o)
                0x000879ec                ucvebcinite2uJ
                0x00087b40                ucvebc
                0x00087b58                ucvebc_gettrte2a
                0x00087b78                ucvebc2asc_handle
                0x00087c18                ucvasc2ebc_handle
                0x00087cb8                ucvebc2asc
                0x000880d0                ucvebc2asc1sbcsJ
                0x00088250                ucvebc2ucs1sbcsJ
                0x000883e4                ucvasc2ebc
                0x0008898c                ucvebc_defaultremap
                0x00088c6c                ucvebcinita2e
                0x00088dd8                ucvkandl
                0x00088fc8                ucvebcinitkandl
                0x000890ec                ucvebc2_chkprintsbcs
                0x000893c8                ucvebc_chkeolopt
 .text          0x000894bc     0x1718 ../ulib/libuserxe.a(libuserxe_a-ucvebc2.o)
                0x000894bc                ucvebc2
                0x000894d4                ucvebc2_init
                0x00089544                ucvebc2_codecomp
                0x0008958c                ucvebc2_s2e
                0x00089628                ucvebc2_e2s
                0x000896c0                ucvebc2_chkprint
                0x00089988                ucvebc2_chkprintnewold
                0x00089c00                ucvebc2_chkprintdup
                0x00089dac                ucvebc2_e2ssub
                0x00089fec                ucvebc2_s2esub
                0x0008a0a4                ucvebc2_stre2s
                0x0008a354                ucvebc2_ebc2asc1dbcsJ
                0x0008a3f0                ucvebc2_strs2e
                0x0008a9a4                ucvebc2_setsi
                0x0008aac8                ucvebc2_setso
 .text          0x0008abd4       0xa8 ../ulib/libuserxe.a(libuserxe_a-ucvebct.o)
                0x0008abd4                ucvebc2gettbl
 .text          0x0008ac7c     0x6c18 ../ulib/libuserxe.a(libuserxe_a-ucvext.o)
                0x0008ac7c                ucvext_cfglineerr
                0x0008acb8                ucvext_cfgdupoption
                0x0008acf4                ucvext_ux2s
                0x0008addc                ucvext_cfgmap
                0x0008af54                ucvext_getcfg
                0x0008bd48                ucvext_setdefaultlocalcv
                0x0008be8c                ucvext_getarmso1
                0x0008c0ec                ucvext_getarmso
                0x0008c378                ucvext_getarmdata1
                0x0008c4e8                ucvext_getarmdata
                0x0008c698                chkapiver
                0x0008c854                ucvext_icuinit_env
                0x0008caf0                setdatadir
                0x0008cbbc                ucvext_mapinit
                0x0008d5a0                ucvext_setupsubch
                0x0008db74                ucvext_loaddll_icudata
                0x0008de08                ucvext_loaddll
                0x0008deb8                ucvext_icuinit
                0x0008e5dc                ucvext_icuenumcvname
                0x0008e9ac                ucvext_icuuerrname
                0x0008ea1c                ucvext_icugetdefaultconvertername2
                0x0008eb38                ucvext_getstdcharset
                0x0008ef10                ucvext_icugetdefaultconvertername
                0x0008f050                ucvext_icugetconvertertype
                0x0008f274                ucvext_icugetsubchars
                0x0008f3f8                ucvext_icusetsubchars
                0x0008f4ec                ucvext_icugetstarter
                0x0008f678                ucvext_icugetconverter
                0x0008fc88                ucvext_getparmconverter
                0x0008ff0c                ucvext_openparmconverter
                0x0009008c                ucvext_getcvoption
                0x000903f8                set_internal_CP037
                0x000904e0                ucvext_mapinitsetdefault
                0x0009071c                ucvext_setlocalconverter
                0x00090818                ucvext_icusubcharchk
                0x00090bcc                ucvext_isdbcs1st
                0x00090c50                chk_converter_is_ebcdic
                0x00090d44                ucvext_handle0init
                0x00090f88                ucvext_icuclose
                0x00090ff0                ucvext_icureset
                0x00091058                ucvext_icugetmbconverter
                0x00091138                ucvext_icumbinit12
                0x00091198                ucvext_icumbinit
                0x00091464                ucvext_setdefaultlocale
                0x00091554                chkicuversion
                0x000917e0                ucvext_getConverterCfg
 .text          0x00091894     0x49f4 ../ulib/libuserxe.a(libuserxe_a-ucvext12.o)
                0x00091894                ucvext12_init
                0x000919f8                ucvext_icuebc2ucs1
                0x00091cb4                ucvext_iculocal2ucs1
                0x00091fa8                ucvext_icuucs2ebc1
                0x000922c0                ucvext_icuucs2local1
                0x0009258c                ucvext_icuebc2mb1
                0x000929ec                ucvext_icumb2ebc1
                0x00092eac                ucvext_icuebc2mbs_handle
                0x00092f2c                ucvext_icuebc2mbs
                0x00093234                ucvext_icumb2ebcdbcs
                0x000937f4                ucvext_icumb2ebcs_handle
                0x00093874                ucvext_icumb2ebcs
                0x00093d74                ucvext_icuebc2mbf
                0x0009425c                ucvext_icumb2ebcf
                0x000949f8                ucvext_icumb2ucs1
                0x00094c04                ucvext_icuucs2mb1
                0x00094e2c                ucvext_icuutf2mb1
                0x00094fd8                ucvext_icumb2utf1
                0x000951d4                ucvext_icumb2utf
                0x0009547c                ucvext_icuisprint
                0x0009551c                ucvext_locale1ICU
                0x00095600                ucvext_getparmconvertermbICU
                0x00095a38                ucvext_icua2ainit
                0x00095afc                ucvext_icua2aterm
                0x00095b74                ucvext_icua2as
                0x00096234                ucvext_icusubcharchk_handle
 .text          0x00096288     0x1ec0 ../ulib/libuserxe.a(libuserxe_a-ucvext2.o)
                0x00096288                ucvext_iconvmapinit
                0x000962d4                ucvext_iconvgetstarter
                0x00096438                ucvext_iconvgetconvertertype
                0x000964b4                ucvext_iconvgetconverter
                0x000965f8                ucvext_iconvgetparmconverter
                0x00096800                ucvext_iconvebc2ucs1
                0x00096970                ucvext_iconvlocal2ucs1
                0x00096c30                ucvext_iconvucs2ebc1
                0x00096da4                ucvext_iconvucs2local1
                0x00096f0c                ucvext_iconva2as
                0x00097520                ucvext_iconvb2bs
                0x000976cc                ucvext_iconva2af
                0x00097ddc                ucvext_iconva2ainit
                0x00097efc                ucvext_iconva2acont
 .text          0x00098148     0x4f64 ../ulib/libuserxe.a(libuserxe_a-ucvucs.o)
                0x00098148                ucp932init
                0x000986d0                ucp932term
                0x00098778                ucp932sjis2ucs
                0x00098848                ucp932ucs2sjis
                0x000989cc                uccvsjis2ucs
                0x00098b00                uccvucs2sjis
                0x00098b30                uccvucs2utf
                0x00098d64                uccvutf2ucs
                0x00099108                uccvucss2utf
                0x000991ec                uccvutf2ucss
                0x000993b8                uccvsjis2ucss
                0x00099438                uccvucss2sjis
                0x0009947c                uccvsjis2utf
                0x00099560                uccvutf2sjis
                0x0009962c                ucvsucs2utf
                0x000999d0                ucvsescucs2utf
                0x00099d94                ucvssjis2utf
                0x0009a160                ucvsmb2utf
                0x0009a4c0                ucvsutf2ucs
                0x0009a824                ucvsutf2sjis
                0x0009acc0                ucvsutf2mb
                0x0009b0a0                ucvssjis2ucs
                0x0009b3c4                ucvsucs2sjis
                0x0009b764                ucvsescucs2sjis
                0x0009bae8                ucvfsjis2ucs
                0x0009bd08                ucvfucs2sjis
                0x0009bf0c                ucvfutf2ucs
                0x0009c1a8                ucvfucs2utf
                0x0009c414                ucvfsjis2utf
                0x0009c680                ucvfutf2sjis
                0x0009c91c                ucvbomchk
                0x0009cac4                ucvbomset
                0x0009cc20                ucvsetucss
                0x0009ce50                ucvgetucss
                0x0009cf8c                ucverrutf
                0x0009cfec                ucverrucs
                0x0009d04c                ucverrsjis
 .text          0x0009d0ac       0x38 ../ulib/libuserxe.a(libuserxe_a-ucvucst.o)
                0x0009d0ac                ugetcp932tbl
 .text          0x0009d0e4     0x3084 ../ulib/libuserxe.a(libuserxe_a-udbcschk.o)
                0x0009d0e4                udbcschk_wcinit
                0x0009d484                udbcschk_getbaseconverter
                0x0009d52c                udbcschk_setunprintable
                0x0009d6c4                udbcschk_wclocaleinit
                0x0009d830                udbcschk_wclocalereset
                0x0009dc44                udbcschk_chklocale
                0x0009dd04                udbcschk_getlinuxleadbyte
                0x0009de6c                udbcschk
                0x0009dff8                udbcschk_hk
                0x0009e0e4                udbcschk_getmblen
                0x0009e3a4                udbcschk_mblen
                0x0009e474                udbcschk_mb2nd
                0x0009e5fc                udbcschk_isvalidmbchar
                0x0009e6e0                udbcschk_locale_topbyte
                0x0009e7e4                udbcschk_getdbcs1st
                0x0009e8d8                udbcschk_ismbdbcs1st
                0x0009e938                udbcschk_locale1
                0x0009ec24                udbcschk_mb2ucs1
                0x0009ed90                udbcschk_ucs2mb1
                0x0009eebc                udbcschk_forceenglish
                0x0009ef28                udbcschkcp
                0x0009f094                ugetcp
                0x0009f178                udbcsenv
                0x0009f1b8                udosquerydbcsenv
                0x0009f32c                udbcschk2
                0x0009f3f0                udbcschk_pos2offs
                0x0009f5cc                usetdbcstbl
                0x0009f930                usetdbcstblmb
                0x0009fda0                udbcschk_setlocale
                0x0009fff0                udbcschk_setdbcstype
                0x000a0108                udbcschk_icugetlocalconverter
 .text          0x000a0168     0x2e38 ../ulib/libuserxe.a(libuserxe_a-udbcsck2.o)
                0x000a0168                ujischkx208
                0x000a0238                usjischkx208
                0x000a0318                usjis2jis
                0x000a0420                ujis2sjis
                0x000a0510                ustrjis2sjis
                0x000a0a28                ustrsjis2jis
                0x000a0f30                ushift2euc
                0x000a1468                ushift2euc1
                0x000a1644                ushift2euccount
                0x000a1884                usjischk
                0x000a1b38                ueuc2shift1SS3
                0x000a1b68                ueuc2shift
                0x000a22f4                ueucchk
                0x000a2730                ueuc2shift1
                0x000a29a4                ueuc2shift1c
                0x000a2b58                uhan2zen
                0x000a2e1c                udbcschktty
                0x000a2ea0                udbcschk_srchSS2
 .text          0x000a2fa0      0x3dc ../ulib/libuserxe.a(libuserxe_a-udos2.o)
                0x000a2fa0                udos2
                0x000a2fb8                ugetdriveidlist
                0x000a30ac                ugetdrivelist
                0x000a314c                ugetdrivetype
                0x000a3274                udos_setenv
 .text          0x000a337c     0x3fe8 ../ulib/libuserxe.a(libuserxe_a-uedit.o)
                0x000a337c                uedit
                0x000a3394                unumedit
                0x000a36cc                utimeedit
                0x000a4244                uitoa10
                0x000a4278                ucmdparmedit
                0x000a49a0                ueditenv
                0x000a4dcc                uwordrep
                0x000a5478                ugethex
                0x000a55d8                ugethexdump
                0x000a57b8                ux2FILESZ
                0x000a57e8                ux2l
                0x000a597c                ux2ll
                0x000a5a64                ua2ll
                0x000a5a94                ux2s
                0x000a5bf0                ugetnumrange3
                0x000a5d68                ugetnumrange2
                0x000a5e64                ugetnumrange2XFILESZ
                0x000a5f38                ugetnumrange
                0x000a6144                ugetxnumrange
                0x000a6568                ugetxnumrangeLL
                0x000a6994                unumlen
                0x000a6bd4                uatoin
                0x000a6c54                getKMGTB
                0x000a6ddc                ueditFILESZ
                0x000a7050                ueditLONGHANDLE
                0x000a7258                ueditKMG
 .text          0x000a7364      0x354 ../ulib/libuserxe.a(libuserxe_a-uehl.o)
                0x000a7364                useteh
                0x000a7430                uehl_setsh
                0x000a7484                ureseteh
                0x000a754c                uehl_resetsh
                0x000a7588                usighandler
 .text          0x000a76b8      0xd74 ../ulib/libuserxe.a(libuserxe_a-uproc22.o)
                0x000a76b8                ukillpid
                0x000a7754                uthread
                0x000a77cc                uevent
                0x000a7a38                uevent_wait1
                0x000a7c04                uevent_post1
                0x000a7d08                uevent_waitm
                0x000a7eec                uevent_postm
                0x000a802c                uevent_reset1
                0x000a80c0                uevent_setuplist
                0x000a8254                uevent_resetlist
                0x000a8304                ucriticalsection
 .text          0x000a842c     0x19c4 ../ulib/libuserxe.a(libuserxe_a-uproc3.o)
                0x000a842c                uproc_gvfsinit
                0x000a8490                ushellexec
                0x000a8944                ushellexecsub
                0x000a8c18                ulnxlgettermpgmopt
                0x000a8d9c                ulnxlgetshellpgm
                0x000a8e68                ulnxxgettermpgmopt
                0x000a917c                uproc3pgmchk
                0x000a9220                usystemlnxterm
                0x000a92fc                usleepms
                0x000a93a0                uprocconnect
                0x000a965c                uprocdisconnect
                0x000a9708                uprocpipeio
                0x000a9914                startserver
                0x000a9990                uprocpiperead
                0x000a9a24                uprocpiperecevmsg
                0x000a9ba0                uprocpipeiodata
 .text          0x000a9df0     0x65fc ../ulib/libuserxe.a(libuserxe_a-uviom.o)
                0x000a9df0                uviom_init
                0x000aa088                uviom_setopt2
                0x000aa384                uviom_notify
                0x000aa44c                uvio_wcinit
                0x000aa4ac                uviom_savecell
                0x000aa554                uviom_readcell
                0x000aa5fc                uvio_mvaddchnstrF
                0x000aaca8                uviom_mvaddwchnstr
                0x000aad18                uvio_mvaddchnstrW_ligature
                0x000ab06c                uvio_mvaddchnstrW_combine
                0x000ab66c                uvio_mvaddchnstrW
                0x000ab930                uviom_cht2cchar
                0x000ac92c                uviom_setcchar_itself
                0x000ac9b4                uviom_setcchar_shadow
                0x000aca8c                uviom_setcombine1
                0x000aceec                uviom_setcombine
                0x000ad704                uviom_setcombineSCM
                0x000ad924                uvio_ddcht2cchar
                0x000ae650                uvio_ddcht2cchar_ligature
                0x000af3e4                uvio_getcombinectr
                0x000af548                uviom_escrep
                0x000af734                uviom_set_padattr
                0x000af798                uviom_fillattrspace
                0x000af8b4                uviom_setunpucs
                0x000afc84                uviom_attr_itself
                0x000afd28                uviom_ISUCSWIDTH0
                0x000afea8                uviom_iscombining
                0x000b0090                uviom_spaceclear
                0x000b00e8                uviom_clearscr
                0x000b0188                uviom_getcombaltchUcs
                0x000b0210                uviom_getcombaltchU8
 .text          0x000b03ec     0x5de8 ../ulib/libuserxe.a(libuserxe_a-ucalc.o)
                0x000b03ec                ucalc_bcmain
                0x000b126c                bc_opdchk
                0x000b2150                getvarname
                0x000b2230                ucalc_chkvrparm
                0x000b23bc                bc_getvalue
                0x000b2ab0                ucalc_vrajust
                0x000b2dd4                ucalc_o2l
                0x000b2ebc                ucalc_gettimevalue
                0x000b32e4                ucalc_getunderpointdata
                0x000b3448                bc_opdcopy
                0x000b3708                bc_putwordordword
                0x000b37e0                bc_expand2dword
                0x000b387c                ucalc_binop
                0x000b3e18                ucalc_binopsub
                0x000b48cc                ucalc_underpoint
                0x000b4bb4                ucalc_editnum
                0x000b4d7c                ucalc_editevenhex
                0x000b4e08                ucalc_dwtime
                0x000b4ff0                ucalc_time
                0x000b54e8                ucalc_timeedit
                0x000b5878                ucalc_shiftdown
                0x000b59c4                ucalc_shiftup
                0x000b5b04                bc_getbase
                0x000b5b48                calcuperr1
                0x000b5b70                calcuperr2
                0x000b5b98                calcuperr3
                0x000b5bc0                calcerrinvalid
                0x000b5bf8                calcerrinvalid_dw
                0x000b5c30                calcerrformat
                0x000b5c58                calcerrunderflow
                0x000b5c84                calcerrwordovf
                0x000b5cc8                calcerrminus
                0x000b5cf0                calcerr0div
                0x000b5d18                calcerrtimeop
                0x000b5d40                bc_getvalue3
                0x000b5ff4                bc_setconvtype3
 .text          0x000b61d4     0x54c8 ../ulib/libuserxe.a(libuserxe_a-ucvebc3.o)
                0x000b61d4                ucvebc3_getcfgparmconverter
                0x000b63d8                ucvebc3_init_xcv
                0x000b6418                ucvebc3_getconvertersubchar
                0x000b648c                ucvebc3_setletter
                0x000b6dc0                ucvebc3_init
                0x000b7034                ucvebc3_cfgerr
                0x000b705c                ucvebc3_b2uSbcs1
                0x000b7344                ucvebc3_b2ddSbcs1
                0x000b7534                ucvebc3_b2ddSbcs
                0x000b79f4                ucvebc3_b2uDbcs1
                0x000b7c10                ucvebc3_b2ddDbcs1
                0x000b7e30                ucvebc3_b2ddDbcsstr
                0x000b8030                ucvebc3_b2ddDbcs
                0x000b875c                ucvebc3_b2dd
                0x000b8850                ucvebc3_u2b1map
                0x000b8990                ucvebc3_u2b1
                0x000b8d34                ucvebc3_m2b1Sbcs1
                0x000b8ef0                ucvebc3_m2b1
                0x000b9228                ucvebc3_m2b
                0x000b9738                ucvebc3_f2b
                0x000b9dd0                ucvebc3_dd2b
                0x000ba4a0                ucvebc3_b2mSbcs
                0x000bab6c                ucvebc3_b2mDbcsstr
                0x000bae0c                ucvebc3_b2m
                0x000bb2e4                ucvebc3_setdbcstbl
                0x000bb484                ucvebc3_getebc3opt
                0x000bb574                ucvebc3_b2f
                0x000bb610                ucvebc3_f2bcmd
 .text          0x000bb69c     0x1c0c ../ulib/libuserxe.a(libuserxe_a-ucvebc4.o)
                0x000bb69c                ucvebc4_init
                0x000bb728                ucvebc4_compbyname
                0x000bb780                ucvebc4_compbyhandle
                0x000bb7d0                ucvebc4_srchcveh
                0x000bb924                ucvebc4_gethandle
                0x000bba14                ucvebc4_getpucveh
                0x000bba94                ucvebc4_getcvname
                0x000bbaf8                ucvebc4_getcvtype
                0x000bbc7c                ucvebc4_createhandle
                0x000bbdb8                ucvebc4_getparmconverter
                0x000bbee8                ucvebc4_chkdbcsconverter
                0x000bc000                ucvebc4_setuphandle
                0x000bc110                ucvebc4_setletter
                0x000bc86c                ucvebc4_b2uSbcs1
                0x000bc988                ucvebc4_b2mSbcs
                0x000bcdb4                ucvebc4_setupsubch
 .text          0x000bd2a8      0x240 /usr/lib/gcc/arm-linux-gnueabihf/8/libgcc.a(_divsi3.o)
                0x000bd2a8                __divsi3
                0x000bd2a8                __aeabi_idiv
                0x000bd4c8                __aeabi_idivmod
 .text          0x000bd4e8       0xd4 /usr/lib/gcc/arm-linux-gnueabihf/8/libgcc.a(_aeabi_ldivmod.o)
                0x000bd4e8                __aeabi_ldivmod
 .text          0x000bd5bc       0x10 /usr/lib/gcc/arm-linux-gnueabihf/8/libgcc.a(_dvmd_lnx.o)
                0x000bd5bc                __aeabi_idiv0
                0x000bd5bc                __aeabi_ldiv0
 .text          0x000bd5cc      0x128 /usr/lib/gcc/arm-linux-gnueabihf/8/libgcc.a(_udivmoddi4.o)
                0x000bd5cc                __udivmoddi4
 .text          0x000bd6f4       0x64 //usr/lib/arm-linux-gnueabihf/libc_nonshared.a(elf-init.oS)
                0x000bd6f4                __libc_csu_init
                0x000bd754                __libc_csu_fini
 .text          0x000bd758       0x10 //usr/lib/arm-linux-gnueabihf/libc_nonshared.a(stat64.oS)
                0x000bd758                stat64
 .text          0x000bd768       0x10 //usr/lib/arm-linux-gnueabihf/libc_nonshared.a(lstat64.oS)
                0x000bd768                lstat64
 .text          0x000bd778        0x0 /usr/lib/gcc/arm-linux-gnueabihf/8/crtend.o
 .text          0x000bd778        0x0 /usr/lib/gcc/arm-linux-gnueabihf/8/../../../arm-linux-gnueabihf/crtn.o
 *(.gnu.warning)
 *(.glue_7t)
 .glue_7t       0x000bd778        0x0 linker stubs
 *(.glue_7)
 .glue_7        0x000bd778        0x0 linker stubs
 *(.vfp11_veneer)
 .vfp11_veneer  0x000bd778        0x0 linker stubs
 *(.v4_bx)
 .v4_bx         0x000bd778        0x0 linker stubs

.fini           0x000bd778        0x8
 *(SORT_NONE(.fini))
 .fini          0x000bd778        0x4 /usr/lib/gcc/arm-linux-gnueabihf/8/../../../arm-linux-gnueabihf/crti.o
                0x000bd778                _fini
 .fini          0x000bd77c        0x4 /usr/lib/gcc/arm-linux-gnueabihf/8/../../../arm-linux-gnueabihf/crtn.o
                [!provide]                PROVIDE (__etext = .)
                [!provide]                PROVIDE (_etext = .)
                [!provide]                PROVIDE (etext = .)

.rodata         0x000bd780     0xc1fc
 *(.rodata .rodata.* .gnu.linkonce.r.*)
 .rodata.cst4   0x000bd780        0x4 /usr/lib/gcc/arm-linux-gnueabihf/8/../../../arm-linux-gnueabihf/crt1.o
                0x000bd780                _IO_stdin_used
 .rodata        0x000bd784      0x98f xdd.o
 *fill*         0x000be113        0x1 
 .rodata        0x000be114      0x571 ../ulib/libuserxe.a(libuserxe_a-uallocl.o)
 *fill*         0x000be685        0x3 
 .rodata        0x000be688       0xbd ../ulib/libuserxe.a(libuserxe_a-uedit2.o)
 *fill*         0x000be745        0x3 
 .rodata        0x000be748      0x30d ../ulib/libuserxe.a(libuserxe_a-uerr.o)
 *fill*         0x000bea55        0x3 
 .rodata        0x000bea58      0x8b9 ../ulib/libuserxe.a(libuserxe_a-ufemsg.o)
 *fill*         0x000bf311        0x3 
 .rodata        0x000bf314      0x113 ../ulib/libuserxe.a(libuserxe_a-ufile.o)
 *fill*         0x000bf427        0x1 
 .rodata        0x000bf428      0x12b ../ulib/libuserxe.a(libuserxe_a-ufile1f.o)
 *fill*         0x000bf553        0x1 
 .rodata        0x000bf554      0x6a3 ../ulib/libuserxe.a(libuserxe_a-ufile1l.o)
 *fill*         0x000bfbf7        0x1 
 .rodata        0x000bfbf8      0x10f ../ulib/libuserxe.a(libuserxe_a-ufile1l2.o)
 *fill*         0x000bfd07        0x1 
 .rodata        0x000bfd08      0x7e4 ../ulib/libuserxe.a(libuserxe_a-ufile2.o)
 .rodata        0x000c04ec      0x357 ../ulib/libuserxe.a(libuserxe_a-ufile2f.o)
 *fill*         0x000c0843        0x1 
 .rodata        0x000c0844       0xf6 ../ulib/libuserxe.a(libuserxe_a-ufile2l.o)
 *fill*         0x000c093a        0x2 
 .rodata        0x000c093c       0xfc ../ulib/libuserxe.a(libuserxe_a-ufile2l2.o)
 .rodata        0x000c0a38      0x4da ../ulib/libuserxe.a(libuserxe_a-ufile3.o)
 *fill*         0x000c0f12        0x2 
 .rodata        0x000c0f14      0x476 ../ulib/libuserxe.a(libuserxe_a-ufile3f.o)
 *fill*         0x000c138a        0x2 
 .rodata        0x000c138c      0x234 ../ulib/libuserxe.a(libuserxe_a-ufile4.o)
 .rodata        0x000c15c0      0x1a6 ../ulib/libuserxe.a(libuserxe_a-ufile5.o)
 *fill*         0x000c1766        0x2 
 .rodata        0x000c1768      0x619 ../ulib/libuserxe.a(libuserxe_a-uftp.o)
 *fill*         0x000c1d81        0x3 
 .rodata        0x000c1d84      0x45c ../ulib/libuserxe.a(libuserxe_a-uftp2.o)
 .rodata        0x000c21e0      0x512 ../ulib/libuserxe.a(libuserxe_a-uftp3.o)
 *fill*         0x000c26f2        0x2 
 .rodata        0x000c26f4        0xb ../ulib/libuserxe.a(libuserxe_a-ugcclib.o)
 *fill*         0x000c26ff        0x1 
 .rodata        0x000c2700       0xef ../ulib/libuserxe.a(libuserxe_a-ukbdl.o)
 *fill*         0x000c27ef        0x1 
 .rodata        0x000c27f0      0xf2a ../ulib/libuserxe.a(libuserxe_a-ukbdlnxc.o)
 *fill*         0x000c371a        0x2 
 .rodata        0x000c371c       0x2d ../ulib/libuserxe.a(libuserxe_a-uparse.o)
 *fill*         0x000c3749        0x3 
 .rodata        0x000c374c      0x4fd ../ulib/libuserxe.a(libuserxe_a-uproc.o)
 *fill*         0x000c3c49        0x3 
 .rodata        0x000c3c4c      0x168 ../ulib/libuserxe.a(libuserxe_a-uproc2.o)
 .rodata        0x000c3db4      0x341 ../ulib/libuserxe.a(libuserxe_a-uproc4.o)
 *fill*         0x000c40f5        0x3 
 .rodata        0x000c40f8      0x384 ../ulib/libuserxe.a(libuserxe_a-uque.o)
 .rodata        0x000c447c       0x7e ../ulib/libuserxe.a(libuserxe_a-ustrcpy.o)
 *fill*         0x000c44fa        0x2 
 .rodata        0x000c44fc        0x4 ../ulib/libuserxe.a(libuserxe_a-ustring.o)
 .rodata        0x000c4500      0x1cc ../ulib/libuserxe.a(libuserxe_a-utf2.o)
 .rodata        0x000c46cc      0x325 ../ulib/libuserxe.a(libuserxe_a-utf22.o)
 *fill*         0x000c49f1        0x3 
 .rodata        0x000c49f4      0x133 ../ulib/libuserxe.a(libuserxe_a-utf3.o)
 *fill*         0x000c4b27        0x1 
 .rodata        0x000c4b28     0x19d0 ../ulib/libuserxe.a(libuserxe_a-utf4.o)
 .rodata        0x000c64f8      0x161 ../ulib/libuserxe.a(libuserxe_a-utrace.o)
 *fill*         0x000c6659        0x3 
 .rodata        0x000c665c       0x98 ../ulib/libuserxe.a(libuserxe_a-uunxsub.o)
 .rodata        0x000c66f4       0x7a ../ulib/libuserxe.a(libuserxe_a-uviol.o)
 *fill*         0x000c676e        0x2 
 .rodata        0x000c6770      0x161 ../ulib/libuserxe.a(libuserxe_a-u3270.o)
 *fill*         0x000c68d1        0x3 
 .rodata        0x000c68d4      0x1ad ../ulib/libuserxe.a(libuserxe_a-u32702.o)
 *fill*         0x000c6a81        0x3 
 .rodata        0x000c6a84      0x395 ../ulib/libuserxe.a(libuserxe_a-u32703.o)
 *fill*         0x000c6e19        0x3 
 .rodata        0x000c6e1c       0x30 ../ulib/libuserxe.a(libuserxe_a-uabend.o)
 .rodata        0x000c6e4c      0x7c3 ../ulib/libuserxe.a(libuserxe_a-ucalc2.o)
 *fill*         0x000c760f        0x1 
 .rodata        0x000c7610      0x88e ../ulib/libuserxe.a(libuserxe_a-ucvebc.o)
 *fill*         0x000c7e9e        0x2 
 .rodata        0x000c7ea0      0x221 ../ulib/libuserxe.a(libuserxe_a-ucvebc2.o)
 *fill*         0x000c80c1        0x3 
 .rodata        0x000c80c4      0x8e8 ../ulib/libuserxe.a(libuserxe_a-ucvext.o)
 .rodata        0x000c89ac       0xca ../ulib/libuserxe.a(libuserxe_a-ucvext12.o)
 *fill*         0x000c8a76        0x2 
 .rodata        0x000c8a78      0x172 ../ulib/libuserxe.a(libuserxe_a-ucvext2.o)
 *fill*         0x000c8bea        0x2 
 .rodata        0x000c8bec       0xa2 ../ulib/libuserxe.a(libuserxe_a-ucvucs.o)
 *fill*         0x000c8c8e        0x2 
 .rodata        0x000c8c90      0x10c ../ulib/libuserxe.a(libuserxe_a-udbcschk.o)
 .rodata        0x000c8d9c        0xc ../ulib/libuserxe.a(libuserxe_a-udbcsck2.o)
 .rodata        0x000c8da8       0x47 ../ulib/libuserxe.a(libuserxe_a-udos2.o)
 *fill*         0x000c8def        0x1 
 .rodata        0x000c8df0       0xed ../ulib/libuserxe.a(libuserxe_a-uedit.o)
 *fill*         0x000c8edd        0x3 
 .rodata        0x000c8ee0       0x33 ../ulib/libuserxe.a(libuserxe_a-uehl.o)
 *fill*         0x000c8f13        0x1 
 .rodata        0x000c8f14       0x66 ../ulib/libuserxe.a(libuserxe_a-uproc22.o)
 *fill*         0x000c8f7a        0x2 
 .rodata        0x000c8f7c      0x410 ../ulib/libuserxe.a(libuserxe_a-uproc3.o)
 .rodata        0x000c938c        0x2 ../ulib/libuserxe.a(libuserxe_a-uviom.o)
 *fill*         0x000c938e        0x2 
 .rodata        0x000c9390      0x4ad ../ulib/libuserxe.a(libuserxe_a-ucalc.o)
 *fill*         0x000c983d        0x3 
 .rodata        0x000c9840       0x8f ../ulib/libuserxe.a(libuserxe_a-ucvebc3.o)
 *fill*         0x000c98cf        0x1 
 .rodata        0x000c98d0       0xac ../ulib/libuserxe.a(libuserxe_a-ucvebc4.o)

.rodata1
 *(.rodata1)

.ARM.extab      0x000c997c        0x0
 *(.ARM.extab* .gnu.linkonce.armextab.*)
 .ARM.extab     0x000c997c        0x0 /usr/lib/gcc/arm-linux-gnueabihf/8/../../../arm-linux-gnueabihf/crt1.o
 .ARM.extab     0x000c997c        0x0 /usr/lib/gcc/arm-linux-gnueabihf/8/libgcc.a(_udivmoddi4.o)
                [!provide]                PROVIDE (__exidx_start = .)

.ARM.exidx      0x000c997c        0x8
 *(.ARM.exidx* .gnu.linkonce.armexidx.*)
 .ARM.exidx     0x000c997c        0x8 /usr/lib/gcc/arm-linux-gnueabihf/8/../../../arm-linux-gnueabihf/crt1.o
 .ARM.exidx     0x000c9984        0x0 /usr/lib/gcc/arm-linux-gnueabihf/8/libgcc.a(_udivmoddi4.o)
                                  0x8 (size before relaxing)
                [!provide]                PROVIDE (__exidx_end = .)

.eh_frame_hdr
 *(.eh_frame_hdr)
 *(.eh_frame_entry .eh_frame_entry.*)

.eh_frame       0x000c9984        0x4
 *(.eh_frame)
 .eh_frame      0x000c9984        0x4 /usr/lib/gcc/arm-linux-gnueabihf/8/crtend.o
 *(.eh_frame.*)

.gcc_except_table
 *(.gcc_except_table .gcc_except_table.*)

.gnu_extab
 *(.gnu_extab*)

.exception_ranges
 *(.exception_ranges .exception_ranges*)
                0x000d9e08                . = DATA_SEGMENT_ALIGN (CONSTANT (MAXPAGESIZE), CONSTANT (COMMONPAGESIZE))

.eh_frame
 *(.eh_frame)
 *(.eh_frame.*)

.gnu_extab
 *(.gnu_extab)

.gcc_except_table
 *(.gcc_except_table .gcc_except_table.*)

.exception_ranges
 *(.exception_ranges .exception_ranges*)

.tdata          0x000d9e08        0x0
                [!provide]                PROVIDE (__tdata_start = .)
 *(.tdata .tdata.* .gnu.linkonce.td.*)

.tbss
 *(.tbss .tbss.* .gnu.linkonce.tb.*)
 *(.tcommon)

.preinit_array  0x000d9e08        0x0
                [!provide]                PROVIDE (__preinit_array_start = .)
 *(.preinit_array)
                [!provide]                PROVIDE (__preinit_array_end = .)

.init_array     0x000d9e08        0x4
                0x000d9e08                PROVIDE (__init_array_start = .)
 *(SORT_BY_INIT_PRIORITY(.init_array.*) SORT_BY_INIT_PRIORITY(.ctors.*))
 *(.init_array EXCLUDE_FILE(*crtend?.o *crtend.o *crtbegin?.o *crtbegin.o) .ctors)
 .init_array    0x000d9e08        0x4 /usr/lib/gcc/arm-linux-gnueabihf/8/crtbegin.o
                0x000d9e0c                PROVIDE (__init_array_end = .)

.fini_array     0x000d9e0c        0x4
                [!provide]                PROVIDE (__fini_array_start = .)
 *(SORT_BY_INIT_PRIORITY(.fini_array.*) SORT_BY_INIT_PRIORITY(.dtors.*))
 *(.fini_array EXCLUDE_FILE(*crtend?.o *crtend.o *crtbegin?.o *crtbegin.o) .dtors)
 .fini_array    0x000d9e0c        0x4 /usr/lib/gcc/arm-linux-gnueabihf/8/crtbegin.o
                [!provide]                PROVIDE (__fini_array_end = .)

.ctors
 *crtbegin.o(.ctors)
 *crtbegin?.o(.ctors)
 *(EXCLUDE_FILE(*crtend?.o *crtend.o) .ctors)
 *(SORT_BY_NAME(.ctors.*))
 *(.ctors)

.dtors
 *crtbegin.o(.dtors)
 *crtbegin?.o(.dtors)
 *(EXCLUDE_FILE(*crtend?.o *crtend.o) .dtors)
 *(SORT_BY_NAME(.dtors.*))
 *(.dtors)

.jcr
 *(.jcr)

.data.rel.ro    0x000d9e10        0x0
 *(.data.rel.ro.local* .gnu.linkonce.d.rel.ro.local.*)
 *(.data.rel.ro .data.rel.ro.* .gnu.linkonce.d.rel.ro.*)
 .data.rel.ro   0x000d9e10        0x0 /usr/lib/gcc/arm-linux-gnueabihf/8/../../../arm-linux-gnueabihf/crt1.o

.dynamic        0x000d9e10      0x1f0
 *(.dynamic)
 .dynamic       0x000d9e10      0x1f0 /usr/lib/gcc/arm-linux-gnueabihf/8/../../../arm-linux-gnueabihf/crt1.o
                0x000d9e10                _DYNAMIC
                0x000da000                . = DATA_SEGMENT_RELRO_END (., 0x0)

.got            0x000da000      0x2e0
 *(.got.plt)
 .got.plt       0x000da000      0x2dc /usr/lib/gcc/arm-linux-gnueabihf/8/../../../arm-linux-gnueabihf/crt1.o
                0x000da000                _GLOBAL_OFFSET_TABLE_
 *(.igot.plt)
 .igot.plt      0x000da2dc        0x0 /usr/lib/gcc/arm-linux-gnueabihf/8/../../../arm-linux-gnueabihf/crt1.o
 *(.got)
 .got           0x000da2dc        0x4 /usr/lib/gcc/arm-linux-gnueabihf/8/../../../arm-linux-gnueabihf/crt1.o
 *(.igot)

.data           0x000da2e0    0x2763c
                [!provide]                PROVIDE (__data_start = .)
 *(.data .data.* .gnu.linkonce.d.*)
 .data          0x000da2e0        0x4 /usr/lib/gcc/arm-linux-gnueabihf/8/../../../arm-linux-gnueabihf/crt1.o
                0x000da2e0                __data_start
                0x000da2e0                data_start
 .data          0x000da2e4        0x0 /usr/lib/gcc/arm-linux-gnueabihf/8/../../../arm-linux-gnueabihf/crti.o
 .data          0x000da2e4        0x4 /usr/lib/gcc/arm-linux-gnueabihf/8/crtbegin.o
                0x000da2e4                __dso_handle
 .data          0x000da2e8        0x0 xdd.o
 .data          0x000da2e8     0x1000 ../ulib/libuserxe.a(libuserxe_a-uallocl.o)
 .data          0x000db2e8       0x78 ../ulib/libuserxe.a(libuserxe_a-uedit2.o)
 .data          0x000db360        0xd ../ulib/libuserxe.a(libuserxe_a-uerr.o)
 .data          0x000db36d        0x0 ../ulib/libuserxe.a(libuserxe_a-ufemsg.o)
 *fill*         0x000db36d        0x3 
 .data          0x000db370        0xc ../ulib/libuserxe.a(libuserxe_a-ufile.o)
 .data          0x000db37c        0x0 ../ulib/libuserxe.a(libuserxe_a-ufile1f.o)
 .data          0x000db37c        0x0 ../ulib/libuserxe.a(libuserxe_a-ufile1l.o)
 .data          0x000db37c       0x2c ../ulib/libuserxe.a(libuserxe_a-ufile1l2.o)
 .data          0x000db3a8        0x0 ../ulib/libuserxe.a(libuserxe_a-ufile2.o)
 .data          0x000db3a8        0x0 ../ulib/libuserxe.a(libuserxe_a-ufile2f.o)
 .data          0x000db3a8        0x0 ../ulib/libuserxe.a(libuserxe_a-ufile2l.o)
 .data          0x000db3a8        0x0 ../ulib/libuserxe.a(libuserxe_a-ufile2l2.o)
 .data          0x000db3a8        0x0 ../ulib/libuserxe.a(libuserxe_a-ufile3.o)
 .data          0x000db3a8        0x0 ../ulib/libuserxe.a(libuserxe_a-ufile3f.o)
 .data          0x000db3a8        0x0 ../ulib/libuserxe.a(libuserxe_a-ufile4.o)
 .data          0x000db3a8        0x0 ../ulib/libuserxe.a(libuserxe_a-ufile5.o)
 .data          0x000db3a8       0x10 ../ulib/libuserxe.a(libuserxe_a-uftp.o)
 .data          0x000db3b8       0x50 ../ulib/libuserxe.a(libuserxe_a-uftp2.o)
 .data          0x000db408        0x4 ../ulib/libuserxe.a(libuserxe_a-uftp3.o)
 .data          0x000db40c        0x0 ../ulib/libuserxe.a(libuserxe_a-ugcclib.o)
 .data          0x000db40c        0x0 ../ulib/libuserxe.a(libuserxe_a-ukbdl.o)
 .data          0x000db40c     0xb6bc ../ulib/libuserxe.a(libuserxe_a-ukbdlnxc.o)
 .data          0x000e6ac8       0x10 ../ulib/libuserxe.a(libuserxe_a-ukbdlnxm.o)
 .data          0x000e6ad8        0x0 ../ulib/libuserxe.a(libuserxe_a-uparse.o)
 .data          0x000e6ad8       0x20 ../ulib/libuserxe.a(libuserxe_a-uproc.o)
 .data          0x000e6af8        0x0 ../ulib/libuserxe.a(libuserxe_a-uproc2.o)
 .data          0x000e6af8        0x0 ../ulib/libuserxe.a(libuserxe_a-uproc4.o)
 .data          0x000e6af8        0x0 ../ulib/libuserxe.a(libuserxe_a-uque.o)
 .data          0x000e6af8        0x0 ../ulib/libuserxe.a(libuserxe_a-ustrcpy.o)
 .data          0x000e6af8       0xfb ../ulib/libuserxe.a(libuserxe_a-ustring.o)
 .data          0x000e6bf3        0x0 ../ulib/libuserxe.a(libuserxe_a-utf.o)
 .data          0x000e6bf3        0x0 ../ulib/libuserxe.a(libuserxe_a-utf2.o)
 *fill*         0x000e6bf3        0x1 
 .data          0x000e6bf4      0x164 ../ulib/libuserxe.a(libuserxe_a-utf22.o)
 .data          0x000e6d58      0xe98 ../ulib/libuserxe.a(libuserxe_a-utf3.o)
 .data          0x000e7bf0        0x0 ../ulib/libuserxe.a(libuserxe_a-utf4.o)
 .data          0x000e7bf0     0x1928 ../ulib/libuserxe.a(libuserxe_a-utrace.o)
 .data          0x000e9518        0x0 ../ulib/libuserxe.a(libuserxe_a-uunxsub.o)
 .data          0x000e9518        0xc ../ulib/libuserxe.a(libuserxe_a-uviol.o)
 .data          0x000e9524        0x4 ../ulib/libuserxe.a(libuserxe_a-u3270.o)
 .data          0x000e9528        0x0 ../ulib/libuserxe.a(libuserxe_a-u32702.o)
 .data          0x000e9528        0x0 ../ulib/libuserxe.a(libuserxe_a-u32703.o)
 .data          0x000e9528        0x0 ../ulib/libuserxe.a(libuserxe_a-uabend.o)
 .data          0x000e9528      0x24c ../ulib/libuserxe.a(libuserxe_a-ucalc2.o)
 .data          0x000e9774      0x248 ../ulib/libuserxe.a(libuserxe_a-ucvebc.o)
 .data          0x000e99bc        0x0 ../ulib/libuserxe.a(libuserxe_a-ucvebc2.o)
 .data          0x000e99bc     0xed30 ../ulib/libuserxe.a(libuserxe_a-ucvebct.o)
 .data          0x000f86ec      0x316 ../ulib/libuserxe.a(libuserxe_a-ucvext.o)
 .data          0x000f8a02        0x6 ../ulib/libuserxe.a(libuserxe_a-ucvext12.o)
 .data          0x000f8a08        0x0 ../ulib/libuserxe.a(libuserxe_a-ucvext2.o)
 .data          0x000f8a08       0x28 ../ulib/libuserxe.a(libuserxe_a-ucvucs.o)
 .data          0x000f8a30     0x7cb0 ../ulib/libuserxe.a(libuserxe_a-ucvucst.o)
                0x000f8a30                Scp932tb
 .data          0x001006e0        0x8 ../ulib/libuserxe.a(libuserxe_a-udbcschk.o)
                0x001006e0                Gpdbcstbl
 .data          0x001006e8     0x1148 ../ulib/libuserxe.a(libuserxe_a-udbcsck2.o)
 .data          0x00101830        0x0 ../ulib/libuserxe.a(libuserxe_a-udos2.o)
 .data          0x00101830        0x0 ../ulib/libuserxe.a(libuserxe_a-uedit.o)
 .data          0x00101830       0x38 ../ulib/libuserxe.a(libuserxe_a-uehl.o)
 .data          0x00101868        0x0 ../ulib/libuserxe.a(libuserxe_a-uproc22.o)
 .data          0x00101868       0x54 ../ulib/libuserxe.a(libuserxe_a-uproc3.o)
 .data          0x001018bc        0x4 ../ulib/libuserxe.a(libuserxe_a-uviom.o)
                0x001018bc                Guviomdbcspad
 .data          0x001018c0       0x54 ../ulib/libuserxe.a(libuserxe_a-ucalc.o)
 .data          0x00101914        0x8 ../ulib/libuserxe.a(libuserxe_a-ucvebc3.o)
 .data          0x0010191c        0x0 ../ulib/libuserxe.a(libuserxe_a-ucvebc4.o)
 .data          0x0010191c        0x0 /usr/lib/gcc/arm-linux-gnueabihf/8/libgcc.a(_divsi3.o)
 .data          0x0010191c        0x0 /usr/lib/gcc/arm-linux-gnueabihf/8/libgcc.a(_aeabi_ldivmod.o)
 .data          0x0010191c        0x0 /usr/lib/gcc/arm-linux-gnueabihf/8/libgcc.a(_dvmd_lnx.o)
 .data          0x0010191c        0x0 /usr/lib/gcc/arm-linux-gnueabihf/8/libgcc.a(_udivmoddi4.o)
 .data          0x0010191c        0x0 //usr/lib/arm-linux-gnueabihf/libc_nonshared.a(elf-init.oS)
 .data          0x0010191c        0x0 //usr/lib/arm-linux-gnueabihf/libc_nonshared.a(stat64.oS)
 .data          0x0010191c        0x0 //usr/lib/arm-linux-gnueabihf/libc_nonshared.a(lstat64.oS)
 .data          0x0010191c        0x0 /usr/lib/gcc/arm-linux-gnueabihf/8/crtend.o
 .data          0x0010191c        0x0 /usr/lib/gcc/arm-linux-gnueabihf/8/../../../arm-linux-gnueabihf/crtn.o

.tm_clone_table
                0x0010191c        0x0
 .tm_clone_table
                0x0010191c        0x0 /usr/lib/gcc/arm-linux-gnueabihf/8/crtbegin.o
 .tm_clone_table
                0x0010191c        0x0 /usr/lib/gcc/arm-linux-gnueabihf/8/crtend.o

.data1
 *(.data1)
                0x0010191c                _edata = .
                [!provide]                PROVIDE (edata = .)
                0x0010191c                . = .
                0x0010191c                __bss_start = .
                0x0010191c                __bss_start__ = .

.bss            0x00101920   0x1449c0
 *(.dynbss)
 .dynbss        0x00101920      0x230 /usr/lib/gcc/arm-linux-gnueabihf/8/../../../arm-linux-gnueabihf/crt1.o
                0x00101920                COLORS@@NCURSESW6_5.1.20000708
                0x00101924                LINES@@NCURSES6_TINFO_5.0.19991023
                0x00101928                acs_map@@NCURSES6_TINFO_5.0.19991023
                0x00101b28                stdscr@@NCURSES6_TINFO_5.0.19991023
                0x00101b2c                cur_term@@NCURSES6_TINFO_5.0.19991023
                0x00101b30                COLS@@NCURSES6_TINFO_5.0.19991023
                0x00101b34                stdout@@GLIBC_2.4
                0x00101b38                COLOR_PAIRS@@NCURSESW6_5.1.20000708
                0x00101b40                stdin@@GLIBC_2.4
                0x00101b48                stderr@@GLIBC_2.4
                0x00101b4c                newscr@@NCURSES6_TINFO_5.0.19991023
 *(.bss .bss.* .gnu.linkonce.b.*)
 .bss           0x00101b50        0x0 /usr/lib/gcc/arm-linux-gnueabihf/8/../../../arm-linux-gnueabihf/crt1.o
 .bss           0x00101b50        0x0 /usr/lib/gcc/arm-linux-gnueabihf/8/../../../arm-linux-gnueabihf/crti.o
 .bss           0x00101b50        0x1 /usr/lib/gcc/arm-linux-gnueabihf/8/crtbegin.o
 *fill*         0x00101b51        0x3 
 .bss           0x00101b54       0x14 xdd.o
 .bss           0x00101b68       0x84 ../ulib/libuserxe.a(libuserxe_a-uallocl.o)
 .bss           0x00101bec      0x268 ../ulib/libuserxe.a(libuserxe_a-uedit2.o)
 .bss           0x00101e54     0x40e4 ../ulib/libuserxe.a(libuserxe_a-uerr.o)
 .bss           0x00105f38       0x20 ../ulib/libuserxe.a(libuserxe_a-ufemsg.o)
 .bss           0x00105f58       0x18 ../ulib/libuserxe.a(libuserxe_a-ufile.o)
 .bss           0x00105f70        0x4 ../ulib/libuserxe.a(libuserxe_a-ufile1f.o)
 .bss           0x00105f74    0x64658 ../ulib/libuserxe.a(libuserxe_a-ufile1l.o)
 .bss           0x0016a5cc        0x4 ../ulib/libuserxe.a(libuserxe_a-ufile1l2.o)
 .bss           0x0016a5d0       0x34 ../ulib/libuserxe.a(libuserxe_a-ufile2.o)
 .bss           0x0016a604       0x20 ../ulib/libuserxe.a(libuserxe_a-ufile2f.o)
 .bss           0x0016a624        0x4 ../ulib/libuserxe.a(libuserxe_a-ufile2l.o)
 .bss           0x0016a628        0x0 ../ulib/libuserxe.a(libuserxe_a-ufile2l2.o)
 .bss           0x0016a628        0x8 ../ulib/libuserxe.a(libuserxe_a-ufile3.o)
 .bss           0x0016a630     0x100d ../ulib/libuserxe.a(libuserxe_a-ufile3f.o)
 *fill*         0x0016b63d        0x3 
 .bss           0x0016b640     0x1034 ../ulib/libuserxe.a(libuserxe_a-ufile4.o)
 *fill*         0x0016c674        0x4 
 .bss           0x0016c678       0x5d ../ulib/libuserxe.a(libuserxe_a-ufile5.o)
 *fill*         0x0016c6d5        0x3 
 .bss           0x0016c6d8    0x64d00 ../ulib/libuserxe.a(libuserxe_a-uftp.o)
 .bss           0x001d13d8        0x8 ../ulib/libuserxe.a(libuserxe_a-uftp2.o)
 .bss           0x001d13e0        0x0 ../ulib/libuserxe.a(libuserxe_a-uftp3.o)
 .bss           0x001d13e0        0x4 ../ulib/libuserxe.a(libuserxe_a-ugcclib.o)
 .bss           0x001d13e4       0xf4 ../ulib/libuserxe.a(libuserxe_a-ukbdl.o)
                0x001d13e4                Swcstat
 .bss           0x001d14d8     0x5808 ../ulib/libuserxe.a(libuserxe_a-ukbdlnxc.o)
 .bss           0x001d6ce0        0x8 ../ulib/libuserxe.a(libuserxe_a-ukbdlnxm.o)
 .bss           0x001d6ce8      0x205 ../ulib/libuserxe.a(libuserxe_a-uparse.o)
 *fill*         0x001d6eed        0x3 
 .bss           0x001d6ef0       0x1c ../ulib/libuserxe.a(libuserxe_a-uproc.o)
                0x001d6ef0                Sserverstat
                0x001d6ef4                Scmdservercallback
                0x001d6ef8                Scallbackparm
                0x001d6efc                Scmdserverchildpid
 .bss           0x001d6f0c        0x4 ../ulib/libuserxe.a(libuserxe_a-uproc2.o)
 .bss           0x001d6f10       0x1c ../ulib/libuserxe.a(libuserxe_a-uproc4.o)
 .bss           0x001d6f2c        0x0 ../ulib/libuserxe.a(libuserxe_a-uque.o)
 .bss           0x001d6f2c        0x0 ../ulib/libuserxe.a(libuserxe_a-ustrcpy.o)
 .bss           0x001d6f2c        0x0 ../ulib/libuserxe.a(libuserxe_a-ustring.o)
 .bss           0x001d6f2c        0x0 ../ulib/libuserxe.a(libuserxe_a-utf.o)
 .bss           0x001d6f2c       0x98 ../ulib/libuserxe.a(libuserxe_a-utf2.o)
 .bss           0x001d6fc4       0x14 ../ulib/libuserxe.a(libuserxe_a-utf22.o)
 .bss           0x001d6fd8        0x8 ../ulib/libuserxe.a(libuserxe_a-utf3.o)
 .bss           0x001d6fe0        0x4 ../ulib/libuserxe.a(libuserxe_a-utf4.o)
 .bss           0x001d6fe4     0x1170 ../ulib/libuserxe.a(libuserxe_a-utrace.o)
 .bss           0x001d8154       0x20 ../ulib/libuserxe.a(libuserxe_a-uunxsub.o)
 .bss           0x001d8174      0x508 ../ulib/libuserxe.a(libuserxe_a-uviol.o)
 .bss           0x001d867c        0xc ../ulib/libuserxe.a(libuserxe_a-u3270.o)
 .bss           0x001d8688       0x10 ../ulib/libuserxe.a(libuserxe_a-u32702.o)
 .bss           0x001d8698     0x1208 ../ulib/libuserxe.a(libuserxe_a-u32703.o)
 .bss           0x001d98a0        0x0 ../ulib/libuserxe.a(libuserxe_a-uabend.o)
 .bss           0x001d98a0        0x0 ../ulib/libuserxe.a(libuserxe_a-ucalc2.o)
 .bss           0x001d98a0      0x790 ../ulib/libuserxe.a(libuserxe_a-ucvebc.o)
 .bss           0x001da030       0x10 ../ulib/libuserxe.a(libuserxe_a-ucvebc2.o)
 .bss           0x001da040        0x0 ../ulib/libuserxe.a(libuserxe_a-ucvebct.o)
 .bss           0x001da040     0x1cd4 ../ulib/libuserxe.a(libuserxe_a-ucvext.o)
 .bss           0x001dbd14       0x24 ../ulib/libuserxe.a(libuserxe_a-ucvext12.o)
 .bss           0x001dbd38        0xc ../ulib/libuserxe.a(libuserxe_a-ucvext2.o)
 .bss           0x001dbd44        0xc ../ulib/libuserxe.a(libuserxe_a-ucvucs.o)
 .bss           0x001dbd50        0x0 ../ulib/libuserxe.a(libuserxe_a-ucvucst.o)
 .bss           0x001dbd50      0x2f9 ../ulib/libuserxe.a(libuserxe_a-udbcschk.o)
 .bss           0x001dc049        0x0 ../ulib/libuserxe.a(libuserxe_a-udbcsck2.o)
 .bss           0x001dc049        0x0 ../ulib/libuserxe.a(libuserxe_a-udos2.o)
 *fill*         0x001dc049        0x3 
 .bss           0x001dc04c       0xd8 ../ulib/libuserxe.a(libuserxe_a-uedit.o)
 .bss           0x001dc124       0x64 ../ulib/libuserxe.a(libuserxe_a-uehl.o)
 .bss           0x001dc188       0x18 ../ulib/libuserxe.a(libuserxe_a-uproc22.o)
 .bss           0x001dc1a0       0x10 ../ulib/libuserxe.a(libuserxe_a-uproc3.o)
 .bss           0x001dc1b0       0x58 ../ulib/libuserxe.a(libuserxe_a-uviom.o)
 .bss           0x001dc208      0x114 ../ulib/libuserxe.a(libuserxe_a-ucalc.o)
 .bss           0x001dc31c       0x34 ../ulib/libuserxe.a(libuserxe_a-ucvebc3.o)
 .bss           0x001dc350        0x4 ../ulib/libuserxe.a(libuserxe_a-ucvebc4.o)
 .bss           0x001dc354        0x0 /usr/lib/gcc/arm-linux-gnueabihf/8/libgcc.a(_divsi3.o)
 .bss           0x001dc354        0x0 /usr/lib/gcc/arm-linux-gnueabihf/8/libgcc.a(_aeabi_ldivmod.o)
 .bss           0x001dc354        0x0 /usr/lib/gcc/arm-linux-gnueabihf/8/libgcc.a(_dvmd_lnx.o)
 .bss           0x001dc354        0x0 /usr/lib/gcc/arm-linux-gnueabihf/8/libgcc.a(_udivmoddi4.o)
 .bss           0x001dc354        0x0 //usr/lib/arm-linux-gnueabihf/libc_nonshared.a(elf-init.oS)
 .bss           0x001dc354        0x0 //usr/lib/arm-linux-gnueabihf/libc_nonshared.a(stat64.oS)
 .bss           0x001dc354        0x0 //usr/lib/arm-linux-gnueabihf/libc_nonshared.a(lstat64.oS)
 .bss           0x001dc354        0x0 /usr/lib/gcc/arm-linux-gnueabihf/8/crtend.o
 .bss           0x001dc354        0x0 /usr/lib/gcc/arm-linux-gnueabihf/8/../../../arm-linux-gnueabihf/crtn.o
 *(COMMON)
 COMMON         0x001dc354        0x8 ../ulib/libuserxe.a(libuserxe_a-uallocl.o)
                0x001dc354                Gualloc_amount
                0x001dc358                Gualloc16_amount
 COMMON         0x001dc35c        0x5 ../ulib/libuserxe.a(libuserxe_a-uerr.o)
                0x001dc35c                Guerropt2
                0x001dc360                Guerropt
 *fill*         0x001dc361        0x3 
 COMMON         0x001dc364        0x8 ../ulib/libuserxe.a(libuserxe_a-ufile.o)
                0x001dc364                Gufile_opt
                0x001dc368                Gufile_nomsg
 COMMON         0x001dc36c       0x88 ../ulib/libuserxe.a(libuserxe_a-uftp2.o)
                0x001dc36c                Gftperr
                0x001dc370                Gftpopt
                0x001dc374                Gftpclient
 COMMON         0x001dc3f4        0x8 ../ulib/libuserxe.a(libuserxe_a-ukbdl.o)
                0x001dc3f4                Sphiconv
                0x001dc3f8                Gukbdl_flag
 COMMON         0x001dc3fc        0x8 ../ulib/libuserxe.a(libuserxe_a-uproc.o)
                0x001dc3fc                Sfdpiper
                0x001dc400                Sfdpipew
 COMMON         0x001dc404        0xc ../ulib/libuserxe.a(libuserxe_a-utf.o)
                0x001dc404                Gulibutfmode
                0x001dc408                Gutfrc
                0x001dc40c                Gutfcombaltch
 COMMON         0x001dc410    0x60000 ../ulib/libuserxe.a(libuserxe_a-utf22.o)
                0x001dc410                Gucs2ddmap_i2u
                0x001fc410                Gucs2ddmap
 COMMON         0x0023c410      0x104 ../ulib/libuserxe.a(libuserxe_a-utrace.o)
                0x0023c410                Gtracehdr
                0x0023c510                Slockhandle
 COMMON         0x0023c514        0x4 ../ulib/libuserxe.a(libuserxe_a-uviol.o)
                0x0023c514                Guviol_flag
 COMMON         0x0023c518     0x9c48 ../ulib/libuserxe.a(libuserxe_a-ucvebc.o)
                0x0023c518                Gucvebchctr
                0x0023c51c                Gucvebch
                0x0024615c                Gucvebc_stat
 COMMON         0x00246160       0x10 ../ulib/libuserxe.a(libuserxe_a-ucvebc2.o)
                0x00246160                Snewoldctr
                0x00246164                Se2stctr
                0x00246168                Sduptctr
                0x0024616c                Ss2etctr
 COMMON         0x00246170        0xc ../ulib/libuserxe.a(libuserxe_a-udbcschk.o)
                0x00246170                Gudbcschk_flag
                0x00246174                Gudbcschk_width0top
                0x00246178                Sdbcschk_hkopt
 COMMON         0x0024617c       0x24 ../ulib/libuserxe.a(libuserxe_a-uviom.o)
                0x0024617c                Guviombuffu
                0x00246180                Guviomopt
                0x00246184                Guviomoptstr
                0x00246188                Guviomopt2
                0x0024618c                Gw95buffopt
                0x00246190                Guviomoptstrucs
 COMMON         0x002461a0      0x140 ../ulib/libuserxe.a(libuserxe_a-ucalc.o)
                0x002461a0                Gucalc_result
                0x002462e0                . = ALIGN ((. != 0x0)?0x4:0x1)
                0x002462e0                _bss_end__ = .
                0x002462e0                __bss_end__ = .
                0x002462e0                . = ALIGN (0x4)
                0x002462e0                . = SEGMENT_START ("ldata-segment", .)
                0x002462e0                . = ALIGN (0x4)
                0x002462e0                __end__ = .
                0x002462e0                _end = .
                [!provide]                PROVIDE (end = .)
                0x002462e0                . = DATA_SEGMENT_END (.)

.stab
 *(.stab)

.stabstr
 *(.stabstr)

.stab.excl
 *(.stab.excl)

.stab.exclstr
 *(.stab.exclstr)

.stab.index
 *(.stab.index)

.stab.indexstr
 *(.stab.indexstr)

.comment        0x00000000       0x23
 *(.comment)
 .comment       0x00000000       0x23 /usr/lib/gcc/arm-linux-gnueabihf/8/crtbegin.o
                                 0x24 (size before relaxing)
 .comment       0x00000023       0x24 xdd.o
 .comment       0x00000023       0x24 ../ulib/libuserxe.a(libuserxe_a-uallocl.o)
 .comment       0x00000023       0x24 ../ulib/libuserxe.a(libuserxe_a-uedit2.o)
 .comment       0x00000023       0x24 ../ulib/libuserxe.a(libuserxe_a-uerr.o)
 .comment       0x00000023       0x24 ../ulib/libuserxe.a(libuserxe_a-ufemsg.o)
 .comment       0x00000023       0x24 ../ulib/libuserxe.a(libuserxe_a-ufile.o)
 .comment       0x00000023       0x24 ../ulib/libuserxe.a(libuserxe_a-ufile1f.o)
 .comment       0x00000023       0x24 ../ulib/libuserxe.a(libuserxe_a-ufile1l.o)
 .comment       0x00000023       0x24 ../ulib/libuserxe.a(libuserxe_a-ufile1l2.o)
 .comment       0x00000023       0x24 ../ulib/libuserxe.a(libuserxe_a-ufile2.o)
 .comment       0x00000023       0x24 ../ulib/libuserxe.a(libuserxe_a-ufile2f.o)
 .comment       0x00000023       0x24 ../ulib/libuserxe.a(libuserxe_a-ufile2l.o)
 .comment       0x00000023       0x24 ../ulib/libuserxe.a(libuserxe_a-ufile2l2.o)
 .comment       0x00000023       0x24 ../ulib/libuserxe.a(libuserxe_a-ufile3.o)
 .comment       0x00000023       0x24 ../ulib/libuserxe.a(libuserxe_a-ufile3f.o)
 .comment       0x00000023       0x24 ../ulib/libuserxe.a(libuserxe_a-ufile4.o)
 .comment       0x00000023       0x24 ../ulib/libuserxe.a(libuserxe_a-ufile5.o)
 .comment       0x00000023       0x24 ../ulib/libuserxe.a(libuserxe_a-uftp.o)
 .comment       0x00000023       0x24 ../ulib/libuserxe.a(libuserxe_a-uftp2.o)
 .comment       0x00000023       0x24 ../ulib/libuserxe.a(libuserxe_a-uftp3.o)
 .comment       0x00000023       0x24 ../ulib/libuserxe.a(libuserxe_a-ugcclib.o)
 .comment       0x00000023       0x24 ../ulib/libuserxe.a(libuserxe_a-ukbdl.o)
 .comment       0x00000023       0x24 ../ulib/libuserxe.a(libuserxe_a-ukbdlnxc.o)
 .comment       0x00000023       0x24 ../ulib/libuserxe.a(libuserxe_a-ukbdlnxm.o)
 .comment       0x00000023       0x24 ../ulib/libuserxe.a(libuserxe_a-uparse.o)
 .comment       0x00000023       0x24 ../ulib/libuserxe.a(libuserxe_a-uproc.o)
 .comment       0x00000023       0x24 ../ulib/libuserxe.a(libuserxe_a-uproc2.o)
 .comment       0x00000023       0x24 ../ulib/libuserxe.a(libuserxe_a-uproc4.o)
 .comment       0x00000023       0x24 ../ulib/libuserxe.a(libuserxe_a-uque.o)
 .comment       0x00000023       0x24 ../ulib/libuserxe.a(libuserxe_a-ustrcpy.o)
 .comment       0x00000023       0x24 ../ulib/libuserxe.a(libuserxe_a-ustring.o)
 .comment       0x00000023       0x24 ../ulib/libuserxe.a(libuserxe_a-utf.o)
 .comment       0x00000023       0x24 ../ulib/libuserxe.a(libuserxe_a-utf2.o)
 .comment       0x00000023       0x24 ../ulib/libuserxe.a(libuserxe_a-utf22.o)
 .comment       0x00000023       0x24 ../ulib/libuserxe.a(libuserxe_a-utf3.o)
 .comment       0x00000023       0x24 ../ulib/libuserxe.a(libuserxe_a-utf4.o)
 .comment       0x00000023       0x24 ../ulib/libuserxe.a(libuserxe_a-utrace.o)
 .comment       0x00000023       0x24 ../ulib/libuserxe.a(libuserxe_a-uunxsub.o)
 .comment       0x00000023       0x24 ../ulib/libuserxe.a(libuserxe_a-uviol.o)
 .comment       0x00000023       0x24 ../ulib/libuserxe.a(libuserxe_a-u3270.o)
 .comment       0x00000023       0x24 ../ulib/libuserxe.a(libuserxe_a-u32702.o)
 .comment       0x00000023       0x24 ../ulib/libuserxe.a(libuserxe_a-u32703.o)
 .comment       0x00000023       0x24 ../ulib/libuserxe.a(libuserxe_a-uabend.o)
 .comment       0x00000023       0x24 ../ulib/libuserxe.a(libuserxe_a-ucalc2.o)
 .comment       0x00000023       0x24 ../ulib/libuserxe.a(libuserxe_a-ucvebc.o)
 .comment       0x00000023       0x24 ../ulib/libuserxe.a(libuserxe_a-ucvebc2.o)
 .comment       0x00000023       0x24 ../ulib/libuserxe.a(libuserxe_a-ucvebct.o)
 .comment       0x00000023       0x24 ../ulib/libuserxe.a(libuserxe_a-ucvext.o)
 .comment       0x00000023       0x24 ../ulib/libuserxe.a(libuserxe_a-ucvext12.o)
 .comment       0x00000023       0x24 ../ulib/libuserxe.a(libuserxe_a-ucvext2.o)
 .comment       0x00000023       0x24 ../ulib/libuserxe.a(libuserxe_a-ucvucs.o)
 .comment       0x00000023       0x24 ../ulib/libuserxe.a(libuserxe_a-ucvucst.o)
 .comment       0x00000023       0x24 ../ulib/libuserxe.a(libuserxe_a-udbcschk.o)
 .comment       0x00000023       0x24 ../ulib/libuserxe.a(libuserxe_a-udbcsck2.o)
 .comment       0x00000023       0x24 ../ulib/libuserxe.a(libuserxe_a-udos2.o)
 .comment       0x00000023       0x24 ../ulib/libuserxe.a(libuserxe_a-uedit.o)
 .comment       0x00000023       0x24 ../ulib/libuserxe.a(libuserxe_a-uehl.o)
 .comment       0x00000023       0x24 ../ulib/libuserxe.a(libuserxe_a-uproc22.o)
 .comment       0x00000023       0x24 ../ulib/libuserxe.a(libuserxe_a-uproc3.o)
 .comment       0x00000023       0x24 ../ulib/libuserxe.a(libuserxe_a-uviom.o)
 .comment       0x00000023       0x24 ../ulib/libuserxe.a(libuserxe_a-ucalc.o)
 .comment       0x00000023       0x24 ../ulib/libuserxe.a(libuserxe_a-ucvebc3.o)
 .comment       0x00000023       0x24 ../ulib/libuserxe.a(libuserxe_a-ucvebc4.o)
 .comment       0x00000023       0x24 /usr/lib/gcc/arm-linux-gnueabihf/8/crtend.o

.ARM.attributes
                0x00000000       0x2f
 .ARM.attributes
                0x00000000       0x2f /usr/lib/gcc/arm-linux-gnueabihf/8/../../../arm-linux-gnueabihf/crt1.o
 .ARM.attributes
                0x0000002f       0x23 /usr/lib/gcc/arm-linux-gnueabihf/8/../../../arm-linux-gnueabihf/crti.o
 .ARM.attributes
                0x00000052       0x2f /usr/lib/gcc/arm-linux-gnueabihf/8/crtbegin.o
 .ARM.attributes
                0x00000081       0x2f xdd.o
 .ARM.attributes
                0x000000b0       0x2f ../ulib/libuserxe.a(libuserxe_a-uallocl.o)
 .ARM.attributes
                0x000000df       0x2f ../ulib/libuserxe.a(libuserxe_a-uedit2.o)
 .ARM.attributes
                0x0000010e       0x2f ../ulib/libuserxe.a(libuserxe_a-uerr.o)
 .ARM.attributes
                0x0000013d       0x2f ../ulib/libuserxe.a(libuserxe_a-ufemsg.o)
 .ARM.attributes
                0x0000016c       0x2f ../ulib/libuserxe.a(libuserxe_a-ufile.o)
 .ARM.attributes
                0x0000019b       0x2f ../ulib/libuserxe.a(libuserxe_a-ufile1f.o)
 .ARM.attributes
                0x000001ca       0x2f ../ulib/libuserxe.a(libuserxe_a-ufile1l.o)
 .ARM.attributes
                0x000001f9       0x2f ../ulib/libuserxe.a(libuserxe_a-ufile1l2.o)
 .ARM.attributes
                0x00000228       0x2f ../ulib/libuserxe.a(libuserxe_a-ufile2.o)
 .ARM.attributes
                0x00000257       0x2f ../ulib/libuserxe.a(libuserxe_a-ufile2f.o)
 .ARM.attributes
                0x00000286       0x2f ../ulib/libuserxe.a(libuserxe_a-ufile2l.o)
 .ARM.attributes
                0x000002b5       0x2f ../ulib/libuserxe.a(libuserxe_a-ufile2l2.o)
 .ARM.attributes
                0x000002e4       0x2f ../ulib/libuserxe.a(libuserxe_a-ufile3.o)
 .ARM.attributes
                0x00000313       0x2f ../ulib/libuserxe.a(libuserxe_a-ufile3f.o)
 .ARM.attributes
                0x00000342       0x2f ../ulib/libuserxe.a(libuserxe_a-ufile4.o)
 .ARM.attributes
                0x00000371       0x2f ../ulib/libuserxe.a(libuserxe_a-ufile5.o)
 .ARM.attributes
                0x000003a0       0x2f ../ulib/libuserxe.a(libuserxe_a-uftp.o)
 .ARM.attributes
                0x000003cf       0x2f ../ulib/libuserxe.a(libuserxe_a-uftp2.o)
 .ARM.attributes
                0x000003fe       0x2f ../ulib/libuserxe.a(libuserxe_a-uftp3.o)
 .ARM.attributes
                0x0000042d       0x2f ../ulib/libuserxe.a(libuserxe_a-ugcclib.o)
 .ARM.attributes
                0x0000045c       0x2f ../ulib/libuserxe.a(libuserxe_a-ukbdl.o)
 .ARM.attributes
                0x0000048b       0x2f ../ulib/libuserxe.a(libuserxe_a-ukbdlnxc.o)
 .ARM.attributes
                0x000004ba       0x2f ../ulib/libuserxe.a(libuserxe_a-ukbdlnxm.o)
 .ARM.attributes
                0x000004e9       0x2f ../ulib/libuserxe.a(libuserxe_a-uparse.o)
 .ARM.attributes
                0x00000518       0x2f ../ulib/libuserxe.a(libuserxe_a-uproc.o)
 .ARM.attributes
                0x00000547       0x2f ../ulib/libuserxe.a(libuserxe_a-uproc2.o)
 .ARM.attributes
                0x00000576       0x2f ../ulib/libuserxe.a(libuserxe_a-uproc4.o)
 .ARM.attributes
                0x000005a5       0x2f ../ulib/libuserxe.a(libuserxe_a-uque.o)
 .ARM.attributes
                0x000005d4       0x2f ../ulib/libuserxe.a(libuserxe_a-ustrcpy.o)
 .ARM.attributes
                0x00000603       0x2f ../ulib/libuserxe.a(libuserxe_a-ustring.o)
 .ARM.attributes
                0x00000632       0x2f ../ulib/libuserxe.a(libuserxe_a-utf.o)
 .ARM.attributes
                0x00000661       0x2f ../ulib/libuserxe.a(libuserxe_a-utf2.o)
 .ARM.attributes
                0x00000690       0x2f ../ulib/libuserxe.a(libuserxe_a-utf22.o)
 .ARM.attributes
                0x000006bf       0x2f ../ulib/libuserxe.a(libuserxe_a-utf3.o)
 .ARM.attributes
                0x000006ee       0x2f ../ulib/libuserxe.a(libuserxe_a-utf4.o)
 .ARM.attributes
                0x0000071d       0x2f ../ulib/libuserxe.a(libuserxe_a-utrace.o)
 .ARM.attributes
                0x0000074c       0x2f ../ulib/libuserxe.a(libuserxe_a-uunxsub.o)
 .ARM.attributes
                0x0000077b       0x2f ../ulib/libuserxe.a(libuserxe_a-uviol.o)
 .ARM.attributes
                0x000007aa       0x2f ../ulib/libuserxe.a(libuserxe_a-u3270.o)
 .ARM.attributes
                0x000007d9       0x2f ../ulib/libuserxe.a(libuserxe_a-u32702.o)
 .ARM.attributes
                0x00000808       0x2f ../ulib/libuserxe.a(libuserxe_a-u32703.o)
 .ARM.attributes
                0x00000837       0x2f ../ulib/libuserxe.a(libuserxe_a-uabend.o)
 .ARM.attributes
                0x00000866       0x2f ../ulib/libuserxe.a(libuserxe_a-ucalc2.o)
 .ARM.attributes
                0x00000895       0x2f ../ulib/libuserxe.a(libuserxe_a-ucvebc.o)
 .ARM.attributes
                0x000008c4       0x2f ../ulib/libuserxe.a(libuserxe_a-ucvebc2.o)
 .ARM.attributes
                0x000008f3       0x2f ../ulib/libuserxe.a(libuserxe_a-ucvebct.o)
 .ARM.attributes
                0x00000922       0x2f ../ulib/libuserxe.a(libuserxe_a-ucvext.o)
 .ARM.attributes
                0x00000951       0x2f ../ulib/libuserxe.a(libuserxe_a-ucvext12.o)
 .ARM.attributes
                0x00000980       0x2f ../ulib/libuserxe.a(libuserxe_a-ucvext2.o)
 .ARM.attributes
                0x000009af       0x2f ../ulib/libuserxe.a(libuserxe_a-ucvucs.o)
 .ARM.attributes
                0x000009de       0x2f ../ulib/libuserxe.a(libuserxe_a-ucvucst.o)
 .ARM.attributes
                0x00000a0d       0x2f ../ulib/libuserxe.a(libuserxe_a-udbcschk.o)
 .ARM.attributes
                0x00000a3c       0x2f ../ulib/libuserxe.a(libuserxe_a-udbcsck2.o)
 .ARM.attributes
                0x00000a6b       0x2f ../ulib/libuserxe.a(libuserxe_a-udos2.o)
 .ARM.attributes
                0x00000a9a       0x2f ../ulib/libuserxe.a(libuserxe_a-uedit.o)
 .ARM.attributes
                0x00000ac9       0x2f ../ulib/libuserxe.a(libuserxe_a-uehl.o)
 .ARM.attributes
                0x00000af8       0x2f ../ulib/libuserxe.a(libuserxe_a-uproc22.o)
 .ARM.attributes
                0x00000b27       0x2f ../ulib/libuserxe.a(libuserxe_a-uproc3.o)
 .ARM.attributes
                0x00000b56       0x2f ../ulib/libuserxe.a(libuserxe_a-uviom.o)
 .ARM.attributes
                0x00000b85       0x2f ../ulib/libuserxe.a(libuserxe_a-ucalc.o)
 .ARM.attributes
                0x00000bb4       0x2f ../ulib/libuserxe.a(libuserxe_a-ucvebc3.o)
 .ARM.attributes
                0x00000be3       0x2f ../ulib/libuserxe.a(libuserxe_a-ucvebc4.o)
 .ARM.attributes
                0x00000c12       0x1d /usr/lib/gcc/arm-linux-gnueabihf/8/libgcc.a(_divsi3.o)
 .ARM.attributes
                0x00000c2f       0x1d /usr/lib/gcc/arm-linux-gnueabihf/8/libgcc.a(_aeabi_ldivmod.o)
 .ARM.attributes
                0x00000c4c       0x1d /usr/lib/gcc/arm-linux-gnueabihf/8/libgcc.a(_dvmd_lnx.o)
 .ARM.attributes
                0x00000c69       0x2f /usr/lib/gcc/arm-linux-gnueabihf/8/libgcc.a(_udivmoddi4.o)
 .ARM.attributes
                0x00000c98       0x31 //usr/lib/arm-linux-gnueabihf/libc_nonshared.a(elf-init.oS)
 .ARM.attributes
                0x00000cc9       0x31 //usr/lib/arm-linux-gnueabihf/libc_nonshared.a(stat64.oS)
 .ARM.attributes
                0x00000cfa       0x31 //usr/lib/arm-linux-gnueabihf/libc_nonshared.a(lstat64.oS)
 .ARM.attributes
                0x00000d2b       0x2f /usr/lib/gcc/arm-linux-gnueabihf/8/crtend.o
 .ARM.attributes
                0x00000d5a       0x23 /usr/lib/gcc/arm-linux-gnueabihf/8/../../../arm-linux-gnueabihf/crtn.o

.debug
 *(.debug)

.line
 *(.line)

.debug_srcinfo
 *(.debug_srcinfo)

.debug_sfnames
 *(.debug_sfnames)

.debug_aranges
 *(.debug_aranges)

.debug_pubnames
 *(.debug_pubnames)

.debug_info
 *(.debug_info .gnu.linkonce.wi.*)

.debug_abbrev
 *(.debug_abbrev)

.debug_line
 *(.debug_line .debug_line.* .debug_line_end)

.debug_frame
 *(.debug_frame)

.debug_str
 *(.debug_str)

.debug_loc
 *(.debug_loc)

.debug_macinfo
 *(.debug_macinfo)

.debug_weaknames
 *(.debug_weaknames)

.debug_funcnames
 *(.debug_funcnames)

.debug_typenames
 *(.debug_typenames)

.debug_varnames
 *(.debug_varnames)

.debug_pubtypes
 *(.debug_pubtypes)

.debug_ranges
 *(.debug_ranges)

.debug_macro
 *(.debug_macro)

.debug_addr
 *(.debug_addr)

.gnu.attributes
 *(.gnu.attributes)

.note.gnu.arm.ident
 *(.note.gnu.arm.ident)

/DISCARD/
 *(.note.GNU-stack)
 *(.gnu_debuglink)
 *(.gnu.lto_*)
OUTPUT(xdd elf32-littlearm)
