Archive member included to satisfy reference by file (symbol)

../ulib/libuserxe.a(libuserxe_a-uallocl.o)
                              xds.o (ucalloc)
../ulib/libuserxe.a(libuserxe_a-ucalc2.o)
                              xds.o (bc_dweditnum)
../ulib/libuserxe.a(libuserxe_a-uedit.o)
                              ../ulib/libuserxe.a(libuserxe_a-ucalc2.o) (ux2l)
../ulib/libuserxe.a(libuserxe_a-uerr.o)
                              xds.o (Guerropt)
../ulib/libuserxe.a(libuserxe_a-ufemsg.o)
                              ../ulib/libuserxe.a(libuserxe_a-uallocl.o) (ufileapierr)
../ulib/libuserxe.a(libuserxe_a-ufile.o)
                              xds.o (Gufile_opt)
../ulib/libuserxe.a(libuserxe_a-ufile1f.o)
                              ../ulib/libuserxe.a(libuserxe_a-ufile.o) (uftpdirlistsub)
../ulib/libuserxe.a(libuserxe_a-ufile1l.o)
                              xds.o (upathlen)
../ulib/libuserxe.a(libuserxe_a-ufile1l2.o)
                              ../ulib/libuserxe.a(libuserxe_a-ufile1l.o) (ufstat_mdos)
../ulib/libuserxe.a(libuserxe_a-ufile2.o)
                              ../ulib/libuserxe.a(libuserxe_a-uerr.o) (uremove)
../ulib/libuserxe.a(libuserxe_a-ufile2f.o)
                              ../ulib/libuserxe.a(libuserxe_a-ufile2.o) (uftpremove)
../ulib/libuserxe.a(libuserxe_a-ufile2l.o)
                              ../ulib/libuserxe.a(libuserxe_a-ufile2.o) (urmdir)
../ulib/libuserxe.a(libuserxe_a-ufile2l2.o)
                              ../ulib/libuserxe.a(libuserxe_a-ufile2l.o) (umkdir_mdos)
../ulib/libuserxe.a(libuserxe_a-ufile3.o)
                              ../ulib/libuserxe.a(libuserxe_a-ufile2l2.o) (udoscopy)
../ulib/libuserxe.a(libuserxe_a-ufile3f.o)
                              ../ulib/libuserxe.a(libuserxe_a-ufile3.o) (uftpxmove)
../ulib/libuserxe.a(libuserxe_a-ufile4.o)
                              ../ulib/libuserxe.a(libuserxe_a-ufile2l2.o) (utempnam)
../ulib/libuserxe.a(libuserxe_a-ufile5.o)
                              ../ulib/libuserxe.a(libuserxe_a-ufile2.o) (udoseditname)
../ulib/libuserxe.a(libuserxe_a-uftp.o)
                              ../ulib/libuserxe.a(libuserxe_a-ufile1f.o) (uftpfstatudl)
../ulib/libuserxe.a(libuserxe_a-uftp2.o)
                              ../ulib/libuserxe.a(libuserxe_a-uftp.o) (Gftpopt)
../ulib/libuserxe.a(libuserxe_a-uftp3.o)
                              ../ulib/libuserxe.a(libuserxe_a-uftp.o) (uftp3setssh)
../ulib/libuserxe.a(libuserxe_a-ugcclib.o)
                              ../ulib/libuserxe.a(libuserxe_a-uedit.o) (memicmp)
../ulib/libuserxe.a(libuserxe_a-ukbdl.o)
                              ../ulib/libuserxe.a(libuserxe_a-ugcclib.o) (ukbdl_getch_init)
../ulib/libuserxe.a(libuserxe_a-ukbdlnxc.o)
                              ../ulib/libuserxe.a(libuserxe_a-ukbdl.o) (ukbdlnxc_init)
../ulib/libuserxe.a(libuserxe_a-ukbdlnxm.o)
                              ../ulib/libuserxe.a(libuserxe_a-ukbdlnxc.o) (ukbdlnxm_mouseinit)
../ulib/libuserxe.a(libuserxe_a-uparse.o)
                              ../ulib/libuserxe.a(libuserxe_a-uftp.o) (uparsev)
../ulib/libuserxe.a(libuserxe_a-uproc.o)
                              ../ulib/libuserxe.a(libuserxe_a-ukbdl.o) (uproc_getpsinfo)
../ulib/libuserxe.a(libuserxe_a-uproc2.o)
                              ../ulib/libuserxe.a(libuserxe_a-ufile2f.o) (uproc_rsh)
../ulib/libuserxe.a(libuserxe_a-uproc4.o)
                              ../ulib/libuserxe.a(libuserxe_a-ukbdlnxc.o) (uproc_select)
../ulib/libuserxe.a(libuserxe_a-uque.o)
                              xds.o (uenq)
../ulib/libuserxe.a(libuserxe_a-ustrcpy.o)
                              ../ulib/libuserxe.a(libuserxe_a-ucalc2.o) (ustring_memcpy)
../ulib/libuserxe.a(libuserxe_a-ustring.o)
                              ../ulib/libuserxe.a(libuserxe_a-ufile.o) (ustrnlen)
../ulib/libuserxe.a(libuserxe_a-utf.o)
                              ../ulib/libuserxe.a(libuserxe_a-ufile1l.o) (Gulibutfmode)
../ulib/libuserxe.a(libuserxe_a-utf2.o)
                              ../ulib/libuserxe.a(libuserxe_a-ufile1l.o) (utfcvl2fany)
../ulib/libuserxe.a(libuserxe_a-utf22.o)
                              ../ulib/libuserxe.a(libuserxe_a-utf2.o) (utfgetwcw)
../ulib/libuserxe.a(libuserxe_a-utf3.o)
                              ../ulib/libuserxe.a(libuserxe_a-utf2.o) (utfmb2wc)
../ulib/libuserxe.a(libuserxe_a-utf4.o)
                              ../ulib/libuserxe.a(libuserxe_a-utf3.o) (mk_wcwidth)
../ulib/libuserxe.a(libuserxe_a-utrace.o)
                              ../ulib/libuserxe.a(libuserxe_a-uftp2.o) (Gtracehdr)
../ulib/libuserxe.a(libuserxe_a-uunxsub.o)
                              ../ulib/libuserxe.a(libuserxe_a-ufile2l.o) (ugetugid)
../ulib/libuserxe.a(libuserxe_a-uviol.o)
                              ../ulib/libuserxe.a(libuserxe_a-uerr.o) (Guviol_flag)
../ulib/libuserxe.a(libuserxe_a-u3270.o)
                              ../ulib/libuserxe.a(libuserxe_a-ufile1f.o) (u3270fstat)
../ulib/libuserxe.a(libuserxe_a-u32702.o)
                              ../ulib/libuserxe.a(libuserxe_a-ufile2f.o) (u3270mkdir)
../ulib/libuserxe.a(libuserxe_a-u32703.o)
                              ../ulib/libuserxe.a(libuserxe_a-ufile3.o) (u3270xmove)
../ulib/libuserxe.a(libuserxe_a-uabend.o)
                              ../ulib/libuserxe.a(libuserxe_a-ukbdl.o) (uabend)
../ulib/libuserxe.a(libuserxe_a-ucalc.o)
                              ../ulib/libuserxe.a(libuserxe_a-ucalc2.o) (ucalc_binop)
../ulib/libuserxe.a(libuserxe_a-ucvebc.o)
                              ../ulib/libuserxe.a(libuserxe_a-uerr.o) (Gucvebc_stat)
../ulib/libuserxe.a(libuserxe_a-ucvebc2.o)
                              ../ulib/libuserxe.a(libuserxe_a-ucvebc.o) (ucvebc2_stre2s)
../ulib/libuserxe.a(libuserxe_a-ucvebct.o)
                              ../ulib/libuserxe.a(libuserxe_a-ucvebc2.o) (ucvebc2gettbl)
../ulib/libuserxe.a(libuserxe_a-ucvext.o)
                              ../ulib/libuserxe.a(libuserxe_a-utf2.o) (ucvext_icuclose)
../ulib/libuserxe.a(libuserxe_a-ucvext12.o)
                              ../ulib/libuserxe.a(libuserxe_a-ucvext.o) (ucvext12_init)
../ulib/libuserxe.a(libuserxe_a-ucvext2.o)
                              ../ulib/libuserxe.a(libuserxe_a-ucvext.o) (ucvext_iconvmapinit)
../ulib/libuserxe.a(libuserxe_a-ucvucs.o)
                              ../ulib/libuserxe.a(libuserxe_a-utf2.o) (uccvucs2utf)
../ulib/libuserxe.a(libuserxe_a-ucvucst.o)
                              ../ulib/libuserxe.a(libuserxe_a-ucvucs.o) (ugetcp932tbl)
../ulib/libuserxe.a(libuserxe_a-udbcschk.o)
                              ../ulib/libuserxe.a(libuserxe_a-uerr.o) (Gudbcschk_flag)
../ulib/libuserxe.a(libuserxe_a-udbcsck2.o)
                              ../ulib/libuserxe.a(libuserxe_a-uerr.o) (ushift2euc)
../ulib/libuserxe.a(libuserxe_a-udos2.o)
                              ../ulib/libuserxe.a(libuserxe_a-ufile1l2.o) (udos_setenv)
../ulib/libuserxe.a(libuserxe_a-uedit2.o)
                              ../ulib/libuserxe.a(libuserxe_a-ufemsg.o) (ueditfattr)
../ulib/libuserxe.a(libuserxe_a-uehl.o)
                              ../ulib/libuserxe.a(libuserxe_a-ukbdlnxc.o) (uehl_setsh)
../ulib/libuserxe.a(libuserxe_a-uproc22.o)
                              ../ulib/libuserxe.a(libuserxe_a-utrace.o) (ucriticalsection)
../ulib/libuserxe.a(libuserxe_a-uproc3.o)
                              ../ulib/libuserxe.a(libuserxe_a-uproc4.o) (usleepms)
../ulib/libuserxe.a(libuserxe_a-uviom.o)
                              ../ulib/libuserxe.a(libuserxe_a-uviol.o) (Guviomopt)
../ulib/libuserxe.a(libuserxe_a-ucvebc3.o)
                              ../ulib/libuserxe.a(libuserxe_a-ucvext2.o) (ucvebc3_b2dd)
../ulib/libuserxe.a(libuserxe_a-ucvebc4.o)
                              ../ulib/libuserxe.a(libuserxe_a-ucvext.o) (ucvebc4_init)
/usr/lib/gcc/arm-linux-gnueabihf/8/libgcc.a(_divsi3.o)
                              ../ulib/libuserxe.a(libuserxe_a-ufile1l2.o) (__aeabi_idiv)
/usr/lib/gcc/arm-linux-gnueabihf/8/libgcc.a(_aeabi_ldivmod.o)
                              ../ulib/libuserxe.a(libuserxe_a-u32703.o) (__aeabi_ldivmod)
/usr/lib/gcc/arm-linux-gnueabihf/8/libgcc.a(_dvmd_lnx.o)
                              /usr/lib/gcc/arm-linux-gnueabihf/8/libgcc.a(_aeabi_ldivmod.o) (__aeabi_ldiv0)
/usr/lib/gcc/arm-linux-gnueabihf/8/libgcc.a(_udivmoddi4.o)
                              /usr/lib/gcc/arm-linux-gnueabihf/8/libgcc.a(_aeabi_ldivmod.o) (__udivmoddi4)
//usr/lib/arm-linux-gnueabihf/libc_nonshared.a(elf-init.oS)
                              /usr/lib/gcc/arm-linux-gnueabihf/8/../../../arm-linux-gnueabihf/crt1.o (__libc_csu_init)
//usr/lib/arm-linux-gnueabihf/libc_nonshared.a(stat64.oS)
                              ../ulib/libuserxe.a(libuserxe_a-ufile1l.o) (stat64)
//usr/lib/arm-linux-gnueabihf/libc_nonshared.a(lstat64.oS)
                              ../ulib/libuserxe.a(libuserxe_a-ufile1l.o) (lstat64)

Allocating common symbols
Common symbol       size              file

Gucs2ddmap_i2u      0x20000           ../ulib/libuserxe.a(libuserxe_a-utf22.o)
Guviombuffu         0x4               ../ulib/libuserxe.a(libuserxe_a-uviom.o)
Gufile_opt          0x4               ../ulib/libuserxe.a(libuserxe_a-ufile.o)
Sphiconv            0x4               ../ulib/libuserxe.a(libuserxe_a-ukbdl.o)
Snewoldctr          0x4               ../ulib/libuserxe.a(libuserxe_a-ucvebc2.o)
Gftperr             0x4               ../ulib/libuserxe.a(libuserxe_a-uftp2.o)
Gulibutfmode        0x4               ../ulib/libuserxe.a(libuserxe_a-utf.o)
Se2stctr            0x4               ../ulib/libuserxe.a(libuserxe_a-ucvebc2.o)
Gtracehdr           0x100             ../ulib/libuserxe.a(libuserxe_a-utrace.o)
Sfdpiper            0x4               ../ulib/libuserxe.a(libuserxe_a-uproc.o)
Gutfrc              0x4               ../ulib/libuserxe.a(libuserxe_a-utf.o)
Gualloc_amount      0x4               ../ulib/libuserxe.a(libuserxe_a-uallocl.o)
Guviomopt           0x4               ../ulib/libuserxe.a(libuserxe_a-uviom.o)
Slockhandle         0x4               ../ulib/libuserxe.a(libuserxe_a-utrace.o)
Gucvebchctr         0x4               ../ulib/libuserxe.a(libuserxe_a-ucvebc.o)
Gudbcschk_flag      0x4               ../ulib/libuserxe.a(libuserxe_a-udbcschk.o)
Guerropt2           0x4               ../ulib/libuserxe.a(libuserxe_a-uerr.o)
Sduptctr            0x4               ../ulib/libuserxe.a(libuserxe_a-ucvebc2.o)
Gukbdl_flag         0x4               ../ulib/libuserxe.a(libuserxe_a-ukbdl.o)
Ss2etctr            0x4               ../ulib/libuserxe.a(libuserxe_a-ucvebc2.o)
Gucvebch            0x9c40            ../ulib/libuserxe.a(libuserxe_a-ucvebc.o)
Gucalc_result       0x140             ../ulib/libuserxe.a(libuserxe_a-ucalc.o)
Guviol_flag         0x4               ../ulib/libuserxe.a(libuserxe_a-uviol.o)
Guviomoptstr        0x4               ../ulib/libuserxe.a(libuserxe_a-uviom.o)
Gftpopt             0x4               ../ulib/libuserxe.a(libuserxe_a-uftp2.o)
Gufile_nomsg        0x4               ../ulib/libuserxe.a(libuserxe_a-ufile.o)
Gualloc16_amount    0x4               ../ulib/libuserxe.a(libuserxe_a-uallocl.o)
Gudbcschk_width0top
                    0x4               ../ulib/libuserxe.a(libuserxe_a-udbcschk.o)
Gucvebc_stat        0x4               ../ulib/libuserxe.a(libuserxe_a-ucvebc.o)
Gftpclient          0x80              ../ulib/libuserxe.a(libuserxe_a-uftp2.o)
Guviomopt2          0x4               ../ulib/libuserxe.a(libuserxe_a-uviom.o)
Sdbcschk_hkopt      0x4               ../ulib/libuserxe.a(libuserxe_a-udbcschk.o)
Gutfcombaltch       0x4               ../ulib/libuserxe.a(libuserxe_a-utf.o)
Gucs2ddmap          0x40000           ../ulib/libuserxe.a(libuserxe_a-utf22.o)
Gw95buffopt         0x4               ../ulib/libuserxe.a(libuserxe_a-uviom.o)
Guerropt            0x1               ../ulib/libuserxe.a(libuserxe_a-uerr.o)
Guviomoptstrucs     0x10              ../ulib/libuserxe.a(libuserxe_a-uviom.o)
Sfdpipew            0x4               ../ulib/libuserxe.a(libuserxe_a-uproc.o)

Discarded input sections

 .note.GNU-stack
                0x00000000        0x0 /usr/lib/gcc/arm-linux-gnueabihf/8/../../../arm-linux-gnueabihf/crt1.o
 .note.GNU-stack
                0x00000000        0x0 /usr/lib/gcc/arm-linux-gnueabihf/8/../../../arm-linux-gnueabihf/crti.o
 .note.GNU-stack
                0x00000000        0x0 /usr/lib/gcc/arm-linux-gnueabihf/8/crtbegin.o
 .note.GNU-stack
                0x00000000        0x0 xds.o
 .note.GNU-stack
                0x00000000        0x0 ../ulib/libuserxe.a(libuserxe_a-uallocl.o)
 .note.GNU-stack
                0x00000000        0x0 ../ulib/libuserxe.a(libuserxe_a-ucalc2.o)
 .note.GNU-stack
                0x00000000        0x0 ../ulib/libuserxe.a(libuserxe_a-uedit.o)
 .note.GNU-stack
                0x00000000        0x0 ../ulib/libuserxe.a(libuserxe_a-uerr.o)
 .note.GNU-stack
                0x00000000        0x0 ../ulib/libuserxe.a(libuserxe_a-ufemsg.o)
 .note.GNU-stack
                0x00000000        0x0 ../ulib/libuserxe.a(libuserxe_a-ufile.o)
 .note.GNU-stack
                0x00000000        0x0 ../ulib/libuserxe.a(libuserxe_a-ufile1f.o)
 .note.GNU-stack
                0x00000000        0x0 ../ulib/libuserxe.a(libuserxe_a-ufile1l.o)
 .note.GNU-stack
                0x00000000        0x0 ../ulib/libuserxe.a(libuserxe_a-ufile1l2.o)
 .note.GNU-stack
                0x00000000        0x0 ../ulib/libuserxe.a(libuserxe_a-ufile2.o)
 .note.GNU-stack
                0x00000000        0x0 ../ulib/libuserxe.a(libuserxe_a-ufile2f.o)
 .note.GNU-stack
                0x00000000        0x0 ../ulib/libuserxe.a(libuserxe_a-ufile2l.o)
 .note.GNU-stack
                0x00000000        0x0 ../ulib/libuserxe.a(libuserxe_a-ufile2l2.o)
 .note.GNU-stack
                0x00000000        0x0 ../ulib/libuserxe.a(libuserxe_a-ufile3.o)
 .note.GNU-stack
                0x00000000        0x0 ../ulib/libuserxe.a(libuserxe_a-ufile3f.o)
 .note.GNU-stack
                0x00000000        0x0 ../ulib/libuserxe.a(libuserxe_a-ufile4.o)
 .note.GNU-stack
                0x00000000        0x0 ../ulib/libuserxe.a(libuserxe_a-ufile5.o)
 .note.GNU-stack
                0x00000000        0x0 ../ulib/libuserxe.a(libuserxe_a-uftp.o)
 .note.GNU-stack
                0x00000000        0x0 ../ulib/libuserxe.a(libuserxe_a-uftp2.o)
 .note.GNU-stack
                0x00000000        0x0 ../ulib/libuserxe.a(libuserxe_a-uftp3.o)
 .note.GNU-stack
                0x00000000        0x0 ../ulib/libuserxe.a(libuserxe_a-ugcclib.o)
 .note.GNU-stack
                0x00000000        0x0 ../ulib/libuserxe.a(libuserxe_a-ukbdl.o)
 .note.GNU-stack
                0x00000000        0x0 ../ulib/libuserxe.a(libuserxe_a-ukbdlnxc.o)
 .note.GNU-stack
                0x00000000        0x0 ../ulib/libuserxe.a(libuserxe_a-ukbdlnxm.o)
 .note.GNU-stack
                0x00000000        0x0 ../ulib/libuserxe.a(libuserxe_a-uparse.o)
 .note.GNU-stack
                0x00000000        0x0 ../ulib/libuserxe.a(libuserxe_a-uproc.o)
 .note.GNU-stack
                0x00000000        0x0 ../ulib/libuserxe.a(libuserxe_a-uproc2.o)
 .note.GNU-stack
                0x00000000        0x0 ../ulib/libuserxe.a(libuserxe_a-uproc4.o)
 .note.GNU-stack
                0x00000000        0x0 ../ulib/libuserxe.a(libuserxe_a-uque.o)
 .note.GNU-stack
                0x00000000        0x0 ../ulib/libuserxe.a(libuserxe_a-ustrcpy.o)
 .note.GNU-stack
                0x00000000        0x0 ../ulib/libuserxe.a(libuserxe_a-ustring.o)
 .note.GNU-stack
                0x00000000        0x0 ../ulib/libuserxe.a(libuserxe_a-utf.o)
 .note.GNU-stack
                0x00000000        0x0 ../ulib/libuserxe.a(libuserxe_a-utf2.o)
 .note.GNU-stack
                0x00000000        0x0 ../ulib/libuserxe.a(libuserxe_a-utf22.o)
 .note.GNU-stack
                0x00000000        0x0 ../ulib/libuserxe.a(libuserxe_a-utf3.o)
 .note.GNU-stack
                0x00000000        0x0 ../ulib/libuserxe.a(libuserxe_a-utf4.o)
 .note.GNU-stack
                0x00000000        0x0 ../ulib/libuserxe.a(libuserxe_a-utrace.o)
 .note.GNU-stack
                0x00000000        0x0 ../ulib/libuserxe.a(libuserxe_a-uunxsub.o)
 .note.GNU-stack
                0x00000000        0x0 ../ulib/libuserxe.a(libuserxe_a-uviol.o)
 .note.GNU-stack
                0x00000000        0x0 ../ulib/libuserxe.a(libuserxe_a-u3270.o)
 .note.GNU-stack
                0x00000000        0x0 ../ulib/libuserxe.a(libuserxe_a-u32702.o)
 .note.GNU-stack
                0x00000000        0x0 ../ulib/libuserxe.a(libuserxe_a-u32703.o)
 .note.GNU-stack
                0x00000000        0x0 ../ulib/libuserxe.a(libuserxe_a-uabend.o)
 .note.GNU-stack
                0x00000000        0x0 ../ulib/libuserxe.a(libuserxe_a-ucalc.o)
 .note.GNU-stack
                0x00000000        0x0 ../ulib/libuserxe.a(libuserxe_a-ucvebc.o)
 .note.GNU-stack
                0x00000000        0x0 ../ulib/libuserxe.a(libuserxe_a-ucvebc2.o)
 .note.GNU-stack
                0x00000000        0x0 ../ulib/libuserxe.a(libuserxe_a-ucvebct.o)
 .note.GNU-stack
                0x00000000        0x0 ../ulib/libuserxe.a(libuserxe_a-ucvext.o)
 .note.GNU-stack
                0x00000000        0x0 ../ulib/libuserxe.a(libuserxe_a-ucvext12.o)
 .note.GNU-stack
                0x00000000        0x0 ../ulib/libuserxe.a(libuserxe_a-ucvext2.o)
 .note.GNU-stack
                0x00000000        0x0 ../ulib/libuserxe.a(libuserxe_a-ucvucs.o)
 .note.GNU-stack
                0x00000000        0x0 ../ulib/libuserxe.a(libuserxe_a-ucvucst.o)
 .note.GNU-stack
                0x00000000        0x0 ../ulib/libuserxe.a(libuserxe_a-udbcschk.o)
 .note.GNU-stack
                0x00000000        0x0 ../ulib/libuserxe.a(libuserxe_a-udbcsck2.o)
 .note.GNU-stack
                0x00000000        0x0 ../ulib/libuserxe.a(libuserxe_a-udos2.o)
 .note.GNU-stack
                0x00000000        0x0 ../ulib/libuserxe.a(libuserxe_a-uedit2.o)
 .note.GNU-stack
                0x00000000        0x0 ../ulib/libuserxe.a(libuserxe_a-uehl.o)
 .note.GNU-stack
                0x00000000        0x0 ../ulib/libuserxe.a(libuserxe_a-uproc22.o)
 .note.GNU-stack
                0x00000000        0x0 ../ulib/libuserxe.a(libuserxe_a-uproc3.o)
 .note.GNU-stack
                0x00000000        0x0 ../ulib/libuserxe.a(libuserxe_a-uviom.o)
 .note.GNU-stack
                0x00000000        0x0 ../ulib/libuserxe.a(libuserxe_a-ucvebc3.o)
 .note.GNU-stack
                0x00000000        0x0 ../ulib/libuserxe.a(libuserxe_a-ucvebc4.o)
 .note.GNU-stack
                0x00000000        0x0 /usr/lib/gcc/arm-linux-gnueabihf/8/libgcc.a(_divsi3.o)
 .note.GNU-stack
                0x00000000        0x0 /usr/lib/gcc/arm-linux-gnueabihf/8/libgcc.a(_aeabi_ldivmod.o)
 .note.GNU-stack
                0x00000000        0x0 /usr/lib/gcc/arm-linux-gnueabihf/8/libgcc.a(_dvmd_lnx.o)
 .note.GNU-stack
                0x00000000        0x0 /usr/lib/gcc/arm-linux-gnueabihf/8/libgcc.a(_udivmoddi4.o)
 .note.GNU-stack
                0x00000000        0x0 //usr/lib/arm-linux-gnueabihf/libc_nonshared.a(elf-init.oS)
 .note.GNU-stack
                0x00000000        0x0 //usr/lib/arm-linux-gnueabihf/libc_nonshared.a(stat64.oS)
 .note.GNU-stack
                0x00000000        0x0 //usr/lib/arm-linux-gnueabihf/libc_nonshared.a(lstat64.oS)
 .note.GNU-stack
                0x00000000        0x0 /usr/lib/gcc/arm-linux-gnueabihf/8/crtend.o
 .note.GNU-stack
                0x00000000        0x0 /usr/lib/gcc/arm-linux-gnueabihf/8/../../../arm-linux-gnueabihf/crtn.o

Memory Configuration

Name             Origin             Length             Attributes
*default*        0x00000000         0xffffffff

Linker script and memory map

LOAD /usr/lib/gcc/arm-linux-gnueabihf/8/../../../arm-linux-gnueabihf/crt1.o
LOAD /usr/lib/gcc/arm-linux-gnueabihf/8/../../../arm-linux-gnueabihf/crti.o
LOAD /usr/lib/gcc/arm-linux-gnueabihf/8/crtbegin.o
LOAD xds.o
LOAD ../ulib/libuserxe.a
LOAD /usr/lib/gcc/arm-linux-gnueabihf/8/../../../arm-linux-gnueabihf/libgnomeui-2.so
LOAD /usr/lib/gcc/arm-linux-gnueabihf/8/../../../arm-linux-gnueabihf/libSM.so
LOAD /usr/lib/gcc/arm-linux-gnueabihf/8/../../../arm-linux-gnueabihf/libICE.so
LOAD /usr/lib/gcc/arm-linux-gnueabihf/8/../../../arm-linux-gnueabihf/libbonoboui-2.so
LOAD /usr/lib/gcc/arm-linux-gnueabihf/8/../../../arm-linux-gnueabihf/libgnome-2.so
LOAD /usr/lib/gcc/arm-linux-gnueabihf/8/../../../arm-linux-gnueabihf/libpopt.so
LOAD /usr/lib/gcc/arm-linux-gnueabihf/8/../../../arm-linux-gnueabihf/libbonobo-2.so
LOAD /usr/lib/gcc/arm-linux-gnueabihf/8/../../../arm-linux-gnueabihf/libbonobo-activation.so
LOAD /usr/lib/gcc/arm-linux-gnueabihf/8/../../../arm-linux-gnueabihf/libORBit-2.so
LOAD /usr/lib/gcc/arm-linux-gnueabihf/8/../../../arm-linux-gnueabihf/libgnomecanvas-2.so
LOAD /usr/lib/gcc/arm-linux-gnueabihf/8/../../../arm-linux-gnueabihf/libart_lgpl_2.so
LOAD /usr/lib/gcc/arm-linux-gnueabihf/8/../../../arm-linux-gnueabihf/libgnomevfs-2.so
LOAD /usr/lib/gcc/arm-linux-gnueabihf/8/../../../arm-linux-gnueabihf/libgconf-2.so
LOAD /usr/lib/gcc/arm-linux-gnueabihf/8/../../../arm-linux-gnueabihf/libgthread-2.0.so
LOAD /usr/lib/gcc/arm-linux-gnueabihf/8/../../../arm-linux-gnueabihf/libgmodule-2.0.so
LOAD /usr/lib/gcc/arm-linux-gnueabihf/8/../../../arm-linux-gnueabihf/libgtk-x11-2.0.so
LOAD /usr/lib/gcc/arm-linux-gnueabihf/8/../../../arm-linux-gnueabihf/libgdk-x11-2.0.so
LOAD /usr/lib/gcc/arm-linux-gnueabihf/8/../../../arm-linux-gnueabihf/libpangocairo-1.0.so
LOAD /usr/lib/gcc/arm-linux-gnueabihf/8/../../../arm-linux-gnueabihf/libatk-1.0.so
LOAD /usr/lib/gcc/arm-linux-gnueabihf/8/../../../arm-linux-gnueabihf/libcairo.so
LOAD /usr/lib/gcc/arm-linux-gnueabihf/8/../../../arm-linux-gnueabihf/libgdk_pixbuf-2.0.so
LOAD /usr/lib/gcc/arm-linux-gnueabihf/8/../../../arm-linux-gnueabihf/libgio-2.0.so
LOAD /usr/lib/gcc/arm-linux-gnueabihf/8/../../../arm-linux-gnueabihf/libpangoft2-1.0.so
LOAD /usr/lib/gcc/arm-linux-gnueabihf/8/../../../arm-linux-gnueabihf/libpango-1.0.so
LOAD /usr/lib/gcc/arm-linux-gnueabihf/8/../../../arm-linux-gnueabihf/libgobject-2.0.so
LOAD /usr/lib/gcc/arm-linux-gnueabihf/8/../../../arm-linux-gnueabihf/libglib-2.0.so
LOAD /usr/lib/gcc/arm-linux-gnueabihf/8/../../../arm-linux-gnueabihf/libfontconfig.so
LOAD /usr/lib/gcc/arm-linux-gnueabihf/8/../../../arm-linux-gnueabihf/libfreetype.so
LOAD /usr/lib/gcc/arm-linux-gnueabihf/8/../../../arm-linux-gnueabihf/libdl.so
LOAD /usr/lib/gcc/arm-linux-gnueabihf/8/../../../arm-linux-gnueabihf/libncursesw.so
LOAD /lib/arm-linux-gnueabihf/libncursesw.so.6
LOAD /usr/lib/gcc/arm-linux-gnueabihf/8/../../../arm-linux-gnueabihf/libtinfo.so
LOAD /usr/lib/gcc/arm-linux-gnueabihf/8/../../../arm-linux-gnueabihf/libcups.so
LOAD /usr/lib/gcc/arm-linux-gnueabihf/8/libgcc.a
LOAD /usr/lib/gcc/arm-linux-gnueabihf/8/libgcc_s.so
START GROUP
LOAD /usr/lib/gcc/arm-linux-gnueabihf/8/libgcc_s.so.1
LOAD /usr/lib/gcc/arm-linux-gnueabihf/8/libgcc.a
END GROUP
LOAD /usr/lib/gcc/arm-linux-gnueabihf/8/../../../arm-linux-gnueabihf/libpthread.so
LOAD /usr/lib/gcc/arm-linux-gnueabihf/8/../../../arm-linux-gnueabihf/libc.so
START GROUP
LOAD //lib/arm-linux-gnueabihf/libc.so.6
LOAD //usr/lib/arm-linux-gnueabihf/libc_nonshared.a
LOAD //lib/arm-linux-gnueabihf/ld-linux-armhf.so.3
END GROUP
LOAD /usr/lib/gcc/arm-linux-gnueabihf/8/libgcc.a
LOAD /usr/lib/gcc/arm-linux-gnueabihf/8/libgcc_s.so
START GROUP
LOAD /usr/lib/gcc/arm-linux-gnueabihf/8/libgcc_s.so.1
LOAD /usr/lib/gcc/arm-linux-gnueabihf/8/libgcc.a
END GROUP
LOAD /usr/lib/gcc/arm-linux-gnueabihf/8/crtend.o
LOAD /usr/lib/gcc/arm-linux-gnueabihf/8/../../../arm-linux-gnueabihf/crtn.o
                [!provide]                PROVIDE (__executable_start = SEGMENT_START ("text-segment", 0x10000))
                0x00010154                . = (SEGMENT_START ("text-segment", 0x10000) + SIZEOF_HEADERS)

.interp         0x00010154       0x19
 *(.interp)
 .interp        0x00010154       0x19 /usr/lib/gcc/arm-linux-gnueabihf/8/../../../arm-linux-gnueabihf/crt1.o

.note.ABI-tag   0x00010170       0x20
 .note.ABI-tag  0x00010170       0x20 /usr/lib/gcc/arm-linux-gnueabihf/8/../../../arm-linux-gnueabihf/crt1.o

.note.gnu.build-id
                0x00010190       0x24
 *(.note.gnu.build-id)
 .note.gnu.build-id
                0x00010190       0x24 linker stubs

.hash
 *(.hash)

.gnu.hash       0x000101b4      0x738
 *(.gnu.hash)
 .gnu.hash      0x000101b4      0x738 /usr/lib/gcc/arm-linux-gnueabihf/8/../../../arm-linux-gnueabihf/crt1.o

.dynsym         0x000108ec      0xc90
 *(.dynsym)
 .dynsym        0x000108ec      0xc90 /usr/lib/gcc/arm-linux-gnueabihf/8/../../../arm-linux-gnueabihf/crt1.o

.dynstr         0x0001157c      0x9b5
 *(.dynstr)
 .dynstr        0x0001157c      0x9b5 /usr/lib/gcc/arm-linux-gnueabihf/8/../../../arm-linux-gnueabihf/crt1.o

.gnu.version    0x00011f32      0x192
 *(.gnu.version)
 .gnu.version   0x00011f32      0x192 /usr/lib/gcc/arm-linux-gnueabihf/8/../../../arm-linux-gnueabihf/crt1.o

.gnu.version_d  0x000120c4        0x0
 *(.gnu.version_d)
 .gnu.version_d
                0x000120c4        0x0 /usr/lib/gcc/arm-linux-gnueabihf/8/../../../arm-linux-gnueabihf/crt1.o

.gnu.version_r  0x000120c4       0xc0
 *(.gnu.version_r)
 .gnu.version_r
                0x000120c4       0xc0 /usr/lib/gcc/arm-linux-gnueabihf/8/../../../arm-linux-gnueabihf/crt1.o

.rel.dyn        0x00012184       0x60
 *(.rel.init)
 *(.rel.text .rel.text.* .rel.gnu.linkonce.t.*)
 *(.rel.fini)
 *(.rel.rodata .rel.rodata.* .rel.gnu.linkonce.r.*)
 *(.rel.data.rel.ro .rel.data.rel.ro.* .rel.gnu.linkonce.d.rel.ro.*)
 .rel.data.rel.ro
                0x00012184        0x0 /usr/lib/gcc/arm-linux-gnueabihf/8/../../../arm-linux-gnueabihf/crt1.o
 *(.rel.data .rel.data.* .rel.gnu.linkonce.d.*)
 *(.rel.tdata .rel.tdata.* .rel.gnu.linkonce.td.*)
 *(.rel.tbss .rel.tbss.* .rel.gnu.linkonce.tb.*)
 *(.rel.ctors)
 *(.rel.dtors)
 *(.rel.got)
 .rel.got       0x00012184        0x8 /usr/lib/gcc/arm-linux-gnueabihf/8/../../../arm-linux-gnueabihf/crt1.o
 *(.rel.bss .rel.bss.* .rel.gnu.linkonce.b.*)
 .rel.bss       0x0001218c       0x58 /usr/lib/gcc/arm-linux-gnueabihf/8/../../../arm-linux-gnueabihf/crt1.o
                [!provide]                PROVIDE (__rel_iplt_start = .)
 *(.rel.iplt)
 .rel.iplt      0x000121e4        0x0 /usr/lib/gcc/arm-linux-gnueabihf/8/../../../arm-linux-gnueabihf/crt1.o
                [!provide]                PROVIDE (__rel_iplt_end = .)

.rela.dyn       0x000121e4        0x0
 *(.rela.init)
 *(.rela.text .rela.text.* .rela.gnu.linkonce.t.*)
 *(.rela.fini)
 *(.rela.rodata .rela.rodata.* .rela.gnu.linkonce.r.*)
 *(.rela.data .rela.data.* .rela.gnu.linkonce.d.*)
 *(.rela.tdata .rela.tdata.* .rela.gnu.linkonce.td.*)
 *(.rela.tbss .rela.tbss.* .rela.gnu.linkonce.tb.*)
 *(.rela.ctors)
 *(.rela.dtors)
 *(.rela.got)
 *(.rela.bss .rela.bss.* .rela.gnu.linkonce.b.*)
                [!provide]                PROVIDE (__rela_iplt_start = .)
 *(.rela.iplt)
                [!provide]                PROVIDE (__rela_iplt_end = .)

.rel.plt        0x000121e4      0x5a0
 *(.rel.plt)
 .rel.plt       0x000121e4      0x5a0 /usr/lib/gcc/arm-linux-gnueabihf/8/../../../arm-linux-gnueabihf/crt1.o

.rela.plt
 *(.rela.plt)

.init           0x00012784        0xc
 *(SORT_NONE(.init))
 .init          0x00012784        0x8 /usr/lib/gcc/arm-linux-gnueabihf/8/../../../arm-linux-gnueabihf/crti.o
                0x00012784                _init
 .init          0x0001278c        0x4 /usr/lib/gcc/arm-linux-gnueabihf/8/../../../arm-linux-gnueabihf/crtn.o

.plt            0x00012790      0x884
 *(.plt)
 .plt           0x00012790      0x884 /usr/lib/gcc/arm-linux-gnueabihf/8/../../../arm-linux-gnueabihf/crt1.o
                0x000127a4                gethostname@@GLIBC_2.4
                0x000127b0                getuid@@GLIBC_2.4
                0x000127bc                fopen64@@GLIBC_2.4
                0x000127c8                endwin@@NCURSESW6_5.1.20000708
                0x000127d4                fwrite@@GLIBC_2.4
                0x000127e0                mbrtowc@@GLIBC_2.4
                0x000127ec                toupper@@GLIBC_2.4
                0x000127f8                __isoc99_sscanf@@GLIBC_2.7
                0x00012804                fprintf@@GLIBC_2.4
                0x00012810                waddnstr@@NCURSESW6_5.1.20000708
                0x0001281c                strstr@@GLIBC_2.4
                0x00012828                isatty@@GLIBC_2.4
                0x00012834                getppid@@GLIBC_2.4
                0x00012840                wbkgdset@@NCURSESW6_5.1.20000708
                0x0001284c                execvp@@GLIBC_2.4
                0x00012858                write@@GLIBC_2.4
                0x00012864                wctomb@@GLIBC_2.4
                0x00012870                can_change_color@@NCURSESW6_5.1.20000708
                0x0001287c                opendir@@GLIBC_2.4
                0x00012888                printf@@GLIBC_2.4
                0x00012894                gnome_vfs_mime_get_default_application
                0x000128a0                bsearch@@GLIBC_2.4
                0x000128ac                fclose@@GLIBC_2.4
                0x000128b8                atoll@@GLIBC_2.4
                0x000128c4                qsort@@GLIBC_2.4
                0x000128d0                getgid@@GLIBC_2.4
                0x000128dc                wclear@@NCURSESW6_5.1.20000708
                0x000128e8                __ctype_b_loc@@GLIBC_2.4
                0x000128f4                strnlen@@GLIBC_2.4
                0x00012900                nonl@@NCURSESW6_5.1.20000708
                0x0001290c                getmntent@@GLIBC_2.4
                0x00012918                iconv@@GLIBC_2.4
                0x00012924                fputc@@GLIBC_2.4
                0x00012930                dlclose@@GLIBC_2.4
                0x0001293c                beep@@NCURSESW6_5.1.20000708
                0x00012948                __xstat64@@GLIBC_2.4
                0x00012954                chown@@GLIBC_2.4
                0x00012960                strpbrk@@GLIBC_2.4
                0x0001296c                fseek@@GLIBC_2.4
                0x00012978                strerror@@GLIBC_2.4
                0x00012984                color_content@@NCURSESW6_5.1.20000708
                0x00012990                tolower@@GLIBC_2.4
                0x0001299c                putchar@@GLIBC_2.4
                0x000129a8                has_colors@@NCURSESW6_5.1.20000708
                0x000129b4                puts@@GLIBC_2.4
                0x000129c0                init_pair@@NCURSESW6_5.1.20000708
                0x000129cc                __libc_start_main@@GLIBC_2.4
                0x000129e4                setupterm@@NCURSES6_TINFO_5.0.19991023
                0x000129f0                strchr@@GLIBC_2.4
                0x000129fc                __errno_location@@GLIBC_2.4
                0x00012a08                keypad@@NCURSES6_TINFO_5.0.19991023
                0x00012a14                lutimes@@GLIBC_2.4
                0x00012a20                atol@@GLIBC_2.4
                0x00012a2c                ftello64@@GLIBC_2.4
                0x00012a38                tcsetattr@@GLIBC_2.4
                0x00012a44                curs_set@@NCURSES6_TINFO_5.0.19991023
                0x00012a50                symlink@@GLIBC_2.4
                0x00012a5c                setenv@@GLIBC_2.4
                0x00012a68                mkdir@@GLIBC_2.4
                0x00012a74                pthread_mutex_lock@@GLIBC_2.4
                0x00012a80                pipe@@GLIBC_2.4
                0x00012a8c                noecho@@NCURSESW6_5.1.20000708
                0x00012a98                gnome_vfs_get_mime_type
                0x00012aa4                waddchnstr@@NCURSESW6_5.1.20000708
                0x00012ab0                pthread_cond_wait@@GLIBC_2.4
                0x00012abc                free@@GLIBC_2.4
                0x00012ac8                iconv_close@@GLIBC_2.4
                0x00012ad4                wcwidth@@GLIBC_2.4
                0x00012ae0                close@@GLIBC_2.4
                0x00012aec                clearok@@NCURSESW6_5.1.20000708
                0x00012af8                memcpy@@GLIBC_2.4
                0x00012b04                wcstombs@@GLIBC_2.4
                0x00012b10                iconv_open@@GLIBC_2.4
                0x00012b1c                memmove@@GLIBC_2.4
                0x00012b28                strncpy@@GLIBC_2.4
                0x00012b34                winchnstr@@NCURSESW6_5.1.20000708
                0x00012b40                win_wchnstr@@NCURSESW6_5.3.20021019
                0x00012b4c                access@@GLIBC_2.4
                0x00012b58                unlink@@GLIBC_2.4
                0x00012b64                ferror@@GLIBC_2.4
                0x00012b70                strcpy@@GLIBC_2.4
                0x00012b7c                execv@@GLIBC_2.4
                0x00012b88                raise@@GLIBC_2.4
                0x00012b94                getgrgid@@GLIBC_2.4
                0x00012ba0                start_color@@NCURSESW6_5.1.20000708
                0x00012bac                atoi@@GLIBC_2.4
                0x00012bb8                dlsym@@GLIBC_2.4
                0x00012bc4                ftime@@GLIBC_2.4
                0x00012bd0                fork@@GLIBC_2.4
                0x00012bdc                signal@@GLIBC_2.4
                0x00012be8                gettimeofday@@GLIBC_2.4
                0x00012bf4                getpwuid@@GLIBC_2.4
                0x00012c00                system@@GLIBC_2.4
                0x00012c0c                malloc@@GLIBC_2.4
                0x00012c18                localtime@@GLIBC_2.4
                0x00012c24                getcwd@@GLIBC_2.4
                0x00012c30                tcgetattr@@GLIBC_2.4
                0x00012c3c                pthread_cond_init@@GLIBC_2.4
                0x00012c48                kill@@GLIBC_2.4
                0x00012c54                strdup@@GLIBC_2.4
                0x00012c60                strlen@@GLIBC_2.4
                0x00012c6c                pthread_mutex_destroy@@GLIBC_2.4
                0x00012c78                chdir@@GLIBC_2.4
                0x00012c84                chmod@@GLIBC_2.4
                0x00012c90                mktime@@GLIBC_2.4
                0x00012c9c                wadd_wchnstr@@NCURSESW6_5.3.20021019
                0x00012ca8                closedir@@GLIBC_2.4
                0x00012cb4                getpid@@GLIBC_2.4
                0x00012cc0                winnstr@@NCURSESW6_5.1.20000708
                0x00012ccc                __lxstat64@@GLIBC_2.4
                0x00012cd8                select@@GLIBC_2.4
                0x00012ce4                readlink@@GLIBC_2.4
                0x00012cf0                iswalpha@@GLIBC_2.4
                0x00012cfc                fseeko64@@GLIBC_2.4
                0x00012d08                dup@@GLIBC_2.4
                0x00012d14                sprintf@@GLIBC_2.4
                0x00012d20                snprintf@@GLIBC_2.4
                0x00012d2c                fflush@@GLIBC_2.4
                0x00012d38                mbtowc@@GLIBC_2.4
                0x00012d44                curses_version@@NCURSES6_TINFO_5.0.19991023
                0x00012d50                perror@@GLIBC_2.4
                0x00012d5c                setlocale@@GLIBC_2.4
                0x00012d68                vfprintf@@GLIBC_2.4
                0x00012d74                mousemask@@NCURSESW6_5.1.20000708
                0x00012d80                gnome_vfs_mime_application_free
                0x00012d8c                strcmp@@GLIBC_2.4
                0x00012d98                initscr@@NCURSESW6_5.1.20000708
                0x00012da4                memcmp@@GLIBC_2.4
                0x00012db0                memset@@GLIBC_2.4
                0x00012dbc                wrefresh@@NCURSESW6_5.1.20000708
                0x00012dc8                getenv@@GLIBC_2.4
                0x00012dd4                rename@@GLIBC_2.4
                0x00012de0                flock@@GLIBC_2.4
                0x00012dec                mkfifo@@GLIBC_2.4
                0x00012df8                time@@GLIBC_2.4
                0x00012e04                meta@@NCURSES6_TINFO_5.0.19991023
                0x00012e10                wait@@GLIBC_2.4
                0x00012e1c                statfs64@@GLIBC_2.4
                0x00012e28                pthread_cond_broadcast@@GLIBC_2.4
                0x00012e34                fread@@GLIBC_2.4
                0x00012e40                gnome_vfs_init
                0x00012e4c                pthread_create@@GLIBC_2.4
                0x00012e58                strcat@@GLIBC_2.4
                0x00012e64                abort@@GLIBC_2.4
                0x00012e70                init_color@@NCURSESW6_5.1.20000708
                0x00012e7c                gnome_vfs_get_uri_from_local_path
                0x00012e88                waitpid@@GLIBC_2.4
                0x00012e94                gnome_vfs_get_file_info
                0x00012ea0                pthread_cond_timedwait@@GLIBC_2.4
                0x00012eac                exit@@GLIBC_2.4
                0x00012eb8                calloc@@GLIBC_2.4
                0x00012ec4                setmntent@@GLIBC_2.4
                0x00012ed0                rmdir@@GLIBC_2.4
                0x00012edc                strrchr@@GLIBC_2.4
                0x00012ee8                wmove@@NCURSESW6_5.1.20000708
                0x00012ef4                dup2@@GLIBC_2.4
                0x00012f00                getmntent_r@@GLIBC_2.4
                0x00012f0c                fgets@@GLIBC_2.4
                0x00012f18                raw@@NCURSES6_TINFO_5.0.19991023
                0x00012f24                utimes@@GLIBC_2.4
                0x00012f30                endmntent@@GLIBC_2.4
                0x00012f3c                memchr@@GLIBC_2.4
                0x00012f48                read@@GLIBC_2.4
                0x00012f54                readdir64@@GLIBC_2.4
                0x00012f60                pthread_mutex_unlock@@GLIBC_2.4
                0x00012f6c                wcrtomb@@GLIBC_2.4
                0x00012f78                nl_langinfo@@GLIBC_2.4
                0x00012f84                pthread_mutex_init@@GLIBC_2.4
                0x00012f90                fileno@@GLIBC_2.4
                0x00012f9c                mkstemp64@@GLIBC_2.4
                0x00012fa8                strspn@@GLIBC_2.4
                0x00012fb4                open64@@GLIBC_2.4
                0x00012fc0                ioctl@@GLIBC_2.4
                0x00012fcc                fputs@@GLIBC_2.4
                0x00012fd8                nanosleep@@GLIBC_2.4
                0x00012fe4                iswprint@@GLIBC_2.4
                0x00012ff0                putenv@@GLIBC_2.4
                0x00012ffc                ttyname@@GLIBC_2.4
                0x00013008                dlopen@@GLIBC_2.4

.iplt           0x00013014        0x0
 *(.iplt)
 .iplt          0x00013014        0x0 /usr/lib/gcc/arm-linux-gnueabihf/8/../../../arm-linux-gnueabihf/crt1.o

.text           0x00013018    0xaac94
 *(.text.unlikely .text.*_unlikely .text.unlikely.*)
 *(.text.exit .text.exit.*)
 *(.text.startup .text.startup.*)
 *(.text.hot .text.hot.*)
 *(.text .stub .text.* .gnu.linkonce.t.*)
 .text          0x00013018       0x3c /usr/lib/gcc/arm-linux-gnueabihf/8/../../../arm-linux-gnueabihf/crt1.o
                0x00013018                _start
 .text          0x00013054       0x24 /usr/lib/gcc/arm-linux-gnueabihf/8/../../../arm-linux-gnueabihf/crti.o
 .text          0x00013078       0x90 /usr/lib/gcc/arm-linux-gnueabihf/8/crtbegin.o
 .text          0x00013108     0x1120 xds.o
                0x00013108                main
                0x00013484                psizechk
                0x00013874                putsize
                0x00013a94                parmchk
                0x00013f50                ustackfnm
                0x00013ff8                optionerr
                0x00014034                help
 .text          0x00014228      0xe50 ../ulib/libuserxe.a(libuserxe_a-uallocl.o)
                0x00014228                ualloc_init
                0x0001447c                ugetallocdata
                0x000145b4                ualloc_chk
                0x0001477c                umalloc
                0x000149c0                ucalloc
                0x00014c30                ufree
                0x00014e60                uallocsz
                0x00014eac                ufreesz
                0x00014efc                uallocmapset
                0x00015010                ufreesizeerr
                0x00015044                umallocsizeerr
 .text          0x00015078     0x417c ../ulib/libuserxe.a(libuserxe_a-ucalc2.o)
                0x00015078                bc_getxdw
                0x000151cc                bc_getld
                0x0001541c                bc_dwbinop
                0x000159d4                bc_twbinop
                0x00015ef4                bc_edittod
                0x00016068                bc_dweditnum64
                0x000160d0                bc_dweditnum
                0x000163ec                bc_dwupeditnum
                0x000165b4                ucalc_dwmult
                0x00016808                ucalc_twmult
                0x00016cd0                ucalc_dwdiv
                0x00016fb0                ucalc_dwdiv2
                0x000172e8                ucalc_twdiv
                0x00017470                ucalc_twdivbyup
                0x000175b4                ucalc_twshiftup
                0x000176d0                ucalc_dwshiftdown
                0x00017800                ucalc_ltime
                0x00017c20                ucalc_getdate
                0x00017e0c                ucalc_nextday
                0x000180bc                ucalc_ld2dw
                0x00018654                ucalc_dw2ld
                0x00018760                ucalc_nsadd
                0x000189c8                ucalc_ldedit
                0x00018b08                ucalc_dwupinit
                0x00018b68                ucalc_dwupset
                0x00018c98                bc_numfmt2dw
                0x00018d48                bc_dw2numfmt
                0x00018e20                ucalc_dwup2dwandup
                0x00018fc4                bc_dword2word
                0x000190c0                ucalc_dw2err
                0x000190f8                ucalc_dw2errresidual
                0x0001916c                ucalc_dwuperr
                0x00019194                ucalc_dwmaxerr
                0x000191cc                ucalcerrdwordovf
 .text          0x000191f4     0x3fe8 ../ulib/libuserxe.a(libuserxe_a-uedit.o)
                0x000191f4                uedit
                0x0001920c                unumedit
                0x00019544                utimeedit
                0x0001a0bc                uitoa10
                0x0001a0f0                ucmdparmedit
                0x0001a818                ueditenv
                0x0001ac44                uwordrep
                0x0001b2f0                ugethex
                0x0001b450                ugethexdump
                0x0001b630                ux2FILESZ
                0x0001b660                ux2l
                0x0001b7f4                ux2ll
                0x0001b8dc                ua2ll
                0x0001b90c                ux2s
                0x0001ba68                ugetnumrange3
                0x0001bbe0                ugetnumrange2
                0x0001bcdc                ugetnumrange2XFILESZ
                0x0001bdb0                ugetnumrange
                0x0001bfbc                ugetxnumrange
                0x0001c3e0                ugetxnumrangeLL
                0x0001c80c                unumlen
                0x0001ca4c                uatoin
                0x0001cacc                getKMGTB
                0x0001cc54                ueditFILESZ
                0x0001cec8                ueditLONGHANDLE
                0x0001d0d0                ueditKMG
 .text          0x0001d1dc     0x29f8 ../ulib/libuserxe.a(libuserxe_a-uerr.o)
                0x0001d1dc                uerr
                0x0001d1f4                ubell_init
                0x0001d234                ubell_init2
                0x0001d264                ubell
                0x0001d37c                uerrexit_init
                0x0001d444                uerrexit_optinit
                0x0001d474                uerrsetopt2
                0x0001d4d8                uerrexit
                0x0001d6d0                uerrmsg_init
                0x0001d8b0                uerrmsg
                0x0001dac0                uerrmsg2
                0x0001dc40                uerrmsgcat
                0x0001dd4c                uerrsprintf
                0x0001de38                uerrfprintfutf
                0x0001e2a4                uerrhelpmsg
                0x0001e790                uerrscrheight
                0x0001e840                useterrmsg
                0x0001e8b4                ugeterrmsg
                0x0001e900                ugeterrmsg2
                0x0001e940                uerrmsgedit
                0x0001f2d4                uconfirmmsg
                0x0001f5ec                uerrornomsg
                0x0001f614                ugeterrdescription
                0x0001f698                uerrapi1
                0x0001f6e0                uerrapi1x
                0x0001f724                uerrapi0
                0x0001f760                uerrapi0x
                0x0001f798                uerrapi1t
                0x0001f808                uerrapi1nt
                0x0001f85c                uerrapi1tx
                0x0001f8c8                uerrapi0t
                0x0001f930                uerrapi0tx
                0x0001f994                uerrnotsupported
                0x0001f9d8                uerrmsg_initstart
                0x0001fa9c                uerrmsg_initstack
                0x0001fb00                uerrmsg_initcomp
 *fill*         0x0001fbd4        0x4 
 .text          0x0001fbd8      0xec0 ../ulib/libuserxe.a(libuserxe_a-ufemsg.o)
                0x0001fbd8                ufemsg
                0x0001fbf0                ufilenotfound
                0x0001fc2c                ufilenotfoundotherexist
                0x0001fc68                ufilepatherr
                0x0001fca4                ufileapierr
                0x0001fcec                ufileapierr_str
                0x0001fd44                ufiledelpath
                0x0001fd80                ufilereadonly
                0x0001fdbc                ufilereadonly2
                0x0001fdfc                ufiledeleted
                0x0001ff2c                ufileshare
                0x0001ff68                ufileexist
                0x0001ffa4                ufileexistcopy
                0x0001ffe0                ufileexist2
                0x00020024                ufileexistdir
                0x00020060                ufilenotdir
                0x0002009c                ufilediskfull
                0x000200e0                ufilewildtarget
                0x00020114                ufilewildcarderr
                0x00020148                ufilewildpatherr
                0x0002017c                ufileroot
                0x000201b8                ufileapierr2
                0x0002020c                ufiledirna
                0x00020258                ufileerrdir
                0x00020294                ufilenotvfat
                0x000202bc                ufilenopermission
                0x00020300                ufileslinkloop
                0x00020358                ufileerrspecialfile
                0x00020394                ufileerrnotnormal
                0x000203d0                ufileerrdir2file
                0x00020400                ufileerrnoentry
                0x00020438                ufileerrnofileentry
                0x00020470                ufileTooLongFullpathName
                0x000204c8                ufileTooLongFullpathName2
                0x00020628                ufileeditsz
                0x000209c0                ufileslinktargeterr
                0x00020a04                ufileopenerrInvalidargument
                0x00020a60                ufileErrInvalidName
 .text          0x00020a98     0x3508 ../ulib/libuserxe.a(libuserxe_a-ufile.o)
                0x00020a98                ufile
                0x00020ab0                ufullpathwildexp
                0x00021164                ufullpathresolvespecialdirid
                0x00021320                ufilegetpathdir
                0x0002150c                udirlistnomsg
                0x0002156c                udirlist
                0x00021720                udirlistsub
                0x00021c14                udirlist_set_slinkname
                0x00021d68                ufile_udirlist_copy
                0x00021fc4                ufile_udirlist_swap
                0x000221a8                ufile_udirlist_alloc1
                0x0002223c                ufile_udirlist_free
                0x00022338                udircompare_pointer
                0x000223a8                udirlistsort
                0x0002256c                udircomp
                0x000225b0                udircompare
                0x00023030                udircompsub
                0x00023158                uredirect
                0x000235a0                uredirectrestore
                0x000236bc                ufdateedit
                0x000239fc                uftimeedit
                0x00023c34                uftimeedit_1sec
                0x00023c90                udirlist_chk_max_entry
                0x00023cf8                udirlist_setname
                0x00023ed4                udirlist_setname_cat
 .text          0x00023fa0     0x1b00 ../ulib/libuserxe.a(libuserxe_a-ufile1f.o)
                0x00023fa0                uftpfstat
                0x000242c0                uftpwinchk
                0x000243ec                uftpfullpathnorid
                0x0002444c                uftpfullpath
                0x00024b14                uftppathlen
                0x00024b64                uftpgetcwd
                0x00024c64                uftpgethome
                0x00024ce4                uftpgethomesub
                0x00024eb8                uftpchdir
                0x00025084                uftpchdirsub
                0x00025254                uftplchdirrespchk
                0x00025460                uftpdirlistsub
                0x00025840                uftpfindfirst
                0x00025990                uftpfindfirstfile
                0x00025a18                uftpfindnext
 .text          0x00025aa0     0x4344 ../ulib/libuserxe.a(libuserxe_a-ufile1l.o)
                0x00025aa0                ufstat
                0x00026310                ufilechkwildmultiple
                0x000265ac                ufstat_wild
                0x0002663c                ufilefscomp
                0x000266b4                ufilegetfsid
                0x00026794                ufilegetftime
                0x000268a4                ufullpath
                0x000272ac                upathlen
                0x000272fc                ugetcwd
                0x00027328                uchdir
                0x00027454                udosfindfirstnomsg
                0x000274c4                udosfindfirst
                0x00027c40                udosfindnext
                0x00027cb0                udosfindnextmsg
                0x000280b4                ufilelnxwildselect
                0x00028120                ufilelnxattrselect
                0x000282f8                ufilelnxgetmembfstat
                0x00028524                ufilelnxsavehdir
                0x00028654                ufilelnxsrchhdir
                0x0002875c                ufilelnxclosehdir
                0x0002889c                ufilemode2attr
                0x00028a48                ufilemktime
                0x00028b00                ufilerepwildname
                0x00028c00                errwildname
                0x00028e08                filesrchmountpoint
                0x00028fe0                filegetdevt
                0x00029264                filegetdevicename
                0x00029410                filegetdevicemntent
                0x00029530                filegetmntent
                0x00029704                filegetmntoption
                0x00029868                ufilegetiocharset
                0x0002996c                ufilefnmcvcs
                0x00029bb0                ufullpathCP
 .text          0x00029de4     0x1f08 ../ulib/libuserxe.a(libuserxe_a-ufile1l2.o)
                0x00029de4                mtoolsinit
                0x00029e10                ufstat_mdos
                0x0002a35c                ufilegetmdosattr
                0x0002a460                uopendir_mdos
                0x0002a75c                ureaddir_mdos
                0x0002a9a0                ufilegetmdosdl
                0x0002af00                ufilegetmdosattrlist
                0x0002b0f8                ugetcwd_mdos
                0x0002b274                uchdir_mdos
                0x0002b310                ustatfs_mdos
                0x0002b550                uminfo
                0x0002b82c                ufilegetnum
                0x0002b930                ufilemdoscmd
                0x0002bb88                ufilemdoserrchk
 .text          0x0002bcec     0x4588 ../ulib/libuserxe.a(libuserxe_a-ufile2.o)
                0x0002bcec                ufile2
                0x0002bd04                uxddpchk
                0x0002c154                uxddsub
                0x0002c9a4                uxdelete
                0x0002d724                ufilewildxdel
                0x0002d958                uxdelsub
                0x0002e300                uremovenomsg
                0x0002e354                uremove
                0x0002e5b4                urenamenomsg
                0x0002e60c                urename2
                0x0002e664                urename
                0x0002ed68                ufilewildrename
                0x0002eda0                uwildfunc
                0x0002f19c                ufilecdirchk
                0x0002f534                ufilespfnchk
                0x0002f55c                wildchk
                0x0002f6f4                ufilechkwildmemb
                0x0002f824                ufilechkwildname
                0x0002f9b8                ufileopenexclusivewrite
                0x0002fa74                ufiledelifnotopened
                0x0002fb50                ufile2quietmsg
                0x0002fc80                ugetmoveavailablepath
                0x0003016c                uwildfunc_LongName
 .text          0x00030274     0x47cc ../ulib/libuserxe.a(libuserxe_a-ufile2f.o)
                0x00030274                uftpmkdir
                0x0003086c                uftprmdir
                0x00030c78                uftpremove
                0x000310bc                uftprename
                0x00031468                uftprenamesub
                0x0003183c                uftpwildrename
                0x0003188c                uftpattrib
                0x00031b98                uftpattrxon
                0x00031be0                uftpattrxchk
                0x00031db8                uftpgetftime
                0x00031f0c                uftpgetftime_1sec
                0x00032084                uftpsetftime
                0x000320fc                uftpsetftime2
                0x00032174                uftpcopypathinfo
                0x0003229c                uftpsetown
                0x00032314                uftpsetmod
                0x000327f4                uftpwildfunc
                0x00032a20                uftpwildfunc2
                0x00032d98                uftpmultidel
                0x00032eb0                uftpmultirename
                0x00032fc8                uftpwildxdel
                0x00033304                uftpmultidelsub
                0x00033490                uftpmultirenamesub
                0x000336d0                uftpbypassreason
                0x0003375c                uftpxdelrchk
                0x00033b68                uftpmultidelrchk
                0x00033e04                uftpmultirenamerchk
                0x000340ac                ufile2putstmt
                0x000341ec                uftpnotsupported
                0x00034244                uftpnotsupportedforlocal
                0x0003429c                uftpdelsubdir
                0x0003451c                ufile3xdeleteinit
                0x000345a8                uxdelsubftp
                0x000349f8                errtoolongname
 .text          0x00034a40     0x19d8 ../ulib/libuserxe.a(libuserxe_a-ufile2l.o)
                0x00034a40                umkdir
                0x00034aac                umkdirmode
                0x00034de0                urmdir
                0x00035284                uattrib
                0x000355d0                uattrxon
                0x00035648                uattrxchk
                0x00035828                ugetftime
                0x00035960                ugetftime_1sec
                0x00035ae0                usetftime
                0x00035c5c                usetftime_1sec
                0x00035cb8                usetftime2
                0x00035e14                ucopypathinfo
                0x00036220                ufilesetown
                0x00036318                ufilesetmod
 .text          0x00036418      0xbc8 ../ulib/libuserxe.a(libuserxe_a-ufile2l2.o)
                0x00036418                umkdir_mdos
                0x000364e4                urmdir_mdos
                0x000365f8                uattrib_mdos
                0x000367fc                uremove_mdos
                0x00036910                urename_mdos
                0x000369a8                ucopy_mdos
                0x00036c3c                uappend_mdos
                0x00036f84                ufilemdoscopyerr
 .text          0x00036fe0     0x4dd0 ../ulib/libuserxe.a(libuserxe_a-ufile3.o)
                0x00036fe0                ufile3
                0x00036ff8                invalidtargetfilename
                0x00037030                uxcopy
                0x00037f20                ufilecreateparmproc
                0x0003868c                ufilecpymvflags
                0x00038958                ufilewildcopy
                0x00038bf8                ucopysub_slinktarget
                0x00038d98                ucopysub_slink
                0x00039090                ucopysub
                0x000397b4                udoscopy
                0x00039b6c                uxmove
                0x0003a584                ufilewildmove
                0x0003a714                umovesub_slink
                0x0003ae50                umovesub
                0x0003b580                ufilecopytschk
                0x0003b698                ufilechkslinkpath
                0x0003b8e0                ufilegetslinkfinaltarget
                0x0003ba68                ufilesymlink
                0x0003baec                ufilesymlink_copyfiletime
                0x0003bbe4                ufilesymlink_copy
                0x0003bc90                ufileerrdirandfile
                0x0003bcd0                ufileerrslinktarget
                0x0003bd14                ufileerrslinkappend
                0x0003bd54                ufileerrnotargetslink
 .text          0x0003bdb0     0x539c ../ulib/libuserxe.a(libuserxe_a-ufile3f.o)
                0x0003bdb0                uftpxmove
                0x0003bf78                uftpxcopy
                0x0003c270                uftpxcopyr2r
                0x0003c4f4                uftpupload
                0x0003cb94                uftpdownload
                0x0003d1e4                uftptargetflag
                0x0003d56c                uftpsourceflag
                0x0003d924                uftps2tchk
                0x0003df18                uftpcreateparmproc
                0x0003e35c                uftpmoveparmproc
                0x0003e610                uftpupdownctl
                0x0003ef14                uftpgetdirlist
                0x0003efe8                uftpexistchk1
                0x0003f244                uftpexistchkm
                0x0003f7a4                uftpcopycallback
                0x0003ffc8                uftpcopyrchk
                0x0004075c                uftpputstmt
                0x000408a0                uftpputstmt2
                0x00040a40                uftpcopyftime
                0x00040d8c                ufileftpcopytschk
                0x00040fc8                uftpmktdir
                0x00041028                uftperrsourceisroot
                0x00041050                uftperrtargetisnotdir
                0x00041084                uftperrdir2file
                0x000410c4                uftpfileanddir
                0x00041110                uftpappenddir2dir
 .text          0x0004114c     0x2acc ../ulib/libuserxe.a(libuserxe_a-ufile4.o)
                0x0004114c                ufile4
                0x00041164                utempnam
                0x00041444                utempnamd
                0x0004149c                ufgetpos
                0x000414cc                udirwalk
                0x00041c04                udirwalksub
                0x00042cb4                ufileslinkoutoflinkchk
                0x00043154                ufileslinkloopchk
                0x000435f8                ufileslinkloopchk2
                0x00043708                ugetdiskfree
                0x0004389c                ufileisvfat
                0x000438d0                ufileisntfs
                0x000438f4                ufileisvfatMounted
                0x00043974                ufileisntfsMounted
                0x000439f4                ufileisMSMounted
                0x00043aa0                ufsetlock
                0x00043b08                uflock
 .text          0x00043c18     0x4e20 ../ulib/libuserxe.a(libuserxe_a-ufile5.o)
                0x00043c18                ufile5
                0x00043c30                ufgetsinit
                0x0004404c                ufgetscurpos
                0x00044074                ufgets_setcurpos
                0x000440f8                ufgets
                0x000444bc                ufgetssub
                0x00044aa4                ufgetsbinchk_utf8
                0x00044d7c                ufgetsbinchk_ebc
                0x00044f9c                ufgetsbinchk
                0x00045454                isSameU8c
                0x0004569c                udoseditname
                0x00045f60                ufileeditname
                0x00046428                ufilewildcomp
                0x000467a8                ufilewildcompsub
                0x00046978                ufilecomp
                0x00046e50                ufilecomptextmode
                0x000471f8                ufilecomptextmodefixed
                0x00047484                ufilecomptextmodesub
                0x000475c8                ufreads
                0x000478a8                ufgetsVHeader
                0x00047b30                ufgetsVRecord
                0x00047e28                ufgetsV
                0x000480a8                ufile5chkvfmt
                0x00048208                ufile5getVfmtstr
                0x000482cc                ufseek
                0x00048308                uftell
                0x00048338                fileeditname_copypath
                0x00048954                fileeditname_copypath_err
                0x000489b8                filetouch
 .text          0x00048a38     0x4f50 ../ulib/libuserxe.a(libuserxe_a-uftp.o)
                0x00048a38                uftpfstatroot
                0x00048ae0                uftplshome
                0x00048c48                uftpfstatudl
                0x00048f8c                uftpisexist
                0x000490a8                uftpopendir
                0x00049680                uftpreaddir
                0x000497e4                uftpattrselect
                0x000499ac                uftpgetslinkattr
                0x00049d8c                uftpdirlistslink
                0x0004a37c                uftpsortslink
                0x0004a3d4                uftpslinkcomp
                0x0004a458                uftpslinklscmd
                0x0004a790                uftplsoutchk
                0x0004ab04                uftpmodtimerchk
                0x0004afe0                uftpmodtimeerr
                0x0004b034                uftplsoutchkslinkerrskip
                0x0004b160                uftplsoutchkslink
                0x0004b260                uftpsavehdir
                0x0004b3a8                uftpsrchhdir
                0x0004b454                uftpclosehdir
                0x0004b4b8                uftpmode2attr
                0x0004b634                uftpudl2ffb3
                0x0004b7e4                uftpgetpathname
                0x0004b8ac                uftpnodesrch
                0x0004b95c                uftpnodeadd
                0x0004ba14                uftpnodedel
                0x0004ba70                uftpnodeclear
                0x0004ba8c                uftpgethostqhaddr
                0x0004baac                uftphoststbinit
                0x0004bdcc                uftpgethostsdata
                0x0004ce38                uftgetstringopd
                0x0004d0b8                uftpipachk
                0x0004d2d8                uftpgetportno
                0x0004d364                uftpisremote
                0x0004d4f0                uftpisrootdir
                0x0004d574                uftphostscrypt
                0x0004d850                uftptempnam
                0x0004d8ac                uftp_mempswd
                0x0004d944                uftp_udirlist_setname
 .text          0x0004d988     0x2c2c ../ulib/libuserxe.a(libuserxe_a-uftp2.o)
                0x0004d988                uftpinit
                0x0004dad8                uftpterm
                0x0004db20                uftplog
                0x0004def4                uftpnodeinit
                0x0004e0dc                uftpcmd
                0x0004e814                uftpcmdrespchk
                0x0004e920                uftpcmdresphdrchk
                0x0004ea48                uftpcmdsrchrespid
                0x0004eca8                uftpsimplerespchk
                0x0004ed80                uftpnextstdo
                0x0004ee50                uftpsrchfname
                0x0004f018                uftpsrchfnameslink
                0x0004f2a0                uftpgetdl
                0x0004f5c0                uftpgetdl1
                0x0004fcc8                uftpgetmode
                0x00050010                uftpgetdlftime
                0x000501b4                uftpgetmonth
                0x00050230                uftpgetwday
                0x000502a8                uftpajustjst
                0x00050504                uftpmktempwd
                0x00050550                uftpdeltempwd
 .text          0x000505b4     0x5ab0 ../ulib/libuserxe.a(libuserxe_a-uftp3.o)
                0x000505b4                uftp3setssh
                0x00050874                uftp3editpsftpcmd
                0x000509b4                uftp3cmdrespchk
                0x00050ad0                uftp3cmdresphdrchk
                0x00050c24                uftp3srchcmdecho
                0x00050d78                uftp3gethomesub
                0x00050ed8                uftp3simplerespchk
                0x00051044                uftp3simplerespchkOK
                0x000511e0                uftp3simplerespchkCHNG
                0x00051370                uftp3lchdirrespchk
                0x000513dc                uftp3getputrespchk
                0x000514f8                uftp3cdrespchk
                0x00051634                uftp3setsmb
                0x000516f0                uftp3smb_setcmd
                0x00051b70                uftp3smb_editcmdline
                0x00051e28                uftp3smb_nodeinit
                0x00051ed4                uftp3smbcmd
                0x00051f58                uftp3smb_cmd
                0x00052460                uftp3smb_chkstatuserr
                0x000526a8                uftp3smb_srchresp
                0x000528d0                uftp3smb_stderrlog
                0x00052948                uftp3smb_getdltime
                0x00052aec                uftp3smb_getdltimestat
                0x00052c3c                uftp3smb_setdltime
                0x00052d6c                uftp3smb_getmode
                0x00052f9c                uftp3smb_getdirlistctr
                0x00052fe4                uftp3smb_getdl1
                0x00053258                uftp3smb_fstatudl
                0x00053568                uftp3smb_fstatudl_byls
                0x00053798                uftp3smb_fstatudl_byls_root
                0x00053a34                uftp3smb_lsoutchk
                0x00053bb8                uftp3smb_getdlattr
                0x00053cb0                uftp3smb_fstatdircallback
                0x00053f50                uftp3smb_fstatdirrchk
                0x00054398                uftp3smb_fstatoutchk
                0x0005489c                uftp3smb_putstmt
                0x00054e44                uftp3smb_respchk_srchnext
                0x0005517c                uftp3smb_respchk
                0x000555a4                uftp3smb_lchdirrespchk
                0x000555f4                uftp3smb_strfname
                0x000558a4                uftp3smb_enclosefnm
                0x000559e4                uftp3smb_editcmdparm
                0x00055b84                uftp3smb_dirnameforlist
                0x00055c54                uftp3smb_mode2attr_winsub
                0x00055ce4                uftp3smb_mode2attr_win
                0x00055d34                uftp3smb_strattr
                0x00055e1c                uftp3smb_setmod_win
 .text          0x00056064      0x4b0 ../ulib/libuserxe.a(libuserxe_a-ugcclib.o)
                0x00056064                strupr
                0x000560cc                strlwr
                0x00056134                memicmp
                0x00056200                stricmp
                0x00056290                itoa
                0x00056324                kbhit
                0x0005633c                getch_nc
                0x0005635c                getche
                0x0005637c                spawnvp
                0x000563d4                spawnv
 .text          0x00056514     0x1d30 ../ulib/libuserxe.a(libuserxe_a-ukbdl.o)
                0x00056514                ukbdpeek
                0x00056540                ukbdcharin
                0x000566e8                ukbdl_init
                0x000567d4                ukbdl_term
                0x000567ec                ukbdl_setkbmode
                0x00056874                ukbdl_shellmode
                0x00056980                ukbdl_setgetchmode
                0x00056a40                ukbdl_tcgetattr
                0x00056ae0                ukbdl_tcsetattr
                0x00056b84                ukbdl_getch_init
                0x00056bd8                ukbdl_getche_init
                0x00056c2c                ukbdl_getch_term
                0x00056c78                ukbdl_getche_term
                0x00056cc4                ukbdl_kbhit
                0x00056d14                ukbdl_getch
                0x00056db4                ukbdl_getche
                0x00056e54                ukbdl_gettermid
                0x00056f98                ukbdl_gettermsim
                0x000574d0                ukbdl_editstring
                0x00057598                ukbdsetstatus
                0x00057650                ukbdl_wcinit
                0x00057750                ukbdl_readutf8
                0x00057d44                ukbdl_readdbcs
                0x0005804c                ukbd_simutf8_f2l
 .text          0x00058244     0x8020 ../ulib/libuserxe.a(libuserxe_a-ukbdlnxc.o)
                0x00058244                ukbdlnxc_gettbl
                0x000582e0                ukbdlnxc_init
                0x00058490                ukbdlnxc_term
                0x0005850c                ukbdlnxc_getnext
                0x00058594                ukbdlnxc_read
                0x00058748                ukbdlnxc_readkbd
                0x000595dc                ukbdlnxc_optproc
                0x00059758                ukbdlnxc_setupckt
                0x00059e1c                ukbdlnxc_setupcktsub
                0x0005a088                ukbdlnxc_setupcktx
                0x0005c744                cktovferr
                0x0005c7c0                ukbdlnxc_addstrtbl
                0x0005ca98                ukbdlnxc_dupstrchk
                0x0005cdf4                ukbdlnxc_cleanup
                0x0005ce7c                ukbdlnxc_termexit
                0x0005ceb0                ukbdlnxc_getplainsym
                0x0005d184                ukbdlnxc_chkothersym
                0x0005d1f0                ukbdlnxc_xbsdel
                0x0005d2f4                ukbdlnxc_delopt
                0x0005d3d8                ukbdlnxc_setfunckey
                0x0005d5bc                ukbdlnxc_setfuncstr
                0x0005d9a0                ukbdlnxc_setcompose
                0x0005da38                ukbdlnxc_getkeysym
                0x0005db18                ukbdlnxc_setkeysym
                0x0005dbf8                ukbdlnxc_getstring
                0x0005dcc8                ukbdlnxc_setstring
                0x0005ddc0                ukbdlnxc_getdiacr
                0x0005de6c                ukbdlnxc_setdiacr
                0x0005df18                ukbdlnxc_setmetamode
                0x0005e124                ukbdlnxc_getconsole
                0x0005e2a8                ukbdlnxc_getptty
                0x0005e3e4                ukbdlnxc_open
                0x0005e46c                ukbdlnxc_chkconsole
                0x0005e494                ukbdlnxc_save1st
                0x0005e830                ukbdlnxc_restorelast
                0x0005edec                ukbdlnxc_lockfwrite
                0x0005ee70                ukbdlnxc_lockfread
                0x0005eef4                ukbdlnxc_pidsetlock
                0x0005efe0                ukbdlnxc_pidresetlock
                0x0005f080                ukbdlnxc_pidchklock
                0x0005f138                ukbdlnxc_chngttkey
                0x0005fd04                ukbdlnxc_setrctl
                0x0005fe38                ukbdlnxc_setrctlstr
                0x0006023c                uttyname
 .text          0x00060264      0x848 ../ulib/libuserxe.a(libuserxe_a-ukbdlnxm.o)
                0x00060264                ukbdlnxm_mouseopt
                0x00060374                ukbdlnxm_mouseinit
                0x000603dc                ukbdlnxm_mouseterm
                0x0006043c                ukbdlnxm_getmouse
                0x00060894                clickchk
 .text          0x00060aac     0x22e0 ../ulib/libuserxe.a(libuserxe_a-uparse.o)
                0x00060aac                uparsein
                0x00060d54                uparseindir
                0x00060ec8                uparsev
                0x00061090                uparse2
                0x000611cc                uparse
                0x00061ed4                uparsefname
                0x00062060                uparsecmd
                0x000627d0                uparsecmdin
                0x00062a28                uparsegetopt
 .text          0x00062d8c     0x3754 ../ulib/libuserxe.a(libuserxe_a-uproc.o)
                0x00062d8c                usystem2
                0x00062ec8                usystem
                0x00062fdc                uspawnl
                0x00063108                uspawnlp
                0x00063234                uspawnvp
                0x00063330                uprocopt
                0x000633fc                uspawnrc
                0x00063624                uprocerrmem
                0x00063660                uprocerrnotf
                0x0006369c                uexecchk
                0x00063aa4                uextdirsrch
                0x00063ae4                ucmdnmcomp
                0x00063c60                ugetexepath
                0x00063c84                uproc_getpsinfo
                0x000641dc                uproc_srchpsinfo
                0x0006436c                uproc_freepsinfo
                0x000643dc                usystem_redirect
                0x000646c4                uspawn_redirect
                0x00064a9c                uproc_redirectoutchk
                0x00065418                uspawnvp_pipe
                0x0006586c                uspawnvp_pipeclose
                0x00065938                usystem_cmdserverinit
                0x000659dc                usystem_cmdserverterm
                0x00065b18                usystem_cmdserversetup
                0x00065f88                usystem_cmdtocmdserver
                0x00066014                usystem_cmdserverreq
                0x00066420                usystem_cmdserverreqwithoutbuff
                0x000664b4                usystem_pidalivechk
 .text          0x000664e0     0x142c ../ulib/libuserxe.a(libuserxe_a-uproc2.o)
                0x000664e0                uprocparseredirect
                0x000668e8                uproc_rsh
                0x00067008                uproc_redirectrewrite
                0x00067130                uproc_rshlog
                0x00067200                ugetpid
                0x0006724c                uprocredirectchk
                0x0006729c                uproc_loaddllpath
                0x00067504                uproc_loaddll
                0x000676b4                uproc_getdllproc
                0x000677a0                uproc_freedll
                0x000677fc                uproc_getprocaddr
 .text          0x0006790c     0x11dc ../ulib/libuserxe.a(libuserxe_a-uproc4.o)
                0x0006790c                uproc_shcmd
                0x00067a14                uproc_shserverinit
                0x00067ab8                uproc_shserverterm
                0x00067b90                uproc_shserversetup
                0x00068050                uproc_shserverreq
                0x00068494                uproc_srchprocessw
                0x00068558                uproc_srchprocess
                0x0006863c                uproc_select
                0x00068a00                uproc4_fdset
                0x00068a70                uproc4_fdisset
 .text          0x00068ae8      0x9d4 ../ulib/libuserxe.a(libuserxe_a-uque.o)
                0x00068ae8                uque
                0x00068b00                uenq
                0x00068dd4                udeq
                0x000690b0                uqscan
                0x000691d4                uqfree
                0x0006922c                uqufree
                0x00069284                uenqchain
                0x0006939c                uenqent
                0x0006943c                uqhmove
 .text          0x000694bc      0x274 ../ulib/libuserxe.a(libuserxe_a-ustrcpy.o)
                0x000694bc                ustring_memcpy
                0x00069578                ustring_strncpy
                0x00069698                ustring_strcpy
 .text          0x00069730     0x2778 ../ulib/libuserxe.a(libuserxe_a-ustring.o)
                0x00069730                ustring
                0x00069748                ustrnchr
                0x000697d0                ustrnpbrk
                0x000698ac                ustrnspn
                0x000699a8                ustrrspn
                0x00069a48                ustrnrspn
                0x00069af8                umemrspn
                0x00069bb0                umemspnc
                0x00069c3c                umemspn_spacetab
                0x00069ccc                umemrspnc
                0x00069d5c                ustrnstr
                0x00069e64                ustrrstr
                0x00069ef4                ustrnrstr
                0x00069fe0                ustrstri
                0x0006a138                ustrnstri
                0x0006a22c                ustrrstri
                0x0006a2bc                ustrnrstri
                0x0006a3a8                ustrnrchr
                0x0006a49c                umemchr_utf
                0x0006a638                ustrchr2
                0x0006a780                ustrnchr2
                0x0006a7cc                umemchr2
                0x0006a90c                ustrrchr2
                0x0006aa4c                ustrnrchr2
                0x0006aa98                umemrchr2
                0x0006abac                umemrchr
                0x0006ac2c                umempbrk
                0x0006acf8                umemrpbrk
                0x0006adc8                ustrnlen
                0x0006ae1c                umemstr
                0x0006ae60                umemstri
                0x0006aea4                umemrstr
                0x0006aee8                umemrstri
                0x0006af2c                umemmem
                0x0006b01c                umemmemi
                0x0006b21c                umemrmem
                0x0006b314                umemrmemi
                0x0006b4f8                ustrncpyz
                0x0006b59c                uispunct
                0x0006b664                uispunctdbcs
                0x0006b870                ustrdup
                0x0006b93c                umemtrim
                0x0006bb88                umemicmpdbcs
                0x0006bc84                umemstridbcs
                0x0006bda4                umemrstridbcs
 .text          0x0006bea8       0x70 ../ulib/libuserxe.a(libuserxe_a-utf.o)
                0x0006bea8                utf_init
 .text          0x0006bf18     0x5ba0 ../ulib/libuserxe.a(libuserxe_a-utf2.o)
                0x0006bf18                umbtowc
                0x0006bfd4                utfpos2offs
                0x0006c264                utfctr2offs
                0x0006c57c                utfstrchkmbr2wc
                0x0006c9fc                utfcvf2u
                0x0006cf04                utfcvl2fmix
                0x0006d1dc                utfcvl2f
                0x0006d8a8                utfcvl2ftab
                0x0006da64                utfsetdbcstbl
                0x0006dd68                utfisvalidutf8
                0x0006de6c                utfgetstrwidth
                0x0006df34                utfisvalidutf8char
                0x0006e0c4                utfstrvalidate
                0x0006e230                utfgetutf8strlen
                0x0006e3a8                utfsplitchk
                0x0006e5cc                utfcvl2fany
                0x0006ee54                utfcvf2l1
                0x0006f03c                utfcvf2l
                0x0006f4d8                utfcvf2lany
                0x0006fa74                utfcvl2fany1
                0x0006fcd8                utfcvl2fany1mb
                0x0006fe3c                utfcvl2uany1mb
                0x0006ffe0                utfcvf2lany1
                0x000703f0                utfcvf2lany1mb
                0x00070574                utfcvu2lany1mb
                0x000706d8                utfcvlocaleinit
                0x00070904                utfcvsetdefaultlocale
                0x00070a74                utfcvsetparmlocale
                0x00070bd0                utfgetcharset_std
                0x00070efc                utfgetcharset
                0x00071120                utflocalechk
                0x000711a0                utfcvlocaleopen
                0x000712b8                utfcvlocaleclose
                0x000712e4                utfcvlocaletclose
                0x00071324                utfcviconvdbcschk_topbyte
                0x00071460                utfcviconvdbcschk1
                0x000715cc                utfcvlocaleinitICU
                0x00071634                utfcvf2lany1ICU
                0x000717b0                utfcvl2fany1ICU
                0x00071954                utfcvsetdefaultlocaleICU
                0x00071998                utflocalechkICU
                0x00071a00                utfgetstrlenHK
 .text          0x00071ab8     0x7bb0 ../ulib/libuserxe.a(libuserxe_a-utf22.o)
                0x00071ab8                utfwwapichk
                0x00071d20                utfddflag2sbcsid
                0x00071db8                utfddgetlenflag
                0x00072078                utf22_mapwidth0_rounddown
                0x000721b4                utf22_mapwidth0
                0x000723cc                utfucsmapinit
                0x000728dc                utf22setworkdir
                0x00072a74                utf22versionchk
                0x00072c6c                utfucsloadmap
                0x00072e64                utfucssavemap
                0x00072ff8                utfucsmapinit_remap
                0x00073388                utfucsmapmodify
                0x00073500                utfmapucs2dd
                0x000735b8                utfmapdd2ucs
                0x0007363c                utfddsetsbcs
                0x00073704                utfddgetsbcs
                0x00073768                utfgetwcw
                0x000738a8                utfcvu2dd1w
                0x00073b74                utfcvu2dd1
                0x00073c70                utfcvf2dd
                0x00073f5c                utfdd2u1
                0x00073fc8                utfdd2u1vio
                0x000740a4                utfdd2u1chsz
                0x00074298                utfdd2u
                0x000747c4                utfucs42utf16
                0x00074990                utfddgetucsctr
                0x00074b0c                utfu2dd
                0x00074d20                utfddcmp
                0x0007561c                utfddicmp
                0x00075760                utfcvdd2f
                0x00075df4                utfchkdd
                0x00075edc                utfddisasciistr
                0x00076050                utfddissbcsstr
                0x00076108                utfddasciilen
                0x00076150                utfddpos2offs
                0x00076388                utfddoffs2pos
                0x000766bc                utfddispunct
                0x000768b4                utfddmemspnc
                0x000769b8                utfddmemrspnc
                0x00076ad8                utfddstrnlen
                0x00076bc0                utfddstrlen
                0x00076c70                utfddstrnspn
                0x00076cf8                utfddmemspn
                0x00076e2c                utfddmemrspn
                0x00076f64                utfddmemchr
                0x00077094                utfddmemchr_nonascii
                0x00077188                utfddmemrchr
                0x00077270                utfddmemrchr_nonascii
                0x00077320                utfddmempbrk
                0x00077400                utfddmempbrk_nonascii
                0x00077504                utfddmemrpbrk
                0x00077600                utfddmemrpbrk_nonascii
                0x00077720                utfddcmpdbcstab
                0x00077830                utfddmemmem
                0x00077ab4                utfddmemrmem
                0x00077ba0                utfddnumlen
                0x00077e64                utfddgetdbcslr
                0x00077fa4                utfddgetcsrposbca
                0x00078338                utfgetvisiblealtch
                0x000786fc                utfgetvisiblealtchprint
                0x00078798                utf_setsubchar_dbcs
                0x0007899c                utf_subcharcmp
                0x00078b18                utfmemrchrDD
                0x00078bd4                utfmemchrDD
                0x00078cb0                isASCIIstr
                0x00078d18                isPrintableASCIIstr
                0x00078d90                isPrintableASCIImem
                0x00078e1c                utf22_setunpucsvio
                0x00078f58                utf22_setdbcsspacealt
                0x00079014                utfsetvisiblealtch
                0x0007916c                utf22_iswidth0Ovf
                0x00079260                utf22_iswidth0DBCS
                0x00079338                utf_iswidth0
                0x00079478                utf_iscombinable
                0x000795b4                utf_iscombining
 .text          0x00079668     0x178c ../ulib/libuserxe.a(libuserxe_a-utf3.o)
                0x00079668                utfmb2wc
                0x000798c4                utfwcwidth
                0x00079b50                utfwcwidthNoMap
                0x00079cf0                utfwcwidthsub
                0x00079f30                utfwcwidthsubNoMap
                0x0007a15c                utfiswide
                0x0007a194                utfisprint
                0x0007a398                utfgetwc
                0x0007a434                utftbinit
                0x0007a9ac                utftbfhelp
                0x0007a9cc                utftbterm
                0x0007aa20                utftbsrch
                0x0007ab9c                utftbsrch_jeuc
                0x0007ac08                utftbsrch_cjk
                0x0007ad50                utf3_wcwidthXXE
 .text          0x0007adf4      0xad0 ../ulib/libuserxe.a(libuserxe_a-utf4.o)
                0x0007aef8                mk_wcwidth_combining
                0x0007af44                mk_wcwidth
                0x0007b208                mk_wcwidth_cjk
                0x0007b344                mk_wcswidth_cjk
                0x0007b3dc                mk_wcwidth_adjsbcs
                0x0007b5dc                utf4_isSpacingCombiningMark
                0x0007b698                utf4_isAmbiguous
                0x0007b7a4                utf4_isAmbiguous_XXE
                0x0007b824                utf4_isFormat
                0x0007b878                mk_wcwidth_combining2SCM
 .text          0x0007b8c4     0x1754 ../ulib/libuserxe.a(libuserxe_a-utrace.o)
                0x0007b8c4                utrace_initmt
                0x0007b920                utrace_init
                0x0007bb84                utracepop
                0x0007bcf0                utracepopf
                0x0007bea4                utracepnop
                0x0007bec4                utrace_ebc
                0x0007bfbc                utrace
                0x0007c3a0                utracectime
                0x0007c5c4                utraceopen_force
                0x0007c794                utraceocmsg_force
                0x0007cf38                utrace_term
 .text          0x0007d018      0x5b8 ../ulib/libuserxe.a(libuserxe_a-uunxsub.o)
                0x0007d018                ugetugid
                0x0007d0bc                ugetusername
                0x0007d154                ugetgroupname
                0x0007d1ec                usrchugname
                0x0007d258                uaddugname
                0x0007d34c                unc_setupterm
                0x0007d3c0                unx_fsetlock
                0x0007d484                unx_fresetlock
                0x0007d4e0                unx_fchklock
                0x0007d59c                ugethostname
 .text          0x0007d5d0     0x3914 ../ulib/libuserxe.a(libuserxe_a-uviol.o)
                0x0007d5d0                uviol_cell2attr
                0x0007d710                uviol_attr2cell
                0x0007d7ec                uviol_repfg
                0x0007d86c                uviol_altcharset
                0x0007d9b4                uvio_initparm
                0x0007da0c                uviogetmode
                0x0007dba0                uviol_init
                0x0007e0dc                uviol_acssetup
                0x0007e22c                uviol_init2
                0x0007e25c                uviol_konchk
                0x0007e350                uviol_konchk2
                0x0007e3c0                uviol_colorinit
                0x0007e5d8                uviol_termexit
                0x0007e608                uviol_cleanup
                0x0007e718                uviol_term
                0x0007e79c                uviol_beep
                0x0007e7d8                uviosetmode
                0x0007e810                uvioreadcellstr
                0x0007e9a4                uviowrtcellstr
                0x0007ebd0                uvioreadcharstr
                0x0007ecec                uviowrtcharstr
                0x0007edf4                uviowrtcharstratt
                0x0007eff0                uviowrtnattr
                0x0007f200                uviowrtncell
                0x0007f35c                uviowrtnchar
                0x0007f4bc                uviogetcurpos
                0x0007f5a8                uviosetcurpos
                0x0007f704                uviogetcurtype
                0x0007f7b4                uviosetcurtype
                0x0007f8e8                uviowrttty
                0x0007f928                uviol_rgb2colorno
                0x0007fb40                uviol_colorno2rgb
                0x0007fc98                uviogetstate
                0x0007ff4c                uviosetstate
                0x0008012c                uvioscrolldn
                0x00080458                uvioscrollup
                0x00080784                uviol_clear
                0x000807bc                uviol_clearok
                0x00080808                uviol_refresh
                0x00080830                uviol_mvaddchnstr
                0x000809cc                uviol_attrupdate
                0x00080e64                uviol_set_padattrsub
 .text          0x00080ee4     0x3778 ../ulib/libuserxe.a(libuserxe_a-u3270.o)
                0x00080ee4                u3270init
                0x00080f4c                u3270fstat
                0x00081540                u3270findfile
                0x00081774                u3270fullpathistso
                0x00081800                u3270getcwd
                0x00081888                u3270chdir
                0x00081924                u3270fullpath
                0x00081c00                u3270fullpathwildexp
                0x0008211c                u3270getmembname
                0x000822c0                u3270chkmembname
                0x00082408                u3270getlastname
                0x000824e0                u3270getnthname
                0x000825e8                u3270concatfilename
                0x000828d0                u3270editname
                0x00082c78                u3270parsedsn
                0x00082d14                u3270parentdsn
                0x00082eb4                u3270getsetdsnwild
                0x000831d4                u3270pathlen
                0x00083324                u3270sethostuser
                0x000833d8                u3270cmdrequest
                0x00083650                u3270editrespmsg
                0x00083768                u3270dirlistsub
                0x00083a24                u3270setdirlist
                0x00083ee4                u3270srchdirlist
                0x00083fb0                u3270setdirlistdsn
                0x0008427c                u3270setattr
                0x00084398                u3270getattrstr
                0x00084624                u3270errdsnpath
 .text          0x0008465c     0x152c ../ulib/libuserxe.a(libuserxe_a-u32702.o)
                0x0008465c                u3270mkdir
                0x00084694                u3270rmdir
                0x000846c4                u3270xddsub
                0x00084844                u3270xdelete
                0x00084a54                u3270wildxdel
                0x00084a8c                u3270xdelsub
                0x00084b94                u3270remove
                0x00084cf8                u3270rename
                0x00084f48                u3270renamesub
                0x0008501c                u3270wildrename
                0x0008506c                u3270spfupdate
                0x0008523c                u3270spfsetparm
                0x00085778                u3270attrib
                0x000857b0                u3270attrxchk
                0x000857e4                u3270getftime
                0x0008581c                u3270setftime
                0x00085854                u3270setftime2
                0x0008588c                u3270copypathinfo
                0x000858c4                u3270setown
                0x000858fc                u3270setmod
                0x00085930                u3270wildfunc
                0x00085b38                u3270errnotsupported
 .text          0x00085b88     0x3ab0 ../ulib/libuserxe.a(libuserxe_a-u32703.o)
                0x00085b88                u3270xmove
                0x00085cf8                u3270xcopyr2r
                0x00085fc0                u3270xcopy
                0x00086188                u3270xcopyget
                0x00086c44                u3270xcopyput
                0x000876f8                u3270filecreateparmproc
                0x0008799c                u3270filecpymvflags
                0x00087ef0                u3270filewildcopyget
                0x00088138                u3270filewildcopyput
                0x00088478                u3270copysubget
                0x000886d4                u3270copysubput
                0x00088b60                u3270transfer
                0x000890c4                u3270srcdupchk
                0x00089308                u3270copyspfupdate
                0x000895ac                u3270setftpparm
 .text          0x00089638       0x40 ../ulib/libuserxe.a(libuserxe_a-uabend.o)
                0x00089638                uabend
 .text          0x00089678     0x5de8 ../ulib/libuserxe.a(libuserxe_a-ucalc.o)
                0x00089678                ucalc_bcmain
                0x0008a4f8                bc_opdchk
                0x0008b3dc                getvarname
                0x0008b4bc                ucalc_chkvrparm
                0x0008b648                bc_getvalue
                0x0008bd3c                ucalc_vrajust
                0x0008c060                ucalc_o2l
                0x0008c148                ucalc_gettimevalue
                0x0008c570                ucalc_getunderpointdata
                0x0008c6d4                bc_opdcopy
                0x0008c994                bc_putwordordword
                0x0008ca6c                bc_expand2dword
                0x0008cb08                ucalc_binop
                0x0008d0a4                ucalc_binopsub
                0x0008db58                ucalc_underpoint
                0x0008de40                ucalc_editnum
                0x0008e008                ucalc_editevenhex
                0x0008e094                ucalc_dwtime
                0x0008e27c                ucalc_time
                0x0008e774                ucalc_timeedit
                0x0008eb04                ucalc_shiftdown
                0x0008ec50                ucalc_shiftup
                0x0008ed90                bc_getbase
                0x0008edd4                calcuperr1
                0x0008edfc                calcuperr2
                0x0008ee24                calcuperr3
                0x0008ee4c                calcerrinvalid
                0x0008ee84                calcerrinvalid_dw
                0x0008eebc                calcerrformat
                0x0008eee4                calcerrunderflow
                0x0008ef10                calcerrwordovf
                0x0008ef54                calcerrminus
                0x0008ef7c                calcerr0div
                0x0008efa4                calcerrtimeop
                0x0008efcc                bc_getvalue3
                0x0008f280                bc_setconvtype3
 .text          0x0008f460     0x1ad0 ../ulib/libuserxe.a(libuserxe_a-ucvebc.o)
                0x0008f460                ucvebcinite2uJ
                0x0008f5b4                ucvebc
                0x0008f5cc                ucvebc_gettrte2a
                0x0008f5ec                ucvebc2asc_handle
                0x0008f68c                ucvasc2ebc_handle
                0x0008f72c                ucvebc2asc
                0x0008fb44                ucvebc2asc1sbcsJ
                0x0008fcc4                ucvebc2ucs1sbcsJ
                0x0008fe58                ucvasc2ebc
                0x00090400                ucvebc_defaultremap
                0x000906e0                ucvebcinita2e
                0x0009084c                ucvkandl
                0x00090a3c                ucvebcinitkandl
                0x00090b60                ucvebc2_chkprintsbcs
                0x00090e3c                ucvebc_chkeolopt
 .text          0x00090f30     0x1718 ../ulib/libuserxe.a(libuserxe_a-ucvebc2.o)
                0x00090f30                ucvebc2
                0x00090f48                ucvebc2_init
                0x00090fb8                ucvebc2_codecomp
                0x00091000                ucvebc2_s2e
                0x0009109c                ucvebc2_e2s
                0x00091134                ucvebc2_chkprint
                0x000913fc                ucvebc2_chkprintnewold
                0x00091674                ucvebc2_chkprintdup
                0x00091820                ucvebc2_e2ssub
                0x00091a60                ucvebc2_s2esub
                0x00091b18                ucvebc2_stre2s
                0x00091dc8                ucvebc2_ebc2asc1dbcsJ
                0x00091e64                ucvebc2_strs2e
                0x00092418                ucvebc2_setsi
                0x0009253c                ucvebc2_setso
 .text          0x00092648       0xa8 ../ulib/libuserxe.a(libuserxe_a-ucvebct.o)
                0x00092648                ucvebc2gettbl
 .text          0x000926f0     0x6c18 ../ulib/libuserxe.a(libuserxe_a-ucvext.o)
                0x000926f0                ucvext_cfglineerr
                0x0009272c                ucvext_cfgdupoption
                0x00092768                ucvext_ux2s
                0x00092850                ucvext_cfgmap
                0x000929c8                ucvext_getcfg
                0x000937bc                ucvext_setdefaultlocalcv
                0x00093900                ucvext_getarmso1
                0x00093b60                ucvext_getarmso
                0x00093dec                ucvext_getarmdata1
                0x00093f5c                ucvext_getarmdata
                0x0009410c                chkapiver
                0x000942c8                ucvext_icuinit_env
                0x00094564                setdatadir
                0x00094630                ucvext_mapinit
                0x00095014                ucvext_setupsubch
                0x000955e8                ucvext_loaddll_icudata
                0x0009587c                ucvext_loaddll
                0x0009592c                ucvext_icuinit
                0x00096050                ucvext_icuenumcvname
                0x00096420                ucvext_icuuerrname
                0x00096490                ucvext_icugetdefaultconvertername2
                0x000965ac                ucvext_getstdcharset
                0x00096984                ucvext_icugetdefaultconvertername
                0x00096ac4                ucvext_icugetconvertertype
                0x00096ce8                ucvext_icugetsubchars
                0x00096e6c                ucvext_icusetsubchars
                0x00096f60                ucvext_icugetstarter
                0x000970ec                ucvext_icugetconverter
                0x000976fc                ucvext_getparmconverter
                0x00097980                ucvext_openparmconverter
                0x00097b00                ucvext_getcvoption
                0x00097e6c                set_internal_CP037
                0x00097f54                ucvext_mapinitsetdefault
                0x00098190                ucvext_setlocalconverter
                0x0009828c                ucvext_icusubcharchk
                0x00098640                ucvext_isdbcs1st
                0x000986c4                chk_converter_is_ebcdic
                0x000987b8                ucvext_handle0init
                0x000989fc                ucvext_icuclose
                0x00098a64                ucvext_icureset
                0x00098acc                ucvext_icugetmbconverter
                0x00098bac                ucvext_icumbinit12
                0x00098c0c                ucvext_icumbinit
                0x00098ed8                ucvext_setdefaultlocale
                0x00098fc8                chkicuversion
                0x00099254                ucvext_getConverterCfg
 .text          0x00099308     0x49f4 ../ulib/libuserxe.a(libuserxe_a-ucvext12.o)
                0x00099308                ucvext12_init
                0x0009946c                ucvext_icuebc2ucs1
                0x00099728                ucvext_iculocal2ucs1
                0x00099a1c                ucvext_icuucs2ebc1
                0x00099d34                ucvext_icuucs2local1
                0x0009a000                ucvext_icuebc2mb1
                0x0009a460                ucvext_icumb2ebc1
                0x0009a920                ucvext_icuebc2mbs_handle
                0x0009a9a0                ucvext_icuebc2mbs
                0x0009aca8                ucvext_icumb2ebcdbcs
                0x0009b268                ucvext_icumb2ebcs_handle
                0x0009b2e8                ucvext_icumb2ebcs
                0x0009b7e8                ucvext_icuebc2mbf
                0x0009bcd0                ucvext_icumb2ebcf
                0x0009c46c                ucvext_icumb2ucs1
                0x0009c678                ucvext_icuucs2mb1
                0x0009c8a0                ucvext_icuutf2mb1
                0x0009ca4c                ucvext_icumb2utf1
                0x0009cc48                ucvext_icumb2utf
                0x0009cef0                ucvext_icuisprint
                0x0009cf90                ucvext_locale1ICU
                0x0009d074                ucvext_getparmconvertermbICU
                0x0009d4ac                ucvext_icua2ainit
                0x0009d570                ucvext_icua2aterm
                0x0009d5e8                ucvext_icua2as
                0x0009dca8                ucvext_icusubcharchk_handle
 .text          0x0009dcfc     0x1ec0 ../ulib/libuserxe.a(libuserxe_a-ucvext2.o)
                0x0009dcfc                ucvext_iconvmapinit
                0x0009dd48                ucvext_iconvgetstarter
                0x0009deac                ucvext_iconvgetconvertertype
                0x0009df28                ucvext_iconvgetconverter
                0x0009e06c                ucvext_iconvgetparmconverter
                0x0009e274                ucvext_iconvebc2ucs1
                0x0009e3e4                ucvext_iconvlocal2ucs1
                0x0009e6a4                ucvext_iconvucs2ebc1
                0x0009e818                ucvext_iconvucs2local1
                0x0009e980                ucvext_iconva2as
                0x0009ef94                ucvext_iconvb2bs
                0x0009f140                ucvext_iconva2af
                0x0009f850                ucvext_iconva2ainit
                0x0009f970                ucvext_iconva2acont
 .text          0x0009fbbc     0x4f64 ../ulib/libuserxe.a(libuserxe_a-ucvucs.o)
                0x0009fbbc                ucp932init
                0x000a0144                ucp932term
                0x000a01ec                ucp932sjis2ucs
                0x000a02bc                ucp932ucs2sjis
                0x000a0440                uccvsjis2ucs
                0x000a0574                uccvucs2sjis
                0x000a05a4                uccvucs2utf
                0x000a07d8                uccvutf2ucs
                0x000a0b7c                uccvucss2utf
                0x000a0c60                uccvutf2ucss
                0x000a0e2c                uccvsjis2ucss
                0x000a0eac                uccvucss2sjis
                0x000a0ef0                uccvsjis2utf
                0x000a0fd4                uccvutf2sjis
                0x000a10a0                ucvsucs2utf
                0x000a1444                ucvsescucs2utf
                0x000a1808                ucvssjis2utf
                0x000a1bd4                ucvsmb2utf
                0x000a1f34                ucvsutf2ucs
                0x000a2298                ucvsutf2sjis
                0x000a2734                ucvsutf2mb
                0x000a2b14                ucvssjis2ucs
                0x000a2e38                ucvsucs2sjis
                0x000a31d8                ucvsescucs2sjis
                0x000a355c                ucvfsjis2ucs
                0x000a377c                ucvfucs2sjis
                0x000a3980                ucvfutf2ucs
                0x000a3c1c                ucvfucs2utf
                0x000a3e88                ucvfsjis2utf
                0x000a40f4                ucvfutf2sjis
                0x000a4390                ucvbomchk
                0x000a4538                ucvbomset
                0x000a4694                ucvsetucss
                0x000a48c4                ucvgetucss
                0x000a4a00                ucverrutf
                0x000a4a60                ucverrucs
                0x000a4ac0                ucverrsjis
 .text          0x000a4b20       0x38 ../ulib/libuserxe.a(libuserxe_a-ucvucst.o)
                0x000a4b20                ugetcp932tbl
 .text          0x000a4b58     0x3084 ../ulib/libuserxe.a(libuserxe_a-udbcschk.o)
                0x000a4b58                udbcschk_wcinit
                0x000a4ef8                udbcschk_getbaseconverter
                0x000a4fa0                udbcschk_setunprintable
                0x000a5138                udbcschk_wclocaleinit
                0x000a52a4                udbcschk_wclocalereset
                0x000a56b8                udbcschk_chklocale
                0x000a5778                udbcschk_getlinuxleadbyte
                0x000a58e0                udbcschk
                0x000a5a6c                udbcschk_hk
                0x000a5b58                udbcschk_getmblen
                0x000a5e18                udbcschk_mblen
                0x000a5ee8                udbcschk_mb2nd
                0x000a6070                udbcschk_isvalidmbchar
                0x000a6154                udbcschk_locale_topbyte
                0x000a6258                udbcschk_getdbcs1st
                0x000a634c                udbcschk_ismbdbcs1st
                0x000a63ac                udbcschk_locale1
                0x000a6698                udbcschk_mb2ucs1
                0x000a6804                udbcschk_ucs2mb1
                0x000a6930                udbcschk_forceenglish
                0x000a699c                udbcschkcp
                0x000a6b08                ugetcp
                0x000a6bec                udbcsenv
                0x000a6c2c                udosquerydbcsenv
                0x000a6da0                udbcschk2
                0x000a6e64                udbcschk_pos2offs
                0x000a7040                usetdbcstbl
                0x000a73a4                usetdbcstblmb
                0x000a7814                udbcschk_setlocale
                0x000a7a64                udbcschk_setdbcstype
                0x000a7b7c                udbcschk_icugetlocalconverter
 .text          0x000a7bdc     0x2e38 ../ulib/libuserxe.a(libuserxe_a-udbcsck2.o)
                0x000a7bdc                ujischkx208
                0x000a7cac                usjischkx208
                0x000a7d8c                usjis2jis
                0x000a7e94                ujis2sjis
                0x000a7f84                ustrjis2sjis
                0x000a849c                ustrsjis2jis
                0x000a89a4                ushift2euc
                0x000a8edc                ushift2euc1
                0x000a90b8                ushift2euccount
                0x000a92f8                usjischk
                0x000a95ac                ueuc2shift1SS3
                0x000a95dc                ueuc2shift
                0x000a9d68                ueucchk
                0x000aa1a4                ueuc2shift1
                0x000aa418                ueuc2shift1c
                0x000aa5cc                uhan2zen
                0x000aa890                udbcschktty
                0x000aa914                udbcschk_srchSS2
 .text          0x000aaa14      0x3dc ../ulib/libuserxe.a(libuserxe_a-udos2.o)
                0x000aaa14                udos2
                0x000aaa2c                ugetdriveidlist
                0x000aab20                ugetdrivelist
                0x000aabc0                ugetdrivetype
                0x000aace8                udos_setenv
 .text          0x000aadf0     0x2890 ../ulib/libuserxe.a(libuserxe_a-uedit2.o)
                0x000aadf0                uedit2
                0x000aae08                uasciidump
                0x000ab024                uasciidump_utf
                0x000ab2dc                uucsdump
                0x000ab628                ub2x
                0x000ab758                ueditfattr
                0x000abb30                ueditfattrspf
                0x000abc04                ueditfattr_mdos
                0x000abd84                uxdumpline
                0x000ac784                xdlputs
                0x000ac830                ugetdtparm
                0x000ac92c                ugetdateparm
                0x000ac9a0                ugettimeparm
                0x000aca14                ueditgetftnum
                0x000acce4                ueditsetfdateUSHORT
                0x000acd78                ueditsetfdate
                0x000ace58                ueditsetftimeUSHORT
                0x000aceec                ueditsetftime
                0x000acfe4                uxdumpstr
                0x000ad20c                ueditNowFileTime
                0x000ad33c                ueditescrep
 .text          0x000ad680      0x354 ../ulib/libuserxe.a(libuserxe_a-uehl.o)
                0x000ad680                useteh
                0x000ad74c                uehl_setsh
                0x000ad7a0                ureseteh
                0x000ad868                uehl_resetsh
                0x000ad8a4                usighandler
 .text          0x000ad9d4      0xd74 ../ulib/libuserxe.a(libuserxe_a-uproc22.o)
                0x000ad9d4                ukillpid
                0x000ada70                uthread
                0x000adae8                uevent
                0x000add54                uevent_wait1
                0x000adf20                uevent_post1
                0x000ae024                uevent_waitm
                0x000ae208                uevent_postm
                0x000ae348                uevent_reset1
                0x000ae3dc                uevent_setuplist
                0x000ae570                uevent_resetlist
                0x000ae620                ucriticalsection
 .text          0x000ae748     0x19c4 ../ulib/libuserxe.a(libuserxe_a-uproc3.o)
                0x000ae748                uproc_gvfsinit
                0x000ae7ac                ushellexec
                0x000aec60                ushellexecsub
                0x000aef34                ulnxlgettermpgmopt
                0x000af0b8                ulnxlgetshellpgm
                0x000af184                ulnxxgettermpgmopt
                0x000af498                uproc3pgmchk
                0x000af53c                usystemlnxterm
                0x000af618                usleepms
                0x000af6bc                uprocconnect
                0x000af978                uprocdisconnect
                0x000afa24                uprocpipeio
                0x000afc30                startserver
                0x000afcac                uprocpiperead
                0x000afd40                uprocpiperecevmsg
                0x000afebc                uprocpipeiodata
 .text          0x000b010c     0x65fc ../ulib/libuserxe.a(libuserxe_a-uviom.o)
                0x000b010c                uviom_init
                0x000b03a4                uviom_setopt2
                0x000b06a0                uviom_notify
                0x000b0768                uvio_wcinit
                0x000b07c8                uviom_savecell
                0x000b0870                uviom_readcell
                0x000b0918                uvio_mvaddchnstrF
                0x000b0fc4                uviom_mvaddwchnstr
                0x000b1034                uvio_mvaddchnstrW_ligature
                0x000b1388                uvio_mvaddchnstrW_combine
                0x000b1988                uvio_mvaddchnstrW
                0x000b1c4c                uviom_cht2cchar
                0x000b2c48                uviom_setcchar_itself
                0x000b2cd0                uviom_setcchar_shadow
                0x000b2da8                uviom_setcombine1
                0x000b3208                uviom_setcombine
                0x000b3a20                uviom_setcombineSCM
                0x000b3c40                uvio_ddcht2cchar
                0x000b496c                uvio_ddcht2cchar_ligature
                0x000b5700                uvio_getcombinectr
                0x000b5864                uviom_escrep
                0x000b5a50                uviom_set_padattr
                0x000b5ab4                uviom_fillattrspace
                0x000b5bd0                uviom_setunpucs
                0x000b5fa0                uviom_attr_itself
                0x000b6044                uviom_ISUCSWIDTH0
                0x000b61c4                uviom_iscombining
                0x000b63ac                uviom_spaceclear
                0x000b6404                uviom_clearscr
                0x000b64a4                uviom_getcombaltchUcs
                0x000b652c                uviom_getcombaltchU8
 .text          0x000b6708     0x54c8 ../ulib/libuserxe.a(libuserxe_a-ucvebc3.o)
                0x000b6708                ucvebc3_getcfgparmconverter
                0x000b690c                ucvebc3_init_xcv
                0x000b694c                ucvebc3_getconvertersubchar
                0x000b69c0                ucvebc3_setletter
                0x000b72f4                ucvebc3_init
                0x000b7568                ucvebc3_cfgerr
                0x000b7590                ucvebc3_b2uSbcs1
                0x000b7878                ucvebc3_b2ddSbcs1
                0x000b7a68                ucvebc3_b2ddSbcs
                0x000b7f28                ucvebc3_b2uDbcs1
                0x000b8144                ucvebc3_b2ddDbcs1
                0x000b8364                ucvebc3_b2ddDbcsstr
                0x000b8564                ucvebc3_b2ddDbcs
                0x000b8c90                ucvebc3_b2dd
                0x000b8d84                ucvebc3_u2b1map
                0x000b8ec4                ucvebc3_u2b1
                0x000b9268                ucvebc3_m2b1Sbcs1
                0x000b9424                ucvebc3_m2b1
                0x000b975c                ucvebc3_m2b
                0x000b9c6c                ucvebc3_f2b
                0x000ba304                ucvebc3_dd2b
                0x000ba9d4                ucvebc3_b2mSbcs
                0x000bb0a0                ucvebc3_b2mDbcsstr
                0x000bb340                ucvebc3_b2m
                0x000bb818                ucvebc3_setdbcstbl
                0x000bb9b8                ucvebc3_getebc3opt
                0x000bbaa8                ucvebc3_b2f
                0x000bbb44                ucvebc3_f2bcmd
 .text          0x000bbbd0     0x1c0c ../ulib/libuserxe.a(libuserxe_a-ucvebc4.o)
                0x000bbbd0                ucvebc4_init
                0x000bbc5c                ucvebc4_compbyname
                0x000bbcb4                ucvebc4_compbyhandle
                0x000bbd04                ucvebc4_srchcveh
                0x000bbe58                ucvebc4_gethandle
                0x000bbf48                ucvebc4_getpucveh
                0x000bbfc8                ucvebc4_getcvname
                0x000bc02c                ucvebc4_getcvtype
                0x000bc1b0                ucvebc4_createhandle
                0x000bc2ec                ucvebc4_getparmconverter
                0x000bc41c                ucvebc4_chkdbcsconverter
                0x000bc534                ucvebc4_setuphandle
                0x000bc644                ucvebc4_setletter
                0x000bcda0                ucvebc4_b2uSbcs1
                0x000bcebc                ucvebc4_b2mSbcs
                0x000bd2e8                ucvebc4_setupsubch
 .text          0x000bd7dc      0x240 /usr/lib/gcc/arm-linux-gnueabihf/8/libgcc.a(_divsi3.o)
                0x000bd7dc                __divsi3
                0x000bd7dc                __aeabi_idiv
                0x000bd9fc                __aeabi_idivmod
 .text          0x000bda1c       0xd4 /usr/lib/gcc/arm-linux-gnueabihf/8/libgcc.a(_aeabi_ldivmod.o)
                0x000bda1c                __aeabi_ldivmod
 .text          0x000bdaf0       0x10 /usr/lib/gcc/arm-linux-gnueabihf/8/libgcc.a(_dvmd_lnx.o)
                0x000bdaf0                __aeabi_idiv0
                0x000bdaf0                __aeabi_ldiv0
 .text          0x000bdb00      0x128 /usr/lib/gcc/arm-linux-gnueabihf/8/libgcc.a(_udivmoddi4.o)
                0x000bdb00                __udivmoddi4
 .text          0x000bdc28       0x64 //usr/lib/arm-linux-gnueabihf/libc_nonshared.a(elf-init.oS)
                0x000bdc28                __libc_csu_init
                0x000bdc88                __libc_csu_fini
 .text          0x000bdc8c       0x10 //usr/lib/arm-linux-gnueabihf/libc_nonshared.a(stat64.oS)
                0x000bdc8c                stat64
 .text          0x000bdc9c       0x10 //usr/lib/arm-linux-gnueabihf/libc_nonshared.a(lstat64.oS)
                0x000bdc9c                lstat64
 .text          0x000bdcac        0x0 /usr/lib/gcc/arm-linux-gnueabihf/8/crtend.o
 .text          0x000bdcac        0x0 /usr/lib/gcc/arm-linux-gnueabihf/8/../../../arm-linux-gnueabihf/crtn.o
 *(.gnu.warning)
 *(.glue_7t)
 .glue_7t       0x000bdcac        0x0 linker stubs
 *(.glue_7)
 .glue_7        0x000bdcac        0x0 linker stubs
 *(.vfp11_veneer)
 .vfp11_veneer  0x000bdcac        0x0 linker stubs
 *(.v4_bx)
 .v4_bx         0x000bdcac        0x0 linker stubs

.fini           0x000bdcac        0x8
 *(SORT_NONE(.fini))
 .fini          0x000bdcac        0x4 /usr/lib/gcc/arm-linux-gnueabihf/8/../../../arm-linux-gnueabihf/crti.o
                0x000bdcac                _fini
 .fini          0x000bdcb0        0x4 /usr/lib/gcc/arm-linux-gnueabihf/8/../../../arm-linux-gnueabihf/crtn.o
                [!provide]                PROVIDE (__etext = .)
                [!provide]                PROVIDE (_etext = .)
                [!provide]                PROVIDE (etext = .)

.rodata         0x000bdcb4     0xbea0
 *(.rodata .rodata.* .gnu.linkonce.r.*)
 .rodata.cst4   0x000bdcb4        0x4 /usr/lib/gcc/arm-linux-gnueabihf/8/../../../arm-linux-gnueabihf/crt1.o
                0x000bdcb4                _IO_stdin_used
 .rodata        0x000bdcb8      0x632 xds.o
 *fill*         0x000be2ea        0x2 
 .rodata        0x000be2ec      0x571 ../ulib/libuserxe.a(libuserxe_a-uallocl.o)
 *fill*         0x000be85d        0x3 
 .rodata        0x000be860      0x7c3 ../ulib/libuserxe.a(libuserxe_a-ucalc2.o)
 *fill*         0x000bf023        0x1 
 .rodata        0x000bf024       0xed ../ulib/libuserxe.a(libuserxe_a-uedit.o)
 *fill*         0x000bf111        0x3 
 .rodata        0x000bf114      0x30d ../ulib/libuserxe.a(libuserxe_a-uerr.o)
 *fill*         0x000bf421        0x3 
 .rodata        0x000bf424      0x8b9 ../ulib/libuserxe.a(libuserxe_a-ufemsg.o)
 *fill*         0x000bfcdd        0x3 
 .rodata        0x000bfce0      0x113 ../ulib/libuserxe.a(libuserxe_a-ufile.o)
 *fill*         0x000bfdf3        0x1 
 .rodata        0x000bfdf4      0x12b ../ulib/libuserxe.a(libuserxe_a-ufile1f.o)
 *fill*         0x000bff1f        0x1 
 .rodata        0x000bff20      0x6a3 ../ulib/libuserxe.a(libuserxe_a-ufile1l.o)
 *fill*         0x000c05c3        0x1 
 .rodata        0x000c05c4      0x10f ../ulib/libuserxe.a(libuserxe_a-ufile1l2.o)
 *fill*         0x000c06d3        0x1 
 .rodata        0x000c06d4      0x7e4 ../ulib/libuserxe.a(libuserxe_a-ufile2.o)
 .rodata        0x000c0eb8      0x357 ../ulib/libuserxe.a(libuserxe_a-ufile2f.o)
 *fill*         0x000c120f        0x1 
 .rodata        0x000c1210       0xf6 ../ulib/libuserxe.a(libuserxe_a-ufile2l.o)
 *fill*         0x000c1306        0x2 
 .rodata        0x000c1308       0xfc ../ulib/libuserxe.a(libuserxe_a-ufile2l2.o)
 .rodata        0x000c1404      0x4da ../ulib/libuserxe.a(libuserxe_a-ufile3.o)
 *fill*         0x000c18de        0x2 
 .rodata        0x000c18e0      0x476 ../ulib/libuserxe.a(libuserxe_a-ufile3f.o)
 *fill*         0x000c1d56        0x2 
 .rodata        0x000c1d58      0x234 ../ulib/libuserxe.a(libuserxe_a-ufile4.o)
 .rodata        0x000c1f8c      0x1a6 ../ulib/libuserxe.a(libuserxe_a-ufile5.o)
 *fill*         0x000c2132        0x2 
 .rodata        0x000c2134      0x619 ../ulib/libuserxe.a(libuserxe_a-uftp.o)
 *fill*         0x000c274d        0x3 
 .rodata        0x000c2750      0x45c ../ulib/libuserxe.a(libuserxe_a-uftp2.o)
 .rodata        0x000c2bac      0x512 ../ulib/libuserxe.a(libuserxe_a-uftp3.o)
 *fill*         0x000c30be        0x2 
 .rodata        0x000c30c0        0xb ../ulib/libuserxe.a(libuserxe_a-ugcclib.o)
 *fill*         0x000c30cb        0x1 
 .rodata        0x000c30cc       0xef ../ulib/libuserxe.a(libuserxe_a-ukbdl.o)
 *fill*         0x000c31bb        0x1 
 .rodata        0x000c31bc      0xf2a ../ulib/libuserxe.a(libuserxe_a-ukbdlnxc.o)
 *fill*         0x000c40e6        0x2 
 .rodata        0x000c40e8       0x2d ../ulib/libuserxe.a(libuserxe_a-uparse.o)
 *fill*         0x000c4115        0x3 
 .rodata        0x000c4118      0x4fd ../ulib/libuserxe.a(libuserxe_a-uproc.o)
 *fill*         0x000c4615        0x3 
 .rodata        0x000c4618      0x168 ../ulib/libuserxe.a(libuserxe_a-uproc2.o)
 .rodata        0x000c4780      0x341 ../ulib/libuserxe.a(libuserxe_a-uproc4.o)
 *fill*         0x000c4ac1        0x3 
 .rodata        0x000c4ac4      0x384 ../ulib/libuserxe.a(libuserxe_a-uque.o)
 .rodata        0x000c4e48       0x7e ../ulib/libuserxe.a(libuserxe_a-ustrcpy.o)
 *fill*         0x000c4ec6        0x2 
 .rodata        0x000c4ec8        0x4 ../ulib/libuserxe.a(libuserxe_a-ustring.o)
 .rodata        0x000c4ecc      0x1cc ../ulib/libuserxe.a(libuserxe_a-utf2.o)
 .rodata        0x000c5098      0x325 ../ulib/libuserxe.a(libuserxe_a-utf22.o)
 *fill*         0x000c53bd        0x3 
 .rodata        0x000c53c0      0x133 ../ulib/libuserxe.a(libuserxe_a-utf3.o)
 *fill*         0x000c54f3        0x1 
 .rodata        0x000c54f4     0x19d0 ../ulib/libuserxe.a(libuserxe_a-utf4.o)
 .rodata        0x000c6ec4      0x161 ../ulib/libuserxe.a(libuserxe_a-utrace.o)
 *fill*         0x000c7025        0x3 
 .rodata        0x000c7028       0x98 ../ulib/libuserxe.a(libuserxe_a-uunxsub.o)
 .rodata        0x000c70c0       0x7a ../ulib/libuserxe.a(libuserxe_a-uviol.o)
 *fill*         0x000c713a        0x2 
 .rodata        0x000c713c      0x161 ../ulib/libuserxe.a(libuserxe_a-u3270.o)
 *fill*         0x000c729d        0x3 
 .rodata        0x000c72a0      0x1ad ../ulib/libuserxe.a(libuserxe_a-u32702.o)
 *fill*         0x000c744d        0x3 
 .rodata        0x000c7450      0x395 ../ulib/libuserxe.a(libuserxe_a-u32703.o)
 *fill*         0x000c77e5        0x3 
 .rodata        0x000c77e8       0x30 ../ulib/libuserxe.a(libuserxe_a-uabend.o)
 .rodata        0x000c7818      0x4ad ../ulib/libuserxe.a(libuserxe_a-ucalc.o)
 *fill*         0x000c7cc5        0x3 
 .rodata        0x000c7cc8      0x88e ../ulib/libuserxe.a(libuserxe_a-ucvebc.o)
 *fill*         0x000c8556        0x2 
 .rodata        0x000c8558      0x221 ../ulib/libuserxe.a(libuserxe_a-ucvebc2.o)
 *fill*         0x000c8779        0x3 
 .rodata        0x000c877c      0x8e8 ../ulib/libuserxe.a(libuserxe_a-ucvext.o)
 .rodata        0x000c9064       0xca ../ulib/libuserxe.a(libuserxe_a-ucvext12.o)
 *fill*         0x000c912e        0x2 
 .rodata        0x000c9130      0x172 ../ulib/libuserxe.a(libuserxe_a-ucvext2.o)
 *fill*         0x000c92a2        0x2 
 .rodata        0x000c92a4       0xa2 ../ulib/libuserxe.a(libuserxe_a-ucvucs.o)
 *fill*         0x000c9346        0x2 
 .rodata        0x000c9348      0x10c ../ulib/libuserxe.a(libuserxe_a-udbcschk.o)
 .rodata        0x000c9454        0xc ../ulib/libuserxe.a(libuserxe_a-udbcsck2.o)
 .rodata        0x000c9460       0x47 ../ulib/libuserxe.a(libuserxe_a-udos2.o)
 *fill*         0x000c94a7        0x1 
 .rodata        0x000c94a8       0xbd ../ulib/libuserxe.a(libuserxe_a-uedit2.o)
 *fill*         0x000c9565        0x3 
 .rodata        0x000c9568       0x33 ../ulib/libuserxe.a(libuserxe_a-uehl.o)
 *fill*         0x000c959b        0x1 
 .rodata        0x000c959c       0x66 ../ulib/libuserxe.a(libuserxe_a-uproc22.o)
 *fill*         0x000c9602        0x2 
 .rodata        0x000c9604      0x410 ../ulib/libuserxe.a(libuserxe_a-uproc3.o)
 .rodata        0x000c9a14        0x2 ../ulib/libuserxe.a(libuserxe_a-uviom.o)
 *fill*         0x000c9a16        0x2 
 .rodata        0x000c9a18       0x8f ../ulib/libuserxe.a(libuserxe_a-ucvebc3.o)
 *fill*         0x000c9aa7        0x1 
 .rodata        0x000c9aa8       0xac ../ulib/libuserxe.a(libuserxe_a-ucvebc4.o)

.rodata1
 *(.rodata1)

.ARM.extab      0x000c9b54        0x0
 *(.ARM.extab* .gnu.linkonce.armextab.*)
 .ARM.extab     0x000c9b54        0x0 /usr/lib/gcc/arm-linux-gnueabihf/8/../../../arm-linux-gnueabihf/crt1.o
 .ARM.extab     0x000c9b54        0x0 /usr/lib/gcc/arm-linux-gnueabihf/8/libgcc.a(_udivmoddi4.o)
                [!provide]                PROVIDE (__exidx_start = .)

.ARM.exidx      0x000c9b54        0x8
 *(.ARM.exidx* .gnu.linkonce.armexidx.*)
 .ARM.exidx     0x000c9b54        0x8 /usr/lib/gcc/arm-linux-gnueabihf/8/../../../arm-linux-gnueabihf/crt1.o
 .ARM.exidx     0x000c9b5c        0x0 /usr/lib/gcc/arm-linux-gnueabihf/8/libgcc.a(_udivmoddi4.o)
                                  0x8 (size before relaxing)
                [!provide]                PROVIDE (__exidx_end = .)

.eh_frame_hdr
 *(.eh_frame_hdr)
 *(.eh_frame_entry .eh_frame_entry.*)

.eh_frame       0x000c9b5c        0x4
 *(.eh_frame)
 .eh_frame      0x000c9b5c        0x4 /usr/lib/gcc/arm-linux-gnueabihf/8/crtend.o
 *(.eh_frame.*)

.gcc_except_table
 *(.gcc_except_table .gcc_except_table.*)

.gnu_extab
 *(.gnu_extab*)

.exception_ranges
 *(.exception_ranges .exception_ranges*)
                0x000d9e08                . = DATA_SEGMENT_ALIGN (CONSTANT (MAXPAGESIZE), CONSTANT (COMMONPAGESIZE))

.eh_frame
 *(.eh_frame)
 *(.eh_frame.*)

.gnu_extab
 *(.gnu_extab)

.gcc_except_table
 *(.gcc_except_table .gcc_except_table.*)

.exception_ranges
 *(.exception_ranges .exception_ranges*)

.tdata          0x000d9e08        0x0
                [!provide]                PROVIDE (__tdata_start = .)
 *(.tdata .tdata.* .gnu.linkonce.td.*)

.tbss
 *(.tbss .tbss.* .gnu.linkonce.tb.*)
 *(.tcommon)

.preinit_array  0x000d9e08        0x0
                [!provide]                PROVIDE (__preinit_array_start = .)
 *(.preinit_array)
                [!provide]                PROVIDE (__preinit_array_end = .)

.init_array     0x000d9e08        0x4
                0x000d9e08                PROVIDE (__init_array_start = .)
 *(SORT_BY_INIT_PRIORITY(.init_array.*) SORT_BY_INIT_PRIORITY(.ctors.*))
 *(.init_array EXCLUDE_FILE(*crtend?.o *crtend.o *crtbegin?.o *crtbegin.o) .ctors)
 .init_array    0x000d9e08        0x4 /usr/lib/gcc/arm-linux-gnueabihf/8/crtbegin.o
                0x000d9e0c                PROVIDE (__init_array_end = .)

.fini_array     0x000d9e0c        0x4
                [!provide]                PROVIDE (__fini_array_start = .)
 *(SORT_BY_INIT_PRIORITY(.fini_array.*) SORT_BY_INIT_PRIORITY(.dtors.*))
 *(.fini_array EXCLUDE_FILE(*crtend?.o *crtend.o *crtbegin?.o *crtbegin.o) .dtors)
 .fini_array    0x000d9e0c        0x4 /usr/lib/gcc/arm-linux-gnueabihf/8/crtbegin.o
                [!provide]                PROVIDE (__fini_array_end = .)

.ctors
 *crtbegin.o(.ctors)
 *crtbegin?.o(.ctors)
 *(EXCLUDE_FILE(*crtend?.o *crtend.o) .ctors)
 *(SORT_BY_NAME(.ctors.*))
 *(.ctors)

.dtors
 *crtbegin.o(.dtors)
 *crtbegin?.o(.dtors)
 *(EXCLUDE_FILE(*crtend?.o *crtend.o) .dtors)
 *(SORT_BY_NAME(.dtors.*))
 *(.dtors)

.jcr
 *(.jcr)

.data.rel.ro    0x000d9e10        0x0
 *(.data.rel.ro.local* .gnu.linkonce.d.rel.ro.local.*)
 *(.data.rel.ro .data.rel.ro.* .gnu.linkonce.d.rel.ro.*)
 .data.rel.ro   0x000d9e10        0x0 /usr/lib/gcc/arm-linux-gnueabihf/8/../../../arm-linux-gnueabihf/crt1.o

.dynamic        0x000d9e10      0x1f0
 *(.dynamic)
 .dynamic       0x000d9e10      0x1f0 /usr/lib/gcc/arm-linux-gnueabihf/8/../../../arm-linux-gnueabihf/crt1.o
                0x000d9e10                _DYNAMIC
                0x000da000                . = DATA_SEGMENT_RELRO_END (., 0x0)

.got            0x000da000      0x2e0
 *(.got.plt)
 .got.plt       0x000da000      0x2dc /usr/lib/gcc/arm-linux-gnueabihf/8/../../../arm-linux-gnueabihf/crt1.o
                0x000da000                _GLOBAL_OFFSET_TABLE_
 *(.igot.plt)
 .igot.plt      0x000da2dc        0x0 /usr/lib/gcc/arm-linux-gnueabihf/8/../../../arm-linux-gnueabihf/crt1.o
 *(.got)
 .got           0x000da2dc        0x4 /usr/lib/gcc/arm-linux-gnueabihf/8/../../../arm-linux-gnueabihf/crt1.o
 *(.igot)

.data           0x000da2e0    0x27648
                [!provide]                PROVIDE (__data_start = .)
 *(.data .data.* .gnu.linkonce.d.*)
 .data          0x000da2e0        0x4 /usr/lib/gcc/arm-linux-gnueabihf/8/../../../arm-linux-gnueabihf/crt1.o
                0x000da2e0                __data_start
                0x000da2e0                data_start
 .data          0x000da2e4        0x0 /usr/lib/gcc/arm-linux-gnueabihf/8/../../../arm-linux-gnueabihf/crti.o
 .data          0x000da2e4        0x4 /usr/lib/gcc/arm-linux-gnueabihf/8/crtbegin.o
                0x000da2e4                __dso_handle
 .data          0x000da2e8        0xc xds.o
 .data          0x000da2f4     0x1000 ../ulib/libuserxe.a(libuserxe_a-uallocl.o)
 .data          0x000db2f4      0x24c ../ulib/libuserxe.a(libuserxe_a-ucalc2.o)
 .data          0x000db540        0x0 ../ulib/libuserxe.a(libuserxe_a-uedit.o)
 .data          0x000db540        0xd ../ulib/libuserxe.a(libuserxe_a-uerr.o)
 .data          0x000db54d        0x0 ../ulib/libuserxe.a(libuserxe_a-ufemsg.o)
 *fill*         0x000db54d        0x3 
 .data          0x000db550        0xc ../ulib/libuserxe.a(libuserxe_a-ufile.o)
 .data          0x000db55c        0x0 ../ulib/libuserxe.a(libuserxe_a-ufile1f.o)
 .data          0x000db55c        0x0 ../ulib/libuserxe.a(libuserxe_a-ufile1l.o)
 .data          0x000db55c       0x2c ../ulib/libuserxe.a(libuserxe_a-ufile1l2.o)
 .data          0x000db588        0x0 ../ulib/libuserxe.a(libuserxe_a-ufile2.o)
 .data          0x000db588        0x0 ../ulib/libuserxe.a(libuserxe_a-ufile2f.o)
 .data          0x000db588        0x0 ../ulib/libuserxe.a(libuserxe_a-ufile2l.o)
 .data          0x000db588        0x0 ../ulib/libuserxe.a(libuserxe_a-ufile2l2.o)
 .data          0x000db588        0x0 ../ulib/libuserxe.a(libuserxe_a-ufile3.o)
 .data          0x000db588        0x0 ../ulib/libuserxe.a(libuserxe_a-ufile3f.o)
 .data          0x000db588        0x0 ../ulib/libuserxe.a(libuserxe_a-ufile4.o)
 .data          0x000db588        0x0 ../ulib/libuserxe.a(libuserxe_a-ufile5.o)
 .data          0x000db588       0x10 ../ulib/libuserxe.a(libuserxe_a-uftp.o)
 .data          0x000db598       0x50 ../ulib/libuserxe.a(libuserxe_a-uftp2.o)
 .data          0x000db5e8        0x4 ../ulib/libuserxe.a(libuserxe_a-uftp3.o)
 .data          0x000db5ec        0x0 ../ulib/libuserxe.a(libuserxe_a-ugcclib.o)
 .data          0x000db5ec        0x0 ../ulib/libuserxe.a(libuserxe_a-ukbdl.o)
 .data          0x000db5ec     0xb6bc ../ulib/libuserxe.a(libuserxe_a-ukbdlnxc.o)
 .data          0x000e6ca8       0x10 ../ulib/libuserxe.a(libuserxe_a-ukbdlnxm.o)
 .data          0x000e6cb8        0x0 ../ulib/libuserxe.a(libuserxe_a-uparse.o)
 .data          0x000e6cb8       0x20 ../ulib/libuserxe.a(libuserxe_a-uproc.o)
 .data          0x000e6cd8        0x0 ../ulib/libuserxe.a(libuserxe_a-uproc2.o)
 .data          0x000e6cd8        0x0 ../ulib/libuserxe.a(libuserxe_a-uproc4.o)
 .data          0x000e6cd8        0x0 ../ulib/libuserxe.a(libuserxe_a-uque.o)
 .data          0x000e6cd8        0x0 ../ulib/libuserxe.a(libuserxe_a-ustrcpy.o)
 .data          0x000e6cd8       0xfb ../ulib/libuserxe.a(libuserxe_a-ustring.o)
 .data          0x000e6dd3        0x0 ../ulib/libuserxe.a(libuserxe_a-utf.o)
 .data          0x000e6dd3        0x0 ../ulib/libuserxe.a(libuserxe_a-utf2.o)
 *fill*         0x000e6dd3        0x1 
 .data          0x000e6dd4      0x164 ../ulib/libuserxe.a(libuserxe_a-utf22.o)
 .data          0x000e6f38      0xe98 ../ulib/libuserxe.a(libuserxe_a-utf3.o)
 .data          0x000e7dd0        0x0 ../ulib/libuserxe.a(libuserxe_a-utf4.o)
 .data          0x000e7dd0     0x1928 ../ulib/libuserxe.a(libuserxe_a-utrace.o)
 .data          0x000e96f8        0x0 ../ulib/libuserxe.a(libuserxe_a-uunxsub.o)
 .data          0x000e96f8        0xc ../ulib/libuserxe.a(libuserxe_a-uviol.o)
 .data          0x000e9704        0x4 ../ulib/libuserxe.a(libuserxe_a-u3270.o)
 .data          0x000e9708        0x0 ../ulib/libuserxe.a(libuserxe_a-u32702.o)
 .data          0x000e9708        0x0 ../ulib/libuserxe.a(libuserxe_a-u32703.o)
 .data          0x000e9708        0x0 ../ulib/libuserxe.a(libuserxe_a-uabend.o)
 .data          0x000e9708       0x54 ../ulib/libuserxe.a(libuserxe_a-ucalc.o)
 .data          0x000e975c      0x248 ../ulib/libuserxe.a(libuserxe_a-ucvebc.o)
 .data          0x000e99a4        0x0 ../ulib/libuserxe.a(libuserxe_a-ucvebc2.o)
 .data          0x000e99a4     0xed30 ../ulib/libuserxe.a(libuserxe_a-ucvebct.o)
 .data          0x000f86d4      0x316 ../ulib/libuserxe.a(libuserxe_a-ucvext.o)
 .data          0x000f89ea        0x6 ../ulib/libuserxe.a(libuserxe_a-ucvext12.o)
 .data          0x000f89f0        0x0 ../ulib/libuserxe.a(libuserxe_a-ucvext2.o)
 .data          0x000f89f0       0x28 ../ulib/libuserxe.a(libuserxe_a-ucvucs.o)
 .data          0x000f8a18     0x7cb0 ../ulib/libuserxe.a(libuserxe_a-ucvucst.o)
                0x000f8a18                Scp932tb
 .data          0x001006c8        0x8 ../ulib/libuserxe.a(libuserxe_a-udbcschk.o)
                0x001006c8                Gpdbcstbl
 .data          0x001006d0     0x1148 ../ulib/libuserxe.a(libuserxe_a-udbcsck2.o)
 .data          0x00101818        0x0 ../ulib/libuserxe.a(libuserxe_a-udos2.o)
 .data          0x00101818       0x78 ../ulib/libuserxe.a(libuserxe_a-uedit2.o)
 .data          0x00101890       0x38 ../ulib/libuserxe.a(libuserxe_a-uehl.o)
 .data          0x001018c8        0x0 ../ulib/libuserxe.a(libuserxe_a-uproc22.o)
 .data          0x001018c8       0x54 ../ulib/libuserxe.a(libuserxe_a-uproc3.o)
 .data          0x0010191c        0x4 ../ulib/libuserxe.a(libuserxe_a-uviom.o)
                0x0010191c                Guviomdbcspad
 .data          0x00101920        0x8 ../ulib/libuserxe.a(libuserxe_a-ucvebc3.o)
 .data          0x00101928        0x0 ../ulib/libuserxe.a(libuserxe_a-ucvebc4.o)
 .data          0x00101928        0x0 /usr/lib/gcc/arm-linux-gnueabihf/8/libgcc.a(_divsi3.o)
 .data          0x00101928        0x0 /usr/lib/gcc/arm-linux-gnueabihf/8/libgcc.a(_aeabi_ldivmod.o)
 .data          0x00101928        0x0 /usr/lib/gcc/arm-linux-gnueabihf/8/libgcc.a(_dvmd_lnx.o)
 .data          0x00101928        0x0 /usr/lib/gcc/arm-linux-gnueabihf/8/libgcc.a(_udivmoddi4.o)
 .data          0x00101928        0x0 //usr/lib/arm-linux-gnueabihf/libc_nonshared.a(elf-init.oS)
 .data          0x00101928        0x0 //usr/lib/arm-linux-gnueabihf/libc_nonshared.a(stat64.oS)
 .data          0x00101928        0x0 //usr/lib/arm-linux-gnueabihf/libc_nonshared.a(lstat64.oS)
 .data          0x00101928        0x0 /usr/lib/gcc/arm-linux-gnueabihf/8/crtend.o
 .data          0x00101928        0x0 /usr/lib/gcc/arm-linux-gnueabihf/8/../../../arm-linux-gnueabihf/crtn.o

.tm_clone_table
                0x00101928        0x0
 .tm_clone_table
                0x00101928        0x0 /usr/lib/gcc/arm-linux-gnueabihf/8/crtbegin.o
 .tm_clone_table
                0x00101928        0x0 /usr/lib/gcc/arm-linux-gnueabihf/8/crtend.o

.data1
 *(.data1)
                0x00101928                _edata = .
                [!provide]                PROVIDE (edata = .)
                0x00101928                . = .
                0x00101928                __bss_start = .
                0x00101928                __bss_start__ = .

.bss            0x00101928   0x1489e8
 *(.dynbss)
 .dynbss        0x00101928      0x230 /usr/lib/gcc/arm-linux-gnueabihf/8/../../../arm-linux-gnueabihf/crt1.o
                0x00101928                COLORS@@NCURSESW6_5.1.20000708
                0x0010192c                LINES@@NCURSES6_TINFO_5.0.19991023
                0x00101930                acs_map@@NCURSES6_TINFO_5.0.19991023
                0x00101b30                stdscr@@NCURSES6_TINFO_5.0.19991023
                0x00101b34                cur_term@@NCURSES6_TINFO_5.0.19991023
                0x00101b38                COLS@@NCURSES6_TINFO_5.0.19991023
                0x00101b3c                stdout@@GLIBC_2.4
                0x00101b40                COLOR_PAIRS@@NCURSESW6_5.1.20000708
                0x00101b48                stdin@@GLIBC_2.4
                0x00101b50                stderr@@GLIBC_2.4
                0x00101b54                newscr@@NCURSES6_TINFO_5.0.19991023
 *(.bss .bss.* .gnu.linkonce.b.*)
 .bss           0x00101b58        0x0 /usr/lib/gcc/arm-linux-gnueabihf/8/../../../arm-linux-gnueabihf/crt1.o
 .bss           0x00101b58        0x0 /usr/lib/gcc/arm-linux-gnueabihf/8/../../../arm-linux-gnueabihf/crti.o
 .bss           0x00101b58        0x1 /usr/lib/gcc/arm-linux-gnueabihf/8/crtbegin.o
 *fill*         0x00101b59        0x3 
 .bss           0x00101b5c     0x403c xds.o
 .bss           0x00105b98       0x84 ../ulib/libuserxe.a(libuserxe_a-uallocl.o)
 .bss           0x00105c1c        0x0 ../ulib/libuserxe.a(libuserxe_a-ucalc2.o)
 .bss           0x00105c1c       0xd8 ../ulib/libuserxe.a(libuserxe_a-uedit.o)
 .bss           0x00105cf4     0x40e4 ../ulib/libuserxe.a(libuserxe_a-uerr.o)
 .bss           0x00109dd8       0x20 ../ulib/libuserxe.a(libuserxe_a-ufemsg.o)
 .bss           0x00109df8       0x18 ../ulib/libuserxe.a(libuserxe_a-ufile.o)
 .bss           0x00109e10        0x4 ../ulib/libuserxe.a(libuserxe_a-ufile1f.o)
 .bss           0x00109e14    0x64658 ../ulib/libuserxe.a(libuserxe_a-ufile1l.o)
 .bss           0x0016e46c        0x4 ../ulib/libuserxe.a(libuserxe_a-ufile1l2.o)
 .bss           0x0016e470       0x34 ../ulib/libuserxe.a(libuserxe_a-ufile2.o)
 .bss           0x0016e4a4       0x20 ../ulib/libuserxe.a(libuserxe_a-ufile2f.o)
 .bss           0x0016e4c4        0x4 ../ulib/libuserxe.a(libuserxe_a-ufile2l.o)
 .bss           0x0016e4c8        0x0 ../ulib/libuserxe.a(libuserxe_a-ufile2l2.o)
 .bss           0x0016e4c8        0x8 ../ulib/libuserxe.a(libuserxe_a-ufile3.o)
 .bss           0x0016e4d0     0x100d ../ulib/libuserxe.a(libuserxe_a-ufile3f.o)
 *fill*         0x0016f4dd        0x3 
 .bss           0x0016f4e0     0x1034 ../ulib/libuserxe.a(libuserxe_a-ufile4.o)
 *fill*         0x00170514        0x4 
 .bss           0x00170518       0x5d ../ulib/libuserxe.a(libuserxe_a-ufile5.o)
 *fill*         0x00170575        0x3 
 .bss           0x00170578    0x64d00 ../ulib/libuserxe.a(libuserxe_a-uftp.o)
 .bss           0x001d5278        0x8 ../ulib/libuserxe.a(libuserxe_a-uftp2.o)
 .bss           0x001d5280        0x0 ../ulib/libuserxe.a(libuserxe_a-uftp3.o)
 .bss           0x001d5280        0x4 ../ulib/libuserxe.a(libuserxe_a-ugcclib.o)
 .bss           0x001d5284       0xf4 ../ulib/libuserxe.a(libuserxe_a-ukbdl.o)
                0x001d5284                Swcstat
 .bss           0x001d5378     0x5808 ../ulib/libuserxe.a(libuserxe_a-ukbdlnxc.o)
 .bss           0x001dab80        0x8 ../ulib/libuserxe.a(libuserxe_a-ukbdlnxm.o)
 .bss           0x001dab88      0x205 ../ulib/libuserxe.a(libuserxe_a-uparse.o)
 *fill*         0x001dad8d        0x3 
 .bss           0x001dad90       0x1c ../ulib/libuserxe.a(libuserxe_a-uproc.o)
                0x001dad90                Sserverstat
                0x001dad94                Scmdservercallback
                0x001dad98                Scallbackparm
                0x001dad9c                Scmdserverchildpid
 .bss           0x001dadac        0x4 ../ulib/libuserxe.a(libuserxe_a-uproc2.o)
 .bss           0x001dadb0       0x1c ../ulib/libuserxe.a(libuserxe_a-uproc4.o)
 .bss           0x001dadcc        0x0 ../ulib/libuserxe.a(libuserxe_a-uque.o)
 .bss           0x001dadcc        0x0 ../ulib/libuserxe.a(libuserxe_a-ustrcpy.o)
 .bss           0x001dadcc        0x0 ../ulib/libuserxe.a(libuserxe_a-ustring.o)
 .bss           0x001dadcc        0x0 ../ulib/libuserxe.a(libuserxe_a-utf.o)
 .bss           0x001dadcc       0x98 ../ulib/libuserxe.a(libuserxe_a-utf2.o)
 .bss           0x001dae64       0x14 ../ulib/libuserxe.a(libuserxe_a-utf22.o)
 .bss           0x001dae78        0x8 ../ulib/libuserxe.a(libuserxe_a-utf3.o)
 .bss           0x001dae80        0x4 ../ulib/libuserxe.a(libuserxe_a-utf4.o)
 .bss           0x001dae84     0x1170 ../ulib/libuserxe.a(libuserxe_a-utrace.o)
 .bss           0x001dbff4       0x20 ../ulib/libuserxe.a(libuserxe_a-uunxsub.o)
 .bss           0x001dc014      0x508 ../ulib/libuserxe.a(libuserxe_a-uviol.o)
 .bss           0x001dc51c        0xc ../ulib/libuserxe.a(libuserxe_a-u3270.o)
 .bss           0x001dc528       0x10 ../ulib/libuserxe.a(libuserxe_a-u32702.o)
 .bss           0x001dc538     0x1208 ../ulib/libuserxe.a(libuserxe_a-u32703.o)
 .bss           0x001dd740        0x0 ../ulib/libuserxe.a(libuserxe_a-uabend.o)
 .bss           0x001dd740      0x114 ../ulib/libuserxe.a(libuserxe_a-ucalc.o)
 .bss           0x001dd854      0x790 ../ulib/libuserxe.a(libuserxe_a-ucvebc.o)
 .bss           0x001ddfe4       0x10 ../ulib/libuserxe.a(libuserxe_a-ucvebc2.o)
 .bss           0x001ddff4        0x0 ../ulib/libuserxe.a(libuserxe_a-ucvebct.o)
 .bss           0x001ddff4     0x1cd4 ../ulib/libuserxe.a(libuserxe_a-ucvext.o)
 .bss           0x001dfcc8       0x24 ../ulib/libuserxe.a(libuserxe_a-ucvext12.o)
 .bss           0x001dfcec        0xc ../ulib/libuserxe.a(libuserxe_a-ucvext2.o)
 .bss           0x001dfcf8        0xc ../ulib/libuserxe.a(libuserxe_a-ucvucs.o)
 .bss           0x001dfd04        0x0 ../ulib/libuserxe.a(libuserxe_a-ucvucst.o)
 .bss           0x001dfd04      0x2f9 ../ulib/libuserxe.a(libuserxe_a-udbcschk.o)
 .bss           0x001dfffd        0x0 ../ulib/libuserxe.a(libuserxe_a-udbcsck2.o)
 .bss           0x001dfffd        0x0 ../ulib/libuserxe.a(libuserxe_a-udos2.o)
 *fill*         0x001dfffd        0x3 
 .bss           0x001e0000      0x268 ../ulib/libuserxe.a(libuserxe_a-uedit2.o)
 .bss           0x001e0268       0x64 ../ulib/libuserxe.a(libuserxe_a-uehl.o)
 .bss           0x001e02cc       0x18 ../ulib/libuserxe.a(libuserxe_a-uproc22.o)
 .bss           0x001e02e4       0x10 ../ulib/libuserxe.a(libuserxe_a-uproc3.o)
 .bss           0x001e02f4       0x58 ../ulib/libuserxe.a(libuserxe_a-uviom.o)
 .bss           0x001e034c       0x34 ../ulib/libuserxe.a(libuserxe_a-ucvebc3.o)
 .bss           0x001e0380        0x4 ../ulib/libuserxe.a(libuserxe_a-ucvebc4.o)
 .bss           0x001e0384        0x0 /usr/lib/gcc/arm-linux-gnueabihf/8/libgcc.a(_divsi3.o)
 .bss           0x001e0384        0x0 /usr/lib/gcc/arm-linux-gnueabihf/8/libgcc.a(_aeabi_ldivmod.o)
 .bss           0x001e0384        0x0 /usr/lib/gcc/arm-linux-gnueabihf/8/libgcc.a(_dvmd_lnx.o)
 .bss           0x001e0384        0x0 /usr/lib/gcc/arm-linux-gnueabihf/8/libgcc.a(_udivmoddi4.o)
 .bss           0x001e0384        0x0 //usr/lib/arm-linux-gnueabihf/libc_nonshared.a(elf-init.oS)
 .bss           0x001e0384        0x0 //usr/lib/arm-linux-gnueabihf/libc_nonshared.a(stat64.oS)
 .bss           0x001e0384        0x0 //usr/lib/arm-linux-gnueabihf/libc_nonshared.a(lstat64.oS)
 .bss           0x001e0384        0x0 /usr/lib/gcc/arm-linux-gnueabihf/8/crtend.o
 .bss           0x001e0384        0x0 /usr/lib/gcc/arm-linux-gnueabihf/8/../../../arm-linux-gnueabihf/crtn.o
 *(COMMON)
 COMMON         0x001e0384        0x8 ../ulib/libuserxe.a(libuserxe_a-uallocl.o)
                0x001e0384                Gualloc_amount
                0x001e0388                Gualloc16_amount
 COMMON         0x001e038c        0x5 ../ulib/libuserxe.a(libuserxe_a-uerr.o)
                0x001e038c                Guerropt2
                0x001e0390                Guerropt
 *fill*         0x001e0391        0x3 
 COMMON         0x001e0394        0x8 ../ulib/libuserxe.a(libuserxe_a-ufile.o)
                0x001e0394                Gufile_opt
                0x001e0398                Gufile_nomsg
 COMMON         0x001e039c       0x88 ../ulib/libuserxe.a(libuserxe_a-uftp2.o)
                0x001e039c                Gftperr
                0x001e03a0                Gftpopt
                0x001e03a4                Gftpclient
 COMMON         0x001e0424        0x8 ../ulib/libuserxe.a(libuserxe_a-ukbdl.o)
                0x001e0424                Sphiconv
                0x001e0428                Gukbdl_flag
 COMMON         0x001e042c        0x8 ../ulib/libuserxe.a(libuserxe_a-uproc.o)
                0x001e042c                Sfdpiper
                0x001e0430                Sfdpipew
 COMMON         0x001e0434        0xc ../ulib/libuserxe.a(libuserxe_a-utf.o)
                0x001e0434                Gulibutfmode
                0x001e0438                Gutfrc
                0x001e043c                Gutfcombaltch
 COMMON         0x001e0440    0x60000 ../ulib/libuserxe.a(libuserxe_a-utf22.o)
                0x001e0440                Gucs2ddmap_i2u
                0x00200440                Gucs2ddmap
 COMMON         0x00240440      0x104 ../ulib/libuserxe.a(libuserxe_a-utrace.o)
                0x00240440                Gtracehdr
                0x00240540                Slockhandle
 COMMON         0x00240544        0x4 ../ulib/libuserxe.a(libuserxe_a-uviol.o)
                0x00240544                Guviol_flag
 COMMON         0x00240548      0x140 ../ulib/libuserxe.a(libuserxe_a-ucalc.o)
                0x00240548                Gucalc_result
 COMMON         0x00240688     0x9c48 ../ulib/libuserxe.a(libuserxe_a-ucvebc.o)
                0x00240688                Gucvebchctr
                0x0024068c                Gucvebch
                0x0024a2cc                Gucvebc_stat
 COMMON         0x0024a2d0       0x10 ../ulib/libuserxe.a(libuserxe_a-ucvebc2.o)
                0x0024a2d0                Snewoldctr
                0x0024a2d4                Se2stctr
                0x0024a2d8                Sduptctr
                0x0024a2dc                Ss2etctr
 COMMON         0x0024a2e0        0xc ../ulib/libuserxe.a(libuserxe_a-udbcschk.o)
                0x0024a2e0                Gudbcschk_flag
                0x0024a2e4                Gudbcschk_width0top
                0x0024a2e8                Sdbcschk_hkopt
 COMMON         0x0024a2ec       0x24 ../ulib/libuserxe.a(libuserxe_a-uviom.o)
                0x0024a2ec                Guviombuffu
                0x0024a2f0                Guviomopt
                0x0024a2f4                Guviomoptstr
                0x0024a2f8                Guviomopt2
                0x0024a2fc                Gw95buffopt
                0x0024a300                Guviomoptstrucs
                0x0024a310                . = ALIGN ((. != 0x0)?0x4:0x1)
                0x0024a310                _bss_end__ = .
                0x0024a310                __bss_end__ = .
                0x0024a310                . = ALIGN (0x4)
                0x0024a310                . = SEGMENT_START ("ldata-segment", .)
                0x0024a310                . = ALIGN (0x4)
                0x0024a310                __end__ = .
                0x0024a310                _end = .
                [!provide]                PROVIDE (end = .)
                0x0024a310                . = DATA_SEGMENT_END (.)

.stab
 *(.stab)

.stabstr
 *(.stabstr)

.stab.excl
 *(.stab.excl)

.stab.exclstr
 *(.stab.exclstr)

.stab.index
 *(.stab.index)

.stab.indexstr
 *(.stab.indexstr)

.comment        0x00000000       0x23
 *(.comment)
 .comment       0x00000000       0x23 /usr/lib/gcc/arm-linux-gnueabihf/8/crtbegin.o
                                 0x24 (size before relaxing)
 .comment       0x00000023       0x24 xds.o
 .comment       0x00000023       0x24 ../ulib/libuserxe.a(libuserxe_a-uallocl.o)
 .comment       0x00000023       0x24 ../ulib/libuserxe.a(libuserxe_a-ucalc2.o)
 .comment       0x00000023       0x24 ../ulib/libuserxe.a(libuserxe_a-uedit.o)
 .comment       0x00000023       0x24 ../ulib/libuserxe.a(libuserxe_a-uerr.o)
 .comment       0x00000023       0x24 ../ulib/libuserxe.a(libuserxe_a-ufemsg.o)
 .comment       0x00000023       0x24 ../ulib/libuserxe.a(libuserxe_a-ufile.o)
 .comment       0x00000023       0x24 ../ulib/libuserxe.a(libuserxe_a-ufile1f.o)
 .comment       0x00000023       0x24 ../ulib/libuserxe.a(libuserxe_a-ufile1l.o)
 .comment       0x00000023       0x24 ../ulib/libuserxe.a(libuserxe_a-ufile1l2.o)
 .comment       0x00000023       0x24 ../ulib/libuserxe.a(libuserxe_a-ufile2.o)
 .comment       0x00000023       0x24 ../ulib/libuserxe.a(libuserxe_a-ufile2f.o)
 .comment       0x00000023       0x24 ../ulib/libuserxe.a(libuserxe_a-ufile2l.o)
 .comment       0x00000023       0x24 ../ulib/libuserxe.a(libuserxe_a-ufile2l2.o)
 .comment       0x00000023       0x24 ../ulib/libuserxe.a(libuserxe_a-ufile3.o)
 .comment       0x00000023       0x24 ../ulib/libuserxe.a(libuserxe_a-ufile3f.o)
 .comment       0x00000023       0x24 ../ulib/libuserxe.a(libuserxe_a-ufile4.o)
 .comment       0x00000023       0x24 ../ulib/libuserxe.a(libuserxe_a-ufile5.o)
 .comment       0x00000023       0x24 ../ulib/libuserxe.a(libuserxe_a-uftp.o)
 .comment       0x00000023       0x24 ../ulib/libuserxe.a(libuserxe_a-uftp2.o)
 .comment       0x00000023       0x24 ../ulib/libuserxe.a(libuserxe_a-uftp3.o)
 .comment       0x00000023       0x24 ../ulib/libuserxe.a(libuserxe_a-ugcclib.o)
 .comment       0x00000023       0x24 ../ulib/libuserxe.a(libuserxe_a-ukbdl.o)
 .comment       0x00000023       0x24 ../ulib/libuserxe.a(libuserxe_a-ukbdlnxc.o)
 .comment       0x00000023       0x24 ../ulib/libuserxe.a(libuserxe_a-ukbdlnxm.o)
 .comment       0x00000023       0x24 ../ulib/libuserxe.a(libuserxe_a-uparse.o)
 .comment       0x00000023       0x24 ../ulib/libuserxe.a(libuserxe_a-uproc.o)
 .comment       0x00000023       0x24 ../ulib/libuserxe.a(libuserxe_a-uproc2.o)
 .comment       0x00000023       0x24 ../ulib/libuserxe.a(libuserxe_a-uproc4.o)
 .comment       0x00000023       0x24 ../ulib/libuserxe.a(libuserxe_a-uque.o)
 .comment       0x00000023       0x24 ../ulib/libuserxe.a(libuserxe_a-ustrcpy.o)
 .comment       0x00000023       0x24 ../ulib/libuserxe.a(libuserxe_a-ustring.o)
 .comment       0x00000023       0x24 ../ulib/libuserxe.a(libuserxe_a-utf.o)
 .comment       0x00000023       0x24 ../ulib/libuserxe.a(libuserxe_a-utf2.o)
 .comment       0x00000023       0x24 ../ulib/libuserxe.a(libuserxe_a-utf22.o)
 .comment       0x00000023       0x24 ../ulib/libuserxe.a(libuserxe_a-utf3.o)
 .comment       0x00000023       0x24 ../ulib/libuserxe.a(libuserxe_a-utf4.o)
 .comment       0x00000023       0x24 ../ulib/libuserxe.a(libuserxe_a-utrace.o)
 .comment       0x00000023       0x24 ../ulib/libuserxe.a(libuserxe_a-uunxsub.o)
 .comment       0x00000023       0x24 ../ulib/libuserxe.a(libuserxe_a-uviol.o)
 .comment       0x00000023       0x24 ../ulib/libuserxe.a(libuserxe_a-u3270.o)
 .comment       0x00000023       0x24 ../ulib/libuserxe.a(libuserxe_a-u32702.o)
 .comment       0x00000023       0x24 ../ulib/libuserxe.a(libuserxe_a-u32703.o)
 .comment       0x00000023       0x24 ../ulib/libuserxe.a(libuserxe_a-uabend.o)
 .comment       0x00000023       0x24 ../ulib/libuserxe.a(libuserxe_a-ucalc.o)
 .comment       0x00000023       0x24 ../ulib/libuserxe.a(libuserxe_a-ucvebc.o)
 .comment       0x00000023       0x24 ../ulib/libuserxe.a(libuserxe_a-ucvebc2.o)
 .comment       0x00000023       0x24 ../ulib/libuserxe.a(libuserxe_a-ucvebct.o)
 .comment       0x00000023       0x24 ../ulib/libuserxe.a(libuserxe_a-ucvext.o)
 .comment       0x00000023       0x24 ../ulib/libuserxe.a(libuserxe_a-ucvext12.o)
 .comment       0x00000023       0x24 ../ulib/libuserxe.a(libuserxe_a-ucvext2.o)
 .comment       0x00000023       0x24 ../ulib/libuserxe.a(libuserxe_a-ucvucs.o)
 .comment       0x00000023       0x24 ../ulib/libuserxe.a(libuserxe_a-ucvucst.o)
 .comment       0x00000023       0x24 ../ulib/libuserxe.a(libuserxe_a-udbcschk.o)
 .comment       0x00000023       0x24 ../ulib/libuserxe.a(libuserxe_a-udbcsck2.o)
 .comment       0x00000023       0x24 ../ulib/libuserxe.a(libuserxe_a-udos2.o)
 .comment       0x00000023       0x24 ../ulib/libuserxe.a(libuserxe_a-uedit2.o)
 .comment       0x00000023       0x24 ../ulib/libuserxe.a(libuserxe_a-uehl.o)
 .comment       0x00000023       0x24 ../ulib/libuserxe.a(libuserxe_a-uproc22.o)
 .comment       0x00000023       0x24 ../ulib/libuserxe.a(libuserxe_a-uproc3.o)
 .comment       0x00000023       0x24 ../ulib/libuserxe.a(libuserxe_a-uviom.o)
 .comment       0x00000023       0x24 ../ulib/libuserxe.a(libuserxe_a-ucvebc3.o)
 .comment       0x00000023       0x24 ../ulib/libuserxe.a(libuserxe_a-ucvebc4.o)
 .comment       0x00000023       0x24 /usr/lib/gcc/arm-linux-gnueabihf/8/crtend.o

.ARM.attributes
                0x00000000       0x2f
 .ARM.attributes
                0x00000000       0x2f /usr/lib/gcc/arm-linux-gnueabihf/8/../../../arm-linux-gnueabihf/crt1.o
 .ARM.attributes
                0x0000002f       0x23 /usr/lib/gcc/arm-linux-gnueabihf/8/../../../arm-linux-gnueabihf/crti.o
 .ARM.attributes
                0x00000052       0x2f /usr/lib/gcc/arm-linux-gnueabihf/8/crtbegin.o
 .ARM.attributes
                0x00000081       0x2f xds.o
 .ARM.attributes
                0x000000b0       0x2f ../ulib/libuserxe.a(libuserxe_a-uallocl.o)
 .ARM.attributes
                0x000000df       0x2f ../ulib/libuserxe.a(libuserxe_a-ucalc2.o)
 .ARM.attributes
                0x0000010e       0x2f ../ulib/libuserxe.a(libuserxe_a-uedit.o)
 .ARM.attributes
                0x0000013d       0x2f ../ulib/libuserxe.a(libuserxe_a-uerr.o)
 .ARM.attributes
                0x0000016c       0x2f ../ulib/libuserxe.a(libuserxe_a-ufemsg.o)
 .ARM.attributes
                0x0000019b       0x2f ../ulib/libuserxe.a(libuserxe_a-ufile.o)
 .ARM.attributes
                0x000001ca       0x2f ../ulib/libuserxe.a(libuserxe_a-ufile1f.o)
 .ARM.attributes
                0x000001f9       0x2f ../ulib/libuserxe.a(libuserxe_a-ufile1l.o)
 .ARM.attributes
                0x00000228       0x2f ../ulib/libuserxe.a(libuserxe_a-ufile1l2.o)
 .ARM.attributes
                0x00000257       0x2f ../ulib/libuserxe.a(libuserxe_a-ufile2.o)
 .ARM.attributes
                0x00000286       0x2f ../ulib/libuserxe.a(libuserxe_a-ufile2f.o)
 .ARM.attributes
                0x000002b5       0x2f ../ulib/libuserxe.a(libuserxe_a-ufile2l.o)
 .ARM.attributes
                0x000002e4       0x2f ../ulib/libuserxe.a(libuserxe_a-ufile2l2.o)
 .ARM.attributes
                0x00000313       0x2f ../ulib/libuserxe.a(libuserxe_a-ufile3.o)
 .ARM.attributes
                0x00000342       0x2f ../ulib/libuserxe.a(libuserxe_a-ufile3f.o)
 .ARM.attributes
                0x00000371       0x2f ../ulib/libuserxe.a(libuserxe_a-ufile4.o)
 .ARM.attributes
                0x000003a0       0x2f ../ulib/libuserxe.a(libuserxe_a-ufile5.o)
 .ARM.attributes
                0x000003cf       0x2f ../ulib/libuserxe.a(libuserxe_a-uftp.o)
 .ARM.attributes
                0x000003fe       0x2f ../ulib/libuserxe.a(libuserxe_a-uftp2.o)
 .ARM.attributes
                0x0000042d       0x2f ../ulib/libuserxe.a(libuserxe_a-uftp3.o)
 .ARM.attributes
                0x0000045c       0x2f ../ulib/libuserxe.a(libuserxe_a-ugcclib.o)
 .ARM.attributes
                0x0000048b       0x2f ../ulib/libuserxe.a(libuserxe_a-ukbdl.o)
 .ARM.attributes
                0x000004ba       0x2f ../ulib/libuserxe.a(libuserxe_a-ukbdlnxc.o)
 .ARM.attributes
                0x000004e9       0x2f ../ulib/libuserxe.a(libuserxe_a-ukbdlnxm.o)
 .ARM.attributes
                0x00000518       0x2f ../ulib/libuserxe.a(libuserxe_a-uparse.o)
 .ARM.attributes
                0x00000547       0x2f ../ulib/libuserxe.a(libuserxe_a-uproc.o)
 .ARM.attributes
                0x00000576       0x2f ../ulib/libuserxe.a(libuserxe_a-uproc2.o)
 .ARM.attributes
                0x000005a5       0x2f ../ulib/libuserxe.a(libuserxe_a-uproc4.o)
 .ARM.attributes
                0x000005d4       0x2f ../ulib/libuserxe.a(libuserxe_a-uque.o)
 .ARM.attributes
                0x00000603       0x2f ../ulib/libuserxe.a(libuserxe_a-ustrcpy.o)
 .ARM.attributes
                0x00000632       0x2f ../ulib/libuserxe.a(libuserxe_a-ustring.o)
 .ARM.attributes
                0x00000661       0x2f ../ulib/libuserxe.a(libuserxe_a-utf.o)
 .ARM.attributes
                0x00000690       0x2f ../ulib/libuserxe.a(libuserxe_a-utf2.o)
 .ARM.attributes
                0x000006bf       0x2f ../ulib/libuserxe.a(libuserxe_a-utf22.o)
 .ARM.attributes
                0x000006ee       0x2f ../ulib/libuserxe.a(libuserxe_a-utf3.o)
 .ARM.attributes
                0x0000071d       0x2f ../ulib/libuserxe.a(libuserxe_a-utf4.o)
 .ARM.attributes
                0x0000074c       0x2f ../ulib/libuserxe.a(libuserxe_a-utrace.o)
 .ARM.attributes
                0x0000077b       0x2f ../ulib/libuserxe.a(libuserxe_a-uunxsub.o)
 .ARM.attributes
                0x000007aa       0x2f ../ulib/libuserxe.a(libuserxe_a-uviol.o)
 .ARM.attributes
                0x000007d9       0x2f ../ulib/libuserxe.a(libuserxe_a-u3270.o)
 .ARM.attributes
                0x00000808       0x2f ../ulib/libuserxe.a(libuserxe_a-u32702.o)
 .ARM.attributes
                0x00000837       0x2f ../ulib/libuserxe.a(libuserxe_a-u32703.o)
 .ARM.attributes
                0x00000866       0x2f ../ulib/libuserxe.a(libuserxe_a-uabend.o)
 .ARM.attributes
                0x00000895       0x2f ../ulib/libuserxe.a(libuserxe_a-ucalc.o)
 .ARM.attributes
                0x000008c4       0x2f ../ulib/libuserxe.a(libuserxe_a-ucvebc.o)
 .ARM.attributes
                0x000008f3       0x2f ../ulib/libuserxe.a(libuserxe_a-ucvebc2.o)
 .ARM.attributes
                0x00000922       0x2f ../ulib/libuserxe.a(libuserxe_a-ucvebct.o)
 .ARM.attributes
                0x00000951       0x2f ../ulib/libuserxe.a(libuserxe_a-ucvext.o)
 .ARM.attributes
                0x00000980       0x2f ../ulib/libuserxe.a(libuserxe_a-ucvext12.o)
 .ARM.attributes
                0x000009af       0x2f ../ulib/libuserxe.a(libuserxe_a-ucvext2.o)
 .ARM.attributes
                0x000009de       0x2f ../ulib/libuserxe.a(libuserxe_a-ucvucs.o)
 .ARM.attributes
                0x00000a0d       0x2f ../ulib/libuserxe.a(libuserxe_a-ucvucst.o)
 .ARM.attributes
                0x00000a3c       0x2f ../ulib/libuserxe.a(libuserxe_a-udbcschk.o)
 .ARM.attributes
                0x00000a6b       0x2f ../ulib/libuserxe.a(libuserxe_a-udbcsck2.o)
 .ARM.attributes
                0x00000a9a       0x2f ../ulib/libuserxe.a(libuserxe_a-udos2.o)
 .ARM.attributes
                0x00000ac9       0x2f ../ulib/libuserxe.a(libuserxe_a-uedit2.o)
 .ARM.attributes
                0x00000af8       0x2f ../ulib/libuserxe.a(libuserxe_a-uehl.o)
 .ARM.attributes
                0x00000b27       0x2f ../ulib/libuserxe.a(libuserxe_a-uproc22.o)
 .ARM.attributes
                0x00000b56       0x2f ../ulib/libuserxe.a(libuserxe_a-uproc3.o)
 .ARM.attributes
                0x00000b85       0x2f ../ulib/libuserxe.a(libuserxe_a-uviom.o)
 .ARM.attributes
                0x00000bb4       0x2f ../ulib/libuserxe.a(libuserxe_a-ucvebc3.o)
 .ARM.attributes
                0x00000be3       0x2f ../ulib/libuserxe.a(libuserxe_a-ucvebc4.o)
 .ARM.attributes
                0x00000c12       0x1d /usr/lib/gcc/arm-linux-gnueabihf/8/libgcc.a(_divsi3.o)
 .ARM.attributes
                0x00000c2f       0x1d /usr/lib/gcc/arm-linux-gnueabihf/8/libgcc.a(_aeabi_ldivmod.o)
 .ARM.attributes
                0x00000c4c       0x1d /usr/lib/gcc/arm-linux-gnueabihf/8/libgcc.a(_dvmd_lnx.o)
 .ARM.attributes
                0x00000c69       0x2f /usr/lib/gcc/arm-linux-gnueabihf/8/libgcc.a(_udivmoddi4.o)
 .ARM.attributes
                0x00000c98       0x31 //usr/lib/arm-linux-gnueabihf/libc_nonshared.a(elf-init.oS)
 .ARM.attributes
                0x00000cc9       0x31 //usr/lib/arm-linux-gnueabihf/libc_nonshared.a(stat64.oS)
 .ARM.attributes
                0x00000cfa       0x31 //usr/lib/arm-linux-gnueabihf/libc_nonshared.a(lstat64.oS)
 .ARM.attributes
                0x00000d2b       0x2f /usr/lib/gcc/arm-linux-gnueabihf/8/crtend.o
 .ARM.attributes
                0x00000d5a       0x23 /usr/lib/gcc/arm-linux-gnueabihf/8/../../../arm-linux-gnueabihf/crtn.o

.debug
 *(.debug)

.line
 *(.line)

.debug_srcinfo
 *(.debug_srcinfo)

.debug_sfnames
 *(.debug_sfnames)

.debug_aranges
 *(.debug_aranges)

.debug_pubnames
 *(.debug_pubnames)

.debug_info
 *(.debug_info .gnu.linkonce.wi.*)

.debug_abbrev
 *(.debug_abbrev)

.debug_line
 *(.debug_line .debug_line.* .debug_line_end)

.debug_frame
 *(.debug_frame)

.debug_str
 *(.debug_str)

.debug_loc
 *(.debug_loc)

.debug_macinfo
 *(.debug_macinfo)

.debug_weaknames
 *(.debug_weaknames)

.debug_funcnames
 *(.debug_funcnames)

.debug_typenames
 *(.debug_typenames)

.debug_varnames
 *(.debug_varnames)

.debug_pubtypes
 *(.debug_pubtypes)

.debug_ranges
 *(.debug_ranges)

.debug_macro
 *(.debug_macro)

.debug_addr
 *(.debug_addr)

.gnu.attributes
 *(.gnu.attributes)

.note.gnu.arm.ident
 *(.note.gnu.arm.ident)

/DISCARD/
 *(.note.GNU-stack)
 *(.gnu_debuglink)
 *(.gnu.lto_*)
OUTPUT(xds elf32-littlearm)
