Archive member included to satisfy reference by file (symbol)

../ulib/libuserxe.a(libuserxe_a-udbcschk.o)
                              xfc.o (udbcschkcp)
../ulib/libuserxe.a(libuserxe_a-udbcsck2.o)
                              ../ulib/libuserxe.a(libuserxe_a-udbcschk.o) (usjischk)
../ulib/libuserxe.a(libuserxe_a-uedit.o)
                              xfc.o (ux2l)
../ulib/libuserxe.a(libuserxe_a-uerr.o)
                              xfc.o (Guerropt)
../ulib/libuserxe.a(libuserxe_a-ufemsg.o)
                              xfc.o (ufileeditsz)
../ulib/libuserxe.a(libuserxe_a-ufile.o)
                              ../ulib/libuserxe.a(libuserxe_a-ufemsg.o) (Gufile_opt)
../ulib/libuserxe.a(libuserxe_a-ufile1f.o)
                              ../ulib/libuserxe.a(libuserxe_a-ufile.o) (uftpdirlistsub)
../ulib/libuserxe.a(libuserxe_a-ufile1l.o)
                              xfc.o (ufstat)
../ulib/libuserxe.a(libuserxe_a-ufile1l2.o)
                              ../ulib/libuserxe.a(libuserxe_a-ufile1l.o) (ufstat_mdos)
../ulib/libuserxe.a(libuserxe_a-ufile2.o)
                              ../ulib/libuserxe.a(libuserxe_a-uerr.o) (uremove)
../ulib/libuserxe.a(libuserxe_a-ufile2f.o)
                              ../ulib/libuserxe.a(libuserxe_a-ufile2.o) (uftpremove)
../ulib/libuserxe.a(libuserxe_a-ufile2l.o)
                              ../ulib/libuserxe.a(libuserxe_a-ufile2.o) (urmdir)
../ulib/libuserxe.a(libuserxe_a-ufile2l2.o)
                              ../ulib/libuserxe.a(libuserxe_a-ufile2l.o) (umkdir_mdos)
../ulib/libuserxe.a(libuserxe_a-ufile3.o)
                              ../ulib/libuserxe.a(libuserxe_a-ufile2l2.o) (udoscopy)
../ulib/libuserxe.a(libuserxe_a-ufile3f.o)
                              ../ulib/libuserxe.a(libuserxe_a-ufile3.o) (uftpxmove)
../ulib/libuserxe.a(libuserxe_a-ufile4.o)
                              ../ulib/libuserxe.a(libuserxe_a-ufile2l2.o) (utempnam)
../ulib/libuserxe.a(libuserxe_a-ufile5.o)
                              xfc.o (ufgetsinit)
../ulib/libuserxe.a(libuserxe_a-uftp.o)
                              ../ulib/libuserxe.a(libuserxe_a-ufile1f.o) (uftpfstatudl)
../ulib/libuserxe.a(libuserxe_a-uftp2.o)
                              ../ulib/libuserxe.a(libuserxe_a-uftp.o) (Gftpopt)
../ulib/libuserxe.a(libuserxe_a-uftp3.o)
                              ../ulib/libuserxe.a(libuserxe_a-uftp.o) (uftp3setssh)
../ulib/libuserxe.a(libuserxe_a-ugcclib.o)
                              ../ulib/libuserxe.a(libuserxe_a-uedit.o) (memicmp)
../ulib/libuserxe.a(libuserxe_a-ukbdl.o)
                              ../ulib/libuserxe.a(libuserxe_a-ugcclib.o) (ukbdl_getch_init)
../ulib/libuserxe.a(libuserxe_a-ukbdlnxc.o)
                              ../ulib/libuserxe.a(libuserxe_a-ukbdl.o) (ukbdlnxc_init)
../ulib/libuserxe.a(libuserxe_a-ukbdlnxm.o)
                              ../ulib/libuserxe.a(libuserxe_a-ukbdlnxc.o) (ukbdlnxm_mouseinit)
../ulib/libuserxe.a(libuserxe_a-uparse.o)
                              ../ulib/libuserxe.a(libuserxe_a-uftp.o) (uparsev)
../ulib/libuserxe.a(libuserxe_a-uproc.o)
                              ../ulib/libuserxe.a(libuserxe_a-ukbdl.o) (uproc_getpsinfo)
../ulib/libuserxe.a(libuserxe_a-uproc2.o)
                              ../ulib/libuserxe.a(libuserxe_a-ufile2f.o) (uproc_rsh)
../ulib/libuserxe.a(libuserxe_a-uproc4.o)
                              ../ulib/libuserxe.a(libuserxe_a-ukbdlnxc.o) (uproc_select)
../ulib/libuserxe.a(libuserxe_a-uque.o)
                              xfc.o (uenq)
../ulib/libuserxe.a(libuserxe_a-ustrcpy.o)
                              xfc.o (ustring_memcpy)
../ulib/libuserxe.a(libuserxe_a-ustring.o)
                              ../ulib/libuserxe.a(libuserxe_a-ufile.o) (ustrnlen)
../ulib/libuserxe.a(libuserxe_a-utf.o)
                              ../ulib/libuserxe.a(libuserxe_a-udbcschk.o) (Gulibutfmode)
../ulib/libuserxe.a(libuserxe_a-utf2.o)
                              ../ulib/libuserxe.a(libuserxe_a-ufile1l.o) (utfcvl2fany)
../ulib/libuserxe.a(libuserxe_a-utf22.o)
                              ../ulib/libuserxe.a(libuserxe_a-udbcschk.o) (utfucsmapinit)
../ulib/libuserxe.a(libuserxe_a-utf3.o)
                              ../ulib/libuserxe.a(libuserxe_a-utf2.o) (utfmb2wc)
../ulib/libuserxe.a(libuserxe_a-utf4.o)
                              ../ulib/libuserxe.a(libuserxe_a-utf3.o) (mk_wcwidth)
../ulib/libuserxe.a(libuserxe_a-utrace.o)
                              ../ulib/libuserxe.a(libuserxe_a-uftp2.o) (Gtracehdr)
../ulib/libuserxe.a(libuserxe_a-uunxsub.o)
                              ../ulib/libuserxe.a(libuserxe_a-ufile2l.o) (ugetugid)
../ulib/libuserxe.a(libuserxe_a-uviom.o)
                              ../ulib/libuserxe.a(libuserxe_a-udbcschk.o) (uvio_wcinit)
../ulib/libuserxe.a(libuserxe_a-uviol.o)
                              ../ulib/libuserxe.a(libuserxe_a-uerr.o) (Guviol_flag)
../ulib/libuserxe.a(libuserxe_a-u3270.o)
                              ../ulib/libuserxe.a(libuserxe_a-ufile1f.o) (u3270fstat)
../ulib/libuserxe.a(libuserxe_a-u32702.o)
                              ../ulib/libuserxe.a(libuserxe_a-ufile2f.o) (u3270mkdir)
../ulib/libuserxe.a(libuserxe_a-u32703.o)
                              ../ulib/libuserxe.a(libuserxe_a-ufile3.o) (u3270xmove)
../ulib/libuserxe.a(libuserxe_a-uabend.o)
                              ../ulib/libuserxe.a(libuserxe_a-ukbdl.o) (uabend)
../ulib/libuserxe.a(libuserxe_a-uallocl.o)
                              ../ulib/libuserxe.a(libuserxe_a-uedit.o) (umalloc)
../ulib/libuserxe.a(libuserxe_a-ucalc2.o)
                              ../ulib/libuserxe.a(libuserxe_a-uftp2.o) (ucalc_ld2dw)
../ulib/libuserxe.a(libuserxe_a-ucvebc.o)
                              ../ulib/libuserxe.a(libuserxe_a-uerr.o) (Gucvebc_stat)
../ulib/libuserxe.a(libuserxe_a-ucvebc2.o)
                              ../ulib/libuserxe.a(libuserxe_a-ucvebc.o) (ucvebc2_stre2s)
../ulib/libuserxe.a(libuserxe_a-ucvebct.o)
                              ../ulib/libuserxe.a(libuserxe_a-ucvebc2.o) (ucvebc2gettbl)
../ulib/libuserxe.a(libuserxe_a-ucvext.o)
                              ../ulib/libuserxe.a(libuserxe_a-udbcschk.o) (ucvext_icumbinit)
../ulib/libuserxe.a(libuserxe_a-ucvext12.o)
                              ../ulib/libuserxe.a(libuserxe_a-ucvext.o) (ucvext12_init)
../ulib/libuserxe.a(libuserxe_a-ucvext2.o)
                              ../ulib/libuserxe.a(libuserxe_a-ucvext.o) (ucvext_iconvmapinit)
../ulib/libuserxe.a(libuserxe_a-ucvucs.o)
                              ../ulib/libuserxe.a(libuserxe_a-utf2.o) (uccvucs2utf)
../ulib/libuserxe.a(libuserxe_a-ucvucst.o)
                              ../ulib/libuserxe.a(libuserxe_a-ucvucs.o) (ugetcp932tbl)
../ulib/libuserxe.a(libuserxe_a-udos2.o)
                              ../ulib/libuserxe.a(libuserxe_a-ufile1l2.o) (udos_setenv)
../ulib/libuserxe.a(libuserxe_a-uedit2.o)
                              ../ulib/libuserxe.a(libuserxe_a-ufemsg.o) (ueditfattr)
../ulib/libuserxe.a(libuserxe_a-uehl.o)
                              ../ulib/libuserxe.a(libuserxe_a-ukbdlnxc.o) (uehl_setsh)
../ulib/libuserxe.a(libuserxe_a-uproc22.o)
                              ../ulib/libuserxe.a(libuserxe_a-utrace.o) (ucriticalsection)
../ulib/libuserxe.a(libuserxe_a-uproc3.o)
                              ../ulib/libuserxe.a(libuserxe_a-uproc4.o) (usleepms)
../ulib/libuserxe.a(libuserxe_a-ucalc.o)
                              ../ulib/libuserxe.a(libuserxe_a-ucalc2.o) (ucalc_binop)
../ulib/libuserxe.a(libuserxe_a-ucvebc3.o)
                              ../ulib/libuserxe.a(libuserxe_a-ucvext2.o) (ucvebc3_b2dd)
../ulib/libuserxe.a(libuserxe_a-ucvebc4.o)
                              ../ulib/libuserxe.a(libuserxe_a-ucvext.o) (ucvebc4_init)
/usr/lib/gcc/arm-linux-gnueabihf/8/libgcc.a(_divsi3.o)
                              xfc.o (__aeabi_idiv)
/usr/lib/gcc/arm-linux-gnueabihf/8/libgcc.a(_aeabi_ldivmod.o)
                              ../ulib/libuserxe.a(libuserxe_a-u32703.o) (__aeabi_ldivmod)
/usr/lib/gcc/arm-linux-gnueabihf/8/libgcc.a(_dvmd_lnx.o)
                              /usr/lib/gcc/arm-linux-gnueabihf/8/libgcc.a(_aeabi_ldivmod.o) (__aeabi_ldiv0)
/usr/lib/gcc/arm-linux-gnueabihf/8/libgcc.a(_udivmoddi4.o)
                              /usr/lib/gcc/arm-linux-gnueabihf/8/libgcc.a(_aeabi_ldivmod.o) (__udivmoddi4)
//usr/lib/arm-linux-gnueabihf/libc_nonshared.a(elf-init.oS)
                              /usr/lib/gcc/arm-linux-gnueabihf/8/../../../arm-linux-gnueabihf/crt1.o (__libc_csu_init)
//usr/lib/arm-linux-gnueabihf/libc_nonshared.a(stat64.oS)
                              ../ulib/libuserxe.a(libuserxe_a-ufile1l.o) (stat64)
//usr/lib/arm-linux-gnueabihf/libc_nonshared.a(lstat64.oS)
                              ../ulib/libuserxe.a(libuserxe_a-ufile1l.o) (lstat64)

Allocating common symbols
Common symbol       size              file

Gucs2ddmap_i2u      0x20000           ../ulib/libuserxe.a(libuserxe_a-utf22.o)
Guviombuffu         0x4               ../ulib/libuserxe.a(libuserxe_a-uviom.o)
Gufile_opt          0x4               ../ulib/libuserxe.a(libuserxe_a-ufile.o)
Sphiconv            0x4               ../ulib/libuserxe.a(libuserxe_a-ukbdl.o)
Snewoldctr          0x4               ../ulib/libuserxe.a(libuserxe_a-ucvebc2.o)
Gftperr             0x4               ../ulib/libuserxe.a(libuserxe_a-uftp2.o)
Gulibutfmode        0x4               ../ulib/libuserxe.a(libuserxe_a-utf.o)
Se2stctr            0x4               ../ulib/libuserxe.a(libuserxe_a-ucvebc2.o)
Gtracehdr           0x100             ../ulib/libuserxe.a(libuserxe_a-utrace.o)
Sfdpiper            0x4               ../ulib/libuserxe.a(libuserxe_a-uproc.o)
Gutfrc              0x4               ../ulib/libuserxe.a(libuserxe_a-utf.o)
Gualloc_amount      0x4               ../ulib/libuserxe.a(libuserxe_a-uallocl.o)
Guviomopt           0x4               ../ulib/libuserxe.a(libuserxe_a-uviom.o)
Slockhandle         0x4               ../ulib/libuserxe.a(libuserxe_a-utrace.o)
Gucvebchctr         0x4               ../ulib/libuserxe.a(libuserxe_a-ucvebc.o)
Gudbcschk_flag      0x4               ../ulib/libuserxe.a(libuserxe_a-udbcschk.o)
Guerropt2           0x4               ../ulib/libuserxe.a(libuserxe_a-uerr.o)
Sduptctr            0x4               ../ulib/libuserxe.a(libuserxe_a-ucvebc2.o)
Gukbdl_flag         0x4               ../ulib/libuserxe.a(libuserxe_a-ukbdl.o)
Ss2etctr            0x4               ../ulib/libuserxe.a(libuserxe_a-ucvebc2.o)
Gucvebch            0x9c40            ../ulib/libuserxe.a(libuserxe_a-ucvebc.o)
Gucalc_result       0x140             ../ulib/libuserxe.a(libuserxe_a-ucalc.o)
Guviol_flag         0x4               ../ulib/libuserxe.a(libuserxe_a-uviol.o)
Guviomoptstr        0x4               ../ulib/libuserxe.a(libuserxe_a-uviom.o)
Gftpopt             0x4               ../ulib/libuserxe.a(libuserxe_a-uftp2.o)
Gufile_nomsg        0x4               ../ulib/libuserxe.a(libuserxe_a-ufile.o)
Gualloc16_amount    0x4               ../ulib/libuserxe.a(libuserxe_a-uallocl.o)
Gudbcschk_width0top
                    0x4               ../ulib/libuserxe.a(libuserxe_a-udbcschk.o)
Gucvebc_stat        0x4               ../ulib/libuserxe.a(libuserxe_a-ucvebc.o)
Gftpclient          0x80              ../ulib/libuserxe.a(libuserxe_a-uftp2.o)
Guviomopt2          0x4               ../ulib/libuserxe.a(libuserxe_a-uviom.o)
Sdbcschk_hkopt      0x4               ../ulib/libuserxe.a(libuserxe_a-udbcschk.o)
Gutfcombaltch       0x4               ../ulib/libuserxe.a(libuserxe_a-utf.o)
Gucs2ddmap          0x40000           ../ulib/libuserxe.a(libuserxe_a-utf22.o)
Gw95buffopt         0x4               ../ulib/libuserxe.a(libuserxe_a-uviom.o)
Guerropt            0x1               ../ulib/libuserxe.a(libuserxe_a-uerr.o)
Guviomoptstrucs     0x10              ../ulib/libuserxe.a(libuserxe_a-uviom.o)
Sfdpipew            0x4               ../ulib/libuserxe.a(libuserxe_a-uproc.o)

Discarded input sections

 .note.GNU-stack
                0x00000000        0x0 /usr/lib/gcc/arm-linux-gnueabihf/8/../../../arm-linux-gnueabihf/crt1.o
 .note.GNU-stack
                0x00000000        0x0 /usr/lib/gcc/arm-linux-gnueabihf/8/../../../arm-linux-gnueabihf/crti.o
 .note.GNU-stack
                0x00000000        0x0 /usr/lib/gcc/arm-linux-gnueabihf/8/crtbegin.o
 .note.GNU-stack
                0x00000000        0x0 xfc.o
 .note.GNU-stack
                0x00000000        0x0 ../ulib/libuserxe.a(libuserxe_a-udbcschk.o)
 .note.GNU-stack
                0x00000000        0x0 ../ulib/libuserxe.a(libuserxe_a-udbcsck2.o)
 .note.GNU-stack
                0x00000000        0x0 ../ulib/libuserxe.a(libuserxe_a-uedit.o)
 .note.GNU-stack
                0x00000000        0x0 ../ulib/libuserxe.a(libuserxe_a-uerr.o)
 .note.GNU-stack
                0x00000000        0x0 ../ulib/libuserxe.a(libuserxe_a-ufemsg.o)
 .note.GNU-stack
                0x00000000        0x0 ../ulib/libuserxe.a(libuserxe_a-ufile.o)
 .note.GNU-stack
                0x00000000        0x0 ../ulib/libuserxe.a(libuserxe_a-ufile1f.o)
 .note.GNU-stack
                0x00000000        0x0 ../ulib/libuserxe.a(libuserxe_a-ufile1l.o)
 .note.GNU-stack
                0x00000000        0x0 ../ulib/libuserxe.a(libuserxe_a-ufile1l2.o)
 .note.GNU-stack
                0x00000000        0x0 ../ulib/libuserxe.a(libuserxe_a-ufile2.o)
 .note.GNU-stack
                0x00000000        0x0 ../ulib/libuserxe.a(libuserxe_a-ufile2f.o)
 .note.GNU-stack
                0x00000000        0x0 ../ulib/libuserxe.a(libuserxe_a-ufile2l.o)
 .note.GNU-stack
                0x00000000        0x0 ../ulib/libuserxe.a(libuserxe_a-ufile2l2.o)
 .note.GNU-stack
                0x00000000        0x0 ../ulib/libuserxe.a(libuserxe_a-ufile3.o)
 .note.GNU-stack
                0x00000000        0x0 ../ulib/libuserxe.a(libuserxe_a-ufile3f.o)
 .note.GNU-stack
                0x00000000        0x0 ../ulib/libuserxe.a(libuserxe_a-ufile4.o)
 .note.GNU-stack
                0x00000000        0x0 ../ulib/libuserxe.a(libuserxe_a-ufile5.o)
 .note.GNU-stack
                0x00000000        0x0 ../ulib/libuserxe.a(libuserxe_a-uftp.o)
 .note.GNU-stack
                0x00000000        0x0 ../ulib/libuserxe.a(libuserxe_a-uftp2.o)
 .note.GNU-stack
                0x00000000        0x0 ../ulib/libuserxe.a(libuserxe_a-uftp3.o)
 .note.GNU-stack
                0x00000000        0x0 ../ulib/libuserxe.a(libuserxe_a-ugcclib.o)
 .note.GNU-stack
                0x00000000        0x0 ../ulib/libuserxe.a(libuserxe_a-ukbdl.o)
 .note.GNU-stack
                0x00000000        0x0 ../ulib/libuserxe.a(libuserxe_a-ukbdlnxc.o)
 .note.GNU-stack
                0x00000000        0x0 ../ulib/libuserxe.a(libuserxe_a-ukbdlnxm.o)
 .note.GNU-stack
                0x00000000        0x0 ../ulib/libuserxe.a(libuserxe_a-uparse.o)
 .note.GNU-stack
                0x00000000        0x0 ../ulib/libuserxe.a(libuserxe_a-uproc.o)
 .note.GNU-stack
                0x00000000        0x0 ../ulib/libuserxe.a(libuserxe_a-uproc2.o)
 .note.GNU-stack
                0x00000000        0x0 ../ulib/libuserxe.a(libuserxe_a-uproc4.o)
 .note.GNU-stack
                0x00000000        0x0 ../ulib/libuserxe.a(libuserxe_a-uque.o)
 .note.GNU-stack
                0x00000000        0x0 ../ulib/libuserxe.a(libuserxe_a-ustrcpy.o)
 .note.GNU-stack
                0x00000000        0x0 ../ulib/libuserxe.a(libuserxe_a-ustring.o)
 .note.GNU-stack
                0x00000000        0x0 ../ulib/libuserxe.a(libuserxe_a-utf.o)
 .note.GNU-stack
                0x00000000        0x0 ../ulib/libuserxe.a(libuserxe_a-utf2.o)
 .note.GNU-stack
                0x00000000        0x0 ../ulib/libuserxe.a(libuserxe_a-utf22.o)
 .note.GNU-stack
                0x00000000        0x0 ../ulib/libuserxe.a(libuserxe_a-utf3.o)
 .note.GNU-stack
                0x00000000        0x0 ../ulib/libuserxe.a(libuserxe_a-utf4.o)
 .note.GNU-stack
                0x00000000        0x0 ../ulib/libuserxe.a(libuserxe_a-utrace.o)
 .note.GNU-stack
                0x00000000        0x0 ../ulib/libuserxe.a(libuserxe_a-uunxsub.o)
 .note.GNU-stack
                0x00000000        0x0 ../ulib/libuserxe.a(libuserxe_a-uviom.o)
 .note.GNU-stack
                0x00000000        0x0 ../ulib/libuserxe.a(libuserxe_a-uviol.o)
 .note.GNU-stack
                0x00000000        0x0 ../ulib/libuserxe.a(libuserxe_a-u3270.o)
 .note.GNU-stack
                0x00000000        0x0 ../ulib/libuserxe.a(libuserxe_a-u32702.o)
 .note.GNU-stack
                0x00000000        0x0 ../ulib/libuserxe.a(libuserxe_a-u32703.o)
 .note.GNU-stack
                0x00000000        0x0 ../ulib/libuserxe.a(libuserxe_a-uabend.o)
 .note.GNU-stack
                0x00000000        0x0 ../ulib/libuserxe.a(libuserxe_a-uallocl.o)
 .note.GNU-stack
                0x00000000        0x0 ../ulib/libuserxe.a(libuserxe_a-ucalc2.o)
 .note.GNU-stack
                0x00000000        0x0 ../ulib/libuserxe.a(libuserxe_a-ucvebc.o)
 .note.GNU-stack
                0x00000000        0x0 ../ulib/libuserxe.a(libuserxe_a-ucvebc2.o)
 .note.GNU-stack
                0x00000000        0x0 ../ulib/libuserxe.a(libuserxe_a-ucvebct.o)
 .note.GNU-stack
                0x00000000        0x0 ../ulib/libuserxe.a(libuserxe_a-ucvext.o)
 .note.GNU-stack
                0x00000000        0x0 ../ulib/libuserxe.a(libuserxe_a-ucvext12.o)
 .note.GNU-stack
                0x00000000        0x0 ../ulib/libuserxe.a(libuserxe_a-ucvext2.o)
 .note.GNU-stack
                0x00000000        0x0 ../ulib/libuserxe.a(libuserxe_a-ucvucs.o)
 .note.GNU-stack
                0x00000000        0x0 ../ulib/libuserxe.a(libuserxe_a-ucvucst.o)
 .note.GNU-stack
                0x00000000        0x0 ../ulib/libuserxe.a(libuserxe_a-udos2.o)
 .note.GNU-stack
                0x00000000        0x0 ../ulib/libuserxe.a(libuserxe_a-uedit2.o)
 .note.GNU-stack
                0x00000000        0x0 ../ulib/libuserxe.a(libuserxe_a-uehl.o)
 .note.GNU-stack
                0x00000000        0x0 ../ulib/libuserxe.a(libuserxe_a-uproc22.o)
 .note.GNU-stack
                0x00000000        0x0 ../ulib/libuserxe.a(libuserxe_a-uproc3.o)
 .note.GNU-stack
                0x00000000        0x0 ../ulib/libuserxe.a(libuserxe_a-ucalc.o)
 .note.GNU-stack
                0x00000000        0x0 ../ulib/libuserxe.a(libuserxe_a-ucvebc3.o)
 .note.GNU-stack
                0x00000000        0x0 ../ulib/libuserxe.a(libuserxe_a-ucvebc4.o)
 .note.GNU-stack
                0x00000000        0x0 /usr/lib/gcc/arm-linux-gnueabihf/8/libgcc.a(_divsi3.o)
 .note.GNU-stack
                0x00000000        0x0 /usr/lib/gcc/arm-linux-gnueabihf/8/libgcc.a(_aeabi_ldivmod.o)
 .note.GNU-stack
                0x00000000        0x0 /usr/lib/gcc/arm-linux-gnueabihf/8/libgcc.a(_dvmd_lnx.o)
 .note.GNU-stack
                0x00000000        0x0 /usr/lib/gcc/arm-linux-gnueabihf/8/libgcc.a(_udivmoddi4.o)
 .note.GNU-stack
                0x00000000        0x0 //usr/lib/arm-linux-gnueabihf/libc_nonshared.a(elf-init.oS)
 .note.GNU-stack
                0x00000000        0x0 //usr/lib/arm-linux-gnueabihf/libc_nonshared.a(stat64.oS)
 .note.GNU-stack
                0x00000000        0x0 //usr/lib/arm-linux-gnueabihf/libc_nonshared.a(lstat64.oS)
 .note.GNU-stack
                0x00000000        0x0 /usr/lib/gcc/arm-linux-gnueabihf/8/crtend.o
 .note.GNU-stack
                0x00000000        0x0 /usr/lib/gcc/arm-linux-gnueabihf/8/../../../arm-linux-gnueabihf/crtn.o

Memory Configuration

Name             Origin             Length             Attributes
*default*        0x00000000         0xffffffff

Linker script and memory map

LOAD /usr/lib/gcc/arm-linux-gnueabihf/8/../../../arm-linux-gnueabihf/crt1.o
LOAD /usr/lib/gcc/arm-linux-gnueabihf/8/../../../arm-linux-gnueabihf/crti.o
LOAD /usr/lib/gcc/arm-linux-gnueabihf/8/crtbegin.o
LOAD xfc.o
LOAD ../ulib/libuserxe.a
LOAD /usr/lib/gcc/arm-linux-gnueabihf/8/../../../arm-linux-gnueabihf/libgnomeui-2.so
LOAD /usr/lib/gcc/arm-linux-gnueabihf/8/../../../arm-linux-gnueabihf/libSM.so
LOAD /usr/lib/gcc/arm-linux-gnueabihf/8/../../../arm-linux-gnueabihf/libICE.so
LOAD /usr/lib/gcc/arm-linux-gnueabihf/8/../../../arm-linux-gnueabihf/libbonoboui-2.so
LOAD /usr/lib/gcc/arm-linux-gnueabihf/8/../../../arm-linux-gnueabihf/libgnome-2.so
LOAD /usr/lib/gcc/arm-linux-gnueabihf/8/../../../arm-linux-gnueabihf/libpopt.so
LOAD /usr/lib/gcc/arm-linux-gnueabihf/8/../../../arm-linux-gnueabihf/libbonobo-2.so
LOAD /usr/lib/gcc/arm-linux-gnueabihf/8/../../../arm-linux-gnueabihf/libbonobo-activation.so
LOAD /usr/lib/gcc/arm-linux-gnueabihf/8/../../../arm-linux-gnueabihf/libORBit-2.so
LOAD /usr/lib/gcc/arm-linux-gnueabihf/8/../../../arm-linux-gnueabihf/libgnomecanvas-2.so
LOAD /usr/lib/gcc/arm-linux-gnueabihf/8/../../../arm-linux-gnueabihf/libart_lgpl_2.so
LOAD /usr/lib/gcc/arm-linux-gnueabihf/8/../../../arm-linux-gnueabihf/libgnomevfs-2.so
LOAD /usr/lib/gcc/arm-linux-gnueabihf/8/../../../arm-linux-gnueabihf/libgconf-2.so
LOAD /usr/lib/gcc/arm-linux-gnueabihf/8/../../../arm-linux-gnueabihf/libgthread-2.0.so
LOAD /usr/lib/gcc/arm-linux-gnueabihf/8/../../../arm-linux-gnueabihf/libgmodule-2.0.so
LOAD /usr/lib/gcc/arm-linux-gnueabihf/8/../../../arm-linux-gnueabihf/libgtk-x11-2.0.so
LOAD /usr/lib/gcc/arm-linux-gnueabihf/8/../../../arm-linux-gnueabihf/libgdk-x11-2.0.so
LOAD /usr/lib/gcc/arm-linux-gnueabihf/8/../../../arm-linux-gnueabihf/libpangocairo-1.0.so
LOAD /usr/lib/gcc/arm-linux-gnueabihf/8/../../../arm-linux-gnueabihf/libatk-1.0.so
LOAD /usr/lib/gcc/arm-linux-gnueabihf/8/../../../arm-linux-gnueabihf/libcairo.so
LOAD /usr/lib/gcc/arm-linux-gnueabihf/8/../../../arm-linux-gnueabihf/libgdk_pixbuf-2.0.so
LOAD /usr/lib/gcc/arm-linux-gnueabihf/8/../../../arm-linux-gnueabihf/libgio-2.0.so
LOAD /usr/lib/gcc/arm-linux-gnueabihf/8/../../../arm-linux-gnueabihf/libpangoft2-1.0.so
LOAD /usr/lib/gcc/arm-linux-gnueabihf/8/../../../arm-linux-gnueabihf/libpango-1.0.so
LOAD /usr/lib/gcc/arm-linux-gnueabihf/8/../../../arm-linux-gnueabihf/libgobject-2.0.so
LOAD /usr/lib/gcc/arm-linux-gnueabihf/8/../../../arm-linux-gnueabihf/libglib-2.0.so
LOAD /usr/lib/gcc/arm-linux-gnueabihf/8/../../../arm-linux-gnueabihf/libfontconfig.so
LOAD /usr/lib/gcc/arm-linux-gnueabihf/8/../../../arm-linux-gnueabihf/libfreetype.so
LOAD /usr/lib/gcc/arm-linux-gnueabihf/8/../../../arm-linux-gnueabihf/libdl.so
LOAD /usr/lib/gcc/arm-linux-gnueabihf/8/../../../arm-linux-gnueabihf/libncursesw.so
LOAD /lib/arm-linux-gnueabihf/libncursesw.so.6
LOAD /usr/lib/gcc/arm-linux-gnueabihf/8/../../../arm-linux-gnueabihf/libtinfo.so
LOAD /usr/lib/gcc/arm-linux-gnueabihf/8/../../../arm-linux-gnueabihf/libcups.so
LOAD /usr/lib/gcc/arm-linux-gnueabihf/8/libgcc.a
LOAD /usr/lib/gcc/arm-linux-gnueabihf/8/libgcc_s.so
START GROUP
LOAD /usr/lib/gcc/arm-linux-gnueabihf/8/libgcc_s.so.1
LOAD /usr/lib/gcc/arm-linux-gnueabihf/8/libgcc.a
END GROUP
LOAD /usr/lib/gcc/arm-linux-gnueabihf/8/../../../arm-linux-gnueabihf/libpthread.so
LOAD /usr/lib/gcc/arm-linux-gnueabihf/8/../../../arm-linux-gnueabihf/libc.so
START GROUP
LOAD //lib/arm-linux-gnueabihf/libc.so.6
LOAD //usr/lib/arm-linux-gnueabihf/libc_nonshared.a
LOAD //lib/arm-linux-gnueabihf/ld-linux-armhf.so.3
END GROUP
LOAD /usr/lib/gcc/arm-linux-gnueabihf/8/libgcc.a
LOAD /usr/lib/gcc/arm-linux-gnueabihf/8/libgcc_s.so
START GROUP
LOAD /usr/lib/gcc/arm-linux-gnueabihf/8/libgcc_s.so.1
LOAD /usr/lib/gcc/arm-linux-gnueabihf/8/libgcc.a
END GROUP
LOAD /usr/lib/gcc/arm-linux-gnueabihf/8/crtend.o
LOAD /usr/lib/gcc/arm-linux-gnueabihf/8/../../../arm-linux-gnueabihf/crtn.o
                [!provide]                PROVIDE (__executable_start = SEGMENT_START ("text-segment", 0x10000))
                0x00010154                . = (SEGMENT_START ("text-segment", 0x10000) + SIZEOF_HEADERS)

.interp         0x00010154       0x19
 *(.interp)
 .interp        0x00010154       0x19 /usr/lib/gcc/arm-linux-gnueabihf/8/../../../arm-linux-gnueabihf/crt1.o

.note.ABI-tag   0x00010170       0x20
 .note.ABI-tag  0x00010170       0x20 /usr/lib/gcc/arm-linux-gnueabihf/8/../../../arm-linux-gnueabihf/crt1.o

.note.gnu.build-id
                0x00010190       0x24
 *(.note.gnu.build-id)
 .note.gnu.build-id
                0x00010190       0x24 linker stubs

.hash
 *(.hash)

.gnu.hash       0x000101b4      0x73c
 *(.gnu.hash)
 .gnu.hash      0x000101b4      0x73c /usr/lib/gcc/arm-linux-gnueabihf/8/../../../arm-linux-gnueabihf/crt1.o

.dynsym         0x000108f0      0xca0
 *(.dynsym)
 .dynsym        0x000108f0      0xca0 /usr/lib/gcc/arm-linux-gnueabihf/8/../../../arm-linux-gnueabihf/crt1.o

.dynstr         0x00011590      0x9ba
 *(.dynstr)
 .dynstr        0x00011590      0x9ba /usr/lib/gcc/arm-linux-gnueabihf/8/../../../arm-linux-gnueabihf/crt1.o

.gnu.version    0x00011f4a      0x194
 *(.gnu.version)
 .gnu.version   0x00011f4a      0x194 /usr/lib/gcc/arm-linux-gnueabihf/8/../../../arm-linux-gnueabihf/crt1.o

.gnu.version_d  0x000120e0        0x0
 *(.gnu.version_d)
 .gnu.version_d
                0x000120e0        0x0 /usr/lib/gcc/arm-linux-gnueabihf/8/../../../arm-linux-gnueabihf/crt1.o

.gnu.version_r  0x000120e0       0xc0
 *(.gnu.version_r)
 .gnu.version_r
                0x000120e0       0xc0 /usr/lib/gcc/arm-linux-gnueabihf/8/../../../arm-linux-gnueabihf/crt1.o

.rel.dyn        0x000121a0       0x60
 *(.rel.init)
 *(.rel.text .rel.text.* .rel.gnu.linkonce.t.*)
 *(.rel.fini)
 *(.rel.rodata .rel.rodata.* .rel.gnu.linkonce.r.*)
 *(.rel.data.rel.ro .rel.data.rel.ro.* .rel.gnu.linkonce.d.rel.ro.*)
 .rel.data.rel.ro
                0x000121a0        0x0 /usr/lib/gcc/arm-linux-gnueabihf/8/../../../arm-linux-gnueabihf/crt1.o
 *(.rel.data .rel.data.* .rel.gnu.linkonce.d.*)
 *(.rel.tdata .rel.tdata.* .rel.gnu.linkonce.td.*)
 *(.rel.tbss .rel.tbss.* .rel.gnu.linkonce.tb.*)
 *(.rel.ctors)
 *(.rel.dtors)
 *(.rel.got)
 .rel.got       0x000121a0        0x8 /usr/lib/gcc/arm-linux-gnueabihf/8/../../../arm-linux-gnueabihf/crt1.o
 *(.rel.bss .rel.bss.* .rel.gnu.linkonce.b.*)
 .rel.bss       0x000121a8       0x58 /usr/lib/gcc/arm-linux-gnueabihf/8/../../../arm-linux-gnueabihf/crt1.o
                [!provide]                PROVIDE (__rel_iplt_start = .)
 *(.rel.iplt)
 .rel.iplt      0x00012200        0x0 /usr/lib/gcc/arm-linux-gnueabihf/8/../../../arm-linux-gnueabihf/crt1.o
                [!provide]                PROVIDE (__rel_iplt_end = .)

.rela.dyn       0x00012200        0x0
 *(.rela.init)
 *(.rela.text .rela.text.* .rela.gnu.linkonce.t.*)
 *(.rela.fini)
 *(.rela.rodata .rela.rodata.* .rela.gnu.linkonce.r.*)
 *(.rela.data .rela.data.* .rela.gnu.linkonce.d.*)
 *(.rela.tdata .rela.tdata.* .rela.gnu.linkonce.td.*)
 *(.rela.tbss .rela.tbss.* .rela.gnu.linkonce.tb.*)
 *(.rela.ctors)
 *(.rela.dtors)
 *(.rela.got)
 *(.rela.bss .rela.bss.* .rela.gnu.linkonce.b.*)
                [!provide]                PROVIDE (__rela_iplt_start = .)
 *(.rela.iplt)
                [!provide]                PROVIDE (__rela_iplt_end = .)

.rel.plt        0x00012200      0x5a8
 *(.rel.plt)
 .rel.plt       0x00012200      0x5a8 /usr/lib/gcc/arm-linux-gnueabihf/8/../../../arm-linux-gnueabihf/crt1.o

.rela.plt
 *(.rela.plt)

.init           0x000127a8        0xc
 *(SORT_NONE(.init))
 .init          0x000127a8        0x8 /usr/lib/gcc/arm-linux-gnueabihf/8/../../../arm-linux-gnueabihf/crti.o
                0x000127a8                _init
 .init          0x000127b0        0x4 /usr/lib/gcc/arm-linux-gnueabihf/8/../../../arm-linux-gnueabihf/crtn.o

.plt            0x000127b4      0x890
 *(.plt)
 .plt           0x000127b4      0x890 /usr/lib/gcc/arm-linux-gnueabihf/8/../../../arm-linux-gnueabihf/crt1.o
                0x000127c8                gethostname@@GLIBC_2.4
                0x000127d4                getuid@@GLIBC_2.4
                0x000127e0                fopen64@@GLIBC_2.4
                0x000127ec                endwin@@NCURSESW6_5.1.20000708
                0x000127f8                fwrite@@GLIBC_2.4
                0x00012804                mbrtowc@@GLIBC_2.4
                0x00012810                toupper@@GLIBC_2.4
                0x0001281c                __isoc99_sscanf@@GLIBC_2.7
                0x00012828                fprintf@@GLIBC_2.4
                0x00012834                waddnstr@@NCURSESW6_5.1.20000708
                0x00012840                strstr@@GLIBC_2.4
                0x0001284c                isatty@@GLIBC_2.4
                0x00012858                getppid@@GLIBC_2.4
                0x00012864                wbkgdset@@NCURSESW6_5.1.20000708
                0x00012870                execvp@@GLIBC_2.4
                0x0001287c                write@@GLIBC_2.4
                0x00012888                wctomb@@GLIBC_2.4
                0x00012894                can_change_color@@NCURSESW6_5.1.20000708
                0x000128a0                opendir@@GLIBC_2.4
                0x000128ac                printf@@GLIBC_2.4
                0x000128b8                gnome_vfs_mime_get_default_application
                0x000128c4                bsearch@@GLIBC_2.4
                0x000128d0                fclose@@GLIBC_2.4
                0x000128dc                atoll@@GLIBC_2.4
                0x000128e8                qsort@@GLIBC_2.4
                0x000128f4                getgid@@GLIBC_2.4
                0x00012900                wclear@@NCURSESW6_5.1.20000708
                0x0001290c                __ctype_b_loc@@GLIBC_2.4
                0x00012918                strnlen@@GLIBC_2.4
                0x00012924                nonl@@NCURSESW6_5.1.20000708
                0x00012930                getmntent@@GLIBC_2.4
                0x0001293c                iconv@@GLIBC_2.4
                0x00012948                fputc@@GLIBC_2.4
                0x00012954                dlclose@@GLIBC_2.4
                0x00012960                beep@@NCURSESW6_5.1.20000708
                0x0001296c                __xstat64@@GLIBC_2.4
                0x00012978                chown@@GLIBC_2.4
                0x00012984                strpbrk@@GLIBC_2.4
                0x00012990                fseek@@GLIBC_2.4
                0x0001299c                strerror@@GLIBC_2.4
                0x000129a8                color_content@@NCURSESW6_5.1.20000708
                0x000129b4                tolower@@GLIBC_2.4
                0x000129c0                putchar@@GLIBC_2.4
                0x000129cc                has_colors@@NCURSESW6_5.1.20000708
                0x000129d8                puts@@GLIBC_2.4
                0x000129e4                init_pair@@NCURSESW6_5.1.20000708
                0x000129f0                __libc_start_main@@GLIBC_2.4
                0x00012a08                setupterm@@NCURSES6_TINFO_5.0.19991023
                0x00012a14                strchr@@GLIBC_2.4
                0x00012a20                __errno_location@@GLIBC_2.4
                0x00012a2c                feof@@GLIBC_2.4
                0x00012a38                keypad@@NCURSES6_TINFO_5.0.19991023
                0x00012a44                lutimes@@GLIBC_2.4
                0x00012a50                atol@@GLIBC_2.4
                0x00012a5c                ftello64@@GLIBC_2.4
                0x00012a68                tcsetattr@@GLIBC_2.4
                0x00012a74                curs_set@@NCURSES6_TINFO_5.0.19991023
                0x00012a80                symlink@@GLIBC_2.4
                0x00012a8c                setenv@@GLIBC_2.4
                0x00012a98                mkdir@@GLIBC_2.4
                0x00012aa4                pthread_mutex_lock@@GLIBC_2.4
                0x00012ab0                pipe@@GLIBC_2.4
                0x00012abc                noecho@@NCURSESW6_5.1.20000708
                0x00012ac8                gnome_vfs_get_mime_type
                0x00012ad4                waddchnstr@@NCURSESW6_5.1.20000708
                0x00012ae0                pthread_cond_wait@@GLIBC_2.4
                0x00012aec                free@@GLIBC_2.4
                0x00012af8                iconv_close@@GLIBC_2.4
                0x00012b04                wcwidth@@GLIBC_2.4
                0x00012b10                close@@GLIBC_2.4
                0x00012b1c                clearok@@NCURSESW6_5.1.20000708
                0x00012b28                memcpy@@GLIBC_2.4
                0x00012b34                wcstombs@@GLIBC_2.4
                0x00012b40                iconv_open@@GLIBC_2.4
                0x00012b4c                memmove@@GLIBC_2.4
                0x00012b58                strncpy@@GLIBC_2.4
                0x00012b64                winchnstr@@NCURSESW6_5.1.20000708
                0x00012b70                win_wchnstr@@NCURSESW6_5.3.20021019
                0x00012b7c                access@@GLIBC_2.4
                0x00012b88                unlink@@GLIBC_2.4
                0x00012b94                ferror@@GLIBC_2.4
                0x00012ba0                strcpy@@GLIBC_2.4
                0x00012bac                execv@@GLIBC_2.4
                0x00012bb8                raise@@GLIBC_2.4
                0x00012bc4                getgrgid@@GLIBC_2.4
                0x00012bd0                start_color@@NCURSESW6_5.1.20000708
                0x00012bdc                atoi@@GLIBC_2.4
                0x00012be8                dlsym@@GLIBC_2.4
                0x00012bf4                ftime@@GLIBC_2.4
                0x00012c00                fork@@GLIBC_2.4
                0x00012c0c                signal@@GLIBC_2.4
                0x00012c18                gettimeofday@@GLIBC_2.4
                0x00012c24                getpwuid@@GLIBC_2.4
                0x00012c30                system@@GLIBC_2.4
                0x00012c3c                malloc@@GLIBC_2.4
                0x00012c48                localtime@@GLIBC_2.4
                0x00012c54                getcwd@@GLIBC_2.4
                0x00012c60                tcgetattr@@GLIBC_2.4
                0x00012c6c                pthread_cond_init@@GLIBC_2.4
                0x00012c78                kill@@GLIBC_2.4
                0x00012c84                strdup@@GLIBC_2.4
                0x00012c90                strlen@@GLIBC_2.4
                0x00012c9c                pthread_mutex_destroy@@GLIBC_2.4
                0x00012ca8                chdir@@GLIBC_2.4
                0x00012cb4                chmod@@GLIBC_2.4
                0x00012cc0                mktime@@GLIBC_2.4
                0x00012ccc                wadd_wchnstr@@NCURSESW6_5.3.20021019
                0x00012cd8                closedir@@GLIBC_2.4
                0x00012ce4                getpid@@GLIBC_2.4
                0x00012cf0                winnstr@@NCURSESW6_5.1.20000708
                0x00012cfc                __lxstat64@@GLIBC_2.4
                0x00012d08                select@@GLIBC_2.4
                0x00012d14                readlink@@GLIBC_2.4
                0x00012d20                iswalpha@@GLIBC_2.4
                0x00012d2c                fseeko64@@GLIBC_2.4
                0x00012d38                dup@@GLIBC_2.4
                0x00012d44                sprintf@@GLIBC_2.4
                0x00012d50                snprintf@@GLIBC_2.4
                0x00012d5c                fflush@@GLIBC_2.4
                0x00012d68                mbtowc@@GLIBC_2.4
                0x00012d74                curses_version@@NCURSES6_TINFO_5.0.19991023
                0x00012d80                perror@@GLIBC_2.4
                0x00012d8c                setlocale@@GLIBC_2.4
                0x00012d98                vfprintf@@GLIBC_2.4
                0x00012da4                mousemask@@NCURSESW6_5.1.20000708
                0x00012db0                gnome_vfs_mime_application_free
                0x00012dbc                strcmp@@GLIBC_2.4
                0x00012dc8                initscr@@NCURSESW6_5.1.20000708
                0x00012dd4                memcmp@@GLIBC_2.4
                0x00012de0                memset@@GLIBC_2.4
                0x00012dec                wrefresh@@NCURSESW6_5.1.20000708
                0x00012df8                getenv@@GLIBC_2.4
                0x00012e04                rename@@GLIBC_2.4
                0x00012e10                flock@@GLIBC_2.4
                0x00012e1c                mkfifo@@GLIBC_2.4
                0x00012e28                time@@GLIBC_2.4
                0x00012e34                meta@@NCURSES6_TINFO_5.0.19991023
                0x00012e40                wait@@GLIBC_2.4
                0x00012e4c                statfs64@@GLIBC_2.4
                0x00012e58                pthread_cond_broadcast@@GLIBC_2.4
                0x00012e64                fread@@GLIBC_2.4
                0x00012e70                gnome_vfs_init
                0x00012e7c                pthread_create@@GLIBC_2.4
                0x00012e88                strcat@@GLIBC_2.4
                0x00012e94                abort@@GLIBC_2.4
                0x00012ea0                init_color@@NCURSESW6_5.1.20000708
                0x00012eac                gnome_vfs_get_uri_from_local_path
                0x00012eb8                waitpid@@GLIBC_2.4
                0x00012ec4                gnome_vfs_get_file_info
                0x00012ed0                pthread_cond_timedwait@@GLIBC_2.4
                0x00012edc                exit@@GLIBC_2.4
                0x00012ee8                calloc@@GLIBC_2.4
                0x00012ef4                setmntent@@GLIBC_2.4
                0x00012f00                rmdir@@GLIBC_2.4
                0x00012f0c                strrchr@@GLIBC_2.4
                0x00012f18                wmove@@NCURSESW6_5.1.20000708
                0x00012f24                dup2@@GLIBC_2.4
                0x00012f30                getmntent_r@@GLIBC_2.4
                0x00012f3c                fgets@@GLIBC_2.4
                0x00012f48                raw@@NCURSES6_TINFO_5.0.19991023
                0x00012f54                utimes@@GLIBC_2.4
                0x00012f60                endmntent@@GLIBC_2.4
                0x00012f6c                memchr@@GLIBC_2.4
                0x00012f78                read@@GLIBC_2.4
                0x00012f84                readdir64@@GLIBC_2.4
                0x00012f90                pthread_mutex_unlock@@GLIBC_2.4
                0x00012f9c                wcrtomb@@GLIBC_2.4
                0x00012fa8                nl_langinfo@@GLIBC_2.4
                0x00012fb4                pthread_mutex_init@@GLIBC_2.4
                0x00012fc0                fileno@@GLIBC_2.4
                0x00012fcc                mkstemp64@@GLIBC_2.4
                0x00012fd8                strspn@@GLIBC_2.4
                0x00012fe4                open64@@GLIBC_2.4
                0x00012ff0                ioctl@@GLIBC_2.4
                0x00012ffc                fputs@@GLIBC_2.4
                0x00013008                nanosleep@@GLIBC_2.4
                0x00013014                iswprint@@GLIBC_2.4
                0x00013020                putenv@@GLIBC_2.4
                0x0001302c                ttyname@@GLIBC_2.4
                0x00013038                dlopen@@GLIBC_2.4

.iplt           0x00013044        0x0
 *(.iplt)
 .iplt          0x00013044        0x0 /usr/lib/gcc/arm-linux-gnueabihf/8/../../../arm-linux-gnueabihf/crt1.o

.text           0x00013048    0xb0334
 *(.text.unlikely .text.*_unlikely .text.unlikely.*)
 *(.text.exit .text.exit.*)
 *(.text.startup .text.startup.*)
 *(.text.hot .text.hot.*)
 *(.text .stub .text.* .gnu.linkonce.t.*)
 .text          0x00013048       0x3c /usr/lib/gcc/arm-linux-gnueabihf/8/../../../arm-linux-gnueabihf/crt1.o
                0x00013048                _start
 .text          0x00013084       0x24 /usr/lib/gcc/arm-linux-gnueabihf/8/../../../arm-linux-gnueabihf/crti.o
 .text          0x000130a8       0x90 /usr/lib/gcc/arm-linux-gnueabihf/8/crtbegin.o
 .text          0x00013138     0x67c0 xfc.o
                0x00013138                main
                0x0001328c                txtcomp
                0x0001391c                getirecfv
                0x00013ba4                getirec
                0x000140d4                setnetlen
                0x0001448c                wordtbgen
                0x00014920                lvl0matching
                0x00014b40                pushpair
                0x00014ba4                poppair
                0x00014c74                getmax
                0x00014d4c                chkmax
                0x00014eb4                linecompare
                0x000151b4                setupdate
                0x00015398                lvl2matching
                0x00015754                fazymatching
                0x00015920                fazywordmatching
                0x00015b84                nsntmatching
                0x00015dbc                resultprint
                0x000161fc                printsub
                0x00016964                markline
                0x00016c08                putline
                0x00016c78                bincomp
                0x0001752c                binstartpos
                0x000175e8                openfile
                0x000176ac                openfilefv
                0x00017760                readrecfv
                0x000178c8                getinput
                0x00017964                parmchk
                0x00018a0c                getrange
                0x00018d38                getrecordformat
                0x00018e10                optionerr
                0x00018e4c                chksamepathparm
                0x00018e74                help
 .text          0x000198f8     0x3084 ../ulib/libuserxe.a(libuserxe_a-udbcschk.o)
                0x000198f8                udbcschk_wcinit
                0x00019c98                udbcschk_getbaseconverter
                0x00019d40                udbcschk_setunprintable
                0x00019ed8                udbcschk_wclocaleinit
                0x0001a044                udbcschk_wclocalereset
                0x0001a458                udbcschk_chklocale
                0x0001a518                udbcschk_getlinuxleadbyte
                0x0001a680                udbcschk
                0x0001a80c                udbcschk_hk
                0x0001a8f8                udbcschk_getmblen
                0x0001abb8                udbcschk_mblen
                0x0001ac88                udbcschk_mb2nd
                0x0001ae10                udbcschk_isvalidmbchar
                0x0001aef4                udbcschk_locale_topbyte
                0x0001aff8                udbcschk_getdbcs1st
                0x0001b0ec                udbcschk_ismbdbcs1st
                0x0001b14c                udbcschk_locale1
                0x0001b438                udbcschk_mb2ucs1
                0x0001b5a4                udbcschk_ucs2mb1
                0x0001b6d0                udbcschk_forceenglish
                0x0001b73c                udbcschkcp
                0x0001b8a8                ugetcp
                0x0001b98c                udbcsenv
                0x0001b9cc                udosquerydbcsenv
                0x0001bb40                udbcschk2
                0x0001bc04                udbcschk_pos2offs
                0x0001bde0                usetdbcstbl
                0x0001c144                usetdbcstblmb
                0x0001c5b4                udbcschk_setlocale
                0x0001c804                udbcschk_setdbcstype
                0x0001c91c                udbcschk_icugetlocalconverter
 .text          0x0001c97c     0x2e38 ../ulib/libuserxe.a(libuserxe_a-udbcsck2.o)
                0x0001c97c                ujischkx208
                0x0001ca4c                usjischkx208
                0x0001cb2c                usjis2jis
                0x0001cc34                ujis2sjis
                0x0001cd24                ustrjis2sjis
                0x0001d23c                ustrsjis2jis
                0x0001d744                ushift2euc
                0x0001dc7c                ushift2euc1
                0x0001de58                ushift2euccount
                0x0001e098                usjischk
                0x0001e34c                ueuc2shift1SS3
                0x0001e37c                ueuc2shift
                0x0001eb08                ueucchk
                0x0001ef44                ueuc2shift1
                0x0001f1b8                ueuc2shift1c
                0x0001f36c                uhan2zen
                0x0001f630                udbcschktty
                0x0001f6b4                udbcschk_srchSS2
 .text          0x0001f7b4     0x3fe8 ../ulib/libuserxe.a(libuserxe_a-uedit.o)
                0x0001f7b4                uedit
                0x0001f7cc                unumedit
                0x0001fb04                utimeedit
                0x0002067c                uitoa10
                0x000206b0                ucmdparmedit
                0x00020dd8                ueditenv
                0x00021204                uwordrep
                0x000218b0                ugethex
                0x00021a10                ugethexdump
                0x00021bf0                ux2FILESZ
                0x00021c20                ux2l
                0x00021db4                ux2ll
                0x00021e9c                ua2ll
                0x00021ecc                ux2s
                0x00022028                ugetnumrange3
                0x000221a0                ugetnumrange2
                0x0002229c                ugetnumrange2XFILESZ
                0x00022370                ugetnumrange
                0x0002257c                ugetxnumrange
                0x000229a0                ugetxnumrangeLL
                0x00022dcc                unumlen
                0x0002300c                uatoin
                0x0002308c                getKMGTB
                0x00023214                ueditFILESZ
                0x00023488                ueditLONGHANDLE
                0x00023690                ueditKMG
 .text          0x0002379c     0x29f8 ../ulib/libuserxe.a(libuserxe_a-uerr.o)
                0x0002379c                uerr
                0x000237b4                ubell_init
                0x000237f4                ubell_init2
                0x00023824                ubell
                0x0002393c                uerrexit_init
                0x00023a04                uerrexit_optinit
                0x00023a34                uerrsetopt2
                0x00023a98                uerrexit
                0x00023c90                uerrmsg_init
                0x00023e70                uerrmsg
                0x00024080                uerrmsg2
                0x00024200                uerrmsgcat
                0x0002430c                uerrsprintf
                0x000243f8                uerrfprintfutf
                0x00024864                uerrhelpmsg
                0x00024d50                uerrscrheight
                0x00024e00                useterrmsg
                0x00024e74                ugeterrmsg
                0x00024ec0                ugeterrmsg2
                0x00024f00                uerrmsgedit
                0x00025894                uconfirmmsg
                0x00025bac                uerrornomsg
                0x00025bd4                ugeterrdescription
                0x00025c58                uerrapi1
                0x00025ca0                uerrapi1x
                0x00025ce4                uerrapi0
                0x00025d20                uerrapi0x
                0x00025d58                uerrapi1t
                0x00025dc8                uerrapi1nt
                0x00025e1c                uerrapi1tx
                0x00025e88                uerrapi0t
                0x00025ef0                uerrapi0tx
                0x00025f54                uerrnotsupported
                0x00025f98                uerrmsg_initstart
                0x0002605c                uerrmsg_initstack
                0x000260c0                uerrmsg_initcomp
 *fill*         0x00026194        0x4 
 .text          0x00026198      0xec0 ../ulib/libuserxe.a(libuserxe_a-ufemsg.o)
                0x00026198                ufemsg
                0x000261b0                ufilenotfound
                0x000261ec                ufilenotfoundotherexist
                0x00026228                ufilepatherr
                0x00026264                ufileapierr
                0x000262ac                ufileapierr_str
                0x00026304                ufiledelpath
                0x00026340                ufilereadonly
                0x0002637c                ufilereadonly2
                0x000263bc                ufiledeleted
                0x000264ec                ufileshare
                0x00026528                ufileexist
                0x00026564                ufileexistcopy
                0x000265a0                ufileexist2
                0x000265e4                ufileexistdir
                0x00026620                ufilenotdir
                0x0002665c                ufilediskfull
                0x000266a0                ufilewildtarget
                0x000266d4                ufilewildcarderr
                0x00026708                ufilewildpatherr
                0x0002673c                ufileroot
                0x00026778                ufileapierr2
                0x000267cc                ufiledirna
                0x00026818                ufileerrdir
                0x00026854                ufilenotvfat
                0x0002687c                ufilenopermission
                0x000268c0                ufileslinkloop
                0x00026918                ufileerrspecialfile
                0x00026954                ufileerrnotnormal
                0x00026990                ufileerrdir2file
                0x000269c0                ufileerrnoentry
                0x000269f8                ufileerrnofileentry
                0x00026a30                ufileTooLongFullpathName
                0x00026a88                ufileTooLongFullpathName2
                0x00026be8                ufileeditsz
                0x00026f80                ufileslinktargeterr
                0x00026fc4                ufileopenerrInvalidargument
                0x00027020                ufileErrInvalidName
 .text          0x00027058     0x3508 ../ulib/libuserxe.a(libuserxe_a-ufile.o)
                0x00027058                ufile
                0x00027070                ufullpathwildexp
                0x00027724                ufullpathresolvespecialdirid
                0x000278e0                ufilegetpathdir
                0x00027acc                udirlistnomsg
                0x00027b2c                udirlist
                0x00027ce0                udirlistsub
                0x000281d4                udirlist_set_slinkname
                0x00028328                ufile_udirlist_copy
                0x00028584                ufile_udirlist_swap
                0x00028768                ufile_udirlist_alloc1
                0x000287fc                ufile_udirlist_free
                0x000288f8                udircompare_pointer
                0x00028968                udirlistsort
                0x00028b2c                udircomp
                0x00028b70                udircompare
                0x000295f0                udircompsub
                0x00029718                uredirect
                0x00029b60                uredirectrestore
                0x00029c7c                ufdateedit
                0x00029fbc                uftimeedit
                0x0002a1f4                uftimeedit_1sec
                0x0002a250                udirlist_chk_max_entry
                0x0002a2b8                udirlist_setname
                0x0002a494                udirlist_setname_cat
 .text          0x0002a560     0x1b00 ../ulib/libuserxe.a(libuserxe_a-ufile1f.o)
                0x0002a560                uftpfstat
                0x0002a880                uftpwinchk
                0x0002a9ac                uftpfullpathnorid
                0x0002aa0c                uftpfullpath
                0x0002b0d4                uftppathlen
                0x0002b124                uftpgetcwd
                0x0002b224                uftpgethome
                0x0002b2a4                uftpgethomesub
                0x0002b478                uftpchdir
                0x0002b644                uftpchdirsub
                0x0002b814                uftplchdirrespchk
                0x0002ba20                uftpdirlistsub
                0x0002be00                uftpfindfirst
                0x0002bf50                uftpfindfirstfile
                0x0002bfd8                uftpfindnext
 .text          0x0002c060     0x4344 ../ulib/libuserxe.a(libuserxe_a-ufile1l.o)
                0x0002c060                ufstat
                0x0002c8d0                ufilechkwildmultiple
                0x0002cb6c                ufstat_wild
                0x0002cbfc                ufilefscomp
                0x0002cc74                ufilegetfsid
                0x0002cd54                ufilegetftime
                0x0002ce64                ufullpath
                0x0002d86c                upathlen
                0x0002d8bc                ugetcwd
                0x0002d8e8                uchdir
                0x0002da14                udosfindfirstnomsg
                0x0002da84                udosfindfirst
                0x0002e200                udosfindnext
                0x0002e270                udosfindnextmsg
                0x0002e674                ufilelnxwildselect
                0x0002e6e0                ufilelnxattrselect
                0x0002e8b8                ufilelnxgetmembfstat
                0x0002eae4                ufilelnxsavehdir
                0x0002ec14                ufilelnxsrchhdir
                0x0002ed1c                ufilelnxclosehdir
                0x0002ee5c                ufilemode2attr
                0x0002f008                ufilemktime
                0x0002f0c0                ufilerepwildname
                0x0002f1c0                errwildname
                0x0002f3c8                filesrchmountpoint
                0x0002f5a0                filegetdevt
                0x0002f824                filegetdevicename
                0x0002f9d0                filegetdevicemntent
                0x0002faf0                filegetmntent
                0x0002fcc4                filegetmntoption
                0x0002fe28                ufilegetiocharset
                0x0002ff2c                ufilefnmcvcs
                0x00030170                ufullpathCP
 .text          0x000303a4     0x1f08 ../ulib/libuserxe.a(libuserxe_a-ufile1l2.o)
                0x000303a4                mtoolsinit
                0x000303d0                ufstat_mdos
                0x0003091c                ufilegetmdosattr
                0x00030a20                uopendir_mdos
                0x00030d1c                ureaddir_mdos
                0x00030f60                ufilegetmdosdl
                0x000314c0                ufilegetmdosattrlist
                0x000316b8                ugetcwd_mdos
                0x00031834                uchdir_mdos
                0x000318d0                ustatfs_mdos
                0x00031b10                uminfo
                0x00031dec                ufilegetnum
                0x00031ef0                ufilemdoscmd
                0x00032148                ufilemdoserrchk
 .text          0x000322ac     0x4588 ../ulib/libuserxe.a(libuserxe_a-ufile2.o)
                0x000322ac                ufile2
                0x000322c4                uxddpchk
                0x00032714                uxddsub
                0x00032f64                uxdelete
                0x00033ce4                ufilewildxdel
                0x00033f18                uxdelsub
                0x000348c0                uremovenomsg
                0x00034914                uremove
                0x00034b74                urenamenomsg
                0x00034bcc                urename2
                0x00034c24                urename
                0x00035328                ufilewildrename
                0x00035360                uwildfunc
                0x0003575c                ufilecdirchk
                0x00035af4                ufilespfnchk
                0x00035b1c                wildchk
                0x00035cb4                ufilechkwildmemb
                0x00035de4                ufilechkwildname
                0x00035f78                ufileopenexclusivewrite
                0x00036034                ufiledelifnotopened
                0x00036110                ufile2quietmsg
                0x00036240                ugetmoveavailablepath
                0x0003672c                uwildfunc_LongName
 .text          0x00036834     0x47cc ../ulib/libuserxe.a(libuserxe_a-ufile2f.o)
                0x00036834                uftpmkdir
                0x00036e2c                uftprmdir
                0x00037238                uftpremove
                0x0003767c                uftprename
                0x00037a28                uftprenamesub
                0x00037dfc                uftpwildrename
                0x00037e4c                uftpattrib
                0x00038158                uftpattrxon
                0x000381a0                uftpattrxchk
                0x00038378                uftpgetftime
                0x000384cc                uftpgetftime_1sec
                0x00038644                uftpsetftime
                0x000386bc                uftpsetftime2
                0x00038734                uftpcopypathinfo
                0x0003885c                uftpsetown
                0x000388d4                uftpsetmod
                0x00038db4                uftpwildfunc
                0x00038fe0                uftpwildfunc2
                0x00039358                uftpmultidel
                0x00039470                uftpmultirename
                0x00039588                uftpwildxdel
                0x000398c4                uftpmultidelsub
                0x00039a50                uftpmultirenamesub
                0x00039c90                uftpbypassreason
                0x00039d1c                uftpxdelrchk
                0x0003a128                uftpmultidelrchk
                0x0003a3c4                uftpmultirenamerchk
                0x0003a66c                ufile2putstmt
                0x0003a7ac                uftpnotsupported
                0x0003a804                uftpnotsupportedforlocal
                0x0003a85c                uftpdelsubdir
                0x0003aadc                ufile3xdeleteinit
                0x0003ab68                uxdelsubftp
                0x0003afb8                errtoolongname
 .text          0x0003b000     0x19d8 ../ulib/libuserxe.a(libuserxe_a-ufile2l.o)
                0x0003b000                umkdir
                0x0003b06c                umkdirmode
                0x0003b3a0                urmdir
                0x0003b844                uattrib
                0x0003bb90                uattrxon
                0x0003bc08                uattrxchk
                0x0003bde8                ugetftime
                0x0003bf20                ugetftime_1sec
                0x0003c0a0                usetftime
                0x0003c21c                usetftime_1sec
                0x0003c278                usetftime2
                0x0003c3d4                ucopypathinfo
                0x0003c7e0                ufilesetown
                0x0003c8d8                ufilesetmod
 .text          0x0003c9d8      0xbc8 ../ulib/libuserxe.a(libuserxe_a-ufile2l2.o)
                0x0003c9d8                umkdir_mdos
                0x0003caa4                urmdir_mdos
                0x0003cbb8                uattrib_mdos
                0x0003cdbc                uremove_mdos
                0x0003ced0                urename_mdos
                0x0003cf68                ucopy_mdos
                0x0003d1fc                uappend_mdos
                0x0003d544                ufilemdoscopyerr
 .text          0x0003d5a0     0x4dd0 ../ulib/libuserxe.a(libuserxe_a-ufile3.o)
                0x0003d5a0                ufile3
                0x0003d5b8                invalidtargetfilename
                0x0003d5f0                uxcopy
                0x0003e4e0                ufilecreateparmproc
                0x0003ec4c                ufilecpymvflags
                0x0003ef18                ufilewildcopy
                0x0003f1b8                ucopysub_slinktarget
                0x0003f358                ucopysub_slink
                0x0003f650                ucopysub
                0x0003fd74                udoscopy
                0x0004012c                uxmove
                0x00040b44                ufilewildmove
                0x00040cd4                umovesub_slink
                0x00041410                umovesub
                0x00041b40                ufilecopytschk
                0x00041c58                ufilechkslinkpath
                0x00041ea0                ufilegetslinkfinaltarget
                0x00042028                ufilesymlink
                0x000420ac                ufilesymlink_copyfiletime
                0x000421a4                ufilesymlink_copy
                0x00042250                ufileerrdirandfile
                0x00042290                ufileerrslinktarget
                0x000422d4                ufileerrslinkappend
                0x00042314                ufileerrnotargetslink
 .text          0x00042370     0x539c ../ulib/libuserxe.a(libuserxe_a-ufile3f.o)
                0x00042370                uftpxmove
                0x00042538                uftpxcopy
                0x00042830                uftpxcopyr2r
                0x00042ab4                uftpupload
                0x00043154                uftpdownload
                0x000437a4                uftptargetflag
                0x00043b2c                uftpsourceflag
                0x00043ee4                uftps2tchk
                0x000444d8                uftpcreateparmproc
                0x0004491c                uftpmoveparmproc
                0x00044bd0                uftpupdownctl
                0x000454d4                uftpgetdirlist
                0x000455a8                uftpexistchk1
                0x00045804                uftpexistchkm
                0x00045d64                uftpcopycallback
                0x00046588                uftpcopyrchk
                0x00046d1c                uftpputstmt
                0x00046e60                uftpputstmt2
                0x00047000                uftpcopyftime
                0x0004734c                ufileftpcopytschk
                0x00047588                uftpmktdir
                0x000475e8                uftperrsourceisroot
                0x00047610                uftperrtargetisnotdir
                0x00047644                uftperrdir2file
                0x00047684                uftpfileanddir
                0x000476d0                uftpappenddir2dir
 .text          0x0004770c     0x2acc ../ulib/libuserxe.a(libuserxe_a-ufile4.o)
                0x0004770c                ufile4
                0x00047724                utempnam
                0x00047a04                utempnamd
                0x00047a5c                ufgetpos
                0x00047a8c                udirwalk
                0x000481c4                udirwalksub
                0x00049274                ufileslinkoutoflinkchk
                0x00049714                ufileslinkloopchk
                0x00049bb8                ufileslinkloopchk2
                0x00049cc8                ugetdiskfree
                0x00049e5c                ufileisvfat
                0x00049e90                ufileisntfs
                0x00049eb4                ufileisvfatMounted
                0x00049f34                ufileisntfsMounted
                0x00049fb4                ufileisMSMounted
                0x0004a060                ufsetlock
                0x0004a0c8                uflock
 .text          0x0004a1d8     0x4e20 ../ulib/libuserxe.a(libuserxe_a-ufile5.o)
                0x0004a1d8                ufile5
                0x0004a1f0                ufgetsinit
                0x0004a60c                ufgetscurpos
                0x0004a634                ufgets_setcurpos
                0x0004a6b8                ufgets
                0x0004aa7c                ufgetssub
                0x0004b064                ufgetsbinchk_utf8
                0x0004b33c                ufgetsbinchk_ebc
                0x0004b55c                ufgetsbinchk
                0x0004ba14                isSameU8c
                0x0004bc5c                udoseditname
                0x0004c520                ufileeditname
                0x0004c9e8                ufilewildcomp
                0x0004cd68                ufilewildcompsub
                0x0004cf38                ufilecomp
                0x0004d410                ufilecomptextmode
                0x0004d7b8                ufilecomptextmodefixed
                0x0004da44                ufilecomptextmodesub
                0x0004db88                ufreads
                0x0004de68                ufgetsVHeader
                0x0004e0f0                ufgetsVRecord
                0x0004e3e8                ufgetsV
                0x0004e668                ufile5chkvfmt
                0x0004e7c8                ufile5getVfmtstr
                0x0004e88c                ufseek
                0x0004e8c8                uftell
                0x0004e8f8                fileeditname_copypath
                0x0004ef14                fileeditname_copypath_err
                0x0004ef78                filetouch
 .text          0x0004eff8     0x4f50 ../ulib/libuserxe.a(libuserxe_a-uftp.o)
                0x0004eff8                uftpfstatroot
                0x0004f0a0                uftplshome
                0x0004f208                uftpfstatudl
                0x0004f54c                uftpisexist
                0x0004f668                uftpopendir
                0x0004fc40                uftpreaddir
                0x0004fda4                uftpattrselect
                0x0004ff6c                uftpgetslinkattr
                0x0005034c                uftpdirlistslink
                0x0005093c                uftpsortslink
                0x00050994                uftpslinkcomp
                0x00050a18                uftpslinklscmd
                0x00050d50                uftplsoutchk
                0x000510c4                uftpmodtimerchk
                0x000515a0                uftpmodtimeerr
                0x000515f4                uftplsoutchkslinkerrskip
                0x00051720                uftplsoutchkslink
                0x00051820                uftpsavehdir
                0x00051968                uftpsrchhdir
                0x00051a14                uftpclosehdir
                0x00051a78                uftpmode2attr
                0x00051bf4                uftpudl2ffb3
                0x00051da4                uftpgetpathname
                0x00051e6c                uftpnodesrch
                0x00051f1c                uftpnodeadd
                0x00051fd4                uftpnodedel
                0x00052030                uftpnodeclear
                0x0005204c                uftpgethostqhaddr
                0x0005206c                uftphoststbinit
                0x0005238c                uftpgethostsdata
                0x000533f8                uftgetstringopd
                0x00053678                uftpipachk
                0x00053898                uftpgetportno
                0x00053924                uftpisremote
                0x00053ab0                uftpisrootdir
                0x00053b34                uftphostscrypt
                0x00053e10                uftptempnam
                0x00053e6c                uftp_mempswd
                0x00053f04                uftp_udirlist_setname
 .text          0x00053f48     0x2c2c ../ulib/libuserxe.a(libuserxe_a-uftp2.o)
                0x00053f48                uftpinit
                0x00054098                uftpterm
                0x000540e0                uftplog
                0x000544b4                uftpnodeinit
                0x0005469c                uftpcmd
                0x00054dd4                uftpcmdrespchk
                0x00054ee0                uftpcmdresphdrchk
                0x00055008                uftpcmdsrchrespid
                0x00055268                uftpsimplerespchk
                0x00055340                uftpnextstdo
                0x00055410                uftpsrchfname
                0x000555d8                uftpsrchfnameslink
                0x00055860                uftpgetdl
                0x00055b80                uftpgetdl1
                0x00056288                uftpgetmode
                0x000565d0                uftpgetdlftime
                0x00056774                uftpgetmonth
                0x000567f0                uftpgetwday
                0x00056868                uftpajustjst
                0x00056ac4                uftpmktempwd
                0x00056b10                uftpdeltempwd
 .text          0x00056b74     0x5ab0 ../ulib/libuserxe.a(libuserxe_a-uftp3.o)
                0x00056b74                uftp3setssh
                0x00056e34                uftp3editpsftpcmd
                0x00056f74                uftp3cmdrespchk
                0x00057090                uftp3cmdresphdrchk
                0x000571e4                uftp3srchcmdecho
                0x00057338                uftp3gethomesub
                0x00057498                uftp3simplerespchk
                0x00057604                uftp3simplerespchkOK
                0x000577a0                uftp3simplerespchkCHNG
                0x00057930                uftp3lchdirrespchk
                0x0005799c                uftp3getputrespchk
                0x00057ab8                uftp3cdrespchk
                0x00057bf4                uftp3setsmb
                0x00057cb0                uftp3smb_setcmd
                0x00058130                uftp3smb_editcmdline
                0x000583e8                uftp3smb_nodeinit
                0x00058494                uftp3smbcmd
                0x00058518                uftp3smb_cmd
                0x00058a20                uftp3smb_chkstatuserr
                0x00058c68                uftp3smb_srchresp
                0x00058e90                uftp3smb_stderrlog
                0x00058f08                uftp3smb_getdltime
                0x000590ac                uftp3smb_getdltimestat
                0x000591fc                uftp3smb_setdltime
                0x0005932c                uftp3smb_getmode
                0x0005955c                uftp3smb_getdirlistctr
                0x000595a4                uftp3smb_getdl1
                0x00059818                uftp3smb_fstatudl
                0x00059b28                uftp3smb_fstatudl_byls
                0x00059d58                uftp3smb_fstatudl_byls_root
                0x00059ff4                uftp3smb_lsoutchk
                0x0005a178                uftp3smb_getdlattr
                0x0005a270                uftp3smb_fstatdircallback
                0x0005a510                uftp3smb_fstatdirrchk
                0x0005a958                uftp3smb_fstatoutchk
                0x0005ae5c                uftp3smb_putstmt
                0x0005b404                uftp3smb_respchk_srchnext
                0x0005b73c                uftp3smb_respchk
                0x0005bb64                uftp3smb_lchdirrespchk
                0x0005bbb4                uftp3smb_strfname
                0x0005be64                uftp3smb_enclosefnm
                0x0005bfa4                uftp3smb_editcmdparm
                0x0005c144                uftp3smb_dirnameforlist
                0x0005c214                uftp3smb_mode2attr_winsub
                0x0005c2a4                uftp3smb_mode2attr_win
                0x0005c2f4                uftp3smb_strattr
                0x0005c3dc                uftp3smb_setmod_win
 .text          0x0005c624      0x4b0 ../ulib/libuserxe.a(libuserxe_a-ugcclib.o)
                0x0005c624                strupr
                0x0005c68c                strlwr
                0x0005c6f4                memicmp
                0x0005c7c0                stricmp
                0x0005c850                itoa
                0x0005c8e4                kbhit
                0x0005c8fc                getch_nc
                0x0005c91c                getche
                0x0005c93c                spawnvp
                0x0005c994                spawnv
 .text          0x0005cad4     0x1d30 ../ulib/libuserxe.a(libuserxe_a-ukbdl.o)
                0x0005cad4                ukbdpeek
                0x0005cb00                ukbdcharin
                0x0005cca8                ukbdl_init
                0x0005cd94                ukbdl_term
                0x0005cdac                ukbdl_setkbmode
                0x0005ce34                ukbdl_shellmode
                0x0005cf40                ukbdl_setgetchmode
                0x0005d000                ukbdl_tcgetattr
                0x0005d0a0                ukbdl_tcsetattr
                0x0005d144                ukbdl_getch_init
                0x0005d198                ukbdl_getche_init
                0x0005d1ec                ukbdl_getch_term
                0x0005d238                ukbdl_getche_term
                0x0005d284                ukbdl_kbhit
                0x0005d2d4                ukbdl_getch
                0x0005d374                ukbdl_getche
                0x0005d414                ukbdl_gettermid
                0x0005d558                ukbdl_gettermsim
                0x0005da90                ukbdl_editstring
                0x0005db58                ukbdsetstatus
                0x0005dc10                ukbdl_wcinit
                0x0005dd10                ukbdl_readutf8
                0x0005e304                ukbdl_readdbcs
                0x0005e60c                ukbd_simutf8_f2l
 .text          0x0005e804     0x8020 ../ulib/libuserxe.a(libuserxe_a-ukbdlnxc.o)
                0x0005e804                ukbdlnxc_gettbl
                0x0005e8a0                ukbdlnxc_init
                0x0005ea50                ukbdlnxc_term
                0x0005eacc                ukbdlnxc_getnext
                0x0005eb54                ukbdlnxc_read
                0x0005ed08                ukbdlnxc_readkbd
                0x0005fb9c                ukbdlnxc_optproc
                0x0005fd18                ukbdlnxc_setupckt
                0x000603dc                ukbdlnxc_setupcktsub
                0x00060648                ukbdlnxc_setupcktx
                0x00062d04                cktovferr
                0x00062d80                ukbdlnxc_addstrtbl
                0x00063058                ukbdlnxc_dupstrchk
                0x000633b4                ukbdlnxc_cleanup
                0x0006343c                ukbdlnxc_termexit
                0x00063470                ukbdlnxc_getplainsym
                0x00063744                ukbdlnxc_chkothersym
                0x000637b0                ukbdlnxc_xbsdel
                0x000638b4                ukbdlnxc_delopt
                0x00063998                ukbdlnxc_setfunckey
                0x00063b7c                ukbdlnxc_setfuncstr
                0x00063f60                ukbdlnxc_setcompose
                0x00063ff8                ukbdlnxc_getkeysym
                0x000640d8                ukbdlnxc_setkeysym
                0x000641b8                ukbdlnxc_getstring
                0x00064288                ukbdlnxc_setstring
                0x00064380                ukbdlnxc_getdiacr
                0x0006442c                ukbdlnxc_setdiacr
                0x000644d8                ukbdlnxc_setmetamode
                0x000646e4                ukbdlnxc_getconsole
                0x00064868                ukbdlnxc_getptty
                0x000649a4                ukbdlnxc_open
                0x00064a2c                ukbdlnxc_chkconsole
                0x00064a54                ukbdlnxc_save1st
                0x00064df0                ukbdlnxc_restorelast
                0x000653ac                ukbdlnxc_lockfwrite
                0x00065430                ukbdlnxc_lockfread
                0x000654b4                ukbdlnxc_pidsetlock
                0x000655a0                ukbdlnxc_pidresetlock
                0x00065640                ukbdlnxc_pidchklock
                0x000656f8                ukbdlnxc_chngttkey
                0x000662c4                ukbdlnxc_setrctl
                0x000663f8                ukbdlnxc_setrctlstr
                0x000667fc                uttyname
 .text          0x00066824      0x848 ../ulib/libuserxe.a(libuserxe_a-ukbdlnxm.o)
                0x00066824                ukbdlnxm_mouseopt
                0x00066934                ukbdlnxm_mouseinit
                0x0006699c                ukbdlnxm_mouseterm
                0x000669fc                ukbdlnxm_getmouse
                0x00066e54                clickchk
 .text          0x0006706c     0x22e0 ../ulib/libuserxe.a(libuserxe_a-uparse.o)
                0x0006706c                uparsein
                0x00067314                uparseindir
                0x00067488                uparsev
                0x00067650                uparse2
                0x0006778c                uparse
                0x00068494                uparsefname
                0x00068620                uparsecmd
                0x00068d90                uparsecmdin
                0x00068fe8                uparsegetopt
 .text          0x0006934c     0x3754 ../ulib/libuserxe.a(libuserxe_a-uproc.o)
                0x0006934c                usystem2
                0x00069488                usystem
                0x0006959c                uspawnl
                0x000696c8                uspawnlp
                0x000697f4                uspawnvp
                0x000698f0                uprocopt
                0x000699bc                uspawnrc
                0x00069be4                uprocerrmem
                0x00069c20                uprocerrnotf
                0x00069c5c                uexecchk
                0x0006a064                uextdirsrch
                0x0006a0a4                ucmdnmcomp
                0x0006a220                ugetexepath
                0x0006a244                uproc_getpsinfo
                0x0006a79c                uproc_srchpsinfo
                0x0006a92c                uproc_freepsinfo
                0x0006a99c                usystem_redirect
                0x0006ac84                uspawn_redirect
                0x0006b05c                uproc_redirectoutchk
                0x0006b9d8                uspawnvp_pipe
                0x0006be2c                uspawnvp_pipeclose
                0x0006bef8                usystem_cmdserverinit
                0x0006bf9c                usystem_cmdserverterm
                0x0006c0d8                usystem_cmdserversetup
                0x0006c548                usystem_cmdtocmdserver
                0x0006c5d4                usystem_cmdserverreq
                0x0006c9e0                usystem_cmdserverreqwithoutbuff
                0x0006ca74                usystem_pidalivechk
 .text          0x0006caa0     0x142c ../ulib/libuserxe.a(libuserxe_a-uproc2.o)
                0x0006caa0                uprocparseredirect
                0x0006cea8                uproc_rsh
                0x0006d5c8                uproc_redirectrewrite
                0x0006d6f0                uproc_rshlog
                0x0006d7c0                ugetpid
                0x0006d80c                uprocredirectchk
                0x0006d85c                uproc_loaddllpath
                0x0006dac4                uproc_loaddll
                0x0006dc74                uproc_getdllproc
                0x0006dd60                uproc_freedll
                0x0006ddbc                uproc_getprocaddr
 .text          0x0006decc     0x11dc ../ulib/libuserxe.a(libuserxe_a-uproc4.o)
                0x0006decc                uproc_shcmd
                0x0006dfd4                uproc_shserverinit
                0x0006e078                uproc_shserverterm
                0x0006e150                uproc_shserversetup
                0x0006e610                uproc_shserverreq
                0x0006ea54                uproc_srchprocessw
                0x0006eb18                uproc_srchprocess
                0x0006ebfc                uproc_select
                0x0006efc0                uproc4_fdset
                0x0006f030                uproc4_fdisset
 .text          0x0006f0a8      0x9d4 ../ulib/libuserxe.a(libuserxe_a-uque.o)
                0x0006f0a8                uque
                0x0006f0c0                uenq
                0x0006f394                udeq
                0x0006f670                uqscan
                0x0006f794                uqfree
                0x0006f7ec                uqufree
                0x0006f844                uenqchain
                0x0006f95c                uenqent
                0x0006f9fc                uqhmove
 .text          0x0006fa7c      0x274 ../ulib/libuserxe.a(libuserxe_a-ustrcpy.o)
                0x0006fa7c                ustring_memcpy
                0x0006fb38                ustring_strncpy
                0x0006fc58                ustring_strcpy
 .text          0x0006fcf0     0x2778 ../ulib/libuserxe.a(libuserxe_a-ustring.o)
                0x0006fcf0                ustring
                0x0006fd08                ustrnchr
                0x0006fd90                ustrnpbrk
                0x0006fe6c                ustrnspn
                0x0006ff68                ustrrspn
                0x00070008                ustrnrspn
                0x000700b8                umemrspn
                0x00070170                umemspnc
                0x000701fc                umemspn_spacetab
                0x0007028c                umemrspnc
                0x0007031c                ustrnstr
                0x00070424                ustrrstr
                0x000704b4                ustrnrstr
                0x000705a0                ustrstri
                0x000706f8                ustrnstri
                0x000707ec                ustrrstri
                0x0007087c                ustrnrstri
                0x00070968                ustrnrchr
                0x00070a5c                umemchr_utf
                0x00070bf8                ustrchr2
                0x00070d40                ustrnchr2
                0x00070d8c                umemchr2
                0x00070ecc                ustrrchr2
                0x0007100c                ustrnrchr2
                0x00071058                umemrchr2
                0x0007116c                umemrchr
                0x000711ec                umempbrk
                0x000712b8                umemrpbrk
                0x00071388                ustrnlen
                0x000713dc                umemstr
                0x00071420                umemstri
                0x00071464                umemrstr
                0x000714a8                umemrstri
                0x000714ec                umemmem
                0x000715dc                umemmemi
                0x000717dc                umemrmem
                0x000718d4                umemrmemi
                0x00071ab8                ustrncpyz
                0x00071b5c                uispunct
                0x00071c24                uispunctdbcs
                0x00071e30                ustrdup
                0x00071efc                umemtrim
                0x00072148                umemicmpdbcs
                0x00072244                umemstridbcs
                0x00072364                umemrstridbcs
 .text          0x00072468       0x70 ../ulib/libuserxe.a(libuserxe_a-utf.o)
                0x00072468                utf_init
 .text          0x000724d8     0x5ba0 ../ulib/libuserxe.a(libuserxe_a-utf2.o)
                0x000724d8                umbtowc
                0x00072594                utfpos2offs
                0x00072824                utfctr2offs
                0x00072b3c                utfstrchkmbr2wc
                0x00072fbc                utfcvf2u
                0x000734c4                utfcvl2fmix
                0x0007379c                utfcvl2f
                0x00073e68                utfcvl2ftab
                0x00074024                utfsetdbcstbl
                0x00074328                utfisvalidutf8
                0x0007442c                utfgetstrwidth
                0x000744f4                utfisvalidutf8char
                0x00074684                utfstrvalidate
                0x000747f0                utfgetutf8strlen
                0x00074968                utfsplitchk
                0x00074b8c                utfcvl2fany
                0x00075414                utfcvf2l1
                0x000755fc                utfcvf2l
                0x00075a98                utfcvf2lany
                0x00076034                utfcvl2fany1
                0x00076298                utfcvl2fany1mb
                0x000763fc                utfcvl2uany1mb
                0x000765a0                utfcvf2lany1
                0x000769b0                utfcvf2lany1mb
                0x00076b34                utfcvu2lany1mb
                0x00076c98                utfcvlocaleinit
                0x00076ec4                utfcvsetdefaultlocale
                0x00077034                utfcvsetparmlocale
                0x00077190                utfgetcharset_std
                0x000774bc                utfgetcharset
                0x000776e0                utflocalechk
                0x00077760                utfcvlocaleopen
                0x00077878                utfcvlocaleclose
                0x000778a4                utfcvlocaletclose
                0x000778e4                utfcviconvdbcschk_topbyte
                0x00077a20                utfcviconvdbcschk1
                0x00077b8c                utfcvlocaleinitICU
                0x00077bf4                utfcvf2lany1ICU
                0x00077d70                utfcvl2fany1ICU
                0x00077f14                utfcvsetdefaultlocaleICU
                0x00077f58                utflocalechkICU
                0x00077fc0                utfgetstrlenHK
 .text          0x00078078     0x7bb0 ../ulib/libuserxe.a(libuserxe_a-utf22.o)
                0x00078078                utfwwapichk
                0x000782e0                utfddflag2sbcsid
                0x00078378                utfddgetlenflag
                0x00078638                utf22_mapwidth0_rounddown
                0x00078774                utf22_mapwidth0
                0x0007898c                utfucsmapinit
                0x00078e9c                utf22setworkdir
                0x00079034                utf22versionchk
                0x0007922c                utfucsloadmap
                0x00079424                utfucssavemap
                0x000795b8                utfucsmapinit_remap
                0x00079948                utfucsmapmodify
                0x00079ac0                utfmapucs2dd
                0x00079b78                utfmapdd2ucs
                0x00079bfc                utfddsetsbcs
                0x00079cc4                utfddgetsbcs
                0x00079d28                utfgetwcw
                0x00079e68                utfcvu2dd1w
                0x0007a134                utfcvu2dd1
                0x0007a230                utfcvf2dd
                0x0007a51c                utfdd2u1
                0x0007a588                utfdd2u1vio
                0x0007a664                utfdd2u1chsz
                0x0007a858                utfdd2u
                0x0007ad84                utfucs42utf16
                0x0007af50                utfddgetucsctr
                0x0007b0cc                utfu2dd
                0x0007b2e0                utfddcmp
                0x0007bbdc                utfddicmp
                0x0007bd20                utfcvdd2f
                0x0007c3b4                utfchkdd
                0x0007c49c                utfddisasciistr
                0x0007c610                utfddissbcsstr
                0x0007c6c8                utfddasciilen
                0x0007c710                utfddpos2offs
                0x0007c948                utfddoffs2pos
                0x0007cc7c                utfddispunct
                0x0007ce74                utfddmemspnc
                0x0007cf78                utfddmemrspnc
                0x0007d098                utfddstrnlen
                0x0007d180                utfddstrlen
                0x0007d230                utfddstrnspn
                0x0007d2b8                utfddmemspn
                0x0007d3ec                utfddmemrspn
                0x0007d524                utfddmemchr
                0x0007d654                utfddmemchr_nonascii
                0x0007d748                utfddmemrchr
                0x0007d830                utfddmemrchr_nonascii
                0x0007d8e0                utfddmempbrk
                0x0007d9c0                utfddmempbrk_nonascii
                0x0007dac4                utfddmemrpbrk
                0x0007dbc0                utfddmemrpbrk_nonascii
                0x0007dce0                utfddcmpdbcstab
                0x0007ddf0                utfddmemmem
                0x0007e074                utfddmemrmem
                0x0007e160                utfddnumlen
                0x0007e424                utfddgetdbcslr
                0x0007e564                utfddgetcsrposbca
                0x0007e8f8                utfgetvisiblealtch
                0x0007ecbc                utfgetvisiblealtchprint
                0x0007ed58                utf_setsubchar_dbcs
                0x0007ef5c                utf_subcharcmp
                0x0007f0d8                utfmemrchrDD
                0x0007f194                utfmemchrDD
                0x0007f270                isASCIIstr
                0x0007f2d8                isPrintableASCIIstr
                0x0007f350                isPrintableASCIImem
                0x0007f3dc                utf22_setunpucsvio
                0x0007f518                utf22_setdbcsspacealt
                0x0007f5d4                utfsetvisiblealtch
                0x0007f72c                utf22_iswidth0Ovf
                0x0007f820                utf22_iswidth0DBCS
                0x0007f8f8                utf_iswidth0
                0x0007fa38                utf_iscombinable
                0x0007fb74                utf_iscombining
 .text          0x0007fc28     0x178c ../ulib/libuserxe.a(libuserxe_a-utf3.o)
                0x0007fc28                utfmb2wc
                0x0007fe84                utfwcwidth
                0x00080110                utfwcwidthNoMap
                0x000802b0                utfwcwidthsub
                0x000804f0                utfwcwidthsubNoMap
                0x0008071c                utfiswide
                0x00080754                utfisprint
                0x00080958                utfgetwc
                0x000809f4                utftbinit
                0x00080f6c                utftbfhelp
                0x00080f8c                utftbterm
                0x00080fe0                utftbsrch
                0x0008115c                utftbsrch_jeuc
                0x000811c8                utftbsrch_cjk
                0x00081310                utf3_wcwidthXXE
 .text          0x000813b4      0xad0 ../ulib/libuserxe.a(libuserxe_a-utf4.o)
                0x000814b8                mk_wcwidth_combining
                0x00081504                mk_wcwidth
                0x000817c8                mk_wcwidth_cjk
                0x00081904                mk_wcswidth_cjk
                0x0008199c                mk_wcwidth_adjsbcs
                0x00081b9c                utf4_isSpacingCombiningMark
                0x00081c58                utf4_isAmbiguous
                0x00081d64                utf4_isAmbiguous_XXE
                0x00081de4                utf4_isFormat
                0x00081e38                mk_wcwidth_combining2SCM
 .text          0x00081e84     0x1754 ../ulib/libuserxe.a(libuserxe_a-utrace.o)
                0x00081e84                utrace_initmt
                0x00081ee0                utrace_init
                0x00082144                utracepop
                0x000822b0                utracepopf
                0x00082464                utracepnop
                0x00082484                utrace_ebc
                0x0008257c                utrace
                0x00082960                utracectime
                0x00082b84                utraceopen_force
                0x00082d54                utraceocmsg_force
                0x000834f8                utrace_term
 .text          0x000835d8      0x5b8 ../ulib/libuserxe.a(libuserxe_a-uunxsub.o)
                0x000835d8                ugetugid
                0x0008367c                ugetusername
                0x00083714                ugetgroupname
                0x000837ac                usrchugname
                0x00083818                uaddugname
                0x0008390c                unc_setupterm
                0x00083980                unx_fsetlock
                0x00083a44                unx_fresetlock
                0x00083aa0                unx_fchklock
                0x00083b5c                ugethostname
 .text          0x00083b90     0x65fc ../ulib/libuserxe.a(libuserxe_a-uviom.o)
                0x00083b90                uviom_init
                0x00083e28                uviom_setopt2
                0x00084124                uviom_notify
                0x000841ec                uvio_wcinit
                0x0008424c                uviom_savecell
                0x000842f4                uviom_readcell
                0x0008439c                uvio_mvaddchnstrF
                0x00084a48                uviom_mvaddwchnstr
                0x00084ab8                uvio_mvaddchnstrW_ligature
                0x00084e0c                uvio_mvaddchnstrW_combine
                0x0008540c                uvio_mvaddchnstrW
                0x000856d0                uviom_cht2cchar
                0x000866cc                uviom_setcchar_itself
                0x00086754                uviom_setcchar_shadow
                0x0008682c                uviom_setcombine1
                0x00086c8c                uviom_setcombine
                0x000874a4                uviom_setcombineSCM
                0x000876c4                uvio_ddcht2cchar
                0x000883f0                uvio_ddcht2cchar_ligature
                0x00089184                uvio_getcombinectr
                0x000892e8                uviom_escrep
                0x000894d4                uviom_set_padattr
                0x00089538                uviom_fillattrspace
                0x00089654                uviom_setunpucs
                0x00089a24                uviom_attr_itself
                0x00089ac8                uviom_ISUCSWIDTH0
                0x00089c48                uviom_iscombining
                0x00089e30                uviom_spaceclear
                0x00089e88                uviom_clearscr
                0x00089f28                uviom_getcombaltchUcs
                0x00089fb0                uviom_getcombaltchU8
 .text          0x0008a18c     0x3914 ../ulib/libuserxe.a(libuserxe_a-uviol.o)
                0x0008a18c                uviol_cell2attr
                0x0008a2cc                uviol_attr2cell
                0x0008a3a8                uviol_repfg
                0x0008a428                uviol_altcharset
                0x0008a570                uvio_initparm
                0x0008a5c8                uviogetmode
                0x0008a75c                uviol_init
                0x0008ac98                uviol_acssetup
                0x0008ade8                uviol_init2
                0x0008ae18                uviol_konchk
                0x0008af0c                uviol_konchk2
                0x0008af7c                uviol_colorinit
                0x0008b194                uviol_termexit
                0x0008b1c4                uviol_cleanup
                0x0008b2d4                uviol_term
                0x0008b358                uviol_beep
                0x0008b394                uviosetmode
                0x0008b3cc                uvioreadcellstr
                0x0008b560                uviowrtcellstr
                0x0008b78c                uvioreadcharstr
                0x0008b8a8                uviowrtcharstr
                0x0008b9b0                uviowrtcharstratt
                0x0008bbac                uviowrtnattr
                0x0008bdbc                uviowrtncell
                0x0008bf18                uviowrtnchar
                0x0008c078                uviogetcurpos
                0x0008c164                uviosetcurpos
                0x0008c2c0                uviogetcurtype
                0x0008c370                uviosetcurtype
                0x0008c4a4                uviowrttty
                0x0008c4e4                uviol_rgb2colorno
                0x0008c6fc                uviol_colorno2rgb
                0x0008c854                uviogetstate
                0x0008cb08                uviosetstate
                0x0008cce8                uvioscrolldn
                0x0008d014                uvioscrollup
                0x0008d340                uviol_clear
                0x0008d378                uviol_clearok
                0x0008d3c4                uviol_refresh
                0x0008d3ec                uviol_mvaddchnstr
                0x0008d588                uviol_attrupdate
                0x0008da20                uviol_set_padattrsub
 .text          0x0008daa0     0x3778 ../ulib/libuserxe.a(libuserxe_a-u3270.o)
                0x0008daa0                u3270init
                0x0008db08                u3270fstat
                0x0008e0fc                u3270findfile
                0x0008e330                u3270fullpathistso
                0x0008e3bc                u3270getcwd
                0x0008e444                u3270chdir
                0x0008e4e0                u3270fullpath
                0x0008e7bc                u3270fullpathwildexp
                0x0008ecd8                u3270getmembname
                0x0008ee7c                u3270chkmembname
                0x0008efc4                u3270getlastname
                0x0008f09c                u3270getnthname
                0x0008f1a4                u3270concatfilename
                0x0008f48c                u3270editname
                0x0008f834                u3270parsedsn
                0x0008f8d0                u3270parentdsn
                0x0008fa70                u3270getsetdsnwild
                0x0008fd90                u3270pathlen
                0x0008fee0                u3270sethostuser
                0x0008ff94                u3270cmdrequest
                0x0009020c                u3270editrespmsg
                0x00090324                u3270dirlistsub
                0x000905e0                u3270setdirlist
                0x00090aa0                u3270srchdirlist
                0x00090b6c                u3270setdirlistdsn
                0x00090e38                u3270setattr
                0x00090f54                u3270getattrstr
                0x000911e0                u3270errdsnpath
 .text          0x00091218     0x152c ../ulib/libuserxe.a(libuserxe_a-u32702.o)
                0x00091218                u3270mkdir
                0x00091250                u3270rmdir
                0x00091280                u3270xddsub
                0x00091400                u3270xdelete
                0x00091610                u3270wildxdel
                0x00091648                u3270xdelsub
                0x00091750                u3270remove
                0x000918b4                u3270rename
                0x00091b04                u3270renamesub
                0x00091bd8                u3270wildrename
                0x00091c28                u3270spfupdate
                0x00091df8                u3270spfsetparm
                0x00092334                u3270attrib
                0x0009236c                u3270attrxchk
                0x000923a0                u3270getftime
                0x000923d8                u3270setftime
                0x00092410                u3270setftime2
                0x00092448                u3270copypathinfo
                0x00092480                u3270setown
                0x000924b8                u3270setmod
                0x000924ec                u3270wildfunc
                0x000926f4                u3270errnotsupported
 .text          0x00092744     0x3ab0 ../ulib/libuserxe.a(libuserxe_a-u32703.o)
                0x00092744                u3270xmove
                0x000928b4                u3270xcopyr2r
                0x00092b7c                u3270xcopy
                0x00092d44                u3270xcopyget
                0x00093800                u3270xcopyput
                0x000942b4                u3270filecreateparmproc
                0x00094558                u3270filecpymvflags
                0x00094aac                u3270filewildcopyget
                0x00094cf4                u3270filewildcopyput
                0x00095034                u3270copysubget
                0x00095290                u3270copysubput
                0x0009571c                u3270transfer
                0x00095c80                u3270srcdupchk
                0x00095ec4                u3270copyspfupdate
                0x00096168                u3270setftpparm
 .text          0x000961f4       0x40 ../ulib/libuserxe.a(libuserxe_a-uabend.o)
                0x000961f4                uabend
 .text          0x00096234      0xe50 ../ulib/libuserxe.a(libuserxe_a-uallocl.o)
                0x00096234                ualloc_init
                0x00096488                ugetallocdata
                0x000965c0                ualloc_chk
                0x00096788                umalloc
                0x000969cc                ucalloc
                0x00096c3c                ufree
                0x00096e6c                uallocsz
                0x00096eb8                ufreesz
                0x00096f08                uallocmapset
                0x0009701c                ufreesizeerr
                0x00097050                umallocsizeerr
 .text          0x00097084     0x417c ../ulib/libuserxe.a(libuserxe_a-ucalc2.o)
                0x00097084                bc_getxdw
                0x000971d8                bc_getld
                0x00097428                bc_dwbinop
                0x000979e0                bc_twbinop
                0x00097f00                bc_edittod
                0x00098074                bc_dweditnum64
                0x000980dc                bc_dweditnum
                0x000983f8                bc_dwupeditnum
                0x000985c0                ucalc_dwmult
                0x00098814                ucalc_twmult
                0x00098cdc                ucalc_dwdiv
                0x00098fbc                ucalc_dwdiv2
                0x000992f4                ucalc_twdiv
                0x0009947c                ucalc_twdivbyup
                0x000995c0                ucalc_twshiftup
                0x000996dc                ucalc_dwshiftdown
                0x0009980c                ucalc_ltime
                0x00099c2c                ucalc_getdate
                0x00099e18                ucalc_nextday
                0x0009a0c8                ucalc_ld2dw
                0x0009a660                ucalc_dw2ld
                0x0009a76c                ucalc_nsadd
                0x0009a9d4                ucalc_ldedit
                0x0009ab14                ucalc_dwupinit
                0x0009ab74                ucalc_dwupset
                0x0009aca4                bc_numfmt2dw
                0x0009ad54                bc_dw2numfmt
                0x0009ae2c                ucalc_dwup2dwandup
                0x0009afd0                bc_dword2word
                0x0009b0cc                ucalc_dw2err
                0x0009b104                ucalc_dw2errresidual
                0x0009b178                ucalc_dwuperr
                0x0009b1a0                ucalc_dwmaxerr
                0x0009b1d8                ucalcerrdwordovf
 .text          0x0009b200     0x1ad0 ../ulib/libuserxe.a(libuserxe_a-ucvebc.o)
                0x0009b200                ucvebcinite2uJ
                0x0009b354                ucvebc
                0x0009b36c                ucvebc_gettrte2a
                0x0009b38c                ucvebc2asc_handle
                0x0009b42c                ucvasc2ebc_handle
                0x0009b4cc                ucvebc2asc
                0x0009b8e4                ucvebc2asc1sbcsJ
                0x0009ba64                ucvebc2ucs1sbcsJ
                0x0009bbf8                ucvasc2ebc
                0x0009c1a0                ucvebc_defaultremap
                0x0009c480                ucvebcinita2e
                0x0009c5ec                ucvkandl
                0x0009c7dc                ucvebcinitkandl
                0x0009c900                ucvebc2_chkprintsbcs
                0x0009cbdc                ucvebc_chkeolopt
 .text          0x0009ccd0     0x1718 ../ulib/libuserxe.a(libuserxe_a-ucvebc2.o)
                0x0009ccd0                ucvebc2
                0x0009cce8                ucvebc2_init
                0x0009cd58                ucvebc2_codecomp
                0x0009cda0                ucvebc2_s2e
                0x0009ce3c                ucvebc2_e2s
                0x0009ced4                ucvebc2_chkprint
                0x0009d19c                ucvebc2_chkprintnewold
                0x0009d414                ucvebc2_chkprintdup
                0x0009d5c0                ucvebc2_e2ssub
                0x0009d800                ucvebc2_s2esub
                0x0009d8b8                ucvebc2_stre2s
                0x0009db68                ucvebc2_ebc2asc1dbcsJ
                0x0009dc04                ucvebc2_strs2e
                0x0009e1b8                ucvebc2_setsi
                0x0009e2dc                ucvebc2_setso
 .text          0x0009e3e8       0xa8 ../ulib/libuserxe.a(libuserxe_a-ucvebct.o)
                0x0009e3e8                ucvebc2gettbl
 .text          0x0009e490     0x6c18 ../ulib/libuserxe.a(libuserxe_a-ucvext.o)
                0x0009e490                ucvext_cfglineerr
                0x0009e4cc                ucvext_cfgdupoption
                0x0009e508                ucvext_ux2s
                0x0009e5f0                ucvext_cfgmap
                0x0009e768                ucvext_getcfg
                0x0009f55c                ucvext_setdefaultlocalcv
                0x0009f6a0                ucvext_getarmso1
                0x0009f900                ucvext_getarmso
                0x0009fb8c                ucvext_getarmdata1
                0x0009fcfc                ucvext_getarmdata
                0x0009feac                chkapiver
                0x000a0068                ucvext_icuinit_env
                0x000a0304                setdatadir
                0x000a03d0                ucvext_mapinit
                0x000a0db4                ucvext_setupsubch
                0x000a1388                ucvext_loaddll_icudata
                0x000a161c                ucvext_loaddll
                0x000a16cc                ucvext_icuinit
                0x000a1df0                ucvext_icuenumcvname
                0x000a21c0                ucvext_icuuerrname
                0x000a2230                ucvext_icugetdefaultconvertername2
                0x000a234c                ucvext_getstdcharset
                0x000a2724                ucvext_icugetdefaultconvertername
                0x000a2864                ucvext_icugetconvertertype
                0x000a2a88                ucvext_icugetsubchars
                0x000a2c0c                ucvext_icusetsubchars
                0x000a2d00                ucvext_icugetstarter
                0x000a2e8c                ucvext_icugetconverter
                0x000a349c                ucvext_getparmconverter
                0x000a3720                ucvext_openparmconverter
                0x000a38a0                ucvext_getcvoption
                0x000a3c0c                set_internal_CP037
                0x000a3cf4                ucvext_mapinitsetdefault
                0x000a3f30                ucvext_setlocalconverter
                0x000a402c                ucvext_icusubcharchk
                0x000a43e0                ucvext_isdbcs1st
                0x000a4464                chk_converter_is_ebcdic
                0x000a4558                ucvext_handle0init
                0x000a479c                ucvext_icuclose
                0x000a4804                ucvext_icureset
                0x000a486c                ucvext_icugetmbconverter
                0x000a494c                ucvext_icumbinit12
                0x000a49ac                ucvext_icumbinit
                0x000a4c78                ucvext_setdefaultlocale
                0x000a4d68                chkicuversion
                0x000a4ff4                ucvext_getConverterCfg
 .text          0x000a50a8     0x49f4 ../ulib/libuserxe.a(libuserxe_a-ucvext12.o)
                0x000a50a8                ucvext12_init
                0x000a520c                ucvext_icuebc2ucs1
                0x000a54c8                ucvext_iculocal2ucs1
                0x000a57bc                ucvext_icuucs2ebc1
                0x000a5ad4                ucvext_icuucs2local1
                0x000a5da0                ucvext_icuebc2mb1
                0x000a6200                ucvext_icumb2ebc1
                0x000a66c0                ucvext_icuebc2mbs_handle
                0x000a6740                ucvext_icuebc2mbs
                0x000a6a48                ucvext_icumb2ebcdbcs
                0x000a7008                ucvext_icumb2ebcs_handle
                0x000a7088                ucvext_icumb2ebcs
                0x000a7588                ucvext_icuebc2mbf
                0x000a7a70                ucvext_icumb2ebcf
                0x000a820c                ucvext_icumb2ucs1
                0x000a8418                ucvext_icuucs2mb1
                0x000a8640                ucvext_icuutf2mb1
                0x000a87ec                ucvext_icumb2utf1
                0x000a89e8                ucvext_icumb2utf
                0x000a8c90                ucvext_icuisprint
                0x000a8d30                ucvext_locale1ICU
                0x000a8e14                ucvext_getparmconvertermbICU
                0x000a924c                ucvext_icua2ainit
                0x000a9310                ucvext_icua2aterm
                0x000a9388                ucvext_icua2as
                0x000a9a48                ucvext_icusubcharchk_handle
 .text          0x000a9a9c     0x1ec0 ../ulib/libuserxe.a(libuserxe_a-ucvext2.o)
                0x000a9a9c                ucvext_iconvmapinit
                0x000a9ae8                ucvext_iconvgetstarter
                0x000a9c4c                ucvext_iconvgetconvertertype
                0x000a9cc8                ucvext_iconvgetconverter
                0x000a9e0c                ucvext_iconvgetparmconverter
                0x000aa014                ucvext_iconvebc2ucs1
                0x000aa184                ucvext_iconvlocal2ucs1
                0x000aa444                ucvext_iconvucs2ebc1
                0x000aa5b8                ucvext_iconvucs2local1
                0x000aa720                ucvext_iconva2as
                0x000aad34                ucvext_iconvb2bs
                0x000aaee0                ucvext_iconva2af
                0x000ab5f0                ucvext_iconva2ainit
                0x000ab710                ucvext_iconva2acont
 .text          0x000ab95c     0x4f64 ../ulib/libuserxe.a(libuserxe_a-ucvucs.o)
                0x000ab95c                ucp932init
                0x000abee4                ucp932term
                0x000abf8c                ucp932sjis2ucs
                0x000ac05c                ucp932ucs2sjis
                0x000ac1e0                uccvsjis2ucs
                0x000ac314                uccvucs2sjis
                0x000ac344                uccvucs2utf
                0x000ac578                uccvutf2ucs
                0x000ac91c                uccvucss2utf
                0x000aca00                uccvutf2ucss
                0x000acbcc                uccvsjis2ucss
                0x000acc4c                uccvucss2sjis
                0x000acc90                uccvsjis2utf
                0x000acd74                uccvutf2sjis
                0x000ace40                ucvsucs2utf
                0x000ad1e4                ucvsescucs2utf
                0x000ad5a8                ucvssjis2utf
                0x000ad974                ucvsmb2utf
                0x000adcd4                ucvsutf2ucs
                0x000ae038                ucvsutf2sjis
                0x000ae4d4                ucvsutf2mb
                0x000ae8b4                ucvssjis2ucs
                0x000aebd8                ucvsucs2sjis
                0x000aef78                ucvsescucs2sjis
                0x000af2fc                ucvfsjis2ucs
                0x000af51c                ucvfucs2sjis
                0x000af720                ucvfutf2ucs
                0x000af9bc                ucvfucs2utf
                0x000afc28                ucvfsjis2utf
                0x000afe94                ucvfutf2sjis
                0x000b0130                ucvbomchk
                0x000b02d8                ucvbomset
                0x000b0434                ucvsetucss
                0x000b0664                ucvgetucss
                0x000b07a0                ucverrutf
                0x000b0800                ucverrucs
                0x000b0860                ucverrsjis
 .text          0x000b08c0       0x38 ../ulib/libuserxe.a(libuserxe_a-ucvucst.o)
                0x000b08c0                ugetcp932tbl
 .text          0x000b08f8      0x3dc ../ulib/libuserxe.a(libuserxe_a-udos2.o)
                0x000b08f8                udos2
                0x000b0910                ugetdriveidlist
                0x000b0a04                ugetdrivelist
                0x000b0aa4                ugetdrivetype
                0x000b0bcc                udos_setenv
 .text          0x000b0cd4     0x2890 ../ulib/libuserxe.a(libuserxe_a-uedit2.o)
                0x000b0cd4                uedit2
                0x000b0cec                uasciidump
                0x000b0f08                uasciidump_utf
                0x000b11c0                uucsdump
                0x000b150c                ub2x
                0x000b163c                ueditfattr
                0x000b1a14                ueditfattrspf
                0x000b1ae8                ueditfattr_mdos
                0x000b1c68                uxdumpline
                0x000b2668                xdlputs
                0x000b2714                ugetdtparm
                0x000b2810                ugetdateparm
                0x000b2884                ugettimeparm
                0x000b28f8                ueditgetftnum
                0x000b2bc8                ueditsetfdateUSHORT
                0x000b2c5c                ueditsetfdate
                0x000b2d3c                ueditsetftimeUSHORT
                0x000b2dd0                ueditsetftime
                0x000b2ec8                uxdumpstr
                0x000b30f0                ueditNowFileTime
                0x000b3220                ueditescrep
 .text          0x000b3564      0x354 ../ulib/libuserxe.a(libuserxe_a-uehl.o)
                0x000b3564                useteh
                0x000b3630                uehl_setsh
                0x000b3684                ureseteh
                0x000b374c                uehl_resetsh
                0x000b3788                usighandler
 .text          0x000b38b8      0xd74 ../ulib/libuserxe.a(libuserxe_a-uproc22.o)
                0x000b38b8                ukillpid
                0x000b3954                uthread
                0x000b39cc                uevent
                0x000b3c38                uevent_wait1
                0x000b3e04                uevent_post1
                0x000b3f08                uevent_waitm
                0x000b40ec                uevent_postm
                0x000b422c                uevent_reset1
                0x000b42c0                uevent_setuplist
                0x000b4454                uevent_resetlist
                0x000b4504                ucriticalsection
 .text          0x000b462c     0x19c4 ../ulib/libuserxe.a(libuserxe_a-uproc3.o)
                0x000b462c                uproc_gvfsinit
                0x000b4690                ushellexec
                0x000b4b44                ushellexecsub
                0x000b4e18                ulnxlgettermpgmopt
                0x000b4f9c                ulnxlgetshellpgm
                0x000b5068                ulnxxgettermpgmopt
                0x000b537c                uproc3pgmchk
                0x000b5420                usystemlnxterm
                0x000b54fc                usleepms
                0x000b55a0                uprocconnect
                0x000b585c                uprocdisconnect
                0x000b5908                uprocpipeio
                0x000b5b14                startserver
                0x000b5b90                uprocpiperead
                0x000b5c24                uprocpiperecevmsg
                0x000b5da0                uprocpipeiodata
 .text          0x000b5ff0     0x5de8 ../ulib/libuserxe.a(libuserxe_a-ucalc.o)
                0x000b5ff0                ucalc_bcmain
                0x000b6e70                bc_opdchk
                0x000b7d54                getvarname
                0x000b7e34                ucalc_chkvrparm
                0x000b7fc0                bc_getvalue
                0x000b86b4                ucalc_vrajust
                0x000b89d8                ucalc_o2l
                0x000b8ac0                ucalc_gettimevalue
                0x000b8ee8                ucalc_getunderpointdata
                0x000b904c                bc_opdcopy
                0x000b930c                bc_putwordordword
                0x000b93e4                bc_expand2dword
                0x000b9480                ucalc_binop
                0x000b9a1c                ucalc_binopsub
                0x000ba4d0                ucalc_underpoint
                0x000ba7b8                ucalc_editnum
                0x000ba980                ucalc_editevenhex
                0x000baa0c                ucalc_dwtime
                0x000babf4                ucalc_time
                0x000bb0ec                ucalc_timeedit
                0x000bb47c                ucalc_shiftdown
                0x000bb5c8                ucalc_shiftup
                0x000bb708                bc_getbase
                0x000bb74c                calcuperr1
                0x000bb774                calcuperr2
                0x000bb79c                calcuperr3
                0x000bb7c4                calcerrinvalid
                0x000bb7fc                calcerrinvalid_dw
                0x000bb834                calcerrformat
                0x000bb85c                calcerrunderflow
                0x000bb888                calcerrwordovf
                0x000bb8cc                calcerrminus
                0x000bb8f4                calcerr0div
                0x000bb91c                calcerrtimeop
                0x000bb944                bc_getvalue3
                0x000bbbf8                bc_setconvtype3
 .text          0x000bbdd8     0x54c8 ../ulib/libuserxe.a(libuserxe_a-ucvebc3.o)
                0x000bbdd8                ucvebc3_getcfgparmconverter
                0x000bbfdc                ucvebc3_init_xcv
                0x000bc01c                ucvebc3_getconvertersubchar
                0x000bc090                ucvebc3_setletter
                0x000bc9c4                ucvebc3_init
                0x000bcc38                ucvebc3_cfgerr
                0x000bcc60                ucvebc3_b2uSbcs1
                0x000bcf48                ucvebc3_b2ddSbcs1
                0x000bd138                ucvebc3_b2ddSbcs
                0x000bd5f8                ucvebc3_b2uDbcs1
                0x000bd814                ucvebc3_b2ddDbcs1
                0x000bda34                ucvebc3_b2ddDbcsstr
                0x000bdc34                ucvebc3_b2ddDbcs
                0x000be360                ucvebc3_b2dd
                0x000be454                ucvebc3_u2b1map
                0x000be594                ucvebc3_u2b1
                0x000be938                ucvebc3_m2b1Sbcs1
                0x000beaf4                ucvebc3_m2b1
                0x000bee2c                ucvebc3_m2b
                0x000bf33c                ucvebc3_f2b
                0x000bf9d4                ucvebc3_dd2b
                0x000c00a4                ucvebc3_b2mSbcs
                0x000c0770                ucvebc3_b2mDbcsstr
                0x000c0a10                ucvebc3_b2m
                0x000c0ee8                ucvebc3_setdbcstbl
                0x000c1088                ucvebc3_getebc3opt
                0x000c1178                ucvebc3_b2f
                0x000c1214                ucvebc3_f2bcmd
 .text          0x000c12a0     0x1c0c ../ulib/libuserxe.a(libuserxe_a-ucvebc4.o)
                0x000c12a0                ucvebc4_init
                0x000c132c                ucvebc4_compbyname
                0x000c1384                ucvebc4_compbyhandle
                0x000c13d4                ucvebc4_srchcveh
                0x000c1528                ucvebc4_gethandle
                0x000c1618                ucvebc4_getpucveh
                0x000c1698                ucvebc4_getcvname
                0x000c16fc                ucvebc4_getcvtype
                0x000c1880                ucvebc4_createhandle
                0x000c19bc                ucvebc4_getparmconverter
                0x000c1aec                ucvebc4_chkdbcsconverter
                0x000c1c04                ucvebc4_setuphandle
                0x000c1d14                ucvebc4_setletter
                0x000c2470                ucvebc4_b2uSbcs1
                0x000c258c                ucvebc4_b2mSbcs
                0x000c29b8                ucvebc4_setupsubch
 .text          0x000c2eac      0x240 /usr/lib/gcc/arm-linux-gnueabihf/8/libgcc.a(_divsi3.o)
                0x000c2eac                __divsi3
                0x000c2eac                __aeabi_idiv
                0x000c30cc                __aeabi_idivmod
 .text          0x000c30ec       0xd4 /usr/lib/gcc/arm-linux-gnueabihf/8/libgcc.a(_aeabi_ldivmod.o)
                0x000c30ec                __aeabi_ldivmod
 .text          0x000c31c0       0x10 /usr/lib/gcc/arm-linux-gnueabihf/8/libgcc.a(_dvmd_lnx.o)
                0x000c31c0                __aeabi_idiv0
                0x000c31c0                __aeabi_ldiv0
 .text          0x000c31d0      0x128 /usr/lib/gcc/arm-linux-gnueabihf/8/libgcc.a(_udivmoddi4.o)
                0x000c31d0                __udivmoddi4
 .text          0x000c32f8       0x64 //usr/lib/arm-linux-gnueabihf/libc_nonshared.a(elf-init.oS)
                0x000c32f8                __libc_csu_init
                0x000c3358                __libc_csu_fini
 .text          0x000c335c       0x10 //usr/lib/arm-linux-gnueabihf/libc_nonshared.a(stat64.oS)
                0x000c335c                stat64
 .text          0x000c336c       0x10 //usr/lib/arm-linux-gnueabihf/libc_nonshared.a(lstat64.oS)
                0x000c336c                lstat64
 .text          0x000c337c        0x0 /usr/lib/gcc/arm-linux-gnueabihf/8/crtend.o
 .text          0x000c337c        0x0 /usr/lib/gcc/arm-linux-gnueabihf/8/../../../arm-linux-gnueabihf/crtn.o
 *(.gnu.warning)
 *(.glue_7t)
 .glue_7t       0x000c337c        0x0 linker stubs
 *(.glue_7)
 .glue_7        0x000c337c        0x0 linker stubs
 *(.vfp11_veneer)
 .vfp11_veneer  0x000c337c        0x0 linker stubs
 *(.v4_bx)
 .v4_bx         0x000c337c        0x0 linker stubs

.fini           0x000c337c        0x8
 *(SORT_NONE(.fini))
 .fini          0x000c337c        0x4 /usr/lib/gcc/arm-linux-gnueabihf/8/../../../arm-linux-gnueabihf/crti.o
                0x000c337c                _fini
 .fini          0x000c3380        0x4 /usr/lib/gcc/arm-linux-gnueabihf/8/../../../arm-linux-gnueabihf/crtn.o
                [!provide]                PROVIDE (__etext = .)
                [!provide]                PROVIDE (_etext = .)
                [!provide]                PROVIDE (etext = .)

.rodata         0x000c3384     0xdaf0
 *(.rodata .rodata.* .gnu.linkonce.r.*)
 .rodata.cst4   0x000c3384        0x4 /usr/lib/gcc/arm-linux-gnueabihf/8/../../../arm-linux-gnueabihf/crt1.o
                0x000c3384                _IO_stdin_used
 .rodata        0x000c3388     0x2282 xfc.o
 *fill*         0x000c560a        0x2 
 .rodata        0x000c560c      0x10c ../ulib/libuserxe.a(libuserxe_a-udbcschk.o)
 .rodata        0x000c5718        0xc ../ulib/libuserxe.a(libuserxe_a-udbcsck2.o)
 .rodata        0x000c5724       0xed ../ulib/libuserxe.a(libuserxe_a-uedit.o)
 *fill*         0x000c5811        0x3 
 .rodata        0x000c5814      0x30d ../ulib/libuserxe.a(libuserxe_a-uerr.o)
 *fill*         0x000c5b21        0x3 
 .rodata        0x000c5b24      0x8b9 ../ulib/libuserxe.a(libuserxe_a-ufemsg.o)
 *fill*         0x000c63dd        0x3 
 .rodata        0x000c63e0      0x113 ../ulib/libuserxe.a(libuserxe_a-ufile.o)
 *fill*         0x000c64f3        0x1 
 .rodata        0x000c64f4      0x12b ../ulib/libuserxe.a(libuserxe_a-ufile1f.o)
 *fill*         0x000c661f        0x1 
 .rodata        0x000c6620      0x6a3 ../ulib/libuserxe.a(libuserxe_a-ufile1l.o)
 *fill*         0x000c6cc3        0x1 
 .rodata        0x000c6cc4      0x10f ../ulib/libuserxe.a(libuserxe_a-ufile1l2.o)
 *fill*         0x000c6dd3        0x1 
 .rodata        0x000c6dd4      0x7e4 ../ulib/libuserxe.a(libuserxe_a-ufile2.o)
 .rodata        0x000c75b8      0x357 ../ulib/libuserxe.a(libuserxe_a-ufile2f.o)
 *fill*         0x000c790f        0x1 
 .rodata        0x000c7910       0xf6 ../ulib/libuserxe.a(libuserxe_a-ufile2l.o)
 *fill*         0x000c7a06        0x2 
 .rodata        0x000c7a08       0xfc ../ulib/libuserxe.a(libuserxe_a-ufile2l2.o)
 .rodata        0x000c7b04      0x4da ../ulib/libuserxe.a(libuserxe_a-ufile3.o)
 *fill*         0x000c7fde        0x2 
 .rodata        0x000c7fe0      0x476 ../ulib/libuserxe.a(libuserxe_a-ufile3f.o)
 *fill*         0x000c8456        0x2 
 .rodata        0x000c8458      0x234 ../ulib/libuserxe.a(libuserxe_a-ufile4.o)
 .rodata        0x000c868c      0x1a6 ../ulib/libuserxe.a(libuserxe_a-ufile5.o)
 *fill*         0x000c8832        0x2 
 .rodata        0x000c8834      0x619 ../ulib/libuserxe.a(libuserxe_a-uftp.o)
 *fill*         0x000c8e4d        0x3 
 .rodata        0x000c8e50      0x45c ../ulib/libuserxe.a(libuserxe_a-uftp2.o)
 .rodata        0x000c92ac      0x512 ../ulib/libuserxe.a(libuserxe_a-uftp3.o)
 *fill*         0x000c97be        0x2 
 .rodata        0x000c97c0        0xb ../ulib/libuserxe.a(libuserxe_a-ugcclib.o)
 *fill*         0x000c97cb        0x1 
 .rodata        0x000c97cc       0xef ../ulib/libuserxe.a(libuserxe_a-ukbdl.o)
 *fill*         0x000c98bb        0x1 
 .rodata        0x000c98bc      0xf2a ../ulib/libuserxe.a(libuserxe_a-ukbdlnxc.o)
 *fill*         0x000ca7e6        0x2 
 .rodata        0x000ca7e8       0x2d ../ulib/libuserxe.a(libuserxe_a-uparse.o)
 *fill*         0x000ca815        0x3 
 .rodata        0x000ca818      0x4fd ../ulib/libuserxe.a(libuserxe_a-uproc.o)
 *fill*         0x000cad15        0x3 
 .rodata        0x000cad18      0x168 ../ulib/libuserxe.a(libuserxe_a-uproc2.o)
 .rodata        0x000cae80      0x341 ../ulib/libuserxe.a(libuserxe_a-uproc4.o)
 *fill*         0x000cb1c1        0x3 
 .rodata        0x000cb1c4      0x384 ../ulib/libuserxe.a(libuserxe_a-uque.o)
 .rodata        0x000cb548       0x7e ../ulib/libuserxe.a(libuserxe_a-ustrcpy.o)
 *fill*         0x000cb5c6        0x2 
 .rodata        0x000cb5c8        0x4 ../ulib/libuserxe.a(libuserxe_a-ustring.o)
 .rodata        0x000cb5cc      0x1cc ../ulib/libuserxe.a(libuserxe_a-utf2.o)
 .rodata        0x000cb798      0x325 ../ulib/libuserxe.a(libuserxe_a-utf22.o)
 *fill*         0x000cbabd        0x3 
 .rodata        0x000cbac0      0x133 ../ulib/libuserxe.a(libuserxe_a-utf3.o)
 *fill*         0x000cbbf3        0x1 
 .rodata        0x000cbbf4     0x19d0 ../ulib/libuserxe.a(libuserxe_a-utf4.o)
 .rodata        0x000cd5c4      0x161 ../ulib/libuserxe.a(libuserxe_a-utrace.o)
 *fill*         0x000cd725        0x3 
 .rodata        0x000cd728       0x98 ../ulib/libuserxe.a(libuserxe_a-uunxsub.o)
 .rodata        0x000cd7c0        0x2 ../ulib/libuserxe.a(libuserxe_a-uviom.o)
 *fill*         0x000cd7c2        0x2 
 .rodata        0x000cd7c4       0x7a ../ulib/libuserxe.a(libuserxe_a-uviol.o)
 *fill*         0x000cd83e        0x2 
 .rodata        0x000cd840      0x161 ../ulib/libuserxe.a(libuserxe_a-u3270.o)
 *fill*         0x000cd9a1        0x3 
 .rodata        0x000cd9a4      0x1ad ../ulib/libuserxe.a(libuserxe_a-u32702.o)
 *fill*         0x000cdb51        0x3 
 .rodata        0x000cdb54      0x395 ../ulib/libuserxe.a(libuserxe_a-u32703.o)
 *fill*         0x000cdee9        0x3 
 .rodata        0x000cdeec       0x30 ../ulib/libuserxe.a(libuserxe_a-uabend.o)
 .rodata        0x000cdf1c      0x571 ../ulib/libuserxe.a(libuserxe_a-uallocl.o)
 *fill*         0x000ce48d        0x3 
 .rodata        0x000ce490      0x7c3 ../ulib/libuserxe.a(libuserxe_a-ucalc2.o)
 *fill*         0x000cec53        0x1 
 .rodata        0x000cec54      0x88e ../ulib/libuserxe.a(libuserxe_a-ucvebc.o)
 *fill*         0x000cf4e2        0x2 
 .rodata        0x000cf4e4      0x221 ../ulib/libuserxe.a(libuserxe_a-ucvebc2.o)
 *fill*         0x000cf705        0x3 
 .rodata        0x000cf708      0x8e8 ../ulib/libuserxe.a(libuserxe_a-ucvext.o)
 .rodata        0x000cfff0       0xca ../ulib/libuserxe.a(libuserxe_a-ucvext12.o)
 *fill*         0x000d00ba        0x2 
 .rodata        0x000d00bc      0x172 ../ulib/libuserxe.a(libuserxe_a-ucvext2.o)
 *fill*         0x000d022e        0x2 
 .rodata        0x000d0230       0xa2 ../ulib/libuserxe.a(libuserxe_a-ucvucs.o)
 *fill*         0x000d02d2        0x2 
 .rodata        0x000d02d4       0x47 ../ulib/libuserxe.a(libuserxe_a-udos2.o)
 *fill*         0x000d031b        0x1 
 .rodata        0x000d031c       0xbd ../ulib/libuserxe.a(libuserxe_a-uedit2.o)
 *fill*         0x000d03d9        0x3 
 .rodata        0x000d03dc       0x33 ../ulib/libuserxe.a(libuserxe_a-uehl.o)
 *fill*         0x000d040f        0x1 
 .rodata        0x000d0410       0x66 ../ulib/libuserxe.a(libuserxe_a-uproc22.o)
 *fill*         0x000d0476        0x2 
 .rodata        0x000d0478      0x410 ../ulib/libuserxe.a(libuserxe_a-uproc3.o)
 .rodata        0x000d0888      0x4ad ../ulib/libuserxe.a(libuserxe_a-ucalc.o)
 *fill*         0x000d0d35        0x3 
 .rodata        0x000d0d38       0x8f ../ulib/libuserxe.a(libuserxe_a-ucvebc3.o)
 *fill*         0x000d0dc7        0x1 
 .rodata        0x000d0dc8       0xac ../ulib/libuserxe.a(libuserxe_a-ucvebc4.o)

.rodata1
 *(.rodata1)

.ARM.extab      0x000d0e74        0x0
 *(.ARM.extab* .gnu.linkonce.armextab.*)
 .ARM.extab     0x000d0e74        0x0 /usr/lib/gcc/arm-linux-gnueabihf/8/../../../arm-linux-gnueabihf/crt1.o
 .ARM.extab     0x000d0e74        0x0 /usr/lib/gcc/arm-linux-gnueabihf/8/libgcc.a(_udivmoddi4.o)
                [!provide]                PROVIDE (__exidx_start = .)

.ARM.exidx      0x000d0e74        0x8
 *(.ARM.exidx* .gnu.linkonce.armexidx.*)
 .ARM.exidx     0x000d0e74        0x8 /usr/lib/gcc/arm-linux-gnueabihf/8/../../../arm-linux-gnueabihf/crt1.o
 .ARM.exidx     0x000d0e7c        0x0 /usr/lib/gcc/arm-linux-gnueabihf/8/libgcc.a(_udivmoddi4.o)
                                  0x8 (size before relaxing)
                [!provide]                PROVIDE (__exidx_end = .)

.eh_frame_hdr
 *(.eh_frame_hdr)
 *(.eh_frame_entry .eh_frame_entry.*)

.eh_frame       0x000d0e7c        0x4
 *(.eh_frame)
 .eh_frame      0x000d0e7c        0x4 /usr/lib/gcc/arm-linux-gnueabihf/8/crtend.o
 *(.eh_frame.*)

.gcc_except_table
 *(.gcc_except_table .gcc_except_table.*)

.gnu_extab
 *(.gnu_extab*)

.exception_ranges
 *(.exception_ranges .exception_ranges*)
                0x000e1e08                . = DATA_SEGMENT_ALIGN (CONSTANT (MAXPAGESIZE), CONSTANT (COMMONPAGESIZE))

.eh_frame
 *(.eh_frame)
 *(.eh_frame.*)

.gnu_extab
 *(.gnu_extab)

.gcc_except_table
 *(.gcc_except_table .gcc_except_table.*)

.exception_ranges
 *(.exception_ranges .exception_ranges*)

.tdata          0x000e1e08        0x0
                [!provide]                PROVIDE (__tdata_start = .)
 *(.tdata .tdata.* .gnu.linkonce.td.*)

.tbss
 *(.tbss .tbss.* .gnu.linkonce.tb.*)
 *(.tcommon)

.preinit_array  0x000e1e08        0x0
                [!provide]                PROVIDE (__preinit_array_start = .)
 *(.preinit_array)
                [!provide]                PROVIDE (__preinit_array_end = .)

.init_array     0x000e1e08        0x4
                0x000e1e08                PROVIDE (__init_array_start = .)
 *(SORT_BY_INIT_PRIORITY(.init_array.*) SORT_BY_INIT_PRIORITY(.ctors.*))
 *(.init_array EXCLUDE_FILE(*crtend?.o *crtend.o *crtbegin?.o *crtbegin.o) .ctors)
 .init_array    0x000e1e08        0x4 /usr/lib/gcc/arm-linux-gnueabihf/8/crtbegin.o
                0x000e1e0c                PROVIDE (__init_array_end = .)

.fini_array     0x000e1e0c        0x4
                [!provide]                PROVIDE (__fini_array_start = .)
 *(SORT_BY_INIT_PRIORITY(.fini_array.*) SORT_BY_INIT_PRIORITY(.dtors.*))
 *(.fini_array EXCLUDE_FILE(*crtend?.o *crtend.o *crtbegin?.o *crtbegin.o) .dtors)
 .fini_array    0x000e1e0c        0x4 /usr/lib/gcc/arm-linux-gnueabihf/8/crtbegin.o
                [!provide]                PROVIDE (__fini_array_end = .)

.ctors
 *crtbegin.o(.ctors)
 *crtbegin?.o(.ctors)
 *(EXCLUDE_FILE(*crtend?.o *crtend.o) .ctors)
 *(SORT_BY_NAME(.ctors.*))
 *(.ctors)

.dtors
 *crtbegin.o(.dtors)
 *crtbegin?.o(.dtors)
 *(EXCLUDE_FILE(*crtend?.o *crtend.o) .dtors)
 *(SORT_BY_NAME(.dtors.*))
 *(.dtors)

.jcr
 *(.jcr)

.data.rel.ro    0x000e1e10        0x0
 *(.data.rel.ro.local* .gnu.linkonce.d.rel.ro.local.*)
 *(.data.rel.ro .data.rel.ro.* .gnu.linkonce.d.rel.ro.*)
 .data.rel.ro   0x000e1e10        0x0 /usr/lib/gcc/arm-linux-gnueabihf/8/../../../arm-linux-gnueabihf/crt1.o

.dynamic        0x000e1e10      0x1f0
 *(.dynamic)
 .dynamic       0x000e1e10      0x1f0 /usr/lib/gcc/arm-linux-gnueabihf/8/../../../arm-linux-gnueabihf/crt1.o
                0x000e1e10                _DYNAMIC
                0x000e2000                . = DATA_SEGMENT_RELRO_END (., 0x0)

.got            0x000e2000      0x2e4
 *(.got.plt)
 .got.plt       0x000e2000      0x2e0 /usr/lib/gcc/arm-linux-gnueabihf/8/../../../arm-linux-gnueabihf/crt1.o
                0x000e2000                _GLOBAL_OFFSET_TABLE_
 *(.igot.plt)
 .igot.plt      0x000e22e0        0x0 /usr/lib/gcc/arm-linux-gnueabihf/8/../../../arm-linux-gnueabihf/crt1.o
 *(.got)
 .got           0x000e22e0        0x4 /usr/lib/gcc/arm-linux-gnueabihf/8/../../../arm-linux-gnueabihf/crt1.o
 *(.igot)

.data           0x000e22e4    0x27660
                [!provide]                PROVIDE (__data_start = .)
 *(.data .data.* .gnu.linkonce.d.*)
 .data          0x000e22e4        0x4 /usr/lib/gcc/arm-linux-gnueabihf/8/../../../arm-linux-gnueabihf/crt1.o
                0x000e22e4                __data_start
                0x000e22e4                data_start
 .data          0x000e22e8        0x0 /usr/lib/gcc/arm-linux-gnueabihf/8/../../../arm-linux-gnueabihf/crti.o
 .data          0x000e22e8        0x4 /usr/lib/gcc/arm-linux-gnueabihf/8/crtbegin.o
                0x000e22e8                __dso_handle
 .data          0x000e22ec       0x24 xfc.o
 .data          0x000e2310        0x8 ../ulib/libuserxe.a(libuserxe_a-udbcschk.o)
                0x000e2310                Gpdbcstbl
 .data          0x000e2318     0x1148 ../ulib/libuserxe.a(libuserxe_a-udbcsck2.o)
 .data          0x000e3460        0x0 ../ulib/libuserxe.a(libuserxe_a-uedit.o)
 .data          0x000e3460        0xd ../ulib/libuserxe.a(libuserxe_a-uerr.o)
 .data          0x000e346d        0x0 ../ulib/libuserxe.a(libuserxe_a-ufemsg.o)
 *fill*         0x000e346d        0x3 
 .data          0x000e3470        0xc ../ulib/libuserxe.a(libuserxe_a-ufile.o)
 .data          0x000e347c        0x0 ../ulib/libuserxe.a(libuserxe_a-ufile1f.o)
 .data          0x000e347c        0x0 ../ulib/libuserxe.a(libuserxe_a-ufile1l.o)
 .data          0x000e347c       0x2c ../ulib/libuserxe.a(libuserxe_a-ufile1l2.o)
 .data          0x000e34a8        0x0 ../ulib/libuserxe.a(libuserxe_a-ufile2.o)
 .data          0x000e34a8        0x0 ../ulib/libuserxe.a(libuserxe_a-ufile2f.o)
 .data          0x000e34a8        0x0 ../ulib/libuserxe.a(libuserxe_a-ufile2l.o)
 .data          0x000e34a8        0x0 ../ulib/libuserxe.a(libuserxe_a-ufile2l2.o)
 .data          0x000e34a8        0x0 ../ulib/libuserxe.a(libuserxe_a-ufile3.o)
 .data          0x000e34a8        0x0 ../ulib/libuserxe.a(libuserxe_a-ufile3f.o)
 .data          0x000e34a8        0x0 ../ulib/libuserxe.a(libuserxe_a-ufile4.o)
 .data          0x000e34a8        0x0 ../ulib/libuserxe.a(libuserxe_a-ufile5.o)
 .data          0x000e34a8       0x10 ../ulib/libuserxe.a(libuserxe_a-uftp.o)
 .data          0x000e34b8       0x50 ../ulib/libuserxe.a(libuserxe_a-uftp2.o)
 .data          0x000e3508        0x4 ../ulib/libuserxe.a(libuserxe_a-uftp3.o)
 .data          0x000e350c        0x0 ../ulib/libuserxe.a(libuserxe_a-ugcclib.o)
 .data          0x000e350c        0x0 ../ulib/libuserxe.a(libuserxe_a-ukbdl.o)
 .data          0x000e350c     0xb6bc ../ulib/libuserxe.a(libuserxe_a-ukbdlnxc.o)
 .data          0x000eebc8       0x10 ../ulib/libuserxe.a(libuserxe_a-ukbdlnxm.o)
 .data          0x000eebd8        0x0 ../ulib/libuserxe.a(libuserxe_a-uparse.o)
 .data          0x000eebd8       0x20 ../ulib/libuserxe.a(libuserxe_a-uproc.o)
 .data          0x000eebf8        0x0 ../ulib/libuserxe.a(libuserxe_a-uproc2.o)
 .data          0x000eebf8        0x0 ../ulib/libuserxe.a(libuserxe_a-uproc4.o)
 .data          0x000eebf8        0x0 ../ulib/libuserxe.a(libuserxe_a-uque.o)
 .data          0x000eebf8        0x0 ../ulib/libuserxe.a(libuserxe_a-ustrcpy.o)
 .data          0x000eebf8       0xfb ../ulib/libuserxe.a(libuserxe_a-ustring.o)
 .data          0x000eecf3        0x0 ../ulib/libuserxe.a(libuserxe_a-utf.o)
 .data          0x000eecf3        0x0 ../ulib/libuserxe.a(libuserxe_a-utf2.o)
 *fill*         0x000eecf3        0x1 
 .data          0x000eecf4      0x164 ../ulib/libuserxe.a(libuserxe_a-utf22.o)
 .data          0x000eee58      0xe98 ../ulib/libuserxe.a(libuserxe_a-utf3.o)
 .data          0x000efcf0        0x0 ../ulib/libuserxe.a(libuserxe_a-utf4.o)
 .data          0x000efcf0     0x1928 ../ulib/libuserxe.a(libuserxe_a-utrace.o)
 .data          0x000f1618        0x0 ../ulib/libuserxe.a(libuserxe_a-uunxsub.o)
 .data          0x000f1618        0x4 ../ulib/libuserxe.a(libuserxe_a-uviom.o)
                0x000f1618                Guviomdbcspad
 .data          0x000f161c        0xc ../ulib/libuserxe.a(libuserxe_a-uviol.o)
 .data          0x000f1628        0x4 ../ulib/libuserxe.a(libuserxe_a-u3270.o)
 .data          0x000f162c        0x0 ../ulib/libuserxe.a(libuserxe_a-u32702.o)
 .data          0x000f162c        0x0 ../ulib/libuserxe.a(libuserxe_a-u32703.o)
 .data          0x000f162c        0x0 ../ulib/libuserxe.a(libuserxe_a-uabend.o)
 .data          0x000f162c     0x1000 ../ulib/libuserxe.a(libuserxe_a-uallocl.o)
 .data          0x000f262c      0x24c ../ulib/libuserxe.a(libuserxe_a-ucalc2.o)
 .data          0x000f2878      0x248 ../ulib/libuserxe.a(libuserxe_a-ucvebc.o)
 .data          0x000f2ac0        0x0 ../ulib/libuserxe.a(libuserxe_a-ucvebc2.o)
 .data          0x000f2ac0     0xed30 ../ulib/libuserxe.a(libuserxe_a-ucvebct.o)
 .data          0x001017f0      0x316 ../ulib/libuserxe.a(libuserxe_a-ucvext.o)
 .data          0x00101b06        0x6 ../ulib/libuserxe.a(libuserxe_a-ucvext12.o)
 .data          0x00101b0c        0x0 ../ulib/libuserxe.a(libuserxe_a-ucvext2.o)
 .data          0x00101b0c       0x28 ../ulib/libuserxe.a(libuserxe_a-ucvucs.o)
 .data          0x00101b34     0x7cb0 ../ulib/libuserxe.a(libuserxe_a-ucvucst.o)
                0x00101b34                Scp932tb
 .data          0x001097e4        0x0 ../ulib/libuserxe.a(libuserxe_a-udos2.o)
 .data          0x001097e4       0x78 ../ulib/libuserxe.a(libuserxe_a-uedit2.o)
 .data          0x0010985c       0x38 ../ulib/libuserxe.a(libuserxe_a-uehl.o)
 .data          0x00109894        0x0 ../ulib/libuserxe.a(libuserxe_a-uproc22.o)
 .data          0x00109894       0x54 ../ulib/libuserxe.a(libuserxe_a-uproc3.o)
 .data          0x001098e8       0x54 ../ulib/libuserxe.a(libuserxe_a-ucalc.o)
 .data          0x0010993c        0x8 ../ulib/libuserxe.a(libuserxe_a-ucvebc3.o)
 .data          0x00109944        0x0 ../ulib/libuserxe.a(libuserxe_a-ucvebc4.o)
 .data          0x00109944        0x0 /usr/lib/gcc/arm-linux-gnueabihf/8/libgcc.a(_divsi3.o)
 .data          0x00109944        0x0 /usr/lib/gcc/arm-linux-gnueabihf/8/libgcc.a(_aeabi_ldivmod.o)
 .data          0x00109944        0x0 /usr/lib/gcc/arm-linux-gnueabihf/8/libgcc.a(_dvmd_lnx.o)
 .data          0x00109944        0x0 /usr/lib/gcc/arm-linux-gnueabihf/8/libgcc.a(_udivmoddi4.o)
 .data          0x00109944        0x0 //usr/lib/arm-linux-gnueabihf/libc_nonshared.a(elf-init.oS)
 .data          0x00109944        0x0 //usr/lib/arm-linux-gnueabihf/libc_nonshared.a(stat64.oS)
 .data          0x00109944        0x0 //usr/lib/arm-linux-gnueabihf/libc_nonshared.a(lstat64.oS)
 .data          0x00109944        0x0 /usr/lib/gcc/arm-linux-gnueabihf/8/crtend.o
 .data          0x00109944        0x0 /usr/lib/gcc/arm-linux-gnueabihf/8/../../../arm-linux-gnueabihf/crtn.o

.tm_clone_table
                0x00109944        0x0
 .tm_clone_table
                0x00109944        0x0 /usr/lib/gcc/arm-linux-gnueabihf/8/crtbegin.o
 .tm_clone_table
                0x00109944        0x0 /usr/lib/gcc/arm-linux-gnueabihf/8/crtend.o

.data1
 *(.data1)
                0x00109944                _edata = .
                [!provide]                PROVIDE (edata = .)
                0x00109944                . = .
                0x00109944                __bss_start = .
                0x00109944                __bss_start__ = .

.bss            0x00109948   0x146a68
 *(.dynbss)
 .dynbss        0x00109948      0x230 /usr/lib/gcc/arm-linux-gnueabihf/8/../../../arm-linux-gnueabihf/crt1.o
                0x00109948                COLORS@@NCURSESW6_5.1.20000708
                0x0010994c                LINES@@NCURSES6_TINFO_5.0.19991023
                0x00109950                acs_map@@NCURSES6_TINFO_5.0.19991023
                0x00109b50                stdscr@@NCURSES6_TINFO_5.0.19991023
                0x00109b54                cur_term@@NCURSES6_TINFO_5.0.19991023
                0x00109b58                COLS@@NCURSES6_TINFO_5.0.19991023
                0x00109b5c                stdout@@GLIBC_2.4
                0x00109b60                COLOR_PAIRS@@NCURSESW6_5.1.20000708
                0x00109b68                stdin@@GLIBC_2.4
                0x00109b70                stderr@@GLIBC_2.4
                0x00109b74                newscr@@NCURSES6_TINFO_5.0.19991023
 *(.bss .bss.* .gnu.linkonce.b.*)
 .bss           0x00109b78        0x0 /usr/lib/gcc/arm-linux-gnueabihf/8/../../../arm-linux-gnueabihf/crt1.o
 .bss           0x00109b78        0x0 /usr/lib/gcc/arm-linux-gnueabihf/8/../../../arm-linux-gnueabihf/crti.o
 .bss           0x00109b78        0x1 /usr/lib/gcc/arm-linux-gnueabihf/8/crtbegin.o
 *fill*         0x00109b79        0x3 
 .bss           0x00109b7c     0x20bc xfc.o
 .bss           0x0010bc38      0x2f9 ../ulib/libuserxe.a(libuserxe_a-udbcschk.o)
 .bss           0x0010bf31        0x0 ../ulib/libuserxe.a(libuserxe_a-udbcsck2.o)
 *fill*         0x0010bf31        0x3 
 .bss           0x0010bf34       0xd8 ../ulib/libuserxe.a(libuserxe_a-uedit.o)
 .bss           0x0010c00c     0x40e4 ../ulib/libuserxe.a(libuserxe_a-uerr.o)
 .bss           0x001100f0       0x20 ../ulib/libuserxe.a(libuserxe_a-ufemsg.o)
 .bss           0x00110110       0x18 ../ulib/libuserxe.a(libuserxe_a-ufile.o)
 .bss           0x00110128        0x4 ../ulib/libuserxe.a(libuserxe_a-ufile1f.o)
 .bss           0x0011012c    0x64658 ../ulib/libuserxe.a(libuserxe_a-ufile1l.o)
 .bss           0x00174784        0x4 ../ulib/libuserxe.a(libuserxe_a-ufile1l2.o)
 .bss           0x00174788       0x34 ../ulib/libuserxe.a(libuserxe_a-ufile2.o)
 .bss           0x001747bc       0x20 ../ulib/libuserxe.a(libuserxe_a-ufile2f.o)
 .bss           0x001747dc        0x4 ../ulib/libuserxe.a(libuserxe_a-ufile2l.o)
 .bss           0x001747e0        0x0 ../ulib/libuserxe.a(libuserxe_a-ufile2l2.o)
 .bss           0x001747e0        0x8 ../ulib/libuserxe.a(libuserxe_a-ufile3.o)
 .bss           0x001747e8     0x100d ../ulib/libuserxe.a(libuserxe_a-ufile3f.o)
 *fill*         0x001757f5        0x3 
 .bss           0x001757f8     0x1034 ../ulib/libuserxe.a(libuserxe_a-ufile4.o)
 *fill*         0x0017682c        0x4 
 .bss           0x00176830       0x5d ../ulib/libuserxe.a(libuserxe_a-ufile5.o)
 *fill*         0x0017688d        0x3 
 .bss           0x00176890    0x64d00 ../ulib/libuserxe.a(libuserxe_a-uftp.o)
 .bss           0x001db590        0x8 ../ulib/libuserxe.a(libuserxe_a-uftp2.o)
 .bss           0x001db598        0x0 ../ulib/libuserxe.a(libuserxe_a-uftp3.o)
 .bss           0x001db598        0x4 ../ulib/libuserxe.a(libuserxe_a-ugcclib.o)
 .bss           0x001db59c       0xf4 ../ulib/libuserxe.a(libuserxe_a-ukbdl.o)
                0x001db59c                Swcstat
 .bss           0x001db690     0x5808 ../ulib/libuserxe.a(libuserxe_a-ukbdlnxc.o)
 .bss           0x001e0e98        0x8 ../ulib/libuserxe.a(libuserxe_a-ukbdlnxm.o)
 .bss           0x001e0ea0      0x205 ../ulib/libuserxe.a(libuserxe_a-uparse.o)
 *fill*         0x001e10a5        0x3 
 .bss           0x001e10a8       0x1c ../ulib/libuserxe.a(libuserxe_a-uproc.o)
                0x001e10a8                Sserverstat
                0x001e10ac                Scmdservercallback
                0x001e10b0                Scallbackparm
                0x001e10b4                Scmdserverchildpid
 .bss           0x001e10c4        0x4 ../ulib/libuserxe.a(libuserxe_a-uproc2.o)
 .bss           0x001e10c8       0x1c ../ulib/libuserxe.a(libuserxe_a-uproc4.o)
 .bss           0x001e10e4        0x0 ../ulib/libuserxe.a(libuserxe_a-uque.o)
 .bss           0x001e10e4        0x0 ../ulib/libuserxe.a(libuserxe_a-ustrcpy.o)
 .bss           0x001e10e4        0x0 ../ulib/libuserxe.a(libuserxe_a-ustring.o)
 .bss           0x001e10e4        0x0 ../ulib/libuserxe.a(libuserxe_a-utf.o)
 .bss           0x001e10e4       0x98 ../ulib/libuserxe.a(libuserxe_a-utf2.o)
 .bss           0x001e117c       0x14 ../ulib/libuserxe.a(libuserxe_a-utf22.o)
 .bss           0x001e1190        0x8 ../ulib/libuserxe.a(libuserxe_a-utf3.o)
 .bss           0x001e1198        0x4 ../ulib/libuserxe.a(libuserxe_a-utf4.o)
 .bss           0x001e119c     0x1170 ../ulib/libuserxe.a(libuserxe_a-utrace.o)
 .bss           0x001e230c       0x20 ../ulib/libuserxe.a(libuserxe_a-uunxsub.o)
 .bss           0x001e232c       0x58 ../ulib/libuserxe.a(libuserxe_a-uviom.o)
 .bss           0x001e2384      0x508 ../ulib/libuserxe.a(libuserxe_a-uviol.o)
 .bss           0x001e288c        0xc ../ulib/libuserxe.a(libuserxe_a-u3270.o)
 .bss           0x001e2898       0x10 ../ulib/libuserxe.a(libuserxe_a-u32702.o)
 .bss           0x001e28a8     0x1208 ../ulib/libuserxe.a(libuserxe_a-u32703.o)
 .bss           0x001e3ab0        0x0 ../ulib/libuserxe.a(libuserxe_a-uabend.o)
 .bss           0x001e3ab0       0x84 ../ulib/libuserxe.a(libuserxe_a-uallocl.o)
 .bss           0x001e3b34        0x0 ../ulib/libuserxe.a(libuserxe_a-ucalc2.o)
 .bss           0x001e3b34      0x790 ../ulib/libuserxe.a(libuserxe_a-ucvebc.o)
 .bss           0x001e42c4       0x10 ../ulib/libuserxe.a(libuserxe_a-ucvebc2.o)
 .bss           0x001e42d4        0x0 ../ulib/libuserxe.a(libuserxe_a-ucvebct.o)
 .bss           0x001e42d4     0x1cd4 ../ulib/libuserxe.a(libuserxe_a-ucvext.o)
 .bss           0x001e5fa8       0x24 ../ulib/libuserxe.a(libuserxe_a-ucvext12.o)
 .bss           0x001e5fcc        0xc ../ulib/libuserxe.a(libuserxe_a-ucvext2.o)
 .bss           0x001e5fd8        0xc ../ulib/libuserxe.a(libuserxe_a-ucvucs.o)
 .bss           0x001e5fe4        0x0 ../ulib/libuserxe.a(libuserxe_a-ucvucst.o)
 .bss           0x001e5fe4        0x0 ../ulib/libuserxe.a(libuserxe_a-udos2.o)
 .bss           0x001e5fe4      0x268 ../ulib/libuserxe.a(libuserxe_a-uedit2.o)
 .bss           0x001e624c       0x64 ../ulib/libuserxe.a(libuserxe_a-uehl.o)
 .bss           0x001e62b0       0x18 ../ulib/libuserxe.a(libuserxe_a-uproc22.o)
 .bss           0x001e62c8       0x10 ../ulib/libuserxe.a(libuserxe_a-uproc3.o)
 .bss           0x001e62d8      0x114 ../ulib/libuserxe.a(libuserxe_a-ucalc.o)
 .bss           0x001e63ec       0x34 ../ulib/libuserxe.a(libuserxe_a-ucvebc3.o)
 .bss           0x001e6420        0x4 ../ulib/libuserxe.a(libuserxe_a-ucvebc4.o)
 .bss           0x001e6424        0x0 /usr/lib/gcc/arm-linux-gnueabihf/8/libgcc.a(_divsi3.o)
 .bss           0x001e6424        0x0 /usr/lib/gcc/arm-linux-gnueabihf/8/libgcc.a(_aeabi_ldivmod.o)
 .bss           0x001e6424        0x0 /usr/lib/gcc/arm-linux-gnueabihf/8/libgcc.a(_dvmd_lnx.o)
 .bss           0x001e6424        0x0 /usr/lib/gcc/arm-linux-gnueabihf/8/libgcc.a(_udivmoddi4.o)
 .bss           0x001e6424        0x0 //usr/lib/arm-linux-gnueabihf/libc_nonshared.a(elf-init.oS)
 .bss           0x001e6424        0x0 //usr/lib/arm-linux-gnueabihf/libc_nonshared.a(stat64.oS)
 .bss           0x001e6424        0x0 //usr/lib/arm-linux-gnueabihf/libc_nonshared.a(lstat64.oS)
 .bss           0x001e6424        0x0 /usr/lib/gcc/arm-linux-gnueabihf/8/crtend.o
 .bss           0x001e6424        0x0 /usr/lib/gcc/arm-linux-gnueabihf/8/../../../arm-linux-gnueabihf/crtn.o
 *(COMMON)
 COMMON         0x001e6424        0xc ../ulib/libuserxe.a(libuserxe_a-udbcschk.o)
                0x001e6424                Gudbcschk_flag
                0x001e6428                Gudbcschk_width0top
                0x001e642c                Sdbcschk_hkopt
 COMMON         0x001e6430        0x5 ../ulib/libuserxe.a(libuserxe_a-uerr.o)
                0x001e6430                Guerropt2
                0x001e6434                Guerropt
 *fill*         0x001e6435        0x3 
 COMMON         0x001e6438        0x8 ../ulib/libuserxe.a(libuserxe_a-ufile.o)
                0x001e6438                Gufile_opt
                0x001e643c                Gufile_nomsg
 COMMON         0x001e6440       0x88 ../ulib/libuserxe.a(libuserxe_a-uftp2.o)
                0x001e6440                Gftperr
                0x001e6444                Gftpopt
                0x001e6448                Gftpclient
 COMMON         0x001e64c8        0x8 ../ulib/libuserxe.a(libuserxe_a-ukbdl.o)
                0x001e64c8                Sphiconv
                0x001e64cc                Gukbdl_flag
 COMMON         0x001e64d0        0x8 ../ulib/libuserxe.a(libuserxe_a-uproc.o)
                0x001e64d0                Sfdpiper
                0x001e64d4                Sfdpipew
 COMMON         0x001e64d8        0xc ../ulib/libuserxe.a(libuserxe_a-utf.o)
                0x001e64d8                Gulibutfmode
                0x001e64dc                Gutfrc
                0x001e64e0                Gutfcombaltch
 COMMON         0x001e64e4    0x60000 ../ulib/libuserxe.a(libuserxe_a-utf22.o)
                0x001e64e4                Gucs2ddmap_i2u
                0x002064e4                Gucs2ddmap
 COMMON         0x002464e4      0x104 ../ulib/libuserxe.a(libuserxe_a-utrace.o)
                0x002464e4                Gtracehdr
                0x002465e4                Slockhandle
 COMMON         0x002465e8       0x24 ../ulib/libuserxe.a(libuserxe_a-uviom.o)
                0x002465e8                Guviombuffu
                0x002465ec                Guviomopt
                0x002465f0                Guviomoptstr
                0x002465f4                Guviomopt2
                0x002465f8                Gw95buffopt
                0x002465fc                Guviomoptstrucs
 COMMON         0x0024660c        0x4 ../ulib/libuserxe.a(libuserxe_a-uviol.o)
                0x0024660c                Guviol_flag
 COMMON         0x00246610        0x8 ../ulib/libuserxe.a(libuserxe_a-uallocl.o)
                0x00246610                Gualloc_amount
                0x00246614                Gualloc16_amount
 COMMON         0x00246618     0x9c48 ../ulib/libuserxe.a(libuserxe_a-ucvebc.o)
                0x00246618                Gucvebchctr
                0x0024661c                Gucvebch
                0x0025025c                Gucvebc_stat
 COMMON         0x00250260       0x10 ../ulib/libuserxe.a(libuserxe_a-ucvebc2.o)
                0x00250260                Snewoldctr
                0x00250264                Se2stctr
                0x00250268                Sduptctr
                0x0025026c                Ss2etctr
 COMMON         0x00250270      0x140 ../ulib/libuserxe.a(libuserxe_a-ucalc.o)
                0x00250270                Gucalc_result
                0x002503b0                . = ALIGN ((. != 0x0)?0x4:0x1)
                0x002503b0                _bss_end__ = .
                0x002503b0                __bss_end__ = .
                0x002503b0                . = ALIGN (0x4)
                0x002503b0                . = SEGMENT_START ("ldata-segment", .)
                0x002503b0                . = ALIGN (0x4)
                0x002503b0                __end__ = .
                0x002503b0                _end = .
                [!provide]                PROVIDE (end = .)
                0x002503b0                . = DATA_SEGMENT_END (.)

.stab
 *(.stab)

.stabstr
 *(.stabstr)

.stab.excl
 *(.stab.excl)

.stab.exclstr
 *(.stab.exclstr)

.stab.index
 *(.stab.index)

.stab.indexstr
 *(.stab.indexstr)

.comment        0x00000000       0x23
 *(.comment)
 .comment       0x00000000       0x23 /usr/lib/gcc/arm-linux-gnueabihf/8/crtbegin.o
                                 0x24 (size before relaxing)
 .comment       0x00000023       0x24 xfc.o
 .comment       0x00000023       0x24 ../ulib/libuserxe.a(libuserxe_a-udbcschk.o)
 .comment       0x00000023       0x24 ../ulib/libuserxe.a(libuserxe_a-udbcsck2.o)
 .comment       0x00000023       0x24 ../ulib/libuserxe.a(libuserxe_a-uedit.o)
 .comment       0x00000023       0x24 ../ulib/libuserxe.a(libuserxe_a-uerr.o)
 .comment       0x00000023       0x24 ../ulib/libuserxe.a(libuserxe_a-ufemsg.o)
 .comment       0x00000023       0x24 ../ulib/libuserxe.a(libuserxe_a-ufile.o)
 .comment       0x00000023       0x24 ../ulib/libuserxe.a(libuserxe_a-ufile1f.o)
 .comment       0x00000023       0x24 ../ulib/libuserxe.a(libuserxe_a-ufile1l.o)
 .comment       0x00000023       0x24 ../ulib/libuserxe.a(libuserxe_a-ufile1l2.o)
 .comment       0x00000023       0x24 ../ulib/libuserxe.a(libuserxe_a-ufile2.o)
 .comment       0x00000023       0x24 ../ulib/libuserxe.a(libuserxe_a-ufile2f.o)
 .comment       0x00000023       0x24 ../ulib/libuserxe.a(libuserxe_a-ufile2l.o)
 .comment       0x00000023       0x24 ../ulib/libuserxe.a(libuserxe_a-ufile2l2.o)
 .comment       0x00000023       0x24 ../ulib/libuserxe.a(libuserxe_a-ufile3.o)
 .comment       0x00000023       0x24 ../ulib/libuserxe.a(libuserxe_a-ufile3f.o)
 .comment       0x00000023       0x24 ../ulib/libuserxe.a(libuserxe_a-ufile4.o)
 .comment       0x00000023       0x24 ../ulib/libuserxe.a(libuserxe_a-ufile5.o)
 .comment       0x00000023       0x24 ../ulib/libuserxe.a(libuserxe_a-uftp.o)
 .comment       0x00000023       0x24 ../ulib/libuserxe.a(libuserxe_a-uftp2.o)
 .comment       0x00000023       0x24 ../ulib/libuserxe.a(libuserxe_a-uftp3.o)
 .comment       0x00000023       0x24 ../ulib/libuserxe.a(libuserxe_a-ugcclib.o)
 .comment       0x00000023       0x24 ../ulib/libuserxe.a(libuserxe_a-ukbdl.o)
 .comment       0x00000023       0x24 ../ulib/libuserxe.a(libuserxe_a-ukbdlnxc.o)
 .comment       0x00000023       0x24 ../ulib/libuserxe.a(libuserxe_a-ukbdlnxm.o)
 .comment       0x00000023       0x24 ../ulib/libuserxe.a(libuserxe_a-uparse.o)
 .comment       0x00000023       0x24 ../ulib/libuserxe.a(libuserxe_a-uproc.o)
 .comment       0x00000023       0x24 ../ulib/libuserxe.a(libuserxe_a-uproc2.o)
 .comment       0x00000023       0x24 ../ulib/libuserxe.a(libuserxe_a-uproc4.o)
 .comment       0x00000023       0x24 ../ulib/libuserxe.a(libuserxe_a-uque.o)
 .comment       0x00000023       0x24 ../ulib/libuserxe.a(libuserxe_a-ustrcpy.o)
 .comment       0x00000023       0x24 ../ulib/libuserxe.a(libuserxe_a-ustring.o)
 .comment       0x00000023       0x24 ../ulib/libuserxe.a(libuserxe_a-utf.o)
 .comment       0x00000023       0x24 ../ulib/libuserxe.a(libuserxe_a-utf2.o)
 .comment       0x00000023       0x24 ../ulib/libuserxe.a(libuserxe_a-utf22.o)
 .comment       0x00000023       0x24 ../ulib/libuserxe.a(libuserxe_a-utf3.o)
 .comment       0x00000023       0x24 ../ulib/libuserxe.a(libuserxe_a-utf4.o)
 .comment       0x00000023       0x24 ../ulib/libuserxe.a(libuserxe_a-utrace.o)
 .comment       0x00000023       0x24 ../ulib/libuserxe.a(libuserxe_a-uunxsub.o)
 .comment       0x00000023       0x24 ../ulib/libuserxe.a(libuserxe_a-uviom.o)
 .comment       0x00000023       0x24 ../ulib/libuserxe.a(libuserxe_a-uviol.o)
 .comment       0x00000023       0x24 ../ulib/libuserxe.a(libuserxe_a-u3270.o)
 .comment       0x00000023       0x24 ../ulib/libuserxe.a(libuserxe_a-u32702.o)
 .comment       0x00000023       0x24 ../ulib/libuserxe.a(libuserxe_a-u32703.o)
 .comment       0x00000023       0x24 ../ulib/libuserxe.a(libuserxe_a-uabend.o)
 .comment       0x00000023       0x24 ../ulib/libuserxe.a(libuserxe_a-uallocl.o)
 .comment       0x00000023       0x24 ../ulib/libuserxe.a(libuserxe_a-ucalc2.o)
 .comment       0x00000023       0x24 ../ulib/libuserxe.a(libuserxe_a-ucvebc.o)
 .comment       0x00000023       0x24 ../ulib/libuserxe.a(libuserxe_a-ucvebc2.o)
 .comment       0x00000023       0x24 ../ulib/libuserxe.a(libuserxe_a-ucvebct.o)
 .comment       0x00000023       0x24 ../ulib/libuserxe.a(libuserxe_a-ucvext.o)
 .comment       0x00000023       0x24 ../ulib/libuserxe.a(libuserxe_a-ucvext12.o)
 .comment       0x00000023       0x24 ../ulib/libuserxe.a(libuserxe_a-ucvext2.o)
 .comment       0x00000023       0x24 ../ulib/libuserxe.a(libuserxe_a-ucvucs.o)
 .comment       0x00000023       0x24 ../ulib/libuserxe.a(libuserxe_a-ucvucst.o)
 .comment       0x00000023       0x24 ../ulib/libuserxe.a(libuserxe_a-udos2.o)
 .comment       0x00000023       0x24 ../ulib/libuserxe.a(libuserxe_a-uedit2.o)
 .comment       0x00000023       0x24 ../ulib/libuserxe.a(libuserxe_a-uehl.o)
 .comment       0x00000023       0x24 ../ulib/libuserxe.a(libuserxe_a-uproc22.o)
 .comment       0x00000023       0x24 ../ulib/libuserxe.a(libuserxe_a-uproc3.o)
 .comment       0x00000023       0x24 ../ulib/libuserxe.a(libuserxe_a-ucalc.o)
 .comment       0x00000023       0x24 ../ulib/libuserxe.a(libuserxe_a-ucvebc3.o)
 .comment       0x00000023       0x24 ../ulib/libuserxe.a(libuserxe_a-ucvebc4.o)
 .comment       0x00000023       0x24 /usr/lib/gcc/arm-linux-gnueabihf/8/crtend.o

.ARM.attributes
                0x00000000       0x2f
 .ARM.attributes
                0x00000000       0x2f /usr/lib/gcc/arm-linux-gnueabihf/8/../../../arm-linux-gnueabihf/crt1.o
 .ARM.attributes
                0x0000002f       0x23 /usr/lib/gcc/arm-linux-gnueabihf/8/../../../arm-linux-gnueabihf/crti.o
 .ARM.attributes
                0x00000052       0x2f /usr/lib/gcc/arm-linux-gnueabihf/8/crtbegin.o
 .ARM.attributes
                0x00000081       0x2f xfc.o
 .ARM.attributes
                0x000000b0       0x2f ../ulib/libuserxe.a(libuserxe_a-udbcschk.o)
 .ARM.attributes
                0x000000df       0x2f ../ulib/libuserxe.a(libuserxe_a-udbcsck2.o)
 .ARM.attributes
                0x0000010e       0x2f ../ulib/libuserxe.a(libuserxe_a-uedit.o)
 .ARM.attributes
                0x0000013d       0x2f ../ulib/libuserxe.a(libuserxe_a-uerr.o)
 .ARM.attributes
                0x0000016c       0x2f ../ulib/libuserxe.a(libuserxe_a-ufemsg.o)
 .ARM.attributes
                0x0000019b       0x2f ../ulib/libuserxe.a(libuserxe_a-ufile.o)
 .ARM.attributes
                0x000001ca       0x2f ../ulib/libuserxe.a(libuserxe_a-ufile1f.o)
 .ARM.attributes
                0x000001f9       0x2f ../ulib/libuserxe.a(libuserxe_a-ufile1l.o)
 .ARM.attributes
                0x00000228       0x2f ../ulib/libuserxe.a(libuserxe_a-ufile1l2.o)
 .ARM.attributes
                0x00000257       0x2f ../ulib/libuserxe.a(libuserxe_a-ufile2.o)
 .ARM.attributes
                0x00000286       0x2f ../ulib/libuserxe.a(libuserxe_a-ufile2f.o)
 .ARM.attributes
                0x000002b5       0x2f ../ulib/libuserxe.a(libuserxe_a-ufile2l.o)
 .ARM.attributes
                0x000002e4       0x2f ../ulib/libuserxe.a(libuserxe_a-ufile2l2.o)
 .ARM.attributes
                0x00000313       0x2f ../ulib/libuserxe.a(libuserxe_a-ufile3.o)
 .ARM.attributes
                0x00000342       0x2f ../ulib/libuserxe.a(libuserxe_a-ufile3f.o)
 .ARM.attributes
                0x00000371       0x2f ../ulib/libuserxe.a(libuserxe_a-ufile4.o)
 .ARM.attributes
                0x000003a0       0x2f ../ulib/libuserxe.a(libuserxe_a-ufile5.o)
 .ARM.attributes
                0x000003cf       0x2f ../ulib/libuserxe.a(libuserxe_a-uftp.o)
 .ARM.attributes
                0x000003fe       0x2f ../ulib/libuserxe.a(libuserxe_a-uftp2.o)
 .ARM.attributes
                0x0000042d       0x2f ../ulib/libuserxe.a(libuserxe_a-uftp3.o)
 .ARM.attributes
                0x0000045c       0x2f ../ulib/libuserxe.a(libuserxe_a-ugcclib.o)
 .ARM.attributes
                0x0000048b       0x2f ../ulib/libuserxe.a(libuserxe_a-ukbdl.o)
 .ARM.attributes
                0x000004ba       0x2f ../ulib/libuserxe.a(libuserxe_a-ukbdlnxc.o)
 .ARM.attributes
                0x000004e9       0x2f ../ulib/libuserxe.a(libuserxe_a-ukbdlnxm.o)
 .ARM.attributes
                0x00000518       0x2f ../ulib/libuserxe.a(libuserxe_a-uparse.o)
 .ARM.attributes
                0x00000547       0x2f ../ulib/libuserxe.a(libuserxe_a-uproc.o)
 .ARM.attributes
                0x00000576       0x2f ../ulib/libuserxe.a(libuserxe_a-uproc2.o)
 .ARM.attributes
                0x000005a5       0x2f ../ulib/libuserxe.a(libuserxe_a-uproc4.o)
 .ARM.attributes
                0x000005d4       0x2f ../ulib/libuserxe.a(libuserxe_a-uque.o)
 .ARM.attributes
                0x00000603       0x2f ../ulib/libuserxe.a(libuserxe_a-ustrcpy.o)
 .ARM.attributes
                0x00000632       0x2f ../ulib/libuserxe.a(libuserxe_a-ustring.o)
 .ARM.attributes
                0x00000661       0x2f ../ulib/libuserxe.a(libuserxe_a-utf.o)
 .ARM.attributes
                0x00000690       0x2f ../ulib/libuserxe.a(libuserxe_a-utf2.o)
 .ARM.attributes
                0x000006bf       0x2f ../ulib/libuserxe.a(libuserxe_a-utf22.o)
 .ARM.attributes
                0x000006ee       0x2f ../ulib/libuserxe.a(libuserxe_a-utf3.o)
 .ARM.attributes
                0x0000071d       0x2f ../ulib/libuserxe.a(libuserxe_a-utf4.o)
 .ARM.attributes
                0x0000074c       0x2f ../ulib/libuserxe.a(libuserxe_a-utrace.o)
 .ARM.attributes
                0x0000077b       0x2f ../ulib/libuserxe.a(libuserxe_a-uunxsub.o)
 .ARM.attributes
                0x000007aa       0x2f ../ulib/libuserxe.a(libuserxe_a-uviom.o)
 .ARM.attributes
                0x000007d9       0x2f ../ulib/libuserxe.a(libuserxe_a-uviol.o)
 .ARM.attributes
                0x00000808       0x2f ../ulib/libuserxe.a(libuserxe_a-u3270.o)
 .ARM.attributes
                0x00000837       0x2f ../ulib/libuserxe.a(libuserxe_a-u32702.o)
 .ARM.attributes
                0x00000866       0x2f ../ulib/libuserxe.a(libuserxe_a-u32703.o)
 .ARM.attributes
                0x00000895       0x2f ../ulib/libuserxe.a(libuserxe_a-uabend.o)
 .ARM.attributes
                0x000008c4       0x2f ../ulib/libuserxe.a(libuserxe_a-uallocl.o)
 .ARM.attributes
                0x000008f3       0x2f ../ulib/libuserxe.a(libuserxe_a-ucalc2.o)
 .ARM.attributes
                0x00000922       0x2f ../ulib/libuserxe.a(libuserxe_a-ucvebc.o)
 .ARM.attributes
                0x00000951       0x2f ../ulib/libuserxe.a(libuserxe_a-ucvebc2.o)
 .ARM.attributes
                0x00000980       0x2f ../ulib/libuserxe.a(libuserxe_a-ucvebct.o)
 .ARM.attributes
                0x000009af       0x2f ../ulib/libuserxe.a(libuserxe_a-ucvext.o)
 .ARM.attributes
                0x000009de       0x2f ../ulib/libuserxe.a(libuserxe_a-ucvext12.o)
 .ARM.attributes
                0x00000a0d       0x2f ../ulib/libuserxe.a(libuserxe_a-ucvext2.o)
 .ARM.attributes
                0x00000a3c       0x2f ../ulib/libuserxe.a(libuserxe_a-ucvucs.o)
 .ARM.attributes
                0x00000a6b       0x2f ../ulib/libuserxe.a(libuserxe_a-ucvucst.o)
 .ARM.attributes
                0x00000a9a       0x2f ../ulib/libuserxe.a(libuserxe_a-udos2.o)
 .ARM.attributes
                0x00000ac9       0x2f ../ulib/libuserxe.a(libuserxe_a-uedit2.o)
 .ARM.attributes
                0x00000af8       0x2f ../ulib/libuserxe.a(libuserxe_a-uehl.o)
 .ARM.attributes
                0x00000b27       0x2f ../ulib/libuserxe.a(libuserxe_a-uproc22.o)
 .ARM.attributes
                0x00000b56       0x2f ../ulib/libuserxe.a(libuserxe_a-uproc3.o)
 .ARM.attributes
                0x00000b85       0x2f ../ulib/libuserxe.a(libuserxe_a-ucalc.o)
 .ARM.attributes
                0x00000bb4       0x2f ../ulib/libuserxe.a(libuserxe_a-ucvebc3.o)
 .ARM.attributes
                0x00000be3       0x2f ../ulib/libuserxe.a(libuserxe_a-ucvebc4.o)
 .ARM.attributes
                0x00000c12       0x1d /usr/lib/gcc/arm-linux-gnueabihf/8/libgcc.a(_divsi3.o)
 .ARM.attributes
                0x00000c2f       0x1d /usr/lib/gcc/arm-linux-gnueabihf/8/libgcc.a(_aeabi_ldivmod.o)
 .ARM.attributes
                0x00000c4c       0x1d /usr/lib/gcc/arm-linux-gnueabihf/8/libgcc.a(_dvmd_lnx.o)
 .ARM.attributes
                0x00000c69       0x2f /usr/lib/gcc/arm-linux-gnueabihf/8/libgcc.a(_udivmoddi4.o)
 .ARM.attributes
                0x00000c98       0x31 //usr/lib/arm-linux-gnueabihf/libc_nonshared.a(elf-init.oS)
 .ARM.attributes
                0x00000cc9       0x31 //usr/lib/arm-linux-gnueabihf/libc_nonshared.a(stat64.oS)
 .ARM.attributes
                0x00000cfa       0x31 //usr/lib/arm-linux-gnueabihf/libc_nonshared.a(lstat64.oS)
 .ARM.attributes
                0x00000d2b       0x2f /usr/lib/gcc/arm-linux-gnueabihf/8/crtend.o
 .ARM.attributes
                0x00000d5a       0x23 /usr/lib/gcc/arm-linux-gnueabihf/8/../../../arm-linux-gnueabihf/crtn.o

.debug
 *(.debug)

.line
 *(.line)

.debug_srcinfo
 *(.debug_srcinfo)

.debug_sfnames
 *(.debug_sfnames)

.debug_aranges
 *(.debug_aranges)

.debug_pubnames
 *(.debug_pubnames)

.debug_info
 *(.debug_info .gnu.linkonce.wi.*)

.debug_abbrev
 *(.debug_abbrev)

.debug_line
 *(.debug_line .debug_line.* .debug_line_end)

.debug_frame
 *(.debug_frame)

.debug_str
 *(.debug_str)

.debug_loc
 *(.debug_loc)

.debug_macinfo
 *(.debug_macinfo)

.debug_weaknames
 *(.debug_weaknames)

.debug_funcnames
 *(.debug_funcnames)

.debug_typenames
 *(.debug_typenames)

.debug_varnames
 *(.debug_varnames)

.debug_pubtypes
 *(.debug_pubtypes)

.debug_ranges
 *(.debug_ranges)

.debug_macro
 *(.debug_macro)

.debug_addr
 *(.debug_addr)

.gnu.attributes
 *(.gnu.attributes)

.note.gnu.arm.ident
 *(.note.gnu.arm.ident)

/DISCARD/
 *(.note.GNU-stack)
 *(.gnu_debuglink)
 *(.gnu.lto_*)
OUTPUT(xfc elf32-littlearm)
