Archive member included to satisfy reference by file (symbol)

../ulib/libuserxe.a(libuserxe_a-uallocl.o)
                              xfs.o (ufree)
../ulib/libuserxe.a(libuserxe_a-udbcschk.o)
                              xfs.o (udbcschkcp)
../ulib/libuserxe.a(libuserxe_a-udbcsck2.o)
                              ../ulib/libuserxe.a(libuserxe_a-udbcschk.o) (usjischk)
../ulib/libuserxe.a(libuserxe_a-udos2.o)
                              xfs.o (ugetdrivetype)
../ulib/libuserxe.a(libuserxe_a-uedit.o)
                              xfs.o (unumedit)
../ulib/libuserxe.a(libuserxe_a-uedit2.o)
                              xfs.o (ueditfattr)
../ulib/libuserxe.a(libuserxe_a-uerr.o)
                              xfs.o (Guerropt)
../ulib/libuserxe.a(libuserxe_a-ufemsg.o)
                              xfs.o (ufilenotfound)
../ulib/libuserxe.a(libuserxe_a-ufile.o)
                              xfs.o (Gufile_opt)
../ulib/libuserxe.a(libuserxe_a-ufile1f.o)
                              ../ulib/libuserxe.a(libuserxe_a-ufile.o) (uftpdirlistsub)
../ulib/libuserxe.a(libuserxe_a-ufile1l.o)
                              xfs.o (ufstat)
../ulib/libuserxe.a(libuserxe_a-ufile1l2.o)
                              ../ulib/libuserxe.a(libuserxe_a-ufile1l.o) (ufstat_mdos)
../ulib/libuserxe.a(libuserxe_a-ufile2.o)
                              xfs.o (uxdelete)
../ulib/libuserxe.a(libuserxe_a-ufile2f.o)
                              ../ulib/libuserxe.a(libuserxe_a-ufile2.o) (uftpremove)
../ulib/libuserxe.a(libuserxe_a-ufile2l.o)
                              ../ulib/libuserxe.a(libuserxe_a-ufile2.o) (urmdir)
../ulib/libuserxe.a(libuserxe_a-ufile2l2.o)
                              ../ulib/libuserxe.a(libuserxe_a-ufile2l.o) (umkdir_mdos)
../ulib/libuserxe.a(libuserxe_a-ufile3.o)
                              xfs.o (uxcopy)
../ulib/libuserxe.a(libuserxe_a-ufile3f.o)
                              ../ulib/libuserxe.a(libuserxe_a-ufile3.o) (uftpxmove)
../ulib/libuserxe.a(libuserxe_a-ufile4.o)
                              ../ulib/libuserxe.a(libuserxe_a-ufile2l2.o) (utempnam)
../ulib/libuserxe.a(libuserxe_a-ufile5.o)
                              ../ulib/libuserxe.a(libuserxe_a-ufile2.o) (udoseditname)
../ulib/libuserxe.a(libuserxe_a-uftp.o)
                              ../ulib/libuserxe.a(libuserxe_a-ufile1f.o) (uftpfstatudl)
../ulib/libuserxe.a(libuserxe_a-uftp2.o)
                              ../ulib/libuserxe.a(libuserxe_a-uftp.o) (Gftpopt)
../ulib/libuserxe.a(libuserxe_a-uftp3.o)
                              ../ulib/libuserxe.a(libuserxe_a-uftp.o) (uftp3setssh)
../ulib/libuserxe.a(libuserxe_a-ugcclib.o)
                              ../ulib/libuserxe.a(libuserxe_a-uedit.o) (memicmp)
../ulib/libuserxe.a(libuserxe_a-ukbdl.o)
                              ../ulib/libuserxe.a(libuserxe_a-ugcclib.o) (ukbdl_getch_init)
../ulib/libuserxe.a(libuserxe_a-ukbdlnxc.o)
                              ../ulib/libuserxe.a(libuserxe_a-ukbdl.o) (ukbdlnxc_init)
../ulib/libuserxe.a(libuserxe_a-ukbdlnxm.o)
                              ../ulib/libuserxe.a(libuserxe_a-ukbdlnxc.o) (ukbdlnxm_mouseinit)
../ulib/libuserxe.a(libuserxe_a-umiscf.o)
                              xfs.o (uchksum)
../ulib/libuserxe.a(libuserxe_a-uparse.o)
                              ../ulib/libuserxe.a(libuserxe_a-uftp.o) (uparsev)
../ulib/libuserxe.a(libuserxe_a-uproc.o)
                              xfs.o (uexecchk)
../ulib/libuserxe.a(libuserxe_a-uproc2.o)
                              ../ulib/libuserxe.a(libuserxe_a-ufile2f.o) (uproc_rsh)
../ulib/libuserxe.a(libuserxe_a-uproc4.o)
                              ../ulib/libuserxe.a(libuserxe_a-ukbdlnxc.o) (uproc_select)
../ulib/libuserxe.a(libuserxe_a-uque.o)
                              ../ulib/libuserxe.a(libuserxe_a-uftp.o) (uenq)
../ulib/libuserxe.a(libuserxe_a-ustrcpy.o)
                              xfs.o (ustring_memcpy)
../ulib/libuserxe.a(libuserxe_a-ustring.o)
                              ../ulib/libuserxe.a(libuserxe_a-ufile.o) (ustrnlen)
../ulib/libuserxe.a(libuserxe_a-utf.o)
                              ../ulib/libuserxe.a(libuserxe_a-udbcschk.o) (Gulibutfmode)
../ulib/libuserxe.a(libuserxe_a-utf2.o)
                              ../ulib/libuserxe.a(libuserxe_a-ufile1l.o) (utfcvl2fany)
../ulib/libuserxe.a(libuserxe_a-utf22.o)
                              ../ulib/libuserxe.a(libuserxe_a-udbcschk.o) (utfucsmapinit)
../ulib/libuserxe.a(libuserxe_a-utf3.o)
                              ../ulib/libuserxe.a(libuserxe_a-utf2.o) (utfmb2wc)
../ulib/libuserxe.a(libuserxe_a-utf4.o)
                              ../ulib/libuserxe.a(libuserxe_a-utf3.o) (mk_wcwidth)
../ulib/libuserxe.a(libuserxe_a-utrace.o)
                              ../ulib/libuserxe.a(libuserxe_a-uftp2.o) (Gtracehdr)
../ulib/libuserxe.a(libuserxe_a-uunxsub.o)
                              ../ulib/libuserxe.a(libuserxe_a-ufile2l.o) (ugetugid)
../ulib/libuserxe.a(libuserxe_a-uviom.o)
                              ../ulib/libuserxe.a(libuserxe_a-udbcschk.o) (uvio_wcinit)
../ulib/libuserxe.a(libuserxe_a-uviol.o)
                              ../ulib/libuserxe.a(libuserxe_a-uerr.o) (Guviol_flag)
../ulib/libuserxe.a(libuserxe_a-u3270.o)
                              ../ulib/libuserxe.a(libuserxe_a-ufile1f.o) (u3270fstat)
../ulib/libuserxe.a(libuserxe_a-u32702.o)
                              ../ulib/libuserxe.a(libuserxe_a-ufile2f.o) (u3270mkdir)
../ulib/libuserxe.a(libuserxe_a-u32703.o)
                              ../ulib/libuserxe.a(libuserxe_a-ufile3.o) (u3270xmove)
../ulib/libuserxe.a(libuserxe_a-uabend.o)
                              ../ulib/libuserxe.a(libuserxe_a-ukbdl.o) (uabend)
../ulib/libuserxe.a(libuserxe_a-ucalc2.o)
                              ../ulib/libuserxe.a(libuserxe_a-uftp2.o) (ucalc_ld2dw)
../ulib/libuserxe.a(libuserxe_a-ucvebc.o)
                              ../ulib/libuserxe.a(libuserxe_a-uerr.o) (Gucvebc_stat)
../ulib/libuserxe.a(libuserxe_a-ucvebc2.o)
                              ../ulib/libuserxe.a(libuserxe_a-ucvebc.o) (ucvebc2_stre2s)
../ulib/libuserxe.a(libuserxe_a-ucvebct.o)
                              ../ulib/libuserxe.a(libuserxe_a-ucvebc2.o) (ucvebc2gettbl)
../ulib/libuserxe.a(libuserxe_a-ucvext.o)
                              ../ulib/libuserxe.a(libuserxe_a-udbcschk.o) (ucvext_icumbinit)
../ulib/libuserxe.a(libuserxe_a-ucvext12.o)
                              ../ulib/libuserxe.a(libuserxe_a-ucvext.o) (ucvext12_init)
../ulib/libuserxe.a(libuserxe_a-ucvext2.o)
                              ../ulib/libuserxe.a(libuserxe_a-ucvext.o) (ucvext_iconvmapinit)
../ulib/libuserxe.a(libuserxe_a-ucvucs.o)
                              ../ulib/libuserxe.a(libuserxe_a-uedit2.o) (uccvucs2sjis)
../ulib/libuserxe.a(libuserxe_a-ucvucst.o)
                              ../ulib/libuserxe.a(libuserxe_a-ucvucs.o) (ugetcp932tbl)
../ulib/libuserxe.a(libuserxe_a-uehl.o)
                              ../ulib/libuserxe.a(libuserxe_a-ukbdlnxc.o) (uehl_setsh)
../ulib/libuserxe.a(libuserxe_a-uproc22.o)
                              ../ulib/libuserxe.a(libuserxe_a-utrace.o) (ucriticalsection)
../ulib/libuserxe.a(libuserxe_a-uproc3.o)
                              ../ulib/libuserxe.a(libuserxe_a-uproc4.o) (usleepms)
../ulib/libuserxe.a(libuserxe_a-ucalc.o)
                              ../ulib/libuserxe.a(libuserxe_a-ucalc2.o) (ucalc_binop)
../ulib/libuserxe.a(libuserxe_a-ucvebc3.o)
                              ../ulib/libuserxe.a(libuserxe_a-ucvext2.o) (ucvebc3_b2dd)
../ulib/libuserxe.a(libuserxe_a-ucvebc4.o)
                              ../ulib/libuserxe.a(libuserxe_a-ucvext.o) (ucvebc4_init)
/usr/lib/gcc/arm-linux-gnueabihf/8/libgcc.a(_divsi3.o)
                              ../ulib/libuserxe.a(libuserxe_a-ufile1l2.o) (__aeabi_idiv)
/usr/lib/gcc/arm-linux-gnueabihf/8/libgcc.a(_aeabi_ldivmod.o)
                              xfs.o (__aeabi_ldivmod)
/usr/lib/gcc/arm-linux-gnueabihf/8/libgcc.a(_dvmd_lnx.o)
                              /usr/lib/gcc/arm-linux-gnueabihf/8/libgcc.a(_aeabi_ldivmod.o) (__aeabi_ldiv0)
/usr/lib/gcc/arm-linux-gnueabihf/8/libgcc.a(_udivmoddi4.o)
                              /usr/lib/gcc/arm-linux-gnueabihf/8/libgcc.a(_aeabi_ldivmod.o) (__udivmoddi4)
//usr/lib/arm-linux-gnueabihf/libc_nonshared.a(elf-init.oS)
                              /usr/lib/gcc/arm-linux-gnueabihf/8/../../../arm-linux-gnueabihf/crt1.o (__libc_csu_init)
//usr/lib/arm-linux-gnueabihf/libc_nonshared.a(stat64.oS)
                              ../ulib/libuserxe.a(libuserxe_a-ufile1l.o) (stat64)
//usr/lib/arm-linux-gnueabihf/libc_nonshared.a(lstat64.oS)
                              ../ulib/libuserxe.a(libuserxe_a-ufile1l.o) (lstat64)

Allocating common symbols
Common symbol       size              file

Gucs2ddmap_i2u      0x20000           ../ulib/libuserxe.a(libuserxe_a-utf22.o)
Guviombuffu         0x4               ../ulib/libuserxe.a(libuserxe_a-uviom.o)
Gufile_opt          0x4               ../ulib/libuserxe.a(libuserxe_a-ufile.o)
Sphiconv            0x4               ../ulib/libuserxe.a(libuserxe_a-ukbdl.o)
Snewoldctr          0x4               ../ulib/libuserxe.a(libuserxe_a-ucvebc2.o)
Gftperr             0x4               ../ulib/libuserxe.a(libuserxe_a-uftp2.o)
Gulibutfmode        0x4               ../ulib/libuserxe.a(libuserxe_a-utf.o)
Se2stctr            0x4               ../ulib/libuserxe.a(libuserxe_a-ucvebc2.o)
Gtracehdr           0x100             ../ulib/libuserxe.a(libuserxe_a-utrace.o)
Sfdpiper            0x4               ../ulib/libuserxe.a(libuserxe_a-uproc.o)
Gutfrc              0x4               ../ulib/libuserxe.a(libuserxe_a-utf.o)
Gualloc_amount      0x4               ../ulib/libuserxe.a(libuserxe_a-uallocl.o)
Guviomopt           0x4               ../ulib/libuserxe.a(libuserxe_a-uviom.o)
Slockhandle         0x4               ../ulib/libuserxe.a(libuserxe_a-utrace.o)
Gucvebchctr         0x4               ../ulib/libuserxe.a(libuserxe_a-ucvebc.o)
Gudbcschk_flag      0x4               ../ulib/libuserxe.a(libuserxe_a-udbcschk.o)
Guerropt2           0x4               ../ulib/libuserxe.a(libuserxe_a-uerr.o)
Sduptctr            0x4               ../ulib/libuserxe.a(libuserxe_a-ucvebc2.o)
Gukbdl_flag         0x4               ../ulib/libuserxe.a(libuserxe_a-ukbdl.o)
Ss2etctr            0x4               ../ulib/libuserxe.a(libuserxe_a-ucvebc2.o)
Gucvebch            0x9c40            ../ulib/libuserxe.a(libuserxe_a-ucvebc.o)
Gucalc_result       0x140             ../ulib/libuserxe.a(libuserxe_a-ucalc.o)
Guviol_flag         0x4               ../ulib/libuserxe.a(libuserxe_a-uviol.o)
Guviomoptstr        0x4               ../ulib/libuserxe.a(libuserxe_a-uviom.o)
Gftpopt             0x4               ../ulib/libuserxe.a(libuserxe_a-uftp2.o)
Gufile_nomsg        0x4               ../ulib/libuserxe.a(libuserxe_a-ufile.o)
Gualloc16_amount    0x4               ../ulib/libuserxe.a(libuserxe_a-uallocl.o)
Gudbcschk_width0top
                    0x4               ../ulib/libuserxe.a(libuserxe_a-udbcschk.o)
Gucvebc_stat        0x4               ../ulib/libuserxe.a(libuserxe_a-ucvebc.o)
Gftpclient          0x80              ../ulib/libuserxe.a(libuserxe_a-uftp2.o)
Guviomopt2          0x4               ../ulib/libuserxe.a(libuserxe_a-uviom.o)
Sdbcschk_hkopt      0x4               ../ulib/libuserxe.a(libuserxe_a-udbcschk.o)
Gutfcombaltch       0x4               ../ulib/libuserxe.a(libuserxe_a-utf.o)
Gucs2ddmap          0x40000           ../ulib/libuserxe.a(libuserxe_a-utf22.o)
Gw95buffopt         0x4               ../ulib/libuserxe.a(libuserxe_a-uviom.o)
Guerropt            0x1               ../ulib/libuserxe.a(libuserxe_a-uerr.o)
Guviomoptstrucs     0x10              ../ulib/libuserxe.a(libuserxe_a-uviom.o)
Sfdpipew            0x4               ../ulib/libuserxe.a(libuserxe_a-uproc.o)

Discarded input sections

 .note.GNU-stack
                0x00000000        0x0 /usr/lib/gcc/arm-linux-gnueabihf/8/../../../arm-linux-gnueabihf/crt1.o
 .note.GNU-stack
                0x00000000        0x0 /usr/lib/gcc/arm-linux-gnueabihf/8/../../../arm-linux-gnueabihf/crti.o
 .note.GNU-stack
                0x00000000        0x0 /usr/lib/gcc/arm-linux-gnueabihf/8/crtbegin.o
 .note.GNU-stack
                0x00000000        0x0 xfs.o
 .note.GNU-stack
                0x00000000        0x0 ../ulib/libuserxe.a(libuserxe_a-uallocl.o)
 .note.GNU-stack
                0x00000000        0x0 ../ulib/libuserxe.a(libuserxe_a-udbcschk.o)
 .note.GNU-stack
                0x00000000        0x0 ../ulib/libuserxe.a(libuserxe_a-udbcsck2.o)
 .note.GNU-stack
                0x00000000        0x0 ../ulib/libuserxe.a(libuserxe_a-udos2.o)
 .note.GNU-stack
                0x00000000        0x0 ../ulib/libuserxe.a(libuserxe_a-uedit.o)
 .note.GNU-stack
                0x00000000        0x0 ../ulib/libuserxe.a(libuserxe_a-uedit2.o)
 .note.GNU-stack
                0x00000000        0x0 ../ulib/libuserxe.a(libuserxe_a-uerr.o)
 .note.GNU-stack
                0x00000000        0x0 ../ulib/libuserxe.a(libuserxe_a-ufemsg.o)
 .note.GNU-stack
                0x00000000        0x0 ../ulib/libuserxe.a(libuserxe_a-ufile.o)
 .note.GNU-stack
                0x00000000        0x0 ../ulib/libuserxe.a(libuserxe_a-ufile1f.o)
 .note.GNU-stack
                0x00000000        0x0 ../ulib/libuserxe.a(libuserxe_a-ufile1l.o)
 .note.GNU-stack
                0x00000000        0x0 ../ulib/libuserxe.a(libuserxe_a-ufile1l2.o)
 .note.GNU-stack
                0x00000000        0x0 ../ulib/libuserxe.a(libuserxe_a-ufile2.o)
 .note.GNU-stack
                0x00000000        0x0 ../ulib/libuserxe.a(libuserxe_a-ufile2f.o)
 .note.GNU-stack
                0x00000000        0x0 ../ulib/libuserxe.a(libuserxe_a-ufile2l.o)
 .note.GNU-stack
                0x00000000        0x0 ../ulib/libuserxe.a(libuserxe_a-ufile2l2.o)
 .note.GNU-stack
                0x00000000        0x0 ../ulib/libuserxe.a(libuserxe_a-ufile3.o)
 .note.GNU-stack
                0x00000000        0x0 ../ulib/libuserxe.a(libuserxe_a-ufile3f.o)
 .note.GNU-stack
                0x00000000        0x0 ../ulib/libuserxe.a(libuserxe_a-ufile4.o)
 .note.GNU-stack
                0x00000000        0x0 ../ulib/libuserxe.a(libuserxe_a-ufile5.o)
 .note.GNU-stack
                0x00000000        0x0 ../ulib/libuserxe.a(libuserxe_a-uftp.o)
 .note.GNU-stack
                0x00000000        0x0 ../ulib/libuserxe.a(libuserxe_a-uftp2.o)
 .note.GNU-stack
                0x00000000        0x0 ../ulib/libuserxe.a(libuserxe_a-uftp3.o)
 .note.GNU-stack
                0x00000000        0x0 ../ulib/libuserxe.a(libuserxe_a-ugcclib.o)
 .note.GNU-stack
                0x00000000        0x0 ../ulib/libuserxe.a(libuserxe_a-ukbdl.o)
 .note.GNU-stack
                0x00000000        0x0 ../ulib/libuserxe.a(libuserxe_a-ukbdlnxc.o)
 .note.GNU-stack
                0x00000000        0x0 ../ulib/libuserxe.a(libuserxe_a-ukbdlnxm.o)
 .note.GNU-stack
                0x00000000        0x0 ../ulib/libuserxe.a(libuserxe_a-umiscf.o)
 .note.GNU-stack
                0x00000000        0x0 ../ulib/libuserxe.a(libuserxe_a-uparse.o)
 .note.GNU-stack
                0x00000000        0x0 ../ulib/libuserxe.a(libuserxe_a-uproc.o)
 .note.GNU-stack
                0x00000000        0x0 ../ulib/libuserxe.a(libuserxe_a-uproc2.o)
 .note.GNU-stack
                0x00000000        0x0 ../ulib/libuserxe.a(libuserxe_a-uproc4.o)
 .note.GNU-stack
                0x00000000        0x0 ../ulib/libuserxe.a(libuserxe_a-uque.o)
 .note.GNU-stack
                0x00000000        0x0 ../ulib/libuserxe.a(libuserxe_a-ustrcpy.o)
 .note.GNU-stack
                0x00000000        0x0 ../ulib/libuserxe.a(libuserxe_a-ustring.o)
 .note.GNU-stack
                0x00000000        0x0 ../ulib/libuserxe.a(libuserxe_a-utf.o)
 .note.GNU-stack
                0x00000000        0x0 ../ulib/libuserxe.a(libuserxe_a-utf2.o)
 .note.GNU-stack
                0x00000000        0x0 ../ulib/libuserxe.a(libuserxe_a-utf22.o)
 .note.GNU-stack
                0x00000000        0x0 ../ulib/libuserxe.a(libuserxe_a-utf3.o)
 .note.GNU-stack
                0x00000000        0x0 ../ulib/libuserxe.a(libuserxe_a-utf4.o)
 .note.GNU-stack
                0x00000000        0x0 ../ulib/libuserxe.a(libuserxe_a-utrace.o)
 .note.GNU-stack
                0x00000000        0x0 ../ulib/libuserxe.a(libuserxe_a-uunxsub.o)
 .note.GNU-stack
                0x00000000        0x0 ../ulib/libuserxe.a(libuserxe_a-uviom.o)
 .note.GNU-stack
                0x00000000        0x0 ../ulib/libuserxe.a(libuserxe_a-uviol.o)
 .note.GNU-stack
                0x00000000        0x0 ../ulib/libuserxe.a(libuserxe_a-u3270.o)
 .note.GNU-stack
                0x00000000        0x0 ../ulib/libuserxe.a(libuserxe_a-u32702.o)
 .note.GNU-stack
                0x00000000        0x0 ../ulib/libuserxe.a(libuserxe_a-u32703.o)
 .note.GNU-stack
                0x00000000        0x0 ../ulib/libuserxe.a(libuserxe_a-uabend.o)
 .note.GNU-stack
                0x00000000        0x0 ../ulib/libuserxe.a(libuserxe_a-ucalc2.o)
 .note.GNU-stack
                0x00000000        0x0 ../ulib/libuserxe.a(libuserxe_a-ucvebc.o)
 .note.GNU-stack
                0x00000000        0x0 ../ulib/libuserxe.a(libuserxe_a-ucvebc2.o)
 .note.GNU-stack
                0x00000000        0x0 ../ulib/libuserxe.a(libuserxe_a-ucvebct.o)
 .note.GNU-stack
                0x00000000        0x0 ../ulib/libuserxe.a(libuserxe_a-ucvext.o)
 .note.GNU-stack
                0x00000000        0x0 ../ulib/libuserxe.a(libuserxe_a-ucvext12.o)
 .note.GNU-stack
                0x00000000        0x0 ../ulib/libuserxe.a(libuserxe_a-ucvext2.o)
 .note.GNU-stack
                0x00000000        0x0 ../ulib/libuserxe.a(libuserxe_a-ucvucs.o)
 .note.GNU-stack
                0x00000000        0x0 ../ulib/libuserxe.a(libuserxe_a-ucvucst.o)
 .note.GNU-stack
                0x00000000        0x0 ../ulib/libuserxe.a(libuserxe_a-uehl.o)
 .note.GNU-stack
                0x00000000        0x0 ../ulib/libuserxe.a(libuserxe_a-uproc22.o)
 .note.GNU-stack
                0x00000000        0x0 ../ulib/libuserxe.a(libuserxe_a-uproc3.o)
 .note.GNU-stack
                0x00000000        0x0 ../ulib/libuserxe.a(libuserxe_a-ucalc.o)
 .note.GNU-stack
                0x00000000        0x0 ../ulib/libuserxe.a(libuserxe_a-ucvebc3.o)
 .note.GNU-stack
                0x00000000        0x0 ../ulib/libuserxe.a(libuserxe_a-ucvebc4.o)
 .note.GNU-stack
                0x00000000        0x0 /usr/lib/gcc/arm-linux-gnueabihf/8/libgcc.a(_divsi3.o)
 .note.GNU-stack
                0x00000000        0x0 /usr/lib/gcc/arm-linux-gnueabihf/8/libgcc.a(_aeabi_ldivmod.o)
 .note.GNU-stack
                0x00000000        0x0 /usr/lib/gcc/arm-linux-gnueabihf/8/libgcc.a(_dvmd_lnx.o)
 .note.GNU-stack
                0x00000000        0x0 /usr/lib/gcc/arm-linux-gnueabihf/8/libgcc.a(_udivmoddi4.o)
 .note.GNU-stack
                0x00000000        0x0 //usr/lib/arm-linux-gnueabihf/libc_nonshared.a(elf-init.oS)
 .note.GNU-stack
                0x00000000        0x0 //usr/lib/arm-linux-gnueabihf/libc_nonshared.a(stat64.oS)
 .note.GNU-stack
                0x00000000        0x0 //usr/lib/arm-linux-gnueabihf/libc_nonshared.a(lstat64.oS)
 .note.GNU-stack
                0x00000000        0x0 /usr/lib/gcc/arm-linux-gnueabihf/8/crtend.o
 .note.GNU-stack
                0x00000000        0x0 /usr/lib/gcc/arm-linux-gnueabihf/8/../../../arm-linux-gnueabihf/crtn.o

Memory Configuration

Name             Origin             Length             Attributes
*default*        0x00000000         0xffffffff

Linker script and memory map

LOAD /usr/lib/gcc/arm-linux-gnueabihf/8/../../../arm-linux-gnueabihf/crt1.o
LOAD /usr/lib/gcc/arm-linux-gnueabihf/8/../../../arm-linux-gnueabihf/crti.o
LOAD /usr/lib/gcc/arm-linux-gnueabihf/8/crtbegin.o
LOAD xfs.o
LOAD ../ulib/libuserxe.a
LOAD /usr/lib/gcc/arm-linux-gnueabihf/8/../../../arm-linux-gnueabihf/libgnomeui-2.so
LOAD /usr/lib/gcc/arm-linux-gnueabihf/8/../../../arm-linux-gnueabihf/libSM.so
LOAD /usr/lib/gcc/arm-linux-gnueabihf/8/../../../arm-linux-gnueabihf/libICE.so
LOAD /usr/lib/gcc/arm-linux-gnueabihf/8/../../../arm-linux-gnueabihf/libbonoboui-2.so
LOAD /usr/lib/gcc/arm-linux-gnueabihf/8/../../../arm-linux-gnueabihf/libgnome-2.so
LOAD /usr/lib/gcc/arm-linux-gnueabihf/8/../../../arm-linux-gnueabihf/libpopt.so
LOAD /usr/lib/gcc/arm-linux-gnueabihf/8/../../../arm-linux-gnueabihf/libbonobo-2.so
LOAD /usr/lib/gcc/arm-linux-gnueabihf/8/../../../arm-linux-gnueabihf/libbonobo-activation.so
LOAD /usr/lib/gcc/arm-linux-gnueabihf/8/../../../arm-linux-gnueabihf/libORBit-2.so
LOAD /usr/lib/gcc/arm-linux-gnueabihf/8/../../../arm-linux-gnueabihf/libgnomecanvas-2.so
LOAD /usr/lib/gcc/arm-linux-gnueabihf/8/../../../arm-linux-gnueabihf/libart_lgpl_2.so
LOAD /usr/lib/gcc/arm-linux-gnueabihf/8/../../../arm-linux-gnueabihf/libgnomevfs-2.so
LOAD /usr/lib/gcc/arm-linux-gnueabihf/8/../../../arm-linux-gnueabihf/libgconf-2.so
LOAD /usr/lib/gcc/arm-linux-gnueabihf/8/../../../arm-linux-gnueabihf/libgthread-2.0.so
LOAD /usr/lib/gcc/arm-linux-gnueabihf/8/../../../arm-linux-gnueabihf/libgmodule-2.0.so
LOAD /usr/lib/gcc/arm-linux-gnueabihf/8/../../../arm-linux-gnueabihf/libgtk-x11-2.0.so
LOAD /usr/lib/gcc/arm-linux-gnueabihf/8/../../../arm-linux-gnueabihf/libgdk-x11-2.0.so
LOAD /usr/lib/gcc/arm-linux-gnueabihf/8/../../../arm-linux-gnueabihf/libpangocairo-1.0.so
LOAD /usr/lib/gcc/arm-linux-gnueabihf/8/../../../arm-linux-gnueabihf/libatk-1.0.so
LOAD /usr/lib/gcc/arm-linux-gnueabihf/8/../../../arm-linux-gnueabihf/libcairo.so
LOAD /usr/lib/gcc/arm-linux-gnueabihf/8/../../../arm-linux-gnueabihf/libgdk_pixbuf-2.0.so
LOAD /usr/lib/gcc/arm-linux-gnueabihf/8/../../../arm-linux-gnueabihf/libgio-2.0.so
LOAD /usr/lib/gcc/arm-linux-gnueabihf/8/../../../arm-linux-gnueabihf/libpangoft2-1.0.so
LOAD /usr/lib/gcc/arm-linux-gnueabihf/8/../../../arm-linux-gnueabihf/libpango-1.0.so
LOAD /usr/lib/gcc/arm-linux-gnueabihf/8/../../../arm-linux-gnueabihf/libgobject-2.0.so
LOAD /usr/lib/gcc/arm-linux-gnueabihf/8/../../../arm-linux-gnueabihf/libglib-2.0.so
LOAD /usr/lib/gcc/arm-linux-gnueabihf/8/../../../arm-linux-gnueabihf/libfontconfig.so
LOAD /usr/lib/gcc/arm-linux-gnueabihf/8/../../../arm-linux-gnueabihf/libfreetype.so
LOAD /usr/lib/gcc/arm-linux-gnueabihf/8/../../../arm-linux-gnueabihf/libdl.so
LOAD /usr/lib/gcc/arm-linux-gnueabihf/8/../../../arm-linux-gnueabihf/libncursesw.so
LOAD /lib/arm-linux-gnueabihf/libncursesw.so.6
LOAD /usr/lib/gcc/arm-linux-gnueabihf/8/../../../arm-linux-gnueabihf/libtinfo.so
LOAD /usr/lib/gcc/arm-linux-gnueabihf/8/../../../arm-linux-gnueabihf/libcups.so
LOAD /usr/lib/gcc/arm-linux-gnueabihf/8/libgcc.a
LOAD /usr/lib/gcc/arm-linux-gnueabihf/8/libgcc_s.so
START GROUP
LOAD /usr/lib/gcc/arm-linux-gnueabihf/8/libgcc_s.so.1
LOAD /usr/lib/gcc/arm-linux-gnueabihf/8/libgcc.a
END GROUP
LOAD /usr/lib/gcc/arm-linux-gnueabihf/8/../../../arm-linux-gnueabihf/libpthread.so
LOAD /usr/lib/gcc/arm-linux-gnueabihf/8/../../../arm-linux-gnueabihf/libc.so
START GROUP
LOAD //lib/arm-linux-gnueabihf/libc.so.6
LOAD //usr/lib/arm-linux-gnueabihf/libc_nonshared.a
LOAD //lib/arm-linux-gnueabihf/ld-linux-armhf.so.3
END GROUP
LOAD /usr/lib/gcc/arm-linux-gnueabihf/8/libgcc.a
LOAD /usr/lib/gcc/arm-linux-gnueabihf/8/libgcc_s.so
START GROUP
LOAD /usr/lib/gcc/arm-linux-gnueabihf/8/libgcc_s.so.1
LOAD /usr/lib/gcc/arm-linux-gnueabihf/8/libgcc.a
END GROUP
LOAD /usr/lib/gcc/arm-linux-gnueabihf/8/crtend.o
LOAD /usr/lib/gcc/arm-linux-gnueabihf/8/../../../arm-linux-gnueabihf/crtn.o
                [!provide]                PROVIDE (__executable_start = SEGMENT_START ("text-segment", 0x10000))
                0x00010154                . = (SEGMENT_START ("text-segment", 0x10000) + SIZEOF_HEADERS)

.interp         0x00010154       0x19
 *(.interp)
 .interp        0x00010154       0x19 /usr/lib/gcc/arm-linux-gnueabihf/8/../../../arm-linux-gnueabihf/crt1.o

.note.ABI-tag   0x00010170       0x20
 .note.ABI-tag  0x00010170       0x20 /usr/lib/gcc/arm-linux-gnueabihf/8/../../../arm-linux-gnueabihf/crt1.o

.note.gnu.build-id
                0x00010190       0x24
 *(.note.gnu.build-id)
 .note.gnu.build-id
                0x00010190       0x24 linker stubs

.hash
 *(.hash)

.gnu.hash       0x000101b4      0x738
 *(.gnu.hash)
 .gnu.hash      0x000101b4      0x738 /usr/lib/gcc/arm-linux-gnueabihf/8/../../../arm-linux-gnueabihf/crt1.o

.dynsym         0x000108ec      0xc90
 *(.dynsym)
 .dynsym        0x000108ec      0xc90 /usr/lib/gcc/arm-linux-gnueabihf/8/../../../arm-linux-gnueabihf/crt1.o

.dynstr         0x0001157c      0x9b5
 *(.dynstr)
 .dynstr        0x0001157c      0x9b5 /usr/lib/gcc/arm-linux-gnueabihf/8/../../../arm-linux-gnueabihf/crt1.o

.gnu.version    0x00011f32      0x192
 *(.gnu.version)
 .gnu.version   0x00011f32      0x192 /usr/lib/gcc/arm-linux-gnueabihf/8/../../../arm-linux-gnueabihf/crt1.o

.gnu.version_d  0x000120c4        0x0
 *(.gnu.version_d)
 .gnu.version_d
                0x000120c4        0x0 /usr/lib/gcc/arm-linux-gnueabihf/8/../../../arm-linux-gnueabihf/crt1.o

.gnu.version_r  0x000120c4       0xc0
 *(.gnu.version_r)
 .gnu.version_r
                0x000120c4       0xc0 /usr/lib/gcc/arm-linux-gnueabihf/8/../../../arm-linux-gnueabihf/crt1.o

.rel.dyn        0x00012184       0x60
 *(.rel.init)
 *(.rel.text .rel.text.* .rel.gnu.linkonce.t.*)
 *(.rel.fini)
 *(.rel.rodata .rel.rodata.* .rel.gnu.linkonce.r.*)
 *(.rel.data.rel.ro .rel.data.rel.ro.* .rel.gnu.linkonce.d.rel.ro.*)
 .rel.data.rel.ro
                0x00012184        0x0 /usr/lib/gcc/arm-linux-gnueabihf/8/../../../arm-linux-gnueabihf/crt1.o
 *(.rel.data .rel.data.* .rel.gnu.linkonce.d.*)
 *(.rel.tdata .rel.tdata.* .rel.gnu.linkonce.td.*)
 *(.rel.tbss .rel.tbss.* .rel.gnu.linkonce.tb.*)
 *(.rel.ctors)
 *(.rel.dtors)
 *(.rel.got)
 .rel.got       0x00012184        0x8 /usr/lib/gcc/arm-linux-gnueabihf/8/../../../arm-linux-gnueabihf/crt1.o
 *(.rel.bss .rel.bss.* .rel.gnu.linkonce.b.*)
 .rel.bss       0x0001218c       0x58 /usr/lib/gcc/arm-linux-gnueabihf/8/../../../arm-linux-gnueabihf/crt1.o
                [!provide]                PROVIDE (__rel_iplt_start = .)
 *(.rel.iplt)
 .rel.iplt      0x000121e4        0x0 /usr/lib/gcc/arm-linux-gnueabihf/8/../../../arm-linux-gnueabihf/crt1.o
                [!provide]                PROVIDE (__rel_iplt_end = .)

.rela.dyn       0x000121e4        0x0
 *(.rela.init)
 *(.rela.text .rela.text.* .rela.gnu.linkonce.t.*)
 *(.rela.fini)
 *(.rela.rodata .rela.rodata.* .rela.gnu.linkonce.r.*)
 *(.rela.data .rela.data.* .rela.gnu.linkonce.d.*)
 *(.rela.tdata .rela.tdata.* .rela.gnu.linkonce.td.*)
 *(.rela.tbss .rela.tbss.* .rela.gnu.linkonce.tb.*)
 *(.rela.ctors)
 *(.rela.dtors)
 *(.rela.got)
 *(.rela.bss .rela.bss.* .rela.gnu.linkonce.b.*)
                [!provide]                PROVIDE (__rela_iplt_start = .)
 *(.rela.iplt)
                [!provide]                PROVIDE (__rela_iplt_end = .)

.rel.plt        0x000121e4      0x5a0
 *(.rel.plt)
 .rel.plt       0x000121e4      0x5a0 /usr/lib/gcc/arm-linux-gnueabihf/8/../../../arm-linux-gnueabihf/crt1.o

.rela.plt
 *(.rela.plt)

.init           0x00012784        0xc
 *(SORT_NONE(.init))
 .init          0x00012784        0x8 /usr/lib/gcc/arm-linux-gnueabihf/8/../../../arm-linux-gnueabihf/crti.o
                0x00012784                _init
 .init          0x0001278c        0x4 /usr/lib/gcc/arm-linux-gnueabihf/8/../../../arm-linux-gnueabihf/crtn.o

.plt            0x00012790      0x884
 *(.plt)
 .plt           0x00012790      0x884 /usr/lib/gcc/arm-linux-gnueabihf/8/../../../arm-linux-gnueabihf/crt1.o
                0x000127a4                gethostname@@GLIBC_2.4
                0x000127b0                getuid@@GLIBC_2.4
                0x000127bc                fopen64@@GLIBC_2.4
                0x000127c8                endwin@@NCURSESW6_5.1.20000708
                0x000127d4                fwrite@@GLIBC_2.4
                0x000127e0                mbrtowc@@GLIBC_2.4
                0x000127ec                toupper@@GLIBC_2.4
                0x000127f8                __isoc99_sscanf@@GLIBC_2.7
                0x00012804                fprintf@@GLIBC_2.4
                0x00012810                waddnstr@@NCURSESW6_5.1.20000708
                0x0001281c                strstr@@GLIBC_2.4
                0x00012828                isatty@@GLIBC_2.4
                0x00012834                getppid@@GLIBC_2.4
                0x00012840                wbkgdset@@NCURSESW6_5.1.20000708
                0x0001284c                execvp@@GLIBC_2.4
                0x00012858                write@@GLIBC_2.4
                0x00012864                wctomb@@GLIBC_2.4
                0x00012870                can_change_color@@NCURSESW6_5.1.20000708
                0x0001287c                opendir@@GLIBC_2.4
                0x00012888                printf@@GLIBC_2.4
                0x00012894                gnome_vfs_mime_get_default_application
                0x000128a0                bsearch@@GLIBC_2.4
                0x000128ac                fclose@@GLIBC_2.4
                0x000128b8                atoll@@GLIBC_2.4
                0x000128c4                qsort@@GLIBC_2.4
                0x000128d0                getgid@@GLIBC_2.4
                0x000128dc                wclear@@NCURSESW6_5.1.20000708
                0x000128e8                __ctype_b_loc@@GLIBC_2.4
                0x000128f4                strnlen@@GLIBC_2.4
                0x00012900                nonl@@NCURSESW6_5.1.20000708
                0x0001290c                getmntent@@GLIBC_2.4
                0x00012918                iconv@@GLIBC_2.4
                0x00012924                fputc@@GLIBC_2.4
                0x00012930                dlclose@@GLIBC_2.4
                0x0001293c                beep@@NCURSESW6_5.1.20000708
                0x00012948                __xstat64@@GLIBC_2.4
                0x00012954                chown@@GLIBC_2.4
                0x00012960                strpbrk@@GLIBC_2.4
                0x0001296c                fseek@@GLIBC_2.4
                0x00012978                strerror@@GLIBC_2.4
                0x00012984                color_content@@NCURSESW6_5.1.20000708
                0x00012990                tolower@@GLIBC_2.4
                0x0001299c                putchar@@GLIBC_2.4
                0x000129a8                has_colors@@NCURSESW6_5.1.20000708
                0x000129b4                puts@@GLIBC_2.4
                0x000129c0                init_pair@@NCURSESW6_5.1.20000708
                0x000129cc                __libc_start_main@@GLIBC_2.4
                0x000129e4                setupterm@@NCURSES6_TINFO_5.0.19991023
                0x000129f0                strchr@@GLIBC_2.4
                0x000129fc                __errno_location@@GLIBC_2.4
                0x00012a08                keypad@@NCURSES6_TINFO_5.0.19991023
                0x00012a14                lutimes@@GLIBC_2.4
                0x00012a20                atol@@GLIBC_2.4
                0x00012a2c                ftello64@@GLIBC_2.4
                0x00012a38                tcsetattr@@GLIBC_2.4
                0x00012a44                curs_set@@NCURSES6_TINFO_5.0.19991023
                0x00012a50                symlink@@GLIBC_2.4
                0x00012a5c                setenv@@GLIBC_2.4
                0x00012a68                mkdir@@GLIBC_2.4
                0x00012a74                pthread_mutex_lock@@GLIBC_2.4
                0x00012a80                pipe@@GLIBC_2.4
                0x00012a8c                noecho@@NCURSESW6_5.1.20000708
                0x00012a98                gnome_vfs_get_mime_type
                0x00012aa4                waddchnstr@@NCURSESW6_5.1.20000708
                0x00012ab0                pthread_cond_wait@@GLIBC_2.4
                0x00012abc                free@@GLIBC_2.4
                0x00012ac8                iconv_close@@GLIBC_2.4
                0x00012ad4                wcwidth@@GLIBC_2.4
                0x00012ae0                close@@GLIBC_2.4
                0x00012aec                clearok@@NCURSESW6_5.1.20000708
                0x00012af8                memcpy@@GLIBC_2.4
                0x00012b04                wcstombs@@GLIBC_2.4
                0x00012b10                iconv_open@@GLIBC_2.4
                0x00012b1c                memmove@@GLIBC_2.4
                0x00012b28                strncpy@@GLIBC_2.4
                0x00012b34                winchnstr@@NCURSESW6_5.1.20000708
                0x00012b40                win_wchnstr@@NCURSESW6_5.3.20021019
                0x00012b4c                access@@GLIBC_2.4
                0x00012b58                unlink@@GLIBC_2.4
                0x00012b64                ferror@@GLIBC_2.4
                0x00012b70                strcpy@@GLIBC_2.4
                0x00012b7c                execv@@GLIBC_2.4
                0x00012b88                raise@@GLIBC_2.4
                0x00012b94                getgrgid@@GLIBC_2.4
                0x00012ba0                start_color@@NCURSESW6_5.1.20000708
                0x00012bac                atoi@@GLIBC_2.4
                0x00012bb8                dlsym@@GLIBC_2.4
                0x00012bc4                ftime@@GLIBC_2.4
                0x00012bd0                fork@@GLIBC_2.4
                0x00012bdc                signal@@GLIBC_2.4
                0x00012be8                gettimeofday@@GLIBC_2.4
                0x00012bf4                getpwuid@@GLIBC_2.4
                0x00012c00                system@@GLIBC_2.4
                0x00012c0c                malloc@@GLIBC_2.4
                0x00012c18                localtime@@GLIBC_2.4
                0x00012c24                getcwd@@GLIBC_2.4
                0x00012c30                tcgetattr@@GLIBC_2.4
                0x00012c3c                pthread_cond_init@@GLIBC_2.4
                0x00012c48                kill@@GLIBC_2.4
                0x00012c54                strdup@@GLIBC_2.4
                0x00012c60                strlen@@GLIBC_2.4
                0x00012c6c                pthread_mutex_destroy@@GLIBC_2.4
                0x00012c78                chdir@@GLIBC_2.4
                0x00012c84                chmod@@GLIBC_2.4
                0x00012c90                mktime@@GLIBC_2.4
                0x00012c9c                wadd_wchnstr@@NCURSESW6_5.3.20021019
                0x00012ca8                closedir@@GLIBC_2.4
                0x00012cb4                getpid@@GLIBC_2.4
                0x00012cc0                winnstr@@NCURSESW6_5.1.20000708
                0x00012ccc                __lxstat64@@GLIBC_2.4
                0x00012cd8                select@@GLIBC_2.4
                0x00012ce4                readlink@@GLIBC_2.4
                0x00012cf0                iswalpha@@GLIBC_2.4
                0x00012cfc                fseeko64@@GLIBC_2.4
                0x00012d08                dup@@GLIBC_2.4
                0x00012d14                sprintf@@GLIBC_2.4
                0x00012d20                snprintf@@GLIBC_2.4
                0x00012d2c                fflush@@GLIBC_2.4
                0x00012d38                mbtowc@@GLIBC_2.4
                0x00012d44                curses_version@@NCURSES6_TINFO_5.0.19991023
                0x00012d50                perror@@GLIBC_2.4
                0x00012d5c                setlocale@@GLIBC_2.4
                0x00012d68                vfprintf@@GLIBC_2.4
                0x00012d74                mousemask@@NCURSESW6_5.1.20000708
                0x00012d80                gnome_vfs_mime_application_free
                0x00012d8c                strcmp@@GLIBC_2.4
                0x00012d98                initscr@@NCURSESW6_5.1.20000708
                0x00012da4                memcmp@@GLIBC_2.4
                0x00012db0                memset@@GLIBC_2.4
                0x00012dbc                wrefresh@@NCURSESW6_5.1.20000708
                0x00012dc8                getenv@@GLIBC_2.4
                0x00012dd4                rename@@GLIBC_2.4
                0x00012de0                flock@@GLIBC_2.4
                0x00012dec                mkfifo@@GLIBC_2.4
                0x00012df8                time@@GLIBC_2.4
                0x00012e04                meta@@NCURSES6_TINFO_5.0.19991023
                0x00012e10                wait@@GLIBC_2.4
                0x00012e1c                statfs64@@GLIBC_2.4
                0x00012e28                pthread_cond_broadcast@@GLIBC_2.4
                0x00012e34                fread@@GLIBC_2.4
                0x00012e40                gnome_vfs_init
                0x00012e4c                pthread_create@@GLIBC_2.4
                0x00012e58                strcat@@GLIBC_2.4
                0x00012e64                abort@@GLIBC_2.4
                0x00012e70                init_color@@NCURSESW6_5.1.20000708
                0x00012e7c                gnome_vfs_get_uri_from_local_path
                0x00012e88                waitpid@@GLIBC_2.4
                0x00012e94                gnome_vfs_get_file_info
                0x00012ea0                pthread_cond_timedwait@@GLIBC_2.4
                0x00012eac                exit@@GLIBC_2.4
                0x00012eb8                calloc@@GLIBC_2.4
                0x00012ec4                setmntent@@GLIBC_2.4
                0x00012ed0                rmdir@@GLIBC_2.4
                0x00012edc                strrchr@@GLIBC_2.4
                0x00012ee8                wmove@@NCURSESW6_5.1.20000708
                0x00012ef4                dup2@@GLIBC_2.4
                0x00012f00                getmntent_r@@GLIBC_2.4
                0x00012f0c                fgets@@GLIBC_2.4
                0x00012f18                raw@@NCURSES6_TINFO_5.0.19991023
                0x00012f24                utimes@@GLIBC_2.4
                0x00012f30                endmntent@@GLIBC_2.4
                0x00012f3c                memchr@@GLIBC_2.4
                0x00012f48                read@@GLIBC_2.4
                0x00012f54                readdir64@@GLIBC_2.4
                0x00012f60                pthread_mutex_unlock@@GLIBC_2.4
                0x00012f6c                wcrtomb@@GLIBC_2.4
                0x00012f78                nl_langinfo@@GLIBC_2.4
                0x00012f84                pthread_mutex_init@@GLIBC_2.4
                0x00012f90                fileno@@GLIBC_2.4
                0x00012f9c                mkstemp64@@GLIBC_2.4
                0x00012fa8                strspn@@GLIBC_2.4
                0x00012fb4                open64@@GLIBC_2.4
                0x00012fc0                ioctl@@GLIBC_2.4
                0x00012fcc                fputs@@GLIBC_2.4
                0x00012fd8                nanosleep@@GLIBC_2.4
                0x00012fe4                iswprint@@GLIBC_2.4
                0x00012ff0                putenv@@GLIBC_2.4
                0x00012ffc                ttyname@@GLIBC_2.4
                0x00013008                dlopen@@GLIBC_2.4

.iplt           0x00013014        0x0
 *(.iplt)
 .iplt          0x00013014        0x0 /usr/lib/gcc/arm-linux-gnueabihf/8/../../../arm-linux-gnueabihf/crt1.o

.text           0x00013018    0xb1ec4
 *(.text.unlikely .text.*_unlikely .text.unlikely.*)
 *(.text.exit .text.exit.*)
 *(.text.startup .text.startup.*)
 *(.text.hot .text.hot.*)
 *(.text .stub .text.* .gnu.linkonce.t.*)
 .text          0x00013018       0x3c /usr/lib/gcc/arm-linux-gnueabihf/8/../../../arm-linux-gnueabihf/crt1.o
                0x00013018                _start
 .text          0x00013054       0x24 /usr/lib/gcc/arm-linux-gnueabihf/8/../../../arm-linux-gnueabihf/crti.o
 .text          0x00013078       0x90 /usr/lib/gcc/arm-linux-gnueabihf/8/crtbegin.o
 .text          0x00013108     0x8054 xfs.o
                0x00013108                main
                0x00014aec                gathersubfilechk
                0x00014c3c                getsubfname
                0x00015098                restartchk1
                0x00015148                restartchk2
                0x000152c0                restartdrvchk
                0x0001553c                restartdrvchksub
                0x000158e8                getindexrec
                0x00015c34                drivechk
                0x00016434                indexchk
                0x00016714                getnextinputdrive
                0x00016ad4                invalidindexrec
                0x00016b20                mountreq
                0x00016f10                drivechksub
                0x00016fa0                getfreespace
                0x0001702c                openfile
                0x000171e0                closefile
                0x00017414                unxalloctempf
                0x00017684                unxcleartempf
                0x000176dc                getinput
                0x000180e8                chkmultirec
                0x00018234                putoutput
                0x000182c0                pgmcopy
                0x000183c8                readverify
                0x000186b8                calcpercent
                0x00018820                chksumerr
                0x000189d0                parmchk
                0x0001a254                confirm
                0x0001a4ec                kbdchk
                0x0001a544                kbdchksub
                0x0001a580                listdir
                0x0001a674                xffeditfszzx
                0x0001a6b0                xffeditfszx
                0x0001a6ec                xffeditfszz
                0x0001a724                help
 .text          0x0001b15c      0xe50 ../ulib/libuserxe.a(libuserxe_a-uallocl.o)
                0x0001b15c                ualloc_init
                0x0001b3b0                ugetallocdata
                0x0001b4e8                ualloc_chk
                0x0001b6b0                umalloc
                0x0001b8f4                ucalloc
                0x0001bb64                ufree
                0x0001bd94                uallocsz
                0x0001bde0                ufreesz
                0x0001be30                uallocmapset
                0x0001bf44                ufreesizeerr
                0x0001bf78                umallocsizeerr
 .text          0x0001bfac     0x3084 ../ulib/libuserxe.a(libuserxe_a-udbcschk.o)
                0x0001bfac                udbcschk_wcinit
                0x0001c34c                udbcschk_getbaseconverter
                0x0001c3f4                udbcschk_setunprintable
                0x0001c58c                udbcschk_wclocaleinit
                0x0001c6f8                udbcschk_wclocalereset
                0x0001cb0c                udbcschk_chklocale
                0x0001cbcc                udbcschk_getlinuxleadbyte
                0x0001cd34                udbcschk
                0x0001cec0                udbcschk_hk
                0x0001cfac                udbcschk_getmblen
                0x0001d26c                udbcschk_mblen
                0x0001d33c                udbcschk_mb2nd
                0x0001d4c4                udbcschk_isvalidmbchar
                0x0001d5a8                udbcschk_locale_topbyte
                0x0001d6ac                udbcschk_getdbcs1st
                0x0001d7a0                udbcschk_ismbdbcs1st
                0x0001d800                udbcschk_locale1
                0x0001daec                udbcschk_mb2ucs1
                0x0001dc58                udbcschk_ucs2mb1
                0x0001dd84                udbcschk_forceenglish
                0x0001ddf0                udbcschkcp
                0x0001df5c                ugetcp
                0x0001e040                udbcsenv
                0x0001e080                udosquerydbcsenv
                0x0001e1f4                udbcschk2
                0x0001e2b8                udbcschk_pos2offs
                0x0001e494                usetdbcstbl
                0x0001e7f8                usetdbcstblmb
                0x0001ec68                udbcschk_setlocale
                0x0001eeb8                udbcschk_setdbcstype
                0x0001efd0                udbcschk_icugetlocalconverter
 .text          0x0001f030     0x2e38 ../ulib/libuserxe.a(libuserxe_a-udbcsck2.o)
                0x0001f030                ujischkx208
                0x0001f100                usjischkx208
                0x0001f1e0                usjis2jis
                0x0001f2e8                ujis2sjis
                0x0001f3d8                ustrjis2sjis
                0x0001f8f0                ustrsjis2jis
                0x0001fdf8                ushift2euc
                0x00020330                ushift2euc1
                0x0002050c                ushift2euccount
                0x0002074c                usjischk
                0x00020a00                ueuc2shift1SS3
                0x00020a30                ueuc2shift
                0x000211bc                ueucchk
                0x000215f8                ueuc2shift1
                0x0002186c                ueuc2shift1c
                0x00021a20                uhan2zen
                0x00021ce4                udbcschktty
                0x00021d68                udbcschk_srchSS2
 .text          0x00021e68      0x3dc ../ulib/libuserxe.a(libuserxe_a-udos2.o)
                0x00021e68                udos2
                0x00021e80                ugetdriveidlist
                0x00021f74                ugetdrivelist
                0x00022014                ugetdrivetype
                0x0002213c                udos_setenv
 .text          0x00022244     0x3fe8 ../ulib/libuserxe.a(libuserxe_a-uedit.o)
                0x00022244                uedit
                0x0002225c                unumedit
                0x00022594                utimeedit
                0x0002310c                uitoa10
                0x00023140                ucmdparmedit
                0x00023868                ueditenv
                0x00023c94                uwordrep
                0x00024340                ugethex
                0x000244a0                ugethexdump
                0x00024680                ux2FILESZ
                0x000246b0                ux2l
                0x00024844                ux2ll
                0x0002492c                ua2ll
                0x0002495c                ux2s
                0x00024ab8                ugetnumrange3
                0x00024c30                ugetnumrange2
                0x00024d2c                ugetnumrange2XFILESZ
                0x00024e00                ugetnumrange
                0x0002500c                ugetxnumrange
                0x00025430                ugetxnumrangeLL
                0x0002585c                unumlen
                0x00025a9c                uatoin
                0x00025b1c                getKMGTB
                0x00025ca4                ueditFILESZ
                0x00025f18                ueditLONGHANDLE
                0x00026120                ueditKMG
 .text          0x0002622c     0x2890 ../ulib/libuserxe.a(libuserxe_a-uedit2.o)
                0x0002622c                uedit2
                0x00026244                uasciidump
                0x00026460                uasciidump_utf
                0x00026718                uucsdump
                0x00026a64                ub2x
                0x00026b94                ueditfattr
                0x00026f6c                ueditfattrspf
                0x00027040                ueditfattr_mdos
                0x000271c0                uxdumpline
                0x00027bc0                xdlputs
                0x00027c6c                ugetdtparm
                0x00027d68                ugetdateparm
                0x00027ddc                ugettimeparm
                0x00027e50                ueditgetftnum
                0x00028120                ueditsetfdateUSHORT
                0x000281b4                ueditsetfdate
                0x00028294                ueditsetftimeUSHORT
                0x00028328                ueditsetftime
                0x00028420                uxdumpstr
                0x00028648                ueditNowFileTime
                0x00028778                ueditescrep
 .text          0x00028abc     0x29f8 ../ulib/libuserxe.a(libuserxe_a-uerr.o)
                0x00028abc                uerr
                0x00028ad4                ubell_init
                0x00028b14                ubell_init2
                0x00028b44                ubell
                0x00028c5c                uerrexit_init
                0x00028d24                uerrexit_optinit
                0x00028d54                uerrsetopt2
                0x00028db8                uerrexit
                0x00028fb0                uerrmsg_init
                0x00029190                uerrmsg
                0x000293a0                uerrmsg2
                0x00029520                uerrmsgcat
                0x0002962c                uerrsprintf
                0x00029718                uerrfprintfutf
                0x00029b84                uerrhelpmsg
                0x0002a070                uerrscrheight
                0x0002a120                useterrmsg
                0x0002a194                ugeterrmsg
                0x0002a1e0                ugeterrmsg2
                0x0002a220                uerrmsgedit
                0x0002abb4                uconfirmmsg
                0x0002aecc                uerrornomsg
                0x0002aef4                ugeterrdescription
                0x0002af78                uerrapi1
                0x0002afc0                uerrapi1x
                0x0002b004                uerrapi0
                0x0002b040                uerrapi0x
                0x0002b078                uerrapi1t
                0x0002b0e8                uerrapi1nt
                0x0002b13c                uerrapi1tx
                0x0002b1a8                uerrapi0t
                0x0002b210                uerrapi0tx
                0x0002b274                uerrnotsupported
                0x0002b2b8                uerrmsg_initstart
                0x0002b37c                uerrmsg_initstack
                0x0002b3e0                uerrmsg_initcomp
 *fill*         0x0002b4b4        0x4 
 .text          0x0002b4b8      0xec0 ../ulib/libuserxe.a(libuserxe_a-ufemsg.o)
                0x0002b4b8                ufemsg
                0x0002b4d0                ufilenotfound
                0x0002b50c                ufilenotfoundotherexist
                0x0002b548                ufilepatherr
                0x0002b584                ufileapierr
                0x0002b5cc                ufileapierr_str
                0x0002b624                ufiledelpath
                0x0002b660                ufilereadonly
                0x0002b69c                ufilereadonly2
                0x0002b6dc                ufiledeleted
                0x0002b80c                ufileshare
                0x0002b848                ufileexist
                0x0002b884                ufileexistcopy
                0x0002b8c0                ufileexist2
                0x0002b904                ufileexistdir
                0x0002b940                ufilenotdir
                0x0002b97c                ufilediskfull
                0x0002b9c0                ufilewildtarget
                0x0002b9f4                ufilewildcarderr
                0x0002ba28                ufilewildpatherr
                0x0002ba5c                ufileroot
                0x0002ba98                ufileapierr2
                0x0002baec                ufiledirna
                0x0002bb38                ufileerrdir
                0x0002bb74                ufilenotvfat
                0x0002bb9c                ufilenopermission
                0x0002bbe0                ufileslinkloop
                0x0002bc38                ufileerrspecialfile
                0x0002bc74                ufileerrnotnormal
                0x0002bcb0                ufileerrdir2file
                0x0002bce0                ufileerrnoentry
                0x0002bd18                ufileerrnofileentry
                0x0002bd50                ufileTooLongFullpathName
                0x0002bda8                ufileTooLongFullpathName2
                0x0002bf08                ufileeditsz
                0x0002c2a0                ufileslinktargeterr
                0x0002c2e4                ufileopenerrInvalidargument
                0x0002c340                ufileErrInvalidName
 .text          0x0002c378     0x3508 ../ulib/libuserxe.a(libuserxe_a-ufile.o)
                0x0002c378                ufile
                0x0002c390                ufullpathwildexp
                0x0002ca44                ufullpathresolvespecialdirid
                0x0002cc00                ufilegetpathdir
                0x0002cdec                udirlistnomsg
                0x0002ce4c                udirlist
                0x0002d000                udirlistsub
                0x0002d4f4                udirlist_set_slinkname
                0x0002d648                ufile_udirlist_copy
                0x0002d8a4                ufile_udirlist_swap
                0x0002da88                ufile_udirlist_alloc1
                0x0002db1c                ufile_udirlist_free
                0x0002dc18                udircompare_pointer
                0x0002dc88                udirlistsort
                0x0002de4c                udircomp
                0x0002de90                udircompare
                0x0002e910                udircompsub
                0x0002ea38                uredirect
                0x0002ee80                uredirectrestore
                0x0002ef9c                ufdateedit
                0x0002f2dc                uftimeedit
                0x0002f514                uftimeedit_1sec
                0x0002f570                udirlist_chk_max_entry
                0x0002f5d8                udirlist_setname
                0x0002f7b4                udirlist_setname_cat
 .text          0x0002f880     0x1b00 ../ulib/libuserxe.a(libuserxe_a-ufile1f.o)
                0x0002f880                uftpfstat
                0x0002fba0                uftpwinchk
                0x0002fccc                uftpfullpathnorid
                0x0002fd2c                uftpfullpath
                0x000303f4                uftppathlen
                0x00030444                uftpgetcwd
                0x00030544                uftpgethome
                0x000305c4                uftpgethomesub
                0x00030798                uftpchdir
                0x00030964                uftpchdirsub
                0x00030b34                uftplchdirrespchk
                0x00030d40                uftpdirlistsub
                0x00031120                uftpfindfirst
                0x00031270                uftpfindfirstfile
                0x000312f8                uftpfindnext
 .text          0x00031380     0x4344 ../ulib/libuserxe.a(libuserxe_a-ufile1l.o)
                0x00031380                ufstat
                0x00031bf0                ufilechkwildmultiple
                0x00031e8c                ufstat_wild
                0x00031f1c                ufilefscomp
                0x00031f94                ufilegetfsid
                0x00032074                ufilegetftime
                0x00032184                ufullpath
                0x00032b8c                upathlen
                0x00032bdc                ugetcwd
                0x00032c08                uchdir
                0x00032d34                udosfindfirstnomsg
                0x00032da4                udosfindfirst
                0x00033520                udosfindnext
                0x00033590                udosfindnextmsg
                0x00033994                ufilelnxwildselect
                0x00033a00                ufilelnxattrselect
                0x00033bd8                ufilelnxgetmembfstat
                0x00033e04                ufilelnxsavehdir
                0x00033f34                ufilelnxsrchhdir
                0x0003403c                ufilelnxclosehdir
                0x0003417c                ufilemode2attr
                0x00034328                ufilemktime
                0x000343e0                ufilerepwildname
                0x000344e0                errwildname
                0x000346e8                filesrchmountpoint
                0x000348c0                filegetdevt
                0x00034b44                filegetdevicename
                0x00034cf0                filegetdevicemntent
                0x00034e10                filegetmntent
                0x00034fe4                filegetmntoption
                0x00035148                ufilegetiocharset
                0x0003524c                ufilefnmcvcs
                0x00035490                ufullpathCP
 .text          0x000356c4     0x1f08 ../ulib/libuserxe.a(libuserxe_a-ufile1l2.o)
                0x000356c4                mtoolsinit
                0x000356f0                ufstat_mdos
                0x00035c3c                ufilegetmdosattr
                0x00035d40                uopendir_mdos
                0x0003603c                ureaddir_mdos
                0x00036280                ufilegetmdosdl
                0x000367e0                ufilegetmdosattrlist
                0x000369d8                ugetcwd_mdos
                0x00036b54                uchdir_mdos
                0x00036bf0                ustatfs_mdos
                0x00036e30                uminfo
                0x0003710c                ufilegetnum
                0x00037210                ufilemdoscmd
                0x00037468                ufilemdoserrchk
 .text          0x000375cc     0x4588 ../ulib/libuserxe.a(libuserxe_a-ufile2.o)
                0x000375cc                ufile2
                0x000375e4                uxddpchk
                0x00037a34                uxddsub
                0x00038284                uxdelete
                0x00039004                ufilewildxdel
                0x00039238                uxdelsub
                0x00039be0                uremovenomsg
                0x00039c34                uremove
                0x00039e94                urenamenomsg
                0x00039eec                urename2
                0x00039f44                urename
                0x0003a648                ufilewildrename
                0x0003a680                uwildfunc
                0x0003aa7c                ufilecdirchk
                0x0003ae14                ufilespfnchk
                0x0003ae3c                wildchk
                0x0003afd4                ufilechkwildmemb
                0x0003b104                ufilechkwildname
                0x0003b298                ufileopenexclusivewrite
                0x0003b354                ufiledelifnotopened
                0x0003b430                ufile2quietmsg
                0x0003b560                ugetmoveavailablepath
                0x0003ba4c                uwildfunc_LongName
 .text          0x0003bb54     0x47cc ../ulib/libuserxe.a(libuserxe_a-ufile2f.o)
                0x0003bb54                uftpmkdir
                0x0003c14c                uftprmdir
                0x0003c558                uftpremove
                0x0003c99c                uftprename
                0x0003cd48                uftprenamesub
                0x0003d11c                uftpwildrename
                0x0003d16c                uftpattrib
                0x0003d478                uftpattrxon
                0x0003d4c0                uftpattrxchk
                0x0003d698                uftpgetftime
                0x0003d7ec                uftpgetftime_1sec
                0x0003d964                uftpsetftime
                0x0003d9dc                uftpsetftime2
                0x0003da54                uftpcopypathinfo
                0x0003db7c                uftpsetown
                0x0003dbf4                uftpsetmod
                0x0003e0d4                uftpwildfunc
                0x0003e300                uftpwildfunc2
                0x0003e678                uftpmultidel
                0x0003e790                uftpmultirename
                0x0003e8a8                uftpwildxdel
                0x0003ebe4                uftpmultidelsub
                0x0003ed70                uftpmultirenamesub
                0x0003efb0                uftpbypassreason
                0x0003f03c                uftpxdelrchk
                0x0003f448                uftpmultidelrchk
                0x0003f6e4                uftpmultirenamerchk
                0x0003f98c                ufile2putstmt
                0x0003facc                uftpnotsupported
                0x0003fb24                uftpnotsupportedforlocal
                0x0003fb7c                uftpdelsubdir
                0x0003fdfc                ufile3xdeleteinit
                0x0003fe88                uxdelsubftp
                0x000402d8                errtoolongname
 .text          0x00040320     0x19d8 ../ulib/libuserxe.a(libuserxe_a-ufile2l.o)
                0x00040320                umkdir
                0x0004038c                umkdirmode
                0x000406c0                urmdir
                0x00040b64                uattrib
                0x00040eb0                uattrxon
                0x00040f28                uattrxchk
                0x00041108                ugetftime
                0x00041240                ugetftime_1sec
                0x000413c0                usetftime
                0x0004153c                usetftime_1sec
                0x00041598                usetftime2
                0x000416f4                ucopypathinfo
                0x00041b00                ufilesetown
                0x00041bf8                ufilesetmod
 .text          0x00041cf8      0xbc8 ../ulib/libuserxe.a(libuserxe_a-ufile2l2.o)
                0x00041cf8                umkdir_mdos
                0x00041dc4                urmdir_mdos
                0x00041ed8                uattrib_mdos
                0x000420dc                uremove_mdos
                0x000421f0                urename_mdos
                0x00042288                ucopy_mdos
                0x0004251c                uappend_mdos
                0x00042864                ufilemdoscopyerr
 .text          0x000428c0     0x4dd0 ../ulib/libuserxe.a(libuserxe_a-ufile3.o)
                0x000428c0                ufile3
                0x000428d8                invalidtargetfilename
                0x00042910                uxcopy
                0x00043800                ufilecreateparmproc
                0x00043f6c                ufilecpymvflags
                0x00044238                ufilewildcopy
                0x000444d8                ucopysub_slinktarget
                0x00044678                ucopysub_slink
                0x00044970                ucopysub
                0x00045094                udoscopy
                0x0004544c                uxmove
                0x00045e64                ufilewildmove
                0x00045ff4                umovesub_slink
                0x00046730                umovesub
                0x00046e60                ufilecopytschk
                0x00046f78                ufilechkslinkpath
                0x000471c0                ufilegetslinkfinaltarget
                0x00047348                ufilesymlink
                0x000473cc                ufilesymlink_copyfiletime
                0x000474c4                ufilesymlink_copy
                0x00047570                ufileerrdirandfile
                0x000475b0                ufileerrslinktarget
                0x000475f4                ufileerrslinkappend
                0x00047634                ufileerrnotargetslink
 .text          0x00047690     0x539c ../ulib/libuserxe.a(libuserxe_a-ufile3f.o)
                0x00047690                uftpxmove
                0x00047858                uftpxcopy
                0x00047b50                uftpxcopyr2r
                0x00047dd4                uftpupload
                0x00048474                uftpdownload
                0x00048ac4                uftptargetflag
                0x00048e4c                uftpsourceflag
                0x00049204                uftps2tchk
                0x000497f8                uftpcreateparmproc
                0x00049c3c                uftpmoveparmproc
                0x00049ef0                uftpupdownctl
                0x0004a7f4                uftpgetdirlist
                0x0004a8c8                uftpexistchk1
                0x0004ab24                uftpexistchkm
                0x0004b084                uftpcopycallback
                0x0004b8a8                uftpcopyrchk
                0x0004c03c                uftpputstmt
                0x0004c180                uftpputstmt2
                0x0004c320                uftpcopyftime
                0x0004c66c                ufileftpcopytschk
                0x0004c8a8                uftpmktdir
                0x0004c908                uftperrsourceisroot
                0x0004c930                uftperrtargetisnotdir
                0x0004c964                uftperrdir2file
                0x0004c9a4                uftpfileanddir
                0x0004c9f0                uftpappenddir2dir
 .text          0x0004ca2c     0x2acc ../ulib/libuserxe.a(libuserxe_a-ufile4.o)
                0x0004ca2c                ufile4
                0x0004ca44                utempnam
                0x0004cd24                utempnamd
                0x0004cd7c                ufgetpos
                0x0004cdac                udirwalk
                0x0004d4e4                udirwalksub
                0x0004e594                ufileslinkoutoflinkchk
                0x0004ea34                ufileslinkloopchk
                0x0004eed8                ufileslinkloopchk2
                0x0004efe8                ugetdiskfree
                0x0004f17c                ufileisvfat
                0x0004f1b0                ufileisntfs
                0x0004f1d4                ufileisvfatMounted
                0x0004f254                ufileisntfsMounted
                0x0004f2d4                ufileisMSMounted
                0x0004f380                ufsetlock
                0x0004f3e8                uflock
 .text          0x0004f4f8     0x4e20 ../ulib/libuserxe.a(libuserxe_a-ufile5.o)
                0x0004f4f8                ufile5
                0x0004f510                ufgetsinit
                0x0004f92c                ufgetscurpos
                0x0004f954                ufgets_setcurpos
                0x0004f9d8                ufgets
                0x0004fd9c                ufgetssub
                0x00050384                ufgetsbinchk_utf8
                0x0005065c                ufgetsbinchk_ebc
                0x0005087c                ufgetsbinchk
                0x00050d34                isSameU8c
                0x00050f7c                udoseditname
                0x00051840                ufileeditname
                0x00051d08                ufilewildcomp
                0x00052088                ufilewildcompsub
                0x00052258                ufilecomp
                0x00052730                ufilecomptextmode
                0x00052ad8                ufilecomptextmodefixed
                0x00052d64                ufilecomptextmodesub
                0x00052ea8                ufreads
                0x00053188                ufgetsVHeader
                0x00053410                ufgetsVRecord
                0x00053708                ufgetsV
                0x00053988                ufile5chkvfmt
                0x00053ae8                ufile5getVfmtstr
                0x00053bac                ufseek
                0x00053be8                uftell
                0x00053c18                fileeditname_copypath
                0x00054234                fileeditname_copypath_err
                0x00054298                filetouch
 .text          0x00054318     0x4f50 ../ulib/libuserxe.a(libuserxe_a-uftp.o)
                0x00054318                uftpfstatroot
                0x000543c0                uftplshome
                0x00054528                uftpfstatudl
                0x0005486c                uftpisexist
                0x00054988                uftpopendir
                0x00054f60                uftpreaddir
                0x000550c4                uftpattrselect
                0x0005528c                uftpgetslinkattr
                0x0005566c                uftpdirlistslink
                0x00055c5c                uftpsortslink
                0x00055cb4                uftpslinkcomp
                0x00055d38                uftpslinklscmd
                0x00056070                uftplsoutchk
                0x000563e4                uftpmodtimerchk
                0x000568c0                uftpmodtimeerr
                0x00056914                uftplsoutchkslinkerrskip
                0x00056a40                uftplsoutchkslink
                0x00056b40                uftpsavehdir
                0x00056c88                uftpsrchhdir
                0x00056d34                uftpclosehdir
                0x00056d98                uftpmode2attr
                0x00056f14                uftpudl2ffb3
                0x000570c4                uftpgetpathname
                0x0005718c                uftpnodesrch
                0x0005723c                uftpnodeadd
                0x000572f4                uftpnodedel
                0x00057350                uftpnodeclear
                0x0005736c                uftpgethostqhaddr
                0x0005738c                uftphoststbinit
                0x000576ac                uftpgethostsdata
                0x00058718                uftgetstringopd
                0x00058998                uftpipachk
                0x00058bb8                uftpgetportno
                0x00058c44                uftpisremote
                0x00058dd0                uftpisrootdir
                0x00058e54                uftphostscrypt
                0x00059130                uftptempnam
                0x0005918c                uftp_mempswd
                0x00059224                uftp_udirlist_setname
 .text          0x00059268     0x2c2c ../ulib/libuserxe.a(libuserxe_a-uftp2.o)
                0x00059268                uftpinit
                0x000593b8                uftpterm
                0x00059400                uftplog
                0x000597d4                uftpnodeinit
                0x000599bc                uftpcmd
                0x0005a0f4                uftpcmdrespchk
                0x0005a200                uftpcmdresphdrchk
                0x0005a328                uftpcmdsrchrespid
                0x0005a588                uftpsimplerespchk
                0x0005a660                uftpnextstdo
                0x0005a730                uftpsrchfname
                0x0005a8f8                uftpsrchfnameslink
                0x0005ab80                uftpgetdl
                0x0005aea0                uftpgetdl1
                0x0005b5a8                uftpgetmode
                0x0005b8f0                uftpgetdlftime
                0x0005ba94                uftpgetmonth
                0x0005bb10                uftpgetwday
                0x0005bb88                uftpajustjst
                0x0005bde4                uftpmktempwd
                0x0005be30                uftpdeltempwd
 .text          0x0005be94     0x5ab0 ../ulib/libuserxe.a(libuserxe_a-uftp3.o)
                0x0005be94                uftp3setssh
                0x0005c154                uftp3editpsftpcmd
                0x0005c294                uftp3cmdrespchk
                0x0005c3b0                uftp3cmdresphdrchk
                0x0005c504                uftp3srchcmdecho
                0x0005c658                uftp3gethomesub
                0x0005c7b8                uftp3simplerespchk
                0x0005c924                uftp3simplerespchkOK
                0x0005cac0                uftp3simplerespchkCHNG
                0x0005cc50                uftp3lchdirrespchk
                0x0005ccbc                uftp3getputrespchk
                0x0005cdd8                uftp3cdrespchk
                0x0005cf14                uftp3setsmb
                0x0005cfd0                uftp3smb_setcmd
                0x0005d450                uftp3smb_editcmdline
                0x0005d708                uftp3smb_nodeinit
                0x0005d7b4                uftp3smbcmd
                0x0005d838                uftp3smb_cmd
                0x0005dd40                uftp3smb_chkstatuserr
                0x0005df88                uftp3smb_srchresp
                0x0005e1b0                uftp3smb_stderrlog
                0x0005e228                uftp3smb_getdltime
                0x0005e3cc                uftp3smb_getdltimestat
                0x0005e51c                uftp3smb_setdltime
                0x0005e64c                uftp3smb_getmode
                0x0005e87c                uftp3smb_getdirlistctr
                0x0005e8c4                uftp3smb_getdl1
                0x0005eb38                uftp3smb_fstatudl
                0x0005ee48                uftp3smb_fstatudl_byls
                0x0005f078                uftp3smb_fstatudl_byls_root
                0x0005f314                uftp3smb_lsoutchk
                0x0005f498                uftp3smb_getdlattr
                0x0005f590                uftp3smb_fstatdircallback
                0x0005f830                uftp3smb_fstatdirrchk
                0x0005fc78                uftp3smb_fstatoutchk
                0x0006017c                uftp3smb_putstmt
                0x00060724                uftp3smb_respchk_srchnext
                0x00060a5c                uftp3smb_respchk
                0x00060e84                uftp3smb_lchdirrespchk
                0x00060ed4                uftp3smb_strfname
                0x00061184                uftp3smb_enclosefnm
                0x000612c4                uftp3smb_editcmdparm
                0x00061464                uftp3smb_dirnameforlist
                0x00061534                uftp3smb_mode2attr_winsub
                0x000615c4                uftp3smb_mode2attr_win
                0x00061614                uftp3smb_strattr
                0x000616fc                uftp3smb_setmod_win
 .text          0x00061944      0x4b0 ../ulib/libuserxe.a(libuserxe_a-ugcclib.o)
                0x00061944                strupr
                0x000619ac                strlwr
                0x00061a14                memicmp
                0x00061ae0                stricmp
                0x00061b70                itoa
                0x00061c04                kbhit
                0x00061c1c                getch_nc
                0x00061c3c                getche
                0x00061c5c                spawnvp
                0x00061cb4                spawnv
 .text          0x00061df4     0x1d30 ../ulib/libuserxe.a(libuserxe_a-ukbdl.o)
                0x00061df4                ukbdpeek
                0x00061e20                ukbdcharin
                0x00061fc8                ukbdl_init
                0x000620b4                ukbdl_term
                0x000620cc                ukbdl_setkbmode
                0x00062154                ukbdl_shellmode
                0x00062260                ukbdl_setgetchmode
                0x00062320                ukbdl_tcgetattr
                0x000623c0                ukbdl_tcsetattr
                0x00062464                ukbdl_getch_init
                0x000624b8                ukbdl_getche_init
                0x0006250c                ukbdl_getch_term
                0x00062558                ukbdl_getche_term
                0x000625a4                ukbdl_kbhit
                0x000625f4                ukbdl_getch
                0x00062694                ukbdl_getche
                0x00062734                ukbdl_gettermid
                0x00062878                ukbdl_gettermsim
                0x00062db0                ukbdl_editstring
                0x00062e78                ukbdsetstatus
                0x00062f30                ukbdl_wcinit
                0x00063030                ukbdl_readutf8
                0x00063624                ukbdl_readdbcs
                0x0006392c                ukbd_simutf8_f2l
 .text          0x00063b24     0x8020 ../ulib/libuserxe.a(libuserxe_a-ukbdlnxc.o)
                0x00063b24                ukbdlnxc_gettbl
                0x00063bc0                ukbdlnxc_init
                0x00063d70                ukbdlnxc_term
                0x00063dec                ukbdlnxc_getnext
                0x00063e74                ukbdlnxc_read
                0x00064028                ukbdlnxc_readkbd
                0x00064ebc                ukbdlnxc_optproc
                0x00065038                ukbdlnxc_setupckt
                0x000656fc                ukbdlnxc_setupcktsub
                0x00065968                ukbdlnxc_setupcktx
                0x00068024                cktovferr
                0x000680a0                ukbdlnxc_addstrtbl
                0x00068378                ukbdlnxc_dupstrchk
                0x000686d4                ukbdlnxc_cleanup
                0x0006875c                ukbdlnxc_termexit
                0x00068790                ukbdlnxc_getplainsym
                0x00068a64                ukbdlnxc_chkothersym
                0x00068ad0                ukbdlnxc_xbsdel
                0x00068bd4                ukbdlnxc_delopt
                0x00068cb8                ukbdlnxc_setfunckey
                0x00068e9c                ukbdlnxc_setfuncstr
                0x00069280                ukbdlnxc_setcompose
                0x00069318                ukbdlnxc_getkeysym
                0x000693f8                ukbdlnxc_setkeysym
                0x000694d8                ukbdlnxc_getstring
                0x000695a8                ukbdlnxc_setstring
                0x000696a0                ukbdlnxc_getdiacr
                0x0006974c                ukbdlnxc_setdiacr
                0x000697f8                ukbdlnxc_setmetamode
                0x00069a04                ukbdlnxc_getconsole
                0x00069b88                ukbdlnxc_getptty
                0x00069cc4                ukbdlnxc_open
                0x00069d4c                ukbdlnxc_chkconsole
                0x00069d74                ukbdlnxc_save1st
                0x0006a110                ukbdlnxc_restorelast
                0x0006a6cc                ukbdlnxc_lockfwrite
                0x0006a750                ukbdlnxc_lockfread
                0x0006a7d4                ukbdlnxc_pidsetlock
                0x0006a8c0                ukbdlnxc_pidresetlock
                0x0006a960                ukbdlnxc_pidchklock
                0x0006aa18                ukbdlnxc_chngttkey
                0x0006b5e4                ukbdlnxc_setrctl
                0x0006b718                ukbdlnxc_setrctlstr
                0x0006bb1c                uttyname
 .text          0x0006bb44      0x848 ../ulib/libuserxe.a(libuserxe_a-ukbdlnxm.o)
                0x0006bb44                ukbdlnxm_mouseopt
                0x0006bc54                ukbdlnxm_mouseinit
                0x0006bcbc                ukbdlnxm_mouseterm
                0x0006bd1c                ukbdlnxm_getmouse
                0x0006c174                clickchk
 .text          0x0006c38c      0x2fc ../ulib/libuserxe.a(libuserxe_a-umiscf.o)
                0x0006c38c                uchksum
                0x0006c634                uaddc
 .text          0x0006c688     0x22e0 ../ulib/libuserxe.a(libuserxe_a-uparse.o)
                0x0006c688                uparsein
                0x0006c930                uparseindir
                0x0006caa4                uparsev
                0x0006cc6c                uparse2
                0x0006cda8                uparse
                0x0006dab0                uparsefname
                0x0006dc3c                uparsecmd
                0x0006e3ac                uparsecmdin
                0x0006e604                uparsegetopt
 .text          0x0006e968     0x3754 ../ulib/libuserxe.a(libuserxe_a-uproc.o)
                0x0006e968                usystem2
                0x0006eaa4                usystem
                0x0006ebb8                uspawnl
                0x0006ece4                uspawnlp
                0x0006ee10                uspawnvp
                0x0006ef0c                uprocopt
                0x0006efd8                uspawnrc
                0x0006f200                uprocerrmem
                0x0006f23c                uprocerrnotf
                0x0006f278                uexecchk
                0x0006f680                uextdirsrch
                0x0006f6c0                ucmdnmcomp
                0x0006f83c                ugetexepath
                0x0006f860                uproc_getpsinfo
                0x0006fdb8                uproc_srchpsinfo
                0x0006ff48                uproc_freepsinfo
                0x0006ffb8                usystem_redirect
                0x000702a0                uspawn_redirect
                0x00070678                uproc_redirectoutchk
                0x00070ff4                uspawnvp_pipe
                0x00071448                uspawnvp_pipeclose
                0x00071514                usystem_cmdserverinit
                0x000715b8                usystem_cmdserverterm
                0x000716f4                usystem_cmdserversetup
                0x00071b64                usystem_cmdtocmdserver
                0x00071bf0                usystem_cmdserverreq
                0x00071ffc                usystem_cmdserverreqwithoutbuff
                0x00072090                usystem_pidalivechk
 .text          0x000720bc     0x142c ../ulib/libuserxe.a(libuserxe_a-uproc2.o)
                0x000720bc                uprocparseredirect
                0x000724c4                uproc_rsh
                0x00072be4                uproc_redirectrewrite
                0x00072d0c                uproc_rshlog
                0x00072ddc                ugetpid
                0x00072e28                uprocredirectchk
                0x00072e78                uproc_loaddllpath
                0x000730e0                uproc_loaddll
                0x00073290                uproc_getdllproc
                0x0007337c                uproc_freedll
                0x000733d8                uproc_getprocaddr
 .text          0x000734e8     0x11dc ../ulib/libuserxe.a(libuserxe_a-uproc4.o)
                0x000734e8                uproc_shcmd
                0x000735f0                uproc_shserverinit
                0x00073694                uproc_shserverterm
                0x0007376c                uproc_shserversetup
                0x00073c2c                uproc_shserverreq
                0x00074070                uproc_srchprocessw
                0x00074134                uproc_srchprocess
                0x00074218                uproc_select
                0x000745dc                uproc4_fdset
                0x0007464c                uproc4_fdisset
 .text          0x000746c4      0x9d4 ../ulib/libuserxe.a(libuserxe_a-uque.o)
                0x000746c4                uque
                0x000746dc                uenq
                0x000749b0                udeq
                0x00074c8c                uqscan
                0x00074db0                uqfree
                0x00074e08                uqufree
                0x00074e60                uenqchain
                0x00074f78                uenqent
                0x00075018                uqhmove
 .text          0x00075098      0x274 ../ulib/libuserxe.a(libuserxe_a-ustrcpy.o)
                0x00075098                ustring_memcpy
                0x00075154                ustring_strncpy
                0x00075274                ustring_strcpy
 .text          0x0007530c     0x2778 ../ulib/libuserxe.a(libuserxe_a-ustring.o)
                0x0007530c                ustring
                0x00075324                ustrnchr
                0x000753ac                ustrnpbrk
                0x00075488                ustrnspn
                0x00075584                ustrrspn
                0x00075624                ustrnrspn
                0x000756d4                umemrspn
                0x0007578c                umemspnc
                0x00075818                umemspn_spacetab
                0x000758a8                umemrspnc
                0x00075938                ustrnstr
                0x00075a40                ustrrstr
                0x00075ad0                ustrnrstr
                0x00075bbc                ustrstri
                0x00075d14                ustrnstri
                0x00075e08                ustrrstri
                0x00075e98                ustrnrstri
                0x00075f84                ustrnrchr
                0x00076078                umemchr_utf
                0x00076214                ustrchr2
                0x0007635c                ustrnchr2
                0x000763a8                umemchr2
                0x000764e8                ustrrchr2
                0x00076628                ustrnrchr2
                0x00076674                umemrchr2
                0x00076788                umemrchr
                0x00076808                umempbrk
                0x000768d4                umemrpbrk
                0x000769a4                ustrnlen
                0x000769f8                umemstr
                0x00076a3c                umemstri
                0x00076a80                umemrstr
                0x00076ac4                umemrstri
                0x00076b08                umemmem
                0x00076bf8                umemmemi
                0x00076df8                umemrmem
                0x00076ef0                umemrmemi
                0x000770d4                ustrncpyz
                0x00077178                uispunct
                0x00077240                uispunctdbcs
                0x0007744c                ustrdup
                0x00077518                umemtrim
                0x00077764                umemicmpdbcs
                0x00077860                umemstridbcs
                0x00077980                umemrstridbcs
 .text          0x00077a84       0x70 ../ulib/libuserxe.a(libuserxe_a-utf.o)
                0x00077a84                utf_init
 .text          0x00077af4     0x5ba0 ../ulib/libuserxe.a(libuserxe_a-utf2.o)
                0x00077af4                umbtowc
                0x00077bb0                utfpos2offs
                0x00077e40                utfctr2offs
                0x00078158                utfstrchkmbr2wc
                0x000785d8                utfcvf2u
                0x00078ae0                utfcvl2fmix
                0x00078db8                utfcvl2f
                0x00079484                utfcvl2ftab
                0x00079640                utfsetdbcstbl
                0x00079944                utfisvalidutf8
                0x00079a48                utfgetstrwidth
                0x00079b10                utfisvalidutf8char
                0x00079ca0                utfstrvalidate
                0x00079e0c                utfgetutf8strlen
                0x00079f84                utfsplitchk
                0x0007a1a8                utfcvl2fany
                0x0007aa30                utfcvf2l1
                0x0007ac18                utfcvf2l
                0x0007b0b4                utfcvf2lany
                0x0007b650                utfcvl2fany1
                0x0007b8b4                utfcvl2fany1mb
                0x0007ba18                utfcvl2uany1mb
                0x0007bbbc                utfcvf2lany1
                0x0007bfcc                utfcvf2lany1mb
                0x0007c150                utfcvu2lany1mb
                0x0007c2b4                utfcvlocaleinit
                0x0007c4e0                utfcvsetdefaultlocale
                0x0007c650                utfcvsetparmlocale
                0x0007c7ac                utfgetcharset_std
                0x0007cad8                utfgetcharset
                0x0007ccfc                utflocalechk
                0x0007cd7c                utfcvlocaleopen
                0x0007ce94                utfcvlocaleclose
                0x0007cec0                utfcvlocaletclose
                0x0007cf00                utfcviconvdbcschk_topbyte
                0x0007d03c                utfcviconvdbcschk1
                0x0007d1a8                utfcvlocaleinitICU
                0x0007d210                utfcvf2lany1ICU
                0x0007d38c                utfcvl2fany1ICU
                0x0007d530                utfcvsetdefaultlocaleICU
                0x0007d574                utflocalechkICU
                0x0007d5dc                utfgetstrlenHK
 .text          0x0007d694     0x7bb0 ../ulib/libuserxe.a(libuserxe_a-utf22.o)
                0x0007d694                utfwwapichk
                0x0007d8fc                utfddflag2sbcsid
                0x0007d994                utfddgetlenflag
                0x0007dc54                utf22_mapwidth0_rounddown
                0x0007dd90                utf22_mapwidth0
                0x0007dfa8                utfucsmapinit
                0x0007e4b8                utf22setworkdir
                0x0007e650                utf22versionchk
                0x0007e848                utfucsloadmap
                0x0007ea40                utfucssavemap
                0x0007ebd4                utfucsmapinit_remap
                0x0007ef64                utfucsmapmodify
                0x0007f0dc                utfmapucs2dd
                0x0007f194                utfmapdd2ucs
                0x0007f218                utfddsetsbcs
                0x0007f2e0                utfddgetsbcs
                0x0007f344                utfgetwcw
                0x0007f484                utfcvu2dd1w
                0x0007f750                utfcvu2dd1
                0x0007f84c                utfcvf2dd
                0x0007fb38                utfdd2u1
                0x0007fba4                utfdd2u1vio
                0x0007fc80                utfdd2u1chsz
                0x0007fe74                utfdd2u
                0x000803a0                utfucs42utf16
                0x0008056c                utfddgetucsctr
                0x000806e8                utfu2dd
                0x000808fc                utfddcmp
                0x000811f8                utfddicmp
                0x0008133c                utfcvdd2f
                0x000819d0                utfchkdd
                0x00081ab8                utfddisasciistr
                0x00081c2c                utfddissbcsstr
                0x00081ce4                utfddasciilen
                0x00081d2c                utfddpos2offs
                0x00081f64                utfddoffs2pos
                0x00082298                utfddispunct
                0x00082490                utfddmemspnc
                0x00082594                utfddmemrspnc
                0x000826b4                utfddstrnlen
                0x0008279c                utfddstrlen
                0x0008284c                utfddstrnspn
                0x000828d4                utfddmemspn
                0x00082a08                utfddmemrspn
                0x00082b40                utfddmemchr
                0x00082c70                utfddmemchr_nonascii
                0x00082d64                utfddmemrchr
                0x00082e4c                utfddmemrchr_nonascii
                0x00082efc                utfddmempbrk
                0x00082fdc                utfddmempbrk_nonascii
                0x000830e0                utfddmemrpbrk
                0x000831dc                utfddmemrpbrk_nonascii
                0x000832fc                utfddcmpdbcstab
                0x0008340c                utfddmemmem
                0x00083690                utfddmemrmem
                0x0008377c                utfddnumlen
                0x00083a40                utfddgetdbcslr
                0x00083b80                utfddgetcsrposbca
                0x00083f14                utfgetvisiblealtch
                0x000842d8                utfgetvisiblealtchprint
                0x00084374                utf_setsubchar_dbcs
                0x00084578                utf_subcharcmp
                0x000846f4                utfmemrchrDD
                0x000847b0                utfmemchrDD
                0x0008488c                isASCIIstr
                0x000848f4                isPrintableASCIIstr
                0x0008496c                isPrintableASCIImem
                0x000849f8                utf22_setunpucsvio
                0x00084b34                utf22_setdbcsspacealt
                0x00084bf0                utfsetvisiblealtch
                0x00084d48                utf22_iswidth0Ovf
                0x00084e3c                utf22_iswidth0DBCS
                0x00084f14                utf_iswidth0
                0x00085054                utf_iscombinable
                0x00085190                utf_iscombining
 .text          0x00085244     0x178c ../ulib/libuserxe.a(libuserxe_a-utf3.o)
                0x00085244                utfmb2wc
                0x000854a0                utfwcwidth
                0x0008572c                utfwcwidthNoMap
                0x000858cc                utfwcwidthsub
                0x00085b0c                utfwcwidthsubNoMap
                0x00085d38                utfiswide
                0x00085d70                utfisprint
                0x00085f74                utfgetwc
                0x00086010                utftbinit
                0x00086588                utftbfhelp
                0x000865a8                utftbterm
                0x000865fc                utftbsrch
                0x00086778                utftbsrch_jeuc
                0x000867e4                utftbsrch_cjk
                0x0008692c                utf3_wcwidthXXE
 .text          0x000869d0      0xad0 ../ulib/libuserxe.a(libuserxe_a-utf4.o)
                0x00086ad4                mk_wcwidth_combining
                0x00086b20                mk_wcwidth
                0x00086de4                mk_wcwidth_cjk
                0x00086f20                mk_wcswidth_cjk
                0x00086fb8                mk_wcwidth_adjsbcs
                0x000871b8                utf4_isSpacingCombiningMark
                0x00087274                utf4_isAmbiguous
                0x00087380                utf4_isAmbiguous_XXE
                0x00087400                utf4_isFormat
                0x00087454                mk_wcwidth_combining2SCM
 .text          0x000874a0     0x1754 ../ulib/libuserxe.a(libuserxe_a-utrace.o)
                0x000874a0                utrace_initmt
                0x000874fc                utrace_init
                0x00087760                utracepop
                0x000878cc                utracepopf
                0x00087a80                utracepnop
                0x00087aa0                utrace_ebc
                0x00087b98                utrace
                0x00087f7c                utracectime
                0x000881a0                utraceopen_force
                0x00088370                utraceocmsg_force
                0x00088b14                utrace_term
 .text          0x00088bf4      0x5b8 ../ulib/libuserxe.a(libuserxe_a-uunxsub.o)
                0x00088bf4                ugetugid
                0x00088c98                ugetusername
                0x00088d30                ugetgroupname
                0x00088dc8                usrchugname
                0x00088e34                uaddugname
                0x00088f28                unc_setupterm
                0x00088f9c                unx_fsetlock
                0x00089060                unx_fresetlock
                0x000890bc                unx_fchklock
                0x00089178                ugethostname
 .text          0x000891ac     0x65fc ../ulib/libuserxe.a(libuserxe_a-uviom.o)
                0x000891ac                uviom_init
                0x00089444                uviom_setopt2
                0x00089740                uviom_notify
                0x00089808                uvio_wcinit
                0x00089868                uviom_savecell
                0x00089910                uviom_readcell
                0x000899b8                uvio_mvaddchnstrF
                0x0008a064                uviom_mvaddwchnstr
                0x0008a0d4                uvio_mvaddchnstrW_ligature
                0x0008a428                uvio_mvaddchnstrW_combine
                0x0008aa28                uvio_mvaddchnstrW
                0x0008acec                uviom_cht2cchar
                0x0008bce8                uviom_setcchar_itself
                0x0008bd70                uviom_setcchar_shadow
                0x0008be48                uviom_setcombine1
                0x0008c2a8                uviom_setcombine
                0x0008cac0                uviom_setcombineSCM
                0x0008cce0                uvio_ddcht2cchar
                0x0008da0c                uvio_ddcht2cchar_ligature
                0x0008e7a0                uvio_getcombinectr
                0x0008e904                uviom_escrep
                0x0008eaf0                uviom_set_padattr
                0x0008eb54                uviom_fillattrspace
                0x0008ec70                uviom_setunpucs
                0x0008f040                uviom_attr_itself
                0x0008f0e4                uviom_ISUCSWIDTH0
                0x0008f264                uviom_iscombining
                0x0008f44c                uviom_spaceclear
                0x0008f4a4                uviom_clearscr
                0x0008f544                uviom_getcombaltchUcs
                0x0008f5cc                uviom_getcombaltchU8
 .text          0x0008f7a8     0x3914 ../ulib/libuserxe.a(libuserxe_a-uviol.o)
                0x0008f7a8                uviol_cell2attr
                0x0008f8e8                uviol_attr2cell
                0x0008f9c4                uviol_repfg
                0x0008fa44                uviol_altcharset
                0x0008fb8c                uvio_initparm
                0x0008fbe4                uviogetmode
                0x0008fd78                uviol_init
                0x000902b4                uviol_acssetup
                0x00090404                uviol_init2
                0x00090434                uviol_konchk
                0x00090528                uviol_konchk2
                0x00090598                uviol_colorinit
                0x000907b0                uviol_termexit
                0x000907e0                uviol_cleanup
                0x000908f0                uviol_term
                0x00090974                uviol_beep
                0x000909b0                uviosetmode
                0x000909e8                uvioreadcellstr
                0x00090b7c                uviowrtcellstr
                0x00090da8                uvioreadcharstr
                0x00090ec4                uviowrtcharstr
                0x00090fcc                uviowrtcharstratt
                0x000911c8                uviowrtnattr
                0x000913d8                uviowrtncell
                0x00091534                uviowrtnchar
                0x00091694                uviogetcurpos
                0x00091780                uviosetcurpos
                0x000918dc                uviogetcurtype
                0x0009198c                uviosetcurtype
                0x00091ac0                uviowrttty
                0x00091b00                uviol_rgb2colorno
                0x00091d18                uviol_colorno2rgb
                0x00091e70                uviogetstate
                0x00092124                uviosetstate
                0x00092304                uvioscrolldn
                0x00092630                uvioscrollup
                0x0009295c                uviol_clear
                0x00092994                uviol_clearok
                0x000929e0                uviol_refresh
                0x00092a08                uviol_mvaddchnstr
                0x00092ba4                uviol_attrupdate
                0x0009303c                uviol_set_padattrsub
 .text          0x000930bc     0x3778 ../ulib/libuserxe.a(libuserxe_a-u3270.o)
                0x000930bc                u3270init
                0x00093124                u3270fstat
                0x00093718                u3270findfile
                0x0009394c                u3270fullpathistso
                0x000939d8                u3270getcwd
                0x00093a60                u3270chdir
                0x00093afc                u3270fullpath
                0x00093dd8                u3270fullpathwildexp
                0x000942f4                u3270getmembname
                0x00094498                u3270chkmembname
                0x000945e0                u3270getlastname
                0x000946b8                u3270getnthname
                0x000947c0                u3270concatfilename
                0x00094aa8                u3270editname
                0x00094e50                u3270parsedsn
                0x00094eec                u3270parentdsn
                0x0009508c                u3270getsetdsnwild
                0x000953ac                u3270pathlen
                0x000954fc                u3270sethostuser
                0x000955b0                u3270cmdrequest
                0x00095828                u3270editrespmsg
                0x00095940                u3270dirlistsub
                0x00095bfc                u3270setdirlist
                0x000960bc                u3270srchdirlist
                0x00096188                u3270setdirlistdsn
                0x00096454                u3270setattr
                0x00096570                u3270getattrstr
                0x000967fc                u3270errdsnpath
 .text          0x00096834     0x152c ../ulib/libuserxe.a(libuserxe_a-u32702.o)
                0x00096834                u3270mkdir
                0x0009686c                u3270rmdir
                0x0009689c                u3270xddsub
                0x00096a1c                u3270xdelete
                0x00096c2c                u3270wildxdel
                0x00096c64                u3270xdelsub
                0x00096d6c                u3270remove
                0x00096ed0                u3270rename
                0x00097120                u3270renamesub
                0x000971f4                u3270wildrename
                0x00097244                u3270spfupdate
                0x00097414                u3270spfsetparm
                0x00097950                u3270attrib
                0x00097988                u3270attrxchk
                0x000979bc                u3270getftime
                0x000979f4                u3270setftime
                0x00097a2c                u3270setftime2
                0x00097a64                u3270copypathinfo
                0x00097a9c                u3270setown
                0x00097ad4                u3270setmod
                0x00097b08                u3270wildfunc
                0x00097d10                u3270errnotsupported
 .text          0x00097d60     0x3ab0 ../ulib/libuserxe.a(libuserxe_a-u32703.o)
                0x00097d60                u3270xmove
                0x00097ed0                u3270xcopyr2r
                0x00098198                u3270xcopy
                0x00098360                u3270xcopyget
                0x00098e1c                u3270xcopyput
                0x000998d0                u3270filecreateparmproc
                0x00099b74                u3270filecpymvflags
                0x0009a0c8                u3270filewildcopyget
                0x0009a310                u3270filewildcopyput
                0x0009a650                u3270copysubget
                0x0009a8ac                u3270copysubput
                0x0009ad38                u3270transfer
                0x0009b29c                u3270srcdupchk
                0x0009b4e0                u3270copyspfupdate
                0x0009b784                u3270setftpparm
 .text          0x0009b810       0x40 ../ulib/libuserxe.a(libuserxe_a-uabend.o)
                0x0009b810                uabend
 .text          0x0009b850     0x417c ../ulib/libuserxe.a(libuserxe_a-ucalc2.o)
                0x0009b850                bc_getxdw
                0x0009b9a4                bc_getld
                0x0009bbf4                bc_dwbinop
                0x0009c1ac                bc_twbinop
                0x0009c6cc                bc_edittod
                0x0009c840                bc_dweditnum64
                0x0009c8a8                bc_dweditnum
                0x0009cbc4                bc_dwupeditnum
                0x0009cd8c                ucalc_dwmult
                0x0009cfe0                ucalc_twmult
                0x0009d4a8                ucalc_dwdiv
                0x0009d788                ucalc_dwdiv2
                0x0009dac0                ucalc_twdiv
                0x0009dc48                ucalc_twdivbyup
                0x0009dd8c                ucalc_twshiftup
                0x0009dea8                ucalc_dwshiftdown
                0x0009dfd8                ucalc_ltime
                0x0009e3f8                ucalc_getdate
                0x0009e5e4                ucalc_nextday
                0x0009e894                ucalc_ld2dw
                0x0009ee2c                ucalc_dw2ld
                0x0009ef38                ucalc_nsadd
                0x0009f1a0                ucalc_ldedit
                0x0009f2e0                ucalc_dwupinit
                0x0009f340                ucalc_dwupset
                0x0009f470                bc_numfmt2dw
                0x0009f520                bc_dw2numfmt
                0x0009f5f8                ucalc_dwup2dwandup
                0x0009f79c                bc_dword2word
                0x0009f898                ucalc_dw2err
                0x0009f8d0                ucalc_dw2errresidual
                0x0009f944                ucalc_dwuperr
                0x0009f96c                ucalc_dwmaxerr
                0x0009f9a4                ucalcerrdwordovf
 .text          0x0009f9cc     0x1ad0 ../ulib/libuserxe.a(libuserxe_a-ucvebc.o)
                0x0009f9cc                ucvebcinite2uJ
                0x0009fb20                ucvebc
                0x0009fb38                ucvebc_gettrte2a
                0x0009fb58                ucvebc2asc_handle
                0x0009fbf8                ucvasc2ebc_handle
                0x0009fc98                ucvebc2asc
                0x000a00b0                ucvebc2asc1sbcsJ
                0x000a0230                ucvebc2ucs1sbcsJ
                0x000a03c4                ucvasc2ebc
                0x000a096c                ucvebc_defaultremap
                0x000a0c4c                ucvebcinita2e
                0x000a0db8                ucvkandl
                0x000a0fa8                ucvebcinitkandl
                0x000a10cc                ucvebc2_chkprintsbcs
                0x000a13a8                ucvebc_chkeolopt
 .text          0x000a149c     0x1718 ../ulib/libuserxe.a(libuserxe_a-ucvebc2.o)
                0x000a149c                ucvebc2
                0x000a14b4                ucvebc2_init
                0x000a1524                ucvebc2_codecomp
                0x000a156c                ucvebc2_s2e
                0x000a1608                ucvebc2_e2s
                0x000a16a0                ucvebc2_chkprint
                0x000a1968                ucvebc2_chkprintnewold
                0x000a1be0                ucvebc2_chkprintdup
                0x000a1d8c                ucvebc2_e2ssub
                0x000a1fcc                ucvebc2_s2esub
                0x000a2084                ucvebc2_stre2s
                0x000a2334                ucvebc2_ebc2asc1dbcsJ
                0x000a23d0                ucvebc2_strs2e
                0x000a2984                ucvebc2_setsi
                0x000a2aa8                ucvebc2_setso
 .text          0x000a2bb4       0xa8 ../ulib/libuserxe.a(libuserxe_a-ucvebct.o)
                0x000a2bb4                ucvebc2gettbl
 .text          0x000a2c5c     0x6c18 ../ulib/libuserxe.a(libuserxe_a-ucvext.o)
                0x000a2c5c                ucvext_cfglineerr
                0x000a2c98                ucvext_cfgdupoption
                0x000a2cd4                ucvext_ux2s
                0x000a2dbc                ucvext_cfgmap
                0x000a2f34                ucvext_getcfg
                0x000a3d28                ucvext_setdefaultlocalcv
                0x000a3e6c                ucvext_getarmso1
                0x000a40cc                ucvext_getarmso
                0x000a4358                ucvext_getarmdata1
                0x000a44c8                ucvext_getarmdata
                0x000a4678                chkapiver
                0x000a4834                ucvext_icuinit_env
                0x000a4ad0                setdatadir
                0x000a4b9c                ucvext_mapinit
                0x000a5580                ucvext_setupsubch
                0x000a5b54                ucvext_loaddll_icudata
                0x000a5de8                ucvext_loaddll
                0x000a5e98                ucvext_icuinit
                0x000a65bc                ucvext_icuenumcvname
                0x000a698c                ucvext_icuuerrname
                0x000a69fc                ucvext_icugetdefaultconvertername2
                0x000a6b18                ucvext_getstdcharset
                0x000a6ef0                ucvext_icugetdefaultconvertername
                0x000a7030                ucvext_icugetconvertertype
                0x000a7254                ucvext_icugetsubchars
                0x000a73d8                ucvext_icusetsubchars
                0x000a74cc                ucvext_icugetstarter
                0x000a7658                ucvext_icugetconverter
                0x000a7c68                ucvext_getparmconverter
                0x000a7eec                ucvext_openparmconverter
                0x000a806c                ucvext_getcvoption
                0x000a83d8                set_internal_CP037
                0x000a84c0                ucvext_mapinitsetdefault
                0x000a86fc                ucvext_setlocalconverter
                0x000a87f8                ucvext_icusubcharchk
                0x000a8bac                ucvext_isdbcs1st
                0x000a8c30                chk_converter_is_ebcdic
                0x000a8d24                ucvext_handle0init
                0x000a8f68                ucvext_icuclose
                0x000a8fd0                ucvext_icureset
                0x000a9038                ucvext_icugetmbconverter
                0x000a9118                ucvext_icumbinit12
                0x000a9178                ucvext_icumbinit
                0x000a9444                ucvext_setdefaultlocale
                0x000a9534                chkicuversion
                0x000a97c0                ucvext_getConverterCfg
 .text          0x000a9874     0x49f4 ../ulib/libuserxe.a(libuserxe_a-ucvext12.o)
                0x000a9874                ucvext12_init
                0x000a99d8                ucvext_icuebc2ucs1
                0x000a9c94                ucvext_iculocal2ucs1
                0x000a9f88                ucvext_icuucs2ebc1
                0x000aa2a0                ucvext_icuucs2local1
                0x000aa56c                ucvext_icuebc2mb1
                0x000aa9cc                ucvext_icumb2ebc1
                0x000aae8c                ucvext_icuebc2mbs_handle
                0x000aaf0c                ucvext_icuebc2mbs
                0x000ab214                ucvext_icumb2ebcdbcs
                0x000ab7d4                ucvext_icumb2ebcs_handle
                0x000ab854                ucvext_icumb2ebcs
                0x000abd54                ucvext_icuebc2mbf
                0x000ac23c                ucvext_icumb2ebcf
                0x000ac9d8                ucvext_icumb2ucs1
                0x000acbe4                ucvext_icuucs2mb1
                0x000ace0c                ucvext_icuutf2mb1
                0x000acfb8                ucvext_icumb2utf1
                0x000ad1b4                ucvext_icumb2utf
                0x000ad45c                ucvext_icuisprint
                0x000ad4fc                ucvext_locale1ICU
                0x000ad5e0                ucvext_getparmconvertermbICU
                0x000ada18                ucvext_icua2ainit
                0x000adadc                ucvext_icua2aterm
                0x000adb54                ucvext_icua2as
                0x000ae214                ucvext_icusubcharchk_handle
 .text          0x000ae268     0x1ec0 ../ulib/libuserxe.a(libuserxe_a-ucvext2.o)
                0x000ae268                ucvext_iconvmapinit
                0x000ae2b4                ucvext_iconvgetstarter
                0x000ae418                ucvext_iconvgetconvertertype
                0x000ae494                ucvext_iconvgetconverter
                0x000ae5d8                ucvext_iconvgetparmconverter
                0x000ae7e0                ucvext_iconvebc2ucs1
                0x000ae950                ucvext_iconvlocal2ucs1
                0x000aec10                ucvext_iconvucs2ebc1
                0x000aed84                ucvext_iconvucs2local1
                0x000aeeec                ucvext_iconva2as
                0x000af500                ucvext_iconvb2bs
                0x000af6ac                ucvext_iconva2af
                0x000afdbc                ucvext_iconva2ainit
                0x000afedc                ucvext_iconva2acont
 .text          0x000b0128     0x4f64 ../ulib/libuserxe.a(libuserxe_a-ucvucs.o)
                0x000b0128                ucp932init
                0x000b06b0                ucp932term
                0x000b0758                ucp932sjis2ucs
                0x000b0828                ucp932ucs2sjis
                0x000b09ac                uccvsjis2ucs
                0x000b0ae0                uccvucs2sjis
                0x000b0b10                uccvucs2utf
                0x000b0d44                uccvutf2ucs
                0x000b10e8                uccvucss2utf
                0x000b11cc                uccvutf2ucss
                0x000b1398                uccvsjis2ucss
                0x000b1418                uccvucss2sjis
                0x000b145c                uccvsjis2utf
                0x000b1540                uccvutf2sjis
                0x000b160c                ucvsucs2utf
                0x000b19b0                ucvsescucs2utf
                0x000b1d74                ucvssjis2utf
                0x000b2140                ucvsmb2utf
                0x000b24a0                ucvsutf2ucs
                0x000b2804                ucvsutf2sjis
                0x000b2ca0                ucvsutf2mb
                0x000b3080                ucvssjis2ucs
                0x000b33a4                ucvsucs2sjis
                0x000b3744                ucvsescucs2sjis
                0x000b3ac8                ucvfsjis2ucs
                0x000b3ce8                ucvfucs2sjis
                0x000b3eec                ucvfutf2ucs
                0x000b4188                ucvfucs2utf
                0x000b43f4                ucvfsjis2utf
                0x000b4660                ucvfutf2sjis
                0x000b48fc                ucvbomchk
                0x000b4aa4                ucvbomset
                0x000b4c00                ucvsetucss
                0x000b4e30                ucvgetucss
                0x000b4f6c                ucverrutf
                0x000b4fcc                ucverrucs
                0x000b502c                ucverrsjis
 .text          0x000b508c       0x38 ../ulib/libuserxe.a(libuserxe_a-ucvucst.o)
                0x000b508c                ugetcp932tbl
 .text          0x000b50c4      0x354 ../ulib/libuserxe.a(libuserxe_a-uehl.o)
                0x000b50c4                useteh
                0x000b5190                uehl_setsh
                0x000b51e4                ureseteh
                0x000b52ac                uehl_resetsh
                0x000b52e8                usighandler
 .text          0x000b5418      0xd74 ../ulib/libuserxe.a(libuserxe_a-uproc22.o)
                0x000b5418                ukillpid
                0x000b54b4                uthread
                0x000b552c                uevent
                0x000b5798                uevent_wait1
                0x000b5964                uevent_post1
                0x000b5a68                uevent_waitm
                0x000b5c4c                uevent_postm
                0x000b5d8c                uevent_reset1
                0x000b5e20                uevent_setuplist
                0x000b5fb4                uevent_resetlist
                0x000b6064                ucriticalsection
 .text          0x000b618c     0x19c4 ../ulib/libuserxe.a(libuserxe_a-uproc3.o)
                0x000b618c                uproc_gvfsinit
                0x000b61f0                ushellexec
                0x000b66a4                ushellexecsub
                0x000b6978                ulnxlgettermpgmopt
                0x000b6afc                ulnxlgetshellpgm
                0x000b6bc8                ulnxxgettermpgmopt
                0x000b6edc                uproc3pgmchk
                0x000b6f80                usystemlnxterm
                0x000b705c                usleepms
                0x000b7100                uprocconnect
                0x000b73bc                uprocdisconnect
                0x000b7468                uprocpipeio
                0x000b7674                startserver
                0x000b76f0                uprocpiperead
                0x000b7784                uprocpiperecevmsg
                0x000b7900                uprocpipeiodata
 .text          0x000b7b50     0x5de8 ../ulib/libuserxe.a(libuserxe_a-ucalc.o)
                0x000b7b50                ucalc_bcmain
                0x000b89d0                bc_opdchk
                0x000b98b4                getvarname
                0x000b9994                ucalc_chkvrparm
                0x000b9b20                bc_getvalue
                0x000ba214                ucalc_vrajust
                0x000ba538                ucalc_o2l
                0x000ba620                ucalc_gettimevalue
                0x000baa48                ucalc_getunderpointdata
                0x000babac                bc_opdcopy
                0x000bae6c                bc_putwordordword
                0x000baf44                bc_expand2dword
                0x000bafe0                ucalc_binop
                0x000bb57c                ucalc_binopsub
                0x000bc030                ucalc_underpoint
                0x000bc318                ucalc_editnum
                0x000bc4e0                ucalc_editevenhex
                0x000bc56c                ucalc_dwtime
                0x000bc754                ucalc_time
                0x000bcc4c                ucalc_timeedit
                0x000bcfdc                ucalc_shiftdown
                0x000bd128                ucalc_shiftup
                0x000bd268                bc_getbase
                0x000bd2ac                calcuperr1
                0x000bd2d4                calcuperr2
                0x000bd2fc                calcuperr3
                0x000bd324                calcerrinvalid
                0x000bd35c                calcerrinvalid_dw
                0x000bd394                calcerrformat
                0x000bd3bc                calcerrunderflow
                0x000bd3e8                calcerrwordovf
                0x000bd42c                calcerrminus
                0x000bd454                calcerr0div
                0x000bd47c                calcerrtimeop
                0x000bd4a4                bc_getvalue3
                0x000bd758                bc_setconvtype3
 .text          0x000bd938     0x54c8 ../ulib/libuserxe.a(libuserxe_a-ucvebc3.o)
                0x000bd938                ucvebc3_getcfgparmconverter
                0x000bdb3c                ucvebc3_init_xcv
                0x000bdb7c                ucvebc3_getconvertersubchar
                0x000bdbf0                ucvebc3_setletter
                0x000be524                ucvebc3_init
                0x000be798                ucvebc3_cfgerr
                0x000be7c0                ucvebc3_b2uSbcs1
                0x000beaa8                ucvebc3_b2ddSbcs1
                0x000bec98                ucvebc3_b2ddSbcs
                0x000bf158                ucvebc3_b2uDbcs1
                0x000bf374                ucvebc3_b2ddDbcs1
                0x000bf594                ucvebc3_b2ddDbcsstr
                0x000bf794                ucvebc3_b2ddDbcs
                0x000bfec0                ucvebc3_b2dd
                0x000bffb4                ucvebc3_u2b1map
                0x000c00f4                ucvebc3_u2b1
                0x000c0498                ucvebc3_m2b1Sbcs1
                0x000c0654                ucvebc3_m2b1
                0x000c098c                ucvebc3_m2b
                0x000c0e9c                ucvebc3_f2b
                0x000c1534                ucvebc3_dd2b
                0x000c1c04                ucvebc3_b2mSbcs
                0x000c22d0                ucvebc3_b2mDbcsstr
                0x000c2570                ucvebc3_b2m
                0x000c2a48                ucvebc3_setdbcstbl
                0x000c2be8                ucvebc3_getebc3opt
                0x000c2cd8                ucvebc3_b2f
                0x000c2d74                ucvebc3_f2bcmd
 .text          0x000c2e00     0x1c0c ../ulib/libuserxe.a(libuserxe_a-ucvebc4.o)
                0x000c2e00                ucvebc4_init
                0x000c2e8c                ucvebc4_compbyname
                0x000c2ee4                ucvebc4_compbyhandle
                0x000c2f34                ucvebc4_srchcveh
                0x000c3088                ucvebc4_gethandle
                0x000c3178                ucvebc4_getpucveh
                0x000c31f8                ucvebc4_getcvname
                0x000c325c                ucvebc4_getcvtype
                0x000c33e0                ucvebc4_createhandle
                0x000c351c                ucvebc4_getparmconverter
                0x000c364c                ucvebc4_chkdbcsconverter
                0x000c3764                ucvebc4_setuphandle
                0x000c3874                ucvebc4_setletter
                0x000c3fd0                ucvebc4_b2uSbcs1
                0x000c40ec                ucvebc4_b2mSbcs
                0x000c4518                ucvebc4_setupsubch
 .text          0x000c4a0c      0x240 /usr/lib/gcc/arm-linux-gnueabihf/8/libgcc.a(_divsi3.o)
                0x000c4a0c                __divsi3
                0x000c4a0c                __aeabi_idiv
                0x000c4c2c                __aeabi_idivmod
 .text          0x000c4c4c       0xd4 /usr/lib/gcc/arm-linux-gnueabihf/8/libgcc.a(_aeabi_ldivmod.o)
                0x000c4c4c                __aeabi_ldivmod
 .text          0x000c4d20       0x10 /usr/lib/gcc/arm-linux-gnueabihf/8/libgcc.a(_dvmd_lnx.o)
                0x000c4d20                __aeabi_idiv0
                0x000c4d20                __aeabi_ldiv0
 .text          0x000c4d30      0x128 /usr/lib/gcc/arm-linux-gnueabihf/8/libgcc.a(_udivmoddi4.o)
                0x000c4d30                __udivmoddi4
 .text          0x000c4e58       0x64 //usr/lib/arm-linux-gnueabihf/libc_nonshared.a(elf-init.oS)
                0x000c4e58                __libc_csu_init
                0x000c4eb8                __libc_csu_fini
 .text          0x000c4ebc       0x10 //usr/lib/arm-linux-gnueabihf/libc_nonshared.a(stat64.oS)
                0x000c4ebc                stat64
 .text          0x000c4ecc       0x10 //usr/lib/arm-linux-gnueabihf/libc_nonshared.a(lstat64.oS)
                0x000c4ecc                lstat64
 .text          0x000c4edc        0x0 /usr/lib/gcc/arm-linux-gnueabihf/8/crtend.o
 .text          0x000c4edc        0x0 /usr/lib/gcc/arm-linux-gnueabihf/8/../../../arm-linux-gnueabihf/crtn.o
 *(.gnu.warning)
 *(.glue_7t)
 .glue_7t       0x000c4edc        0x0 linker stubs
 *(.glue_7)
 .glue_7        0x000c4edc        0x0 linker stubs
 *(.vfp11_veneer)
 .vfp11_veneer  0x000c4edc        0x0 linker stubs
 *(.v4_bx)
 .v4_bx         0x000c4edc        0x0 linker stubs

.fini           0x000c4edc        0x8
 *(SORT_NONE(.fini))
 .fini          0x000c4edc        0x4 /usr/lib/gcc/arm-linux-gnueabihf/8/../../../arm-linux-gnueabihf/crti.o
                0x000c4edc                _fini
 .fini          0x000c4ee0        0x4 /usr/lib/gcc/arm-linux-gnueabihf/8/../../../arm-linux-gnueabihf/crtn.o
                [!provide]                PROVIDE (__etext = .)
                [!provide]                PROVIDE (_etext = .)
                [!provide]                PROVIDE (etext = .)

.rodata         0x000c4ee4     0xf854
 *(.rodata .rodata.* .gnu.linkonce.r.*)
 .rodata.cst4   0x000c4ee4        0x4 /usr/lib/gcc/arm-linux-gnueabihf/8/../../../arm-linux-gnueabihf/crt1.o
                0x000c4ee4                _IO_stdin_used
 .rodata        0x000c4ee8     0x3fe5 xfs.o
 *fill*         0x000c8ecd        0x3 
 .rodata        0x000c8ed0      0x571 ../ulib/libuserxe.a(libuserxe_a-uallocl.o)
 *fill*         0x000c9441        0x3 
 .rodata        0x000c9444      0x10c ../ulib/libuserxe.a(libuserxe_a-udbcschk.o)
 .rodata        0x000c9550        0xc ../ulib/libuserxe.a(libuserxe_a-udbcsck2.o)
 .rodata        0x000c955c       0x47 ../ulib/libuserxe.a(libuserxe_a-udos2.o)
 *fill*         0x000c95a3        0x1 
 .rodata        0x000c95a4       0xed ../ulib/libuserxe.a(libuserxe_a-uedit.o)
 *fill*         0x000c9691        0x3 
 .rodata        0x000c9694       0xbd ../ulib/libuserxe.a(libuserxe_a-uedit2.o)
 *fill*         0x000c9751        0x3 
 .rodata        0x000c9754      0x30d ../ulib/libuserxe.a(libuserxe_a-uerr.o)
 *fill*         0x000c9a61        0x3 
 .rodata        0x000c9a64      0x8b9 ../ulib/libuserxe.a(libuserxe_a-ufemsg.o)
 *fill*         0x000ca31d        0x3 
 .rodata        0x000ca320      0x113 ../ulib/libuserxe.a(libuserxe_a-ufile.o)
 *fill*         0x000ca433        0x1 
 .rodata        0x000ca434      0x12b ../ulib/libuserxe.a(libuserxe_a-ufile1f.o)
 *fill*         0x000ca55f        0x1 
 .rodata        0x000ca560      0x6a3 ../ulib/libuserxe.a(libuserxe_a-ufile1l.o)
 *fill*         0x000cac03        0x1 
 .rodata        0x000cac04      0x10f ../ulib/libuserxe.a(libuserxe_a-ufile1l2.o)
 *fill*         0x000cad13        0x1 
 .rodata        0x000cad14      0x7e4 ../ulib/libuserxe.a(libuserxe_a-ufile2.o)
 .rodata        0x000cb4f8      0x357 ../ulib/libuserxe.a(libuserxe_a-ufile2f.o)
 *fill*         0x000cb84f        0x1 
 .rodata        0x000cb850       0xf6 ../ulib/libuserxe.a(libuserxe_a-ufile2l.o)
 *fill*         0x000cb946        0x2 
 .rodata        0x000cb948       0xfc ../ulib/libuserxe.a(libuserxe_a-ufile2l2.o)
 .rodata        0x000cba44      0x4da ../ulib/libuserxe.a(libuserxe_a-ufile3.o)
 *fill*         0x000cbf1e        0x2 
 .rodata        0x000cbf20      0x476 ../ulib/libuserxe.a(libuserxe_a-ufile3f.o)
 *fill*         0x000cc396        0x2 
 .rodata        0x000cc398      0x234 ../ulib/libuserxe.a(libuserxe_a-ufile4.o)
 .rodata        0x000cc5cc      0x1a6 ../ulib/libuserxe.a(libuserxe_a-ufile5.o)
 *fill*         0x000cc772        0x2 
 .rodata        0x000cc774      0x619 ../ulib/libuserxe.a(libuserxe_a-uftp.o)
 *fill*         0x000ccd8d        0x3 
 .rodata        0x000ccd90      0x45c ../ulib/libuserxe.a(libuserxe_a-uftp2.o)
 .rodata        0x000cd1ec      0x512 ../ulib/libuserxe.a(libuserxe_a-uftp3.o)
 *fill*         0x000cd6fe        0x2 
 .rodata        0x000cd700        0xb ../ulib/libuserxe.a(libuserxe_a-ugcclib.o)
 *fill*         0x000cd70b        0x1 
 .rodata        0x000cd70c       0xef ../ulib/libuserxe.a(libuserxe_a-ukbdl.o)
 *fill*         0x000cd7fb        0x1 
 .rodata        0x000cd7fc      0xf2a ../ulib/libuserxe.a(libuserxe_a-ukbdlnxc.o)
 *fill*         0x000ce726        0x2 
 .rodata        0x000ce728       0x2d ../ulib/libuserxe.a(libuserxe_a-uparse.o)
 *fill*         0x000ce755        0x3 
 .rodata        0x000ce758      0x4fd ../ulib/libuserxe.a(libuserxe_a-uproc.o)
 *fill*         0x000cec55        0x3 
 .rodata        0x000cec58      0x168 ../ulib/libuserxe.a(libuserxe_a-uproc2.o)
 .rodata        0x000cedc0      0x341 ../ulib/libuserxe.a(libuserxe_a-uproc4.o)
 *fill*         0x000cf101        0x3 
 .rodata        0x000cf104      0x384 ../ulib/libuserxe.a(libuserxe_a-uque.o)
 .rodata        0x000cf488       0x7e ../ulib/libuserxe.a(libuserxe_a-ustrcpy.o)
 *fill*         0x000cf506        0x2 
 .rodata        0x000cf508        0x4 ../ulib/libuserxe.a(libuserxe_a-ustring.o)
 .rodata        0x000cf50c      0x1cc ../ulib/libuserxe.a(libuserxe_a-utf2.o)
 .rodata        0x000cf6d8      0x325 ../ulib/libuserxe.a(libuserxe_a-utf22.o)
 *fill*         0x000cf9fd        0x3 
 .rodata        0x000cfa00      0x133 ../ulib/libuserxe.a(libuserxe_a-utf3.o)
 *fill*         0x000cfb33        0x1 
 .rodata        0x000cfb34     0x19d0 ../ulib/libuserxe.a(libuserxe_a-utf4.o)
 .rodata        0x000d1504      0x161 ../ulib/libuserxe.a(libuserxe_a-utrace.o)
 *fill*         0x000d1665        0x3 
 .rodata        0x000d1668       0x98 ../ulib/libuserxe.a(libuserxe_a-uunxsub.o)
 .rodata        0x000d1700        0x2 ../ulib/libuserxe.a(libuserxe_a-uviom.o)
 *fill*         0x000d1702        0x2 
 .rodata        0x000d1704       0x7a ../ulib/libuserxe.a(libuserxe_a-uviol.o)
 *fill*         0x000d177e        0x2 
 .rodata        0x000d1780      0x161 ../ulib/libuserxe.a(libuserxe_a-u3270.o)
 *fill*         0x000d18e1        0x3 
 .rodata        0x000d18e4      0x1ad ../ulib/libuserxe.a(libuserxe_a-u32702.o)
 *fill*         0x000d1a91        0x3 
 .rodata        0x000d1a94      0x395 ../ulib/libuserxe.a(libuserxe_a-u32703.o)
 *fill*         0x000d1e29        0x3 
 .rodata        0x000d1e2c       0x30 ../ulib/libuserxe.a(libuserxe_a-uabend.o)
 .rodata        0x000d1e5c      0x7c3 ../ulib/libuserxe.a(libuserxe_a-ucalc2.o)
 *fill*         0x000d261f        0x1 
 .rodata        0x000d2620      0x88e ../ulib/libuserxe.a(libuserxe_a-ucvebc.o)
 *fill*         0x000d2eae        0x2 
 .rodata        0x000d2eb0      0x221 ../ulib/libuserxe.a(libuserxe_a-ucvebc2.o)
 *fill*         0x000d30d1        0x3 
 .rodata        0x000d30d4      0x8e8 ../ulib/libuserxe.a(libuserxe_a-ucvext.o)
 .rodata        0x000d39bc       0xca ../ulib/libuserxe.a(libuserxe_a-ucvext12.o)
 *fill*         0x000d3a86        0x2 
 .rodata        0x000d3a88      0x172 ../ulib/libuserxe.a(libuserxe_a-ucvext2.o)
 *fill*         0x000d3bfa        0x2 
 .rodata        0x000d3bfc       0xa2 ../ulib/libuserxe.a(libuserxe_a-ucvucs.o)
 *fill*         0x000d3c9e        0x2 
 .rodata        0x000d3ca0       0x33 ../ulib/libuserxe.a(libuserxe_a-uehl.o)
 *fill*         0x000d3cd3        0x1 
 .rodata        0x000d3cd4       0x66 ../ulib/libuserxe.a(libuserxe_a-uproc22.o)
 *fill*         0x000d3d3a        0x2 
 .rodata        0x000d3d3c      0x410 ../ulib/libuserxe.a(libuserxe_a-uproc3.o)
 .rodata        0x000d414c      0x4ad ../ulib/libuserxe.a(libuserxe_a-ucalc.o)
 *fill*         0x000d45f9        0x3 
 .rodata        0x000d45fc       0x8f ../ulib/libuserxe.a(libuserxe_a-ucvebc3.o)
 *fill*         0x000d468b        0x1 
 .rodata        0x000d468c       0xac ../ulib/libuserxe.a(libuserxe_a-ucvebc4.o)

.rodata1
 *(.rodata1)

.ARM.extab      0x000d4738        0x0
 *(.ARM.extab* .gnu.linkonce.armextab.*)
 .ARM.extab     0x000d4738        0x0 /usr/lib/gcc/arm-linux-gnueabihf/8/../../../arm-linux-gnueabihf/crt1.o
 .ARM.extab     0x000d4738        0x0 /usr/lib/gcc/arm-linux-gnueabihf/8/libgcc.a(_udivmoddi4.o)
                [!provide]                PROVIDE (__exidx_start = .)

.ARM.exidx      0x000d4738        0x8
 *(.ARM.exidx* .gnu.linkonce.armexidx.*)
 .ARM.exidx     0x000d4738        0x8 /usr/lib/gcc/arm-linux-gnueabihf/8/../../../arm-linux-gnueabihf/crt1.o
 .ARM.exidx     0x000d4740        0x0 /usr/lib/gcc/arm-linux-gnueabihf/8/libgcc.a(_udivmoddi4.o)
                                  0x8 (size before relaxing)
                [!provide]                PROVIDE (__exidx_end = .)

.eh_frame_hdr
 *(.eh_frame_hdr)
 *(.eh_frame_entry .eh_frame_entry.*)

.eh_frame       0x000d4740        0x4
 *(.eh_frame)
 .eh_frame      0x000d4740        0x4 /usr/lib/gcc/arm-linux-gnueabihf/8/crtend.o
 *(.eh_frame.*)

.gcc_except_table
 *(.gcc_except_table .gcc_except_table.*)

.gnu_extab
 *(.gnu_extab*)

.exception_ranges
 *(.exception_ranges .exception_ranges*)
                0x000e4e08                . = DATA_SEGMENT_ALIGN (CONSTANT (MAXPAGESIZE), CONSTANT (COMMONPAGESIZE))

.eh_frame
 *(.eh_frame)
 *(.eh_frame.*)

.gnu_extab
 *(.gnu_extab)

.gcc_except_table
 *(.gcc_except_table .gcc_except_table.*)

.exception_ranges
 *(.exception_ranges .exception_ranges*)

.tdata          0x000e4e08        0x0
                [!provide]                PROVIDE (__tdata_start = .)
 *(.tdata .tdata.* .gnu.linkonce.td.*)

.tbss
 *(.tbss .tbss.* .gnu.linkonce.tb.*)
 *(.tcommon)

.preinit_array  0x000e4e08        0x0
                [!provide]                PROVIDE (__preinit_array_start = .)
 *(.preinit_array)
                [!provide]                PROVIDE (__preinit_array_end = .)

.init_array     0x000e4e08        0x4
                0x000e4e08                PROVIDE (__init_array_start = .)
 *(SORT_BY_INIT_PRIORITY(.init_array.*) SORT_BY_INIT_PRIORITY(.ctors.*))
 *(.init_array EXCLUDE_FILE(*crtend?.o *crtend.o *crtbegin?.o *crtbegin.o) .ctors)
 .init_array    0x000e4e08        0x4 /usr/lib/gcc/arm-linux-gnueabihf/8/crtbegin.o
                0x000e4e0c                PROVIDE (__init_array_end = .)

.fini_array     0x000e4e0c        0x4
                [!provide]                PROVIDE (__fini_array_start = .)
 *(SORT_BY_INIT_PRIORITY(.fini_array.*) SORT_BY_INIT_PRIORITY(.dtors.*))
 *(.fini_array EXCLUDE_FILE(*crtend?.o *crtend.o *crtbegin?.o *crtbegin.o) .dtors)
 .fini_array    0x000e4e0c        0x4 /usr/lib/gcc/arm-linux-gnueabihf/8/crtbegin.o
                [!provide]                PROVIDE (__fini_array_end = .)

.ctors
 *crtbegin.o(.ctors)
 *crtbegin?.o(.ctors)
 *(EXCLUDE_FILE(*crtend?.o *crtend.o) .ctors)
 *(SORT_BY_NAME(.ctors.*))
 *(.ctors)

.dtors
 *crtbegin.o(.dtors)
 *crtbegin?.o(.dtors)
 *(EXCLUDE_FILE(*crtend?.o *crtend.o) .dtors)
 *(SORT_BY_NAME(.dtors.*))
 *(.dtors)

.jcr
 *(.jcr)

.data.rel.ro    0x000e4e10        0x0
 *(.data.rel.ro.local* .gnu.linkonce.d.rel.ro.local.*)
 *(.data.rel.ro .data.rel.ro.* .gnu.linkonce.d.rel.ro.*)
 .data.rel.ro   0x000e4e10        0x0 /usr/lib/gcc/arm-linux-gnueabihf/8/../../../arm-linux-gnueabihf/crt1.o

.dynamic        0x000e4e10      0x1f0
 *(.dynamic)
 .dynamic       0x000e4e10      0x1f0 /usr/lib/gcc/arm-linux-gnueabihf/8/../../../arm-linux-gnueabihf/crt1.o
                0x000e4e10                _DYNAMIC
                0x000e5000                . = DATA_SEGMENT_RELRO_END (., 0x0)

.got            0x000e5000      0x2e0
 *(.got.plt)
 .got.plt       0x000e5000      0x2dc /usr/lib/gcc/arm-linux-gnueabihf/8/../../../arm-linux-gnueabihf/crt1.o
                0x000e5000                _GLOBAL_OFFSET_TABLE_
 *(.igot.plt)
 .igot.plt      0x000e52dc        0x0 /usr/lib/gcc/arm-linux-gnueabihf/8/../../../arm-linux-gnueabihf/crt1.o
 *(.got)
 .got           0x000e52dc        0x4 /usr/lib/gcc/arm-linux-gnueabihf/8/../../../arm-linux-gnueabihf/crt1.o
 *(.igot)

.data           0x000e52e0    0x27668
                [!provide]                PROVIDE (__data_start = .)
 *(.data .data.* .gnu.linkonce.d.*)
 .data          0x000e52e0        0x4 /usr/lib/gcc/arm-linux-gnueabihf/8/../../../arm-linux-gnueabihf/crt1.o
                0x000e52e0                __data_start
                0x000e52e0                data_start
 .data          0x000e52e4        0x0 /usr/lib/gcc/arm-linux-gnueabihf/8/../../../arm-linux-gnueabihf/crti.o
 .data          0x000e52e4        0x4 /usr/lib/gcc/arm-linux-gnueabihf/8/crtbegin.o
                0x000e52e4                __dso_handle
 .data          0x000e52e8       0x2c xfs.o
 .data          0x000e5314     0x1000 ../ulib/libuserxe.a(libuserxe_a-uallocl.o)
 .data          0x000e6314        0x8 ../ulib/libuserxe.a(libuserxe_a-udbcschk.o)
                0x000e6314                Gpdbcstbl
 .data          0x000e631c     0x1148 ../ulib/libuserxe.a(libuserxe_a-udbcsck2.o)
 .data          0x000e7464        0x0 ../ulib/libuserxe.a(libuserxe_a-udos2.o)
 .data          0x000e7464        0x0 ../ulib/libuserxe.a(libuserxe_a-uedit.o)
 .data          0x000e7464       0x78 ../ulib/libuserxe.a(libuserxe_a-uedit2.o)
 .data          0x000e74dc        0xd ../ulib/libuserxe.a(libuserxe_a-uerr.o)
 .data          0x000e74e9        0x0 ../ulib/libuserxe.a(libuserxe_a-ufemsg.o)
 *fill*         0x000e74e9        0x3 
 .data          0x000e74ec        0xc ../ulib/libuserxe.a(libuserxe_a-ufile.o)
 .data          0x000e74f8        0x0 ../ulib/libuserxe.a(libuserxe_a-ufile1f.o)
 .data          0x000e74f8        0x0 ../ulib/libuserxe.a(libuserxe_a-ufile1l.o)
 .data          0x000e74f8       0x2c ../ulib/libuserxe.a(libuserxe_a-ufile1l2.o)
 .data          0x000e7524        0x0 ../ulib/libuserxe.a(libuserxe_a-ufile2.o)
 .data          0x000e7524        0x0 ../ulib/libuserxe.a(libuserxe_a-ufile2f.o)
 .data          0x000e7524        0x0 ../ulib/libuserxe.a(libuserxe_a-ufile2l.o)
 .data          0x000e7524        0x0 ../ulib/libuserxe.a(libuserxe_a-ufile2l2.o)
 .data          0x000e7524        0x0 ../ulib/libuserxe.a(libuserxe_a-ufile3.o)
 .data          0x000e7524        0x0 ../ulib/libuserxe.a(libuserxe_a-ufile3f.o)
 .data          0x000e7524        0x0 ../ulib/libuserxe.a(libuserxe_a-ufile4.o)
 .data          0x000e7524        0x0 ../ulib/libuserxe.a(libuserxe_a-ufile5.o)
 .data          0x000e7524       0x10 ../ulib/libuserxe.a(libuserxe_a-uftp.o)
 .data          0x000e7534       0x50 ../ulib/libuserxe.a(libuserxe_a-uftp2.o)
 .data          0x000e7584        0x4 ../ulib/libuserxe.a(libuserxe_a-uftp3.o)
 .data          0x000e7588        0x0 ../ulib/libuserxe.a(libuserxe_a-ugcclib.o)
 .data          0x000e7588        0x0 ../ulib/libuserxe.a(libuserxe_a-ukbdl.o)
 .data          0x000e7588     0xb6bc ../ulib/libuserxe.a(libuserxe_a-ukbdlnxc.o)
 .data          0x000f2c44       0x10 ../ulib/libuserxe.a(libuserxe_a-ukbdlnxm.o)
 .data          0x000f2c54        0x0 ../ulib/libuserxe.a(libuserxe_a-umiscf.o)
 .data          0x000f2c54        0x0 ../ulib/libuserxe.a(libuserxe_a-uparse.o)
 .data          0x000f2c54       0x20 ../ulib/libuserxe.a(libuserxe_a-uproc.o)
 .data          0x000f2c74        0x0 ../ulib/libuserxe.a(libuserxe_a-uproc2.o)
 .data          0x000f2c74        0x0 ../ulib/libuserxe.a(libuserxe_a-uproc4.o)
 .data          0x000f2c74        0x0 ../ulib/libuserxe.a(libuserxe_a-uque.o)
 .data          0x000f2c74        0x0 ../ulib/libuserxe.a(libuserxe_a-ustrcpy.o)
 .data          0x000f2c74       0xfb ../ulib/libuserxe.a(libuserxe_a-ustring.o)
 .data          0x000f2d6f        0x0 ../ulib/libuserxe.a(libuserxe_a-utf.o)
 .data          0x000f2d6f        0x0 ../ulib/libuserxe.a(libuserxe_a-utf2.o)
 *fill*         0x000f2d6f        0x1 
 .data          0x000f2d70      0x164 ../ulib/libuserxe.a(libuserxe_a-utf22.o)
 .data          0x000f2ed4      0xe98 ../ulib/libuserxe.a(libuserxe_a-utf3.o)
 .data          0x000f3d6c        0x0 ../ulib/libuserxe.a(libuserxe_a-utf4.o)
 .data          0x000f3d6c     0x1928 ../ulib/libuserxe.a(libuserxe_a-utrace.o)
 .data          0x000f5694        0x0 ../ulib/libuserxe.a(libuserxe_a-uunxsub.o)
 .data          0x000f5694        0x4 ../ulib/libuserxe.a(libuserxe_a-uviom.o)
                0x000f5694                Guviomdbcspad
 .data          0x000f5698        0xc ../ulib/libuserxe.a(libuserxe_a-uviol.o)
 .data          0x000f56a4        0x4 ../ulib/libuserxe.a(libuserxe_a-u3270.o)
 .data          0x000f56a8        0x0 ../ulib/libuserxe.a(libuserxe_a-u32702.o)
 .data          0x000f56a8        0x0 ../ulib/libuserxe.a(libuserxe_a-u32703.o)
 .data          0x000f56a8        0x0 ../ulib/libuserxe.a(libuserxe_a-uabend.o)
 .data          0x000f56a8      0x24c ../ulib/libuserxe.a(libuserxe_a-ucalc2.o)
 .data          0x000f58f4      0x248 ../ulib/libuserxe.a(libuserxe_a-ucvebc.o)
 .data          0x000f5b3c        0x0 ../ulib/libuserxe.a(libuserxe_a-ucvebc2.o)
 .data          0x000f5b3c     0xed30 ../ulib/libuserxe.a(libuserxe_a-ucvebct.o)
 .data          0x0010486c      0x316 ../ulib/libuserxe.a(libuserxe_a-ucvext.o)
 .data          0x00104b82        0x6 ../ulib/libuserxe.a(libuserxe_a-ucvext12.o)
 .data          0x00104b88        0x0 ../ulib/libuserxe.a(libuserxe_a-ucvext2.o)
 .data          0x00104b88       0x28 ../ulib/libuserxe.a(libuserxe_a-ucvucs.o)
 .data          0x00104bb0     0x7cb0 ../ulib/libuserxe.a(libuserxe_a-ucvucst.o)
                0x00104bb0                Scp932tb
 .data          0x0010c860       0x38 ../ulib/libuserxe.a(libuserxe_a-uehl.o)
 .data          0x0010c898        0x0 ../ulib/libuserxe.a(libuserxe_a-uproc22.o)
 .data          0x0010c898       0x54 ../ulib/libuserxe.a(libuserxe_a-uproc3.o)
 .data          0x0010c8ec       0x54 ../ulib/libuserxe.a(libuserxe_a-ucalc.o)
 .data          0x0010c940        0x8 ../ulib/libuserxe.a(libuserxe_a-ucvebc3.o)
 .data          0x0010c948        0x0 ../ulib/libuserxe.a(libuserxe_a-ucvebc4.o)
 .data          0x0010c948        0x0 /usr/lib/gcc/arm-linux-gnueabihf/8/libgcc.a(_divsi3.o)
 .data          0x0010c948        0x0 /usr/lib/gcc/arm-linux-gnueabihf/8/libgcc.a(_aeabi_ldivmod.o)
 .data          0x0010c948        0x0 /usr/lib/gcc/arm-linux-gnueabihf/8/libgcc.a(_dvmd_lnx.o)
 .data          0x0010c948        0x0 /usr/lib/gcc/arm-linux-gnueabihf/8/libgcc.a(_udivmoddi4.o)
 .data          0x0010c948        0x0 //usr/lib/arm-linux-gnueabihf/libc_nonshared.a(elf-init.oS)
 .data          0x0010c948        0x0 //usr/lib/arm-linux-gnueabihf/libc_nonshared.a(stat64.oS)
 .data          0x0010c948        0x0 //usr/lib/arm-linux-gnueabihf/libc_nonshared.a(lstat64.oS)
 .data          0x0010c948        0x0 /usr/lib/gcc/arm-linux-gnueabihf/8/crtend.o
 .data          0x0010c948        0x0 /usr/lib/gcc/arm-linux-gnueabihf/8/../../../arm-linux-gnueabihf/crtn.o

.tm_clone_table
                0x0010c948        0x0
 .tm_clone_table
                0x0010c948        0x0 /usr/lib/gcc/arm-linux-gnueabihf/8/crtbegin.o
 .tm_clone_table
                0x0010c948        0x0 /usr/lib/gcc/arm-linux-gnueabihf/8/crtend.o

.data1
 *(.data1)
                0x0010c948                _edata = .
                [!provide]                PROVIDE (edata = .)
                0x0010c948                . = .
                0x0010c948                __bss_start = .
                0x0010c948                __bss_start__ = .

.bss            0x0010c948   0x1b61e4
 *(.dynbss)
 .dynbss        0x0010c948      0x230 /usr/lib/gcc/arm-linux-gnueabihf/8/../../../arm-linux-gnueabihf/crt1.o
                0x0010c948                COLORS@@NCURSESW6_5.1.20000708
                0x0010c94c                LINES@@NCURSES6_TINFO_5.0.19991023
                0x0010c950                acs_map@@NCURSES6_TINFO_5.0.19991023
                0x0010cb50                stdscr@@NCURSES6_TINFO_5.0.19991023
                0x0010cb54                cur_term@@NCURSES6_TINFO_5.0.19991023
                0x0010cb58                COLS@@NCURSES6_TINFO_5.0.19991023
                0x0010cb5c                stdout@@GLIBC_2.4
                0x0010cb60                COLOR_PAIRS@@NCURSESW6_5.1.20000708
                0x0010cb68                stdin@@GLIBC_2.4
                0x0010cb70                stderr@@GLIBC_2.4
                0x0010cb74                newscr@@NCURSES6_TINFO_5.0.19991023
 *(.bss .bss.* .gnu.linkonce.b.*)
 .bss           0x0010cb78        0x0 /usr/lib/gcc/arm-linux-gnueabihf/8/../../../arm-linux-gnueabihf/crt1.o
 .bss           0x0010cb78        0x0 /usr/lib/gcc/arm-linux-gnueabihf/8/../../../arm-linux-gnueabihf/crti.o
 .bss           0x0010cb78        0x1 /usr/lib/gcc/arm-linux-gnueabihf/8/crtbegin.o
 *fill*         0x0010cb79        0x7 
 .bss           0x0010cb80    0x71830 xfs.o
 .bss           0x0017e3b0       0x84 ../ulib/libuserxe.a(libuserxe_a-uallocl.o)
 .bss           0x0017e434      0x2f9 ../ulib/libuserxe.a(libuserxe_a-udbcschk.o)
 .bss           0x0017e72d        0x0 ../ulib/libuserxe.a(libuserxe_a-udbcsck2.o)
 .bss           0x0017e72d        0x0 ../ulib/libuserxe.a(libuserxe_a-udos2.o)
 *fill*         0x0017e72d        0x3 
 .bss           0x0017e730       0xd8 ../ulib/libuserxe.a(libuserxe_a-uedit.o)
 .bss           0x0017e808      0x268 ../ulib/libuserxe.a(libuserxe_a-uedit2.o)
 .bss           0x0017ea70     0x40e4 ../ulib/libuserxe.a(libuserxe_a-uerr.o)
 .bss           0x00182b54       0x20 ../ulib/libuserxe.a(libuserxe_a-ufemsg.o)
 .bss           0x00182b74       0x18 ../ulib/libuserxe.a(libuserxe_a-ufile.o)
 .bss           0x00182b8c        0x4 ../ulib/libuserxe.a(libuserxe_a-ufile1f.o)
 .bss           0x00182b90    0x64658 ../ulib/libuserxe.a(libuserxe_a-ufile1l.o)
 .bss           0x001e71e8        0x4 ../ulib/libuserxe.a(libuserxe_a-ufile1l2.o)
 *fill*         0x001e71ec        0x4 
 .bss           0x001e71f0       0x34 ../ulib/libuserxe.a(libuserxe_a-ufile2.o)
 .bss           0x001e7224       0x20 ../ulib/libuserxe.a(libuserxe_a-ufile2f.o)
 .bss           0x001e7244        0x4 ../ulib/libuserxe.a(libuserxe_a-ufile2l.o)
 .bss           0x001e7248        0x0 ../ulib/libuserxe.a(libuserxe_a-ufile2l2.o)
 .bss           0x001e7248        0x8 ../ulib/libuserxe.a(libuserxe_a-ufile3.o)
 .bss           0x001e7250     0x100d ../ulib/libuserxe.a(libuserxe_a-ufile3f.o)
 *fill*         0x001e825d        0x3 
 .bss           0x001e8260     0x1034 ../ulib/libuserxe.a(libuserxe_a-ufile4.o)
 *fill*         0x001e9294        0x4 
 .bss           0x001e9298       0x5d ../ulib/libuserxe.a(libuserxe_a-ufile5.o)
 *fill*         0x001e92f5        0x3 
 .bss           0x001e92f8    0x64d00 ../ulib/libuserxe.a(libuserxe_a-uftp.o)
 .bss           0x0024dff8        0x8 ../ulib/libuserxe.a(libuserxe_a-uftp2.o)
 .bss           0x0024e000        0x0 ../ulib/libuserxe.a(libuserxe_a-uftp3.o)
 .bss           0x0024e000        0x4 ../ulib/libuserxe.a(libuserxe_a-ugcclib.o)
 .bss           0x0024e004       0xf4 ../ulib/libuserxe.a(libuserxe_a-ukbdl.o)
                0x0024e004                Swcstat
 .bss           0x0024e0f8     0x5808 ../ulib/libuserxe.a(libuserxe_a-ukbdlnxc.o)
 .bss           0x00253900        0x8 ../ulib/libuserxe.a(libuserxe_a-ukbdlnxm.o)
 .bss           0x00253908        0x0 ../ulib/libuserxe.a(libuserxe_a-umiscf.o)
 .bss           0x00253908      0x205 ../ulib/libuserxe.a(libuserxe_a-uparse.o)
 *fill*         0x00253b0d        0x3 
 .bss           0x00253b10       0x1c ../ulib/libuserxe.a(libuserxe_a-uproc.o)
                0x00253b10                Sserverstat
                0x00253b14                Scmdservercallback
                0x00253b18                Scallbackparm
                0x00253b1c                Scmdserverchildpid
 .bss           0x00253b2c        0x4 ../ulib/libuserxe.a(libuserxe_a-uproc2.o)
 .bss           0x00253b30       0x1c ../ulib/libuserxe.a(libuserxe_a-uproc4.o)
 .bss           0x00253b4c        0x0 ../ulib/libuserxe.a(libuserxe_a-uque.o)
 .bss           0x00253b4c        0x0 ../ulib/libuserxe.a(libuserxe_a-ustrcpy.o)
 .bss           0x00253b4c        0x0 ../ulib/libuserxe.a(libuserxe_a-ustring.o)
 .bss           0x00253b4c        0x0 ../ulib/libuserxe.a(libuserxe_a-utf.o)
 .bss           0x00253b4c       0x98 ../ulib/libuserxe.a(libuserxe_a-utf2.o)
 .bss           0x00253be4       0x14 ../ulib/libuserxe.a(libuserxe_a-utf22.o)
 .bss           0x00253bf8        0x8 ../ulib/libuserxe.a(libuserxe_a-utf3.o)
 .bss           0x00253c00        0x4 ../ulib/libuserxe.a(libuserxe_a-utf4.o)
 .bss           0x00253c04     0x1170 ../ulib/libuserxe.a(libuserxe_a-utrace.o)
 .bss           0x00254d74       0x20 ../ulib/libuserxe.a(libuserxe_a-uunxsub.o)
 .bss           0x00254d94       0x58 ../ulib/libuserxe.a(libuserxe_a-uviom.o)
 .bss           0x00254dec      0x508 ../ulib/libuserxe.a(libuserxe_a-uviol.o)
 .bss           0x002552f4        0xc ../ulib/libuserxe.a(libuserxe_a-u3270.o)
 .bss           0x00255300       0x10 ../ulib/libuserxe.a(libuserxe_a-u32702.o)
 .bss           0x00255310     0x1208 ../ulib/libuserxe.a(libuserxe_a-u32703.o)
 .bss           0x00256518        0x0 ../ulib/libuserxe.a(libuserxe_a-uabend.o)
 .bss           0x00256518        0x0 ../ulib/libuserxe.a(libuserxe_a-ucalc2.o)
 .bss           0x00256518      0x790 ../ulib/libuserxe.a(libuserxe_a-ucvebc.o)
 .bss           0x00256ca8       0x10 ../ulib/libuserxe.a(libuserxe_a-ucvebc2.o)
 .bss           0x00256cb8        0x0 ../ulib/libuserxe.a(libuserxe_a-ucvebct.o)
 .bss           0x00256cb8     0x1cd4 ../ulib/libuserxe.a(libuserxe_a-ucvext.o)
 .bss           0x0025898c       0x24 ../ulib/libuserxe.a(libuserxe_a-ucvext12.o)
 .bss           0x002589b0        0xc ../ulib/libuserxe.a(libuserxe_a-ucvext2.o)
 .bss           0x002589bc        0xc ../ulib/libuserxe.a(libuserxe_a-ucvucs.o)
 .bss           0x002589c8        0x0 ../ulib/libuserxe.a(libuserxe_a-ucvucst.o)
 .bss           0x002589c8       0x64 ../ulib/libuserxe.a(libuserxe_a-uehl.o)
 .bss           0x00258a2c       0x18 ../ulib/libuserxe.a(libuserxe_a-uproc22.o)
 .bss           0x00258a44       0x10 ../ulib/libuserxe.a(libuserxe_a-uproc3.o)
 .bss           0x00258a54      0x114 ../ulib/libuserxe.a(libuserxe_a-ucalc.o)
 .bss           0x00258b68       0x34 ../ulib/libuserxe.a(libuserxe_a-ucvebc3.o)
 .bss           0x00258b9c        0x4 ../ulib/libuserxe.a(libuserxe_a-ucvebc4.o)
 .bss           0x00258ba0        0x0 /usr/lib/gcc/arm-linux-gnueabihf/8/libgcc.a(_divsi3.o)
 .bss           0x00258ba0        0x0 /usr/lib/gcc/arm-linux-gnueabihf/8/libgcc.a(_aeabi_ldivmod.o)
 .bss           0x00258ba0        0x0 /usr/lib/gcc/arm-linux-gnueabihf/8/libgcc.a(_dvmd_lnx.o)
 .bss           0x00258ba0        0x0 /usr/lib/gcc/arm-linux-gnueabihf/8/libgcc.a(_udivmoddi4.o)
 .bss           0x00258ba0        0x0 //usr/lib/arm-linux-gnueabihf/libc_nonshared.a(elf-init.oS)
 .bss           0x00258ba0        0x0 //usr/lib/arm-linux-gnueabihf/libc_nonshared.a(stat64.oS)
 .bss           0x00258ba0        0x0 //usr/lib/arm-linux-gnueabihf/libc_nonshared.a(lstat64.oS)
 .bss           0x00258ba0        0x0 /usr/lib/gcc/arm-linux-gnueabihf/8/crtend.o
 .bss           0x00258ba0        0x0 /usr/lib/gcc/arm-linux-gnueabihf/8/../../../arm-linux-gnueabihf/crtn.o
 *(COMMON)
 COMMON         0x00258ba0        0x8 ../ulib/libuserxe.a(libuserxe_a-uallocl.o)
                0x00258ba0                Gualloc_amount
                0x00258ba4                Gualloc16_amount
 COMMON         0x00258ba8        0xc ../ulib/libuserxe.a(libuserxe_a-udbcschk.o)
                0x00258ba8                Gudbcschk_flag
                0x00258bac                Gudbcschk_width0top
                0x00258bb0                Sdbcschk_hkopt
 COMMON         0x00258bb4        0x5 ../ulib/libuserxe.a(libuserxe_a-uerr.o)
                0x00258bb4                Guerropt2
                0x00258bb8                Guerropt
 *fill*         0x00258bb9        0x3 
 COMMON         0x00258bbc        0x8 ../ulib/libuserxe.a(libuserxe_a-ufile.o)
                0x00258bbc                Gufile_opt
                0x00258bc0                Gufile_nomsg
 COMMON         0x00258bc4       0x88 ../ulib/libuserxe.a(libuserxe_a-uftp2.o)
                0x00258bc4                Gftperr
                0x00258bc8                Gftpopt
                0x00258bcc                Gftpclient
 COMMON         0x00258c4c        0x8 ../ulib/libuserxe.a(libuserxe_a-ukbdl.o)
                0x00258c4c                Sphiconv
                0x00258c50                Gukbdl_flag
 COMMON         0x00258c54        0x8 ../ulib/libuserxe.a(libuserxe_a-uproc.o)
                0x00258c54                Sfdpiper
                0x00258c58                Sfdpipew
 COMMON         0x00258c5c        0xc ../ulib/libuserxe.a(libuserxe_a-utf.o)
                0x00258c5c                Gulibutfmode
                0x00258c60                Gutfrc
                0x00258c64                Gutfcombaltch
 COMMON         0x00258c68    0x60000 ../ulib/libuserxe.a(libuserxe_a-utf22.o)
                0x00258c68                Gucs2ddmap_i2u
                0x00278c68                Gucs2ddmap
 COMMON         0x002b8c68      0x104 ../ulib/libuserxe.a(libuserxe_a-utrace.o)
                0x002b8c68                Gtracehdr
                0x002b8d68                Slockhandle
 COMMON         0x002b8d6c       0x24 ../ulib/libuserxe.a(libuserxe_a-uviom.o)
                0x002b8d6c                Guviombuffu
                0x002b8d70                Guviomopt
                0x002b8d74                Guviomoptstr
                0x002b8d78                Guviomopt2
                0x002b8d7c                Gw95buffopt
                0x002b8d80                Guviomoptstrucs
 COMMON         0x002b8d90        0x4 ../ulib/libuserxe.a(libuserxe_a-uviol.o)
                0x002b8d90                Guviol_flag
 COMMON         0x002b8d94     0x9c48 ../ulib/libuserxe.a(libuserxe_a-ucvebc.o)
                0x002b8d94                Gucvebchctr
                0x002b8d98                Gucvebch
                0x002c29d8                Gucvebc_stat
 COMMON         0x002c29dc       0x10 ../ulib/libuserxe.a(libuserxe_a-ucvebc2.o)
                0x002c29dc                Snewoldctr
                0x002c29e0                Se2stctr
                0x002c29e4                Sduptctr
                0x002c29e8                Ss2etctr
 COMMON         0x002c29ec      0x140 ../ulib/libuserxe.a(libuserxe_a-ucalc.o)
                0x002c29ec                Gucalc_result
                0x002c2b2c                . = ALIGN ((. != 0x0)?0x4:0x1)
                0x002c2b2c                _bss_end__ = .
                0x002c2b2c                __bss_end__ = .
                0x002c2b2c                . = ALIGN (0x4)
                0x002c2b2c                . = SEGMENT_START ("ldata-segment", .)
                0x002c2b2c                . = ALIGN (0x4)
                0x002c2b2c                __end__ = .
                0x002c2b2c                _end = .
                [!provide]                PROVIDE (end = .)
                0x002c2b2c                . = DATA_SEGMENT_END (.)

.stab
 *(.stab)

.stabstr
 *(.stabstr)

.stab.excl
 *(.stab.excl)

.stab.exclstr
 *(.stab.exclstr)

.stab.index
 *(.stab.index)

.stab.indexstr
 *(.stab.indexstr)

.comment        0x00000000       0x23
 *(.comment)
 .comment       0x00000000       0x23 /usr/lib/gcc/arm-linux-gnueabihf/8/crtbegin.o
                                 0x24 (size before relaxing)
 .comment       0x00000023       0x24 xfs.o
 .comment       0x00000023       0x24 ../ulib/libuserxe.a(libuserxe_a-uallocl.o)
 .comment       0x00000023       0x24 ../ulib/libuserxe.a(libuserxe_a-udbcschk.o)
 .comment       0x00000023       0x24 ../ulib/libuserxe.a(libuserxe_a-udbcsck2.o)
 .comment       0x00000023       0x24 ../ulib/libuserxe.a(libuserxe_a-udos2.o)
 .comment       0x00000023       0x24 ../ulib/libuserxe.a(libuserxe_a-uedit.o)
 .comment       0x00000023       0x24 ../ulib/libuserxe.a(libuserxe_a-uedit2.o)
 .comment       0x00000023       0x24 ../ulib/libuserxe.a(libuserxe_a-uerr.o)
 .comment       0x00000023       0x24 ../ulib/libuserxe.a(libuserxe_a-ufemsg.o)
 .comment       0x00000023       0x24 ../ulib/libuserxe.a(libuserxe_a-ufile.o)
 .comment       0x00000023       0x24 ../ulib/libuserxe.a(libuserxe_a-ufile1f.o)
 .comment       0x00000023       0x24 ../ulib/libuserxe.a(libuserxe_a-ufile1l.o)
 .comment       0x00000023       0x24 ../ulib/libuserxe.a(libuserxe_a-ufile1l2.o)
 .comment       0x00000023       0x24 ../ulib/libuserxe.a(libuserxe_a-ufile2.o)
 .comment       0x00000023       0x24 ../ulib/libuserxe.a(libuserxe_a-ufile2f.o)
 .comment       0x00000023       0x24 ../ulib/libuserxe.a(libuserxe_a-ufile2l.o)
 .comment       0x00000023       0x24 ../ulib/libuserxe.a(libuserxe_a-ufile2l2.o)
 .comment       0x00000023       0x24 ../ulib/libuserxe.a(libuserxe_a-ufile3.o)
 .comment       0x00000023       0x24 ../ulib/libuserxe.a(libuserxe_a-ufile3f.o)
 .comment       0x00000023       0x24 ../ulib/libuserxe.a(libuserxe_a-ufile4.o)
 .comment       0x00000023       0x24 ../ulib/libuserxe.a(libuserxe_a-ufile5.o)
 .comment       0x00000023       0x24 ../ulib/libuserxe.a(libuserxe_a-uftp.o)
 .comment       0x00000023       0x24 ../ulib/libuserxe.a(libuserxe_a-uftp2.o)
 .comment       0x00000023       0x24 ../ulib/libuserxe.a(libuserxe_a-uftp3.o)
 .comment       0x00000023       0x24 ../ulib/libuserxe.a(libuserxe_a-ugcclib.o)
 .comment       0x00000023       0x24 ../ulib/libuserxe.a(libuserxe_a-ukbdl.o)
 .comment       0x00000023       0x24 ../ulib/libuserxe.a(libuserxe_a-ukbdlnxc.o)
 .comment       0x00000023       0x24 ../ulib/libuserxe.a(libuserxe_a-ukbdlnxm.o)
 .comment       0x00000023       0x24 ../ulib/libuserxe.a(libuserxe_a-umiscf.o)
 .comment       0x00000023       0x24 ../ulib/libuserxe.a(libuserxe_a-uparse.o)
 .comment       0x00000023       0x24 ../ulib/libuserxe.a(libuserxe_a-uproc.o)
 .comment       0x00000023       0x24 ../ulib/libuserxe.a(libuserxe_a-uproc2.o)
 .comment       0x00000023       0x24 ../ulib/libuserxe.a(libuserxe_a-uproc4.o)
 .comment       0x00000023       0x24 ../ulib/libuserxe.a(libuserxe_a-uque.o)
 .comment       0x00000023       0x24 ../ulib/libuserxe.a(libuserxe_a-ustrcpy.o)
 .comment       0x00000023       0x24 ../ulib/libuserxe.a(libuserxe_a-ustring.o)
 .comment       0x00000023       0x24 ../ulib/libuserxe.a(libuserxe_a-utf.o)
 .comment       0x00000023       0x24 ../ulib/libuserxe.a(libuserxe_a-utf2.o)
 .comment       0x00000023       0x24 ../ulib/libuserxe.a(libuserxe_a-utf22.o)
 .comment       0x00000023       0x24 ../ulib/libuserxe.a(libuserxe_a-utf3.o)
 .comment       0x00000023       0x24 ../ulib/libuserxe.a(libuserxe_a-utf4.o)
 .comment       0x00000023       0x24 ../ulib/libuserxe.a(libuserxe_a-utrace.o)
 .comment       0x00000023       0x24 ../ulib/libuserxe.a(libuserxe_a-uunxsub.o)
 .comment       0x00000023       0x24 ../ulib/libuserxe.a(libuserxe_a-uviom.o)
 .comment       0x00000023       0x24 ../ulib/libuserxe.a(libuserxe_a-uviol.o)
 .comment       0x00000023       0x24 ../ulib/libuserxe.a(libuserxe_a-u3270.o)
 .comment       0x00000023       0x24 ../ulib/libuserxe.a(libuserxe_a-u32702.o)
 .comment       0x00000023       0x24 ../ulib/libuserxe.a(libuserxe_a-u32703.o)
 .comment       0x00000023       0x24 ../ulib/libuserxe.a(libuserxe_a-uabend.o)
 .comment       0x00000023       0x24 ../ulib/libuserxe.a(libuserxe_a-ucalc2.o)
 .comment       0x00000023       0x24 ../ulib/libuserxe.a(libuserxe_a-ucvebc.o)
 .comment       0x00000023       0x24 ../ulib/libuserxe.a(libuserxe_a-ucvebc2.o)
 .comment       0x00000023       0x24 ../ulib/libuserxe.a(libuserxe_a-ucvebct.o)
 .comment       0x00000023       0x24 ../ulib/libuserxe.a(libuserxe_a-ucvext.o)
 .comment       0x00000023       0x24 ../ulib/libuserxe.a(libuserxe_a-ucvext12.o)
 .comment       0x00000023       0x24 ../ulib/libuserxe.a(libuserxe_a-ucvext2.o)
 .comment       0x00000023       0x24 ../ulib/libuserxe.a(libuserxe_a-ucvucs.o)
 .comment       0x00000023       0x24 ../ulib/libuserxe.a(libuserxe_a-ucvucst.o)
 .comment       0x00000023       0x24 ../ulib/libuserxe.a(libuserxe_a-uehl.o)
 .comment       0x00000023       0x24 ../ulib/libuserxe.a(libuserxe_a-uproc22.o)
 .comment       0x00000023       0x24 ../ulib/libuserxe.a(libuserxe_a-uproc3.o)
 .comment       0x00000023       0x24 ../ulib/libuserxe.a(libuserxe_a-ucalc.o)
 .comment       0x00000023       0x24 ../ulib/libuserxe.a(libuserxe_a-ucvebc3.o)
 .comment       0x00000023       0x24 ../ulib/libuserxe.a(libuserxe_a-ucvebc4.o)
 .comment       0x00000023       0x24 /usr/lib/gcc/arm-linux-gnueabihf/8/crtend.o

.ARM.attributes
                0x00000000       0x2f
 .ARM.attributes
                0x00000000       0x2f /usr/lib/gcc/arm-linux-gnueabihf/8/../../../arm-linux-gnueabihf/crt1.o
 .ARM.attributes
                0x0000002f       0x23 /usr/lib/gcc/arm-linux-gnueabihf/8/../../../arm-linux-gnueabihf/crti.o
 .ARM.attributes
                0x00000052       0x2f /usr/lib/gcc/arm-linux-gnueabihf/8/crtbegin.o
 .ARM.attributes
                0x00000081       0x2f xfs.o
 .ARM.attributes
                0x000000b0       0x2f ../ulib/libuserxe.a(libuserxe_a-uallocl.o)
 .ARM.attributes
                0x000000df       0x2f ../ulib/libuserxe.a(libuserxe_a-udbcschk.o)
 .ARM.attributes
                0x0000010e       0x2f ../ulib/libuserxe.a(libuserxe_a-udbcsck2.o)
 .ARM.attributes
                0x0000013d       0x2f ../ulib/libuserxe.a(libuserxe_a-udos2.o)
 .ARM.attributes
                0x0000016c       0x2f ../ulib/libuserxe.a(libuserxe_a-uedit.o)
 .ARM.attributes
                0x0000019b       0x2f ../ulib/libuserxe.a(libuserxe_a-uedit2.o)
 .ARM.attributes
                0x000001ca       0x2f ../ulib/libuserxe.a(libuserxe_a-uerr.o)
 .ARM.attributes
                0x000001f9       0x2f ../ulib/libuserxe.a(libuserxe_a-ufemsg.o)
 .ARM.attributes
                0x00000228       0x2f ../ulib/libuserxe.a(libuserxe_a-ufile.o)
 .ARM.attributes
                0x00000257       0x2f ../ulib/libuserxe.a(libuserxe_a-ufile1f.o)
 .ARM.attributes
                0x00000286       0x2f ../ulib/libuserxe.a(libuserxe_a-ufile1l.o)
 .ARM.attributes
                0x000002b5       0x2f ../ulib/libuserxe.a(libuserxe_a-ufile1l2.o)
 .ARM.attributes
                0x000002e4       0x2f ../ulib/libuserxe.a(libuserxe_a-ufile2.o)
 .ARM.attributes
                0x00000313       0x2f ../ulib/libuserxe.a(libuserxe_a-ufile2f.o)
 .ARM.attributes
                0x00000342       0x2f ../ulib/libuserxe.a(libuserxe_a-ufile2l.o)
 .ARM.attributes
                0x00000371       0x2f ../ulib/libuserxe.a(libuserxe_a-ufile2l2.o)
 .ARM.attributes
                0x000003a0       0x2f ../ulib/libuserxe.a(libuserxe_a-ufile3.o)
 .ARM.attributes
                0x000003cf       0x2f ../ulib/libuserxe.a(libuserxe_a-ufile3f.o)
 .ARM.attributes
                0x000003fe       0x2f ../ulib/libuserxe.a(libuserxe_a-ufile4.o)
 .ARM.attributes
                0x0000042d       0x2f ../ulib/libuserxe.a(libuserxe_a-ufile5.o)
 .ARM.attributes
                0x0000045c       0x2f ../ulib/libuserxe.a(libuserxe_a-uftp.o)
 .ARM.attributes
                0x0000048b       0x2f ../ulib/libuserxe.a(libuserxe_a-uftp2.o)
 .ARM.attributes
                0x000004ba       0x2f ../ulib/libuserxe.a(libuserxe_a-uftp3.o)
 .ARM.attributes
                0x000004e9       0x2f ../ulib/libuserxe.a(libuserxe_a-ugcclib.o)
 .ARM.attributes
                0x00000518       0x2f ../ulib/libuserxe.a(libuserxe_a-ukbdl.o)
 .ARM.attributes
                0x00000547       0x2f ../ulib/libuserxe.a(libuserxe_a-ukbdlnxc.o)
 .ARM.attributes
                0x00000576       0x2f ../ulib/libuserxe.a(libuserxe_a-ukbdlnxm.o)
 .ARM.attributes
                0x000005a5       0x2f ../ulib/libuserxe.a(libuserxe_a-umiscf.o)
 .ARM.attributes
                0x000005d4       0x2f ../ulib/libuserxe.a(libuserxe_a-uparse.o)
 .ARM.attributes
                0x00000603       0x2f ../ulib/libuserxe.a(libuserxe_a-uproc.o)
 .ARM.attributes
                0x00000632       0x2f ../ulib/libuserxe.a(libuserxe_a-uproc2.o)
 .ARM.attributes
                0x00000661       0x2f ../ulib/libuserxe.a(libuserxe_a-uproc4.o)
 .ARM.attributes
                0x00000690       0x2f ../ulib/libuserxe.a(libuserxe_a-uque.o)
 .ARM.attributes
                0x000006bf       0x2f ../ulib/libuserxe.a(libuserxe_a-ustrcpy.o)
 .ARM.attributes
                0x000006ee       0x2f ../ulib/libuserxe.a(libuserxe_a-ustring.o)
 .ARM.attributes
                0x0000071d       0x2f ../ulib/libuserxe.a(libuserxe_a-utf.o)
 .ARM.attributes
                0x0000074c       0x2f ../ulib/libuserxe.a(libuserxe_a-utf2.o)
 .ARM.attributes
                0x0000077b       0x2f ../ulib/libuserxe.a(libuserxe_a-utf22.o)
 .ARM.attributes
                0x000007aa       0x2f ../ulib/libuserxe.a(libuserxe_a-utf3.o)
 .ARM.attributes
                0x000007d9       0x2f ../ulib/libuserxe.a(libuserxe_a-utf4.o)
 .ARM.attributes
                0x00000808       0x2f ../ulib/libuserxe.a(libuserxe_a-utrace.o)
 .ARM.attributes
                0x00000837       0x2f ../ulib/libuserxe.a(libuserxe_a-uunxsub.o)
 .ARM.attributes
                0x00000866       0x2f ../ulib/libuserxe.a(libuserxe_a-uviom.o)
 .ARM.attributes
                0x00000895       0x2f ../ulib/libuserxe.a(libuserxe_a-uviol.o)
 .ARM.attributes
                0x000008c4       0x2f ../ulib/libuserxe.a(libuserxe_a-u3270.o)
 .ARM.attributes
                0x000008f3       0x2f ../ulib/libuserxe.a(libuserxe_a-u32702.o)
 .ARM.attributes
                0x00000922       0x2f ../ulib/libuserxe.a(libuserxe_a-u32703.o)
 .ARM.attributes
                0x00000951       0x2f ../ulib/libuserxe.a(libuserxe_a-uabend.o)
 .ARM.attributes
                0x00000980       0x2f ../ulib/libuserxe.a(libuserxe_a-ucalc2.o)
 .ARM.attributes
                0x000009af       0x2f ../ulib/libuserxe.a(libuserxe_a-ucvebc.o)
 .ARM.attributes
                0x000009de       0x2f ../ulib/libuserxe.a(libuserxe_a-ucvebc2.o)
 .ARM.attributes
                0x00000a0d       0x2f ../ulib/libuserxe.a(libuserxe_a-ucvebct.o)
 .ARM.attributes
                0x00000a3c       0x2f ../ulib/libuserxe.a(libuserxe_a-ucvext.o)
 .ARM.attributes
                0x00000a6b       0x2f ../ulib/libuserxe.a(libuserxe_a-ucvext12.o)
 .ARM.attributes
                0x00000a9a       0x2f ../ulib/libuserxe.a(libuserxe_a-ucvext2.o)
 .ARM.attributes
                0x00000ac9       0x2f ../ulib/libuserxe.a(libuserxe_a-ucvucs.o)
 .ARM.attributes
                0x00000af8       0x2f ../ulib/libuserxe.a(libuserxe_a-ucvucst.o)
 .ARM.attributes
                0x00000b27       0x2f ../ulib/libuserxe.a(libuserxe_a-uehl.o)
 .ARM.attributes
                0x00000b56       0x2f ../ulib/libuserxe.a(libuserxe_a-uproc22.o)
 .ARM.attributes
                0x00000b85       0x2f ../ulib/libuserxe.a(libuserxe_a-uproc3.o)
 .ARM.attributes
                0x00000bb4       0x2f ../ulib/libuserxe.a(libuserxe_a-ucalc.o)
 .ARM.attributes
                0x00000be3       0x2f ../ulib/libuserxe.a(libuserxe_a-ucvebc3.o)
 .ARM.attributes
                0x00000c12       0x2f ../ulib/libuserxe.a(libuserxe_a-ucvebc4.o)
 .ARM.attributes
                0x00000c41       0x1d /usr/lib/gcc/arm-linux-gnueabihf/8/libgcc.a(_divsi3.o)
 .ARM.attributes
                0x00000c5e       0x1d /usr/lib/gcc/arm-linux-gnueabihf/8/libgcc.a(_aeabi_ldivmod.o)
 .ARM.attributes
                0x00000c7b       0x1d /usr/lib/gcc/arm-linux-gnueabihf/8/libgcc.a(_dvmd_lnx.o)
 .ARM.attributes
                0x00000c98       0x2f /usr/lib/gcc/arm-linux-gnueabihf/8/libgcc.a(_udivmoddi4.o)
 .ARM.attributes
                0x00000cc7       0x31 //usr/lib/arm-linux-gnueabihf/libc_nonshared.a(elf-init.oS)
 .ARM.attributes
                0x00000cf8       0x31 //usr/lib/arm-linux-gnueabihf/libc_nonshared.a(stat64.oS)
 .ARM.attributes
                0x00000d29       0x31 //usr/lib/arm-linux-gnueabihf/libc_nonshared.a(lstat64.oS)
 .ARM.attributes
                0x00000d5a       0x2f /usr/lib/gcc/arm-linux-gnueabihf/8/crtend.o
 .ARM.attributes
                0x00000d89       0x23 /usr/lib/gcc/arm-linux-gnueabihf/8/../../../arm-linux-gnueabihf/crtn.o

.debug
 *(.debug)

.line
 *(.line)

.debug_srcinfo
 *(.debug_srcinfo)

.debug_sfnames
 *(.debug_sfnames)

.debug_aranges
 *(.debug_aranges)

.debug_pubnames
 *(.debug_pubnames)

.debug_info
 *(.debug_info .gnu.linkonce.wi.*)

.debug_abbrev
 *(.debug_abbrev)

.debug_line
 *(.debug_line .debug_line.* .debug_line_end)

.debug_frame
 *(.debug_frame)

.debug_str
 *(.debug_str)

.debug_loc
 *(.debug_loc)

.debug_macinfo
 *(.debug_macinfo)

.debug_weaknames
 *(.debug_weaknames)

.debug_funcnames
 *(.debug_funcnames)

.debug_typenames
 *(.debug_typenames)

.debug_varnames
 *(.debug_varnames)

.debug_pubtypes
 *(.debug_pubtypes)

.debug_ranges
 *(.debug_ranges)

.debug_macro
 *(.debug_macro)

.debug_addr
 *(.debug_addr)

.gnu.attributes
 *(.gnu.attributes)

.note.gnu.arm.ident
 *(.note.gnu.arm.ident)

/DISCARD/
 *(.note.GNU-stack)
 *(.gnu_debuglink)
 *(.gnu.lto_*)
OUTPUT(xfs elf32-littlearm)
