Archive member included to satisfy reference by file (symbol)

../ulib/libuserxe.a(libuserxe_a-uallocl.o)
                              xmj.o (umalloc)
../ulib/libuserxe.a(libuserxe_a-uedit.o)
                              xmj.o (ugetnumrange3)
../ulib/libuserxe.a(libuserxe_a-uerr.o)
                              xmj.o (Guerropt)
../ulib/libuserxe.a(libuserxe_a-ufemsg.o)
                              ../ulib/libuserxe.a(libuserxe_a-uallocl.o) (ufileapierr)
../ulib/libuserxe.a(libuserxe_a-ufile.o)
                              ../ulib/libuserxe.a(libuserxe_a-ufemsg.o) (Gufile_opt)
../ulib/libuserxe.a(libuserxe_a-ufile1f.o)
                              ../ulib/libuserxe.a(libuserxe_a-ufile.o) (uftpdirlistsub)
../ulib/libuserxe.a(libuserxe_a-ufile1l.o)
                              xmj.o (ufstat)
../ulib/libuserxe.a(libuserxe_a-ufile1l2.o)
                              ../ulib/libuserxe.a(libuserxe_a-ufile1l.o) (ufstat_mdos)
../ulib/libuserxe.a(libuserxe_a-ufile2.o)
                              ../ulib/libuserxe.a(libuserxe_a-uerr.o) (uremove)
../ulib/libuserxe.a(libuserxe_a-ufile2f.o)
                              ../ulib/libuserxe.a(libuserxe_a-ufile2.o) (uftpremove)
../ulib/libuserxe.a(libuserxe_a-ufile2l.o)
                              ../ulib/libuserxe.a(libuserxe_a-ufile2.o) (urmdir)
../ulib/libuserxe.a(libuserxe_a-ufile2l2.o)
                              ../ulib/libuserxe.a(libuserxe_a-ufile2l.o) (umkdir_mdos)
../ulib/libuserxe.a(libuserxe_a-ufile3.o)
                              ../ulib/libuserxe.a(libuserxe_a-ufile2l2.o) (udoscopy)
../ulib/libuserxe.a(libuserxe_a-ufile3f.o)
                              ../ulib/libuserxe.a(libuserxe_a-ufile3.o) (uftpxmove)
../ulib/libuserxe.a(libuserxe_a-ufile4.o)
                              ../ulib/libuserxe.a(libuserxe_a-ufile2l2.o) (utempnam)
../ulib/libuserxe.a(libuserxe_a-ufile5.o)
                              ../ulib/libuserxe.a(libuserxe_a-ufile2.o) (udoseditname)
../ulib/libuserxe.a(libuserxe_a-uftp.o)
                              ../ulib/libuserxe.a(libuserxe_a-ufile1f.o) (uftpfstatudl)
../ulib/libuserxe.a(libuserxe_a-uftp2.o)
                              ../ulib/libuserxe.a(libuserxe_a-uftp.o) (Gftpopt)
../ulib/libuserxe.a(libuserxe_a-uftp3.o)
                              ../ulib/libuserxe.a(libuserxe_a-uftp.o) (uftp3setssh)
../ulib/libuserxe.a(libuserxe_a-ugcclib.o)
                              ../ulib/libuserxe.a(libuserxe_a-uedit.o) (memicmp)
../ulib/libuserxe.a(libuserxe_a-ukbdl.o)
                              ../ulib/libuserxe.a(libuserxe_a-ugcclib.o) (ukbdl_getch_init)
../ulib/libuserxe.a(libuserxe_a-ukbdlnxc.o)
                              ../ulib/libuserxe.a(libuserxe_a-ukbdl.o) (ukbdlnxc_init)
../ulib/libuserxe.a(libuserxe_a-ukbdlnxm.o)
                              ../ulib/libuserxe.a(libuserxe_a-ukbdlnxc.o) (ukbdlnxm_mouseinit)
../ulib/libuserxe.a(libuserxe_a-uparse.o)
                              ../ulib/libuserxe.a(libuserxe_a-uftp.o) (uparsev)
../ulib/libuserxe.a(libuserxe_a-uproc.o)
                              ../ulib/libuserxe.a(libuserxe_a-ukbdl.o) (uproc_getpsinfo)
../ulib/libuserxe.a(libuserxe_a-uproc2.o)
                              ../ulib/libuserxe.a(libuserxe_a-ufile2f.o) (uproc_rsh)
../ulib/libuserxe.a(libuserxe_a-uproc4.o)
                              ../ulib/libuserxe.a(libuserxe_a-ukbdlnxc.o) (uproc_select)
../ulib/libuserxe.a(libuserxe_a-uque.o)
                              ../ulib/libuserxe.a(libuserxe_a-uftp.o) (uenq)
../ulib/libuserxe.a(libuserxe_a-ustrcpy.o)
                              xmj.o (ustring_memcpy)
../ulib/libuserxe.a(libuserxe_a-ustring.o)
                              ../ulib/libuserxe.a(libuserxe_a-ufile.o) (ustrnlen)
../ulib/libuserxe.a(libuserxe_a-utf.o)
                              ../ulib/libuserxe.a(libuserxe_a-ufile1l.o) (Gulibutfmode)
../ulib/libuserxe.a(libuserxe_a-utf2.o)
                              ../ulib/libuserxe.a(libuserxe_a-ufile1l.o) (utfcvl2fany)
../ulib/libuserxe.a(libuserxe_a-utf22.o)
                              ../ulib/libuserxe.a(libuserxe_a-utf2.o) (utfgetwcw)
../ulib/libuserxe.a(libuserxe_a-utf3.o)
                              ../ulib/libuserxe.a(libuserxe_a-utf2.o) (utfmb2wc)
../ulib/libuserxe.a(libuserxe_a-utf4.o)
                              ../ulib/libuserxe.a(libuserxe_a-utf3.o) (mk_wcwidth)
../ulib/libuserxe.a(libuserxe_a-utrace.o)
                              ../ulib/libuserxe.a(libuserxe_a-uftp2.o) (Gtracehdr)
../ulib/libuserxe.a(libuserxe_a-uunxsub.o)
                              ../ulib/libuserxe.a(libuserxe_a-ufile2l.o) (ugetugid)
../ulib/libuserxe.a(libuserxe_a-uviol.o)
                              ../ulib/libuserxe.a(libuserxe_a-uerr.o) (Guviol_flag)
../ulib/libuserxe.a(libuserxe_a-u3270.o)
                              ../ulib/libuserxe.a(libuserxe_a-ufile1f.o) (u3270fstat)
../ulib/libuserxe.a(libuserxe_a-u32702.o)
                              ../ulib/libuserxe.a(libuserxe_a-ufile2f.o) (u3270mkdir)
../ulib/libuserxe.a(libuserxe_a-u32703.o)
                              ../ulib/libuserxe.a(libuserxe_a-ufile3.o) (u3270xmove)
../ulib/libuserxe.a(libuserxe_a-uabend.o)
                              ../ulib/libuserxe.a(libuserxe_a-ukbdl.o) (uabend)
../ulib/libuserxe.a(libuserxe_a-ucalc2.o)
                              ../ulib/libuserxe.a(libuserxe_a-uftp2.o) (ucalc_ld2dw)
../ulib/libuserxe.a(libuserxe_a-ucvebc.o)
                              ../ulib/libuserxe.a(libuserxe_a-uerr.o) (Gucvebc_stat)
../ulib/libuserxe.a(libuserxe_a-ucvebc2.o)
                              ../ulib/libuserxe.a(libuserxe_a-ucvebc.o) (ucvebc2_stre2s)
../ulib/libuserxe.a(libuserxe_a-ucvebct.o)
                              ../ulib/libuserxe.a(libuserxe_a-ucvebc2.o) (ucvebc2gettbl)
../ulib/libuserxe.a(libuserxe_a-ucvext.o)
                              ../ulib/libuserxe.a(libuserxe_a-utf2.o) (ucvext_icuclose)
../ulib/libuserxe.a(libuserxe_a-ucvext12.o)
                              ../ulib/libuserxe.a(libuserxe_a-ucvext.o) (ucvext12_init)
../ulib/libuserxe.a(libuserxe_a-ucvext2.o)
                              ../ulib/libuserxe.a(libuserxe_a-ucvext.o) (ucvext_iconvmapinit)
../ulib/libuserxe.a(libuserxe_a-ucvucs.o)
                              ../ulib/libuserxe.a(libuserxe_a-utf2.o) (uccvucs2utf)
../ulib/libuserxe.a(libuserxe_a-ucvucst.o)
                              ../ulib/libuserxe.a(libuserxe_a-ucvucs.o) (ugetcp932tbl)
../ulib/libuserxe.a(libuserxe_a-udbcschk.o)
                              ../ulib/libuserxe.a(libuserxe_a-uerr.o) (Gudbcschk_flag)
../ulib/libuserxe.a(libuserxe_a-udbcsck2.o)
                              ../ulib/libuserxe.a(libuserxe_a-uerr.o) (ushift2euc)
../ulib/libuserxe.a(libuserxe_a-udos2.o)
                              ../ulib/libuserxe.a(libuserxe_a-ufile1l2.o) (udos_setenv)
../ulib/libuserxe.a(libuserxe_a-uedit2.o)
                              ../ulib/libuserxe.a(libuserxe_a-ufemsg.o) (ueditfattr)
../ulib/libuserxe.a(libuserxe_a-uehl.o)
                              ../ulib/libuserxe.a(libuserxe_a-ukbdlnxc.o) (uehl_setsh)
../ulib/libuserxe.a(libuserxe_a-uproc22.o)
                              ../ulib/libuserxe.a(libuserxe_a-utrace.o) (ucriticalsection)
../ulib/libuserxe.a(libuserxe_a-uproc3.o)
                              ../ulib/libuserxe.a(libuserxe_a-uproc4.o) (usleepms)
../ulib/libuserxe.a(libuserxe_a-uviom.o)
                              ../ulib/libuserxe.a(libuserxe_a-uviol.o) (Guviomopt)
../ulib/libuserxe.a(libuserxe_a-ucalc.o)
                              ../ulib/libuserxe.a(libuserxe_a-ucalc2.o) (ucalc_binop)
../ulib/libuserxe.a(libuserxe_a-ucvebc3.o)
                              ../ulib/libuserxe.a(libuserxe_a-ucvext2.o) (ucvebc3_b2dd)
../ulib/libuserxe.a(libuserxe_a-ucvebc4.o)
                              ../ulib/libuserxe.a(libuserxe_a-ucvext.o) (ucvebc4_init)
/usr/lib/gcc/arm-linux-gnueabihf/8/libgcc.a(_divsi3.o)
                              ../ulib/libuserxe.a(libuserxe_a-ufile1l2.o) (__aeabi_idiv)
/usr/lib/gcc/arm-linux-gnueabihf/8/libgcc.a(_aeabi_ldivmod.o)
                              ../ulib/libuserxe.a(libuserxe_a-u32703.o) (__aeabi_ldivmod)
/usr/lib/gcc/arm-linux-gnueabihf/8/libgcc.a(_dvmd_lnx.o)
                              /usr/lib/gcc/arm-linux-gnueabihf/8/libgcc.a(_aeabi_ldivmod.o) (__aeabi_ldiv0)
/usr/lib/gcc/arm-linux-gnueabihf/8/libgcc.a(_udivmoddi4.o)
                              /usr/lib/gcc/arm-linux-gnueabihf/8/libgcc.a(_aeabi_ldivmod.o) (__udivmoddi4)
//usr/lib/arm-linux-gnueabihf/libc_nonshared.a(elf-init.oS)
                              /usr/lib/gcc/arm-linux-gnueabihf/8/../../../arm-linux-gnueabihf/crt1.o (__libc_csu_init)
//usr/lib/arm-linux-gnueabihf/libc_nonshared.a(stat64.oS)
                              ../ulib/libuserxe.a(libuserxe_a-ufile1l.o) (stat64)
//usr/lib/arm-linux-gnueabihf/libc_nonshared.a(lstat64.oS)
                              ../ulib/libuserxe.a(libuserxe_a-ufile1l.o) (lstat64)

Allocating common symbols
Common symbol       size              file

Gucs2ddmap_i2u      0x20000           ../ulib/libuserxe.a(libuserxe_a-utf22.o)
Guviombuffu         0x4               ../ulib/libuserxe.a(libuserxe_a-uviom.o)
Gufile_opt          0x4               ../ulib/libuserxe.a(libuserxe_a-ufile.o)
Sphiconv            0x4               ../ulib/libuserxe.a(libuserxe_a-ukbdl.o)
Snewoldctr          0x4               ../ulib/libuserxe.a(libuserxe_a-ucvebc2.o)
Gftperr             0x4               ../ulib/libuserxe.a(libuserxe_a-uftp2.o)
Gulibutfmode        0x4               ../ulib/libuserxe.a(libuserxe_a-utf.o)
Se2stctr            0x4               ../ulib/libuserxe.a(libuserxe_a-ucvebc2.o)
Gtracehdr           0x100             ../ulib/libuserxe.a(libuserxe_a-utrace.o)
Sfdpiper            0x4               ../ulib/libuserxe.a(libuserxe_a-uproc.o)
Gutfrc              0x4               ../ulib/libuserxe.a(libuserxe_a-utf.o)
Gualloc_amount      0x4               ../ulib/libuserxe.a(libuserxe_a-uallocl.o)
Guviomopt           0x4               ../ulib/libuserxe.a(libuserxe_a-uviom.o)
Slockhandle         0x4               ../ulib/libuserxe.a(libuserxe_a-utrace.o)
Gucvebchctr         0x4               ../ulib/libuserxe.a(libuserxe_a-ucvebc.o)
Gudbcschk_flag      0x4               ../ulib/libuserxe.a(libuserxe_a-udbcschk.o)
Guerropt2           0x4               ../ulib/libuserxe.a(libuserxe_a-uerr.o)
Sduptctr            0x4               ../ulib/libuserxe.a(libuserxe_a-ucvebc2.o)
Gukbdl_flag         0x4               ../ulib/libuserxe.a(libuserxe_a-ukbdl.o)
Ss2etctr            0x4               ../ulib/libuserxe.a(libuserxe_a-ucvebc2.o)
Gucvebch            0x9c40            ../ulib/libuserxe.a(libuserxe_a-ucvebc.o)
Gucalc_result       0x140             ../ulib/libuserxe.a(libuserxe_a-ucalc.o)
Guviol_flag         0x4               ../ulib/libuserxe.a(libuserxe_a-uviol.o)
Guviomoptstr        0x4               ../ulib/libuserxe.a(libuserxe_a-uviom.o)
Gftpopt             0x4               ../ulib/libuserxe.a(libuserxe_a-uftp2.o)
Gufile_nomsg        0x4               ../ulib/libuserxe.a(libuserxe_a-ufile.o)
Gualloc16_amount    0x4               ../ulib/libuserxe.a(libuserxe_a-uallocl.o)
Gudbcschk_width0top
                    0x4               ../ulib/libuserxe.a(libuserxe_a-udbcschk.o)
Gucvebc_stat        0x4               ../ulib/libuserxe.a(libuserxe_a-ucvebc.o)
Gftpclient          0x80              ../ulib/libuserxe.a(libuserxe_a-uftp2.o)
Guviomopt2          0x4               ../ulib/libuserxe.a(libuserxe_a-uviom.o)
Sdbcschk_hkopt      0x4               ../ulib/libuserxe.a(libuserxe_a-udbcschk.o)
Gutfcombaltch       0x4               ../ulib/libuserxe.a(libuserxe_a-utf.o)
Gucs2ddmap          0x40000           ../ulib/libuserxe.a(libuserxe_a-utf22.o)
Gw95buffopt         0x4               ../ulib/libuserxe.a(libuserxe_a-uviom.o)
Guerropt            0x1               ../ulib/libuserxe.a(libuserxe_a-uerr.o)
Guviomoptstrucs     0x10              ../ulib/libuserxe.a(libuserxe_a-uviom.o)
Sfdpipew            0x4               ../ulib/libuserxe.a(libuserxe_a-uproc.o)

Discarded input sections

 .note.GNU-stack
                0x00000000        0x0 /usr/lib/gcc/arm-linux-gnueabihf/8/../../../arm-linux-gnueabihf/crt1.o
 .note.GNU-stack
                0x00000000        0x0 /usr/lib/gcc/arm-linux-gnueabihf/8/../../../arm-linux-gnueabihf/crti.o
 .note.GNU-stack
                0x00000000        0x0 /usr/lib/gcc/arm-linux-gnueabihf/8/crtbegin.o
 .note.GNU-stack
                0x00000000        0x0 xmj.o
 .note.GNU-stack
                0x00000000        0x0 ../ulib/libuserxe.a(libuserxe_a-uallocl.o)
 .note.GNU-stack
                0x00000000        0x0 ../ulib/libuserxe.a(libuserxe_a-uedit.o)
 .note.GNU-stack
                0x00000000        0x0 ../ulib/libuserxe.a(libuserxe_a-uerr.o)
 .note.GNU-stack
                0x00000000        0x0 ../ulib/libuserxe.a(libuserxe_a-ufemsg.o)
 .note.GNU-stack
                0x00000000        0x0 ../ulib/libuserxe.a(libuserxe_a-ufile.o)
 .note.GNU-stack
                0x00000000        0x0 ../ulib/libuserxe.a(libuserxe_a-ufile1f.o)
 .note.GNU-stack
                0x00000000        0x0 ../ulib/libuserxe.a(libuserxe_a-ufile1l.o)
 .note.GNU-stack
                0x00000000        0x0 ../ulib/libuserxe.a(libuserxe_a-ufile1l2.o)
 .note.GNU-stack
                0x00000000        0x0 ../ulib/libuserxe.a(libuserxe_a-ufile2.o)
 .note.GNU-stack
                0x00000000        0x0 ../ulib/libuserxe.a(libuserxe_a-ufile2f.o)
 .note.GNU-stack
                0x00000000        0x0 ../ulib/libuserxe.a(libuserxe_a-ufile2l.o)
 .note.GNU-stack
                0x00000000        0x0 ../ulib/libuserxe.a(libuserxe_a-ufile2l2.o)
 .note.GNU-stack
                0x00000000        0x0 ../ulib/libuserxe.a(libuserxe_a-ufile3.o)
 .note.GNU-stack
                0x00000000        0x0 ../ulib/libuserxe.a(libuserxe_a-ufile3f.o)
 .note.GNU-stack
                0x00000000        0x0 ../ulib/libuserxe.a(libuserxe_a-ufile4.o)
 .note.GNU-stack
                0x00000000        0x0 ../ulib/libuserxe.a(libuserxe_a-ufile5.o)
 .note.GNU-stack
                0x00000000        0x0 ../ulib/libuserxe.a(libuserxe_a-uftp.o)
 .note.GNU-stack
                0x00000000        0x0 ../ulib/libuserxe.a(libuserxe_a-uftp2.o)
 .note.GNU-stack
                0x00000000        0x0 ../ulib/libuserxe.a(libuserxe_a-uftp3.o)
 .note.GNU-stack
                0x00000000        0x0 ../ulib/libuserxe.a(libuserxe_a-ugcclib.o)
 .note.GNU-stack
                0x00000000        0x0 ../ulib/libuserxe.a(libuserxe_a-ukbdl.o)
 .note.GNU-stack
                0x00000000        0x0 ../ulib/libuserxe.a(libuserxe_a-ukbdlnxc.o)
 .note.GNU-stack
                0x00000000        0x0 ../ulib/libuserxe.a(libuserxe_a-ukbdlnxm.o)
 .note.GNU-stack
                0x00000000        0x0 ../ulib/libuserxe.a(libuserxe_a-uparse.o)
 .note.GNU-stack
                0x00000000        0x0 ../ulib/libuserxe.a(libuserxe_a-uproc.o)
 .note.GNU-stack
                0x00000000        0x0 ../ulib/libuserxe.a(libuserxe_a-uproc2.o)
 .note.GNU-stack
                0x00000000        0x0 ../ulib/libuserxe.a(libuserxe_a-uproc4.o)
 .note.GNU-stack
                0x00000000        0x0 ../ulib/libuserxe.a(libuserxe_a-uque.o)
 .note.GNU-stack
                0x00000000        0x0 ../ulib/libuserxe.a(libuserxe_a-ustrcpy.o)
 .note.GNU-stack
                0x00000000        0x0 ../ulib/libuserxe.a(libuserxe_a-ustring.o)
 .note.GNU-stack
                0x00000000        0x0 ../ulib/libuserxe.a(libuserxe_a-utf.o)
 .note.GNU-stack
                0x00000000        0x0 ../ulib/libuserxe.a(libuserxe_a-utf2.o)
 .note.GNU-stack
                0x00000000        0x0 ../ulib/libuserxe.a(libuserxe_a-utf22.o)
 .note.GNU-stack
                0x00000000        0x0 ../ulib/libuserxe.a(libuserxe_a-utf3.o)
 .note.GNU-stack
                0x00000000        0x0 ../ulib/libuserxe.a(libuserxe_a-utf4.o)
 .note.GNU-stack
                0x00000000        0x0 ../ulib/libuserxe.a(libuserxe_a-utrace.o)
 .note.GNU-stack
                0x00000000        0x0 ../ulib/libuserxe.a(libuserxe_a-uunxsub.o)
 .note.GNU-stack
                0x00000000        0x0 ../ulib/libuserxe.a(libuserxe_a-uviol.o)
 .note.GNU-stack
                0x00000000        0x0 ../ulib/libuserxe.a(libuserxe_a-u3270.o)
 .note.GNU-stack
                0x00000000        0x0 ../ulib/libuserxe.a(libuserxe_a-u32702.o)
 .note.GNU-stack
                0x00000000        0x0 ../ulib/libuserxe.a(libuserxe_a-u32703.o)
 .note.GNU-stack
                0x00000000        0x0 ../ulib/libuserxe.a(libuserxe_a-uabend.o)
 .note.GNU-stack
                0x00000000        0x0 ../ulib/libuserxe.a(libuserxe_a-ucalc2.o)
 .note.GNU-stack
                0x00000000        0x0 ../ulib/libuserxe.a(libuserxe_a-ucvebc.o)
 .note.GNU-stack
                0x00000000        0x0 ../ulib/libuserxe.a(libuserxe_a-ucvebc2.o)
 .note.GNU-stack
                0x00000000        0x0 ../ulib/libuserxe.a(libuserxe_a-ucvebct.o)
 .note.GNU-stack
                0x00000000        0x0 ../ulib/libuserxe.a(libuserxe_a-ucvext.o)
 .note.GNU-stack
                0x00000000        0x0 ../ulib/libuserxe.a(libuserxe_a-ucvext12.o)
 .note.GNU-stack
                0x00000000        0x0 ../ulib/libuserxe.a(libuserxe_a-ucvext2.o)
 .note.GNU-stack
                0x00000000        0x0 ../ulib/libuserxe.a(libuserxe_a-ucvucs.o)
 .note.GNU-stack
                0x00000000        0x0 ../ulib/libuserxe.a(libuserxe_a-ucvucst.o)
 .note.GNU-stack
                0x00000000        0x0 ../ulib/libuserxe.a(libuserxe_a-udbcschk.o)
 .note.GNU-stack
                0x00000000        0x0 ../ulib/libuserxe.a(libuserxe_a-udbcsck2.o)
 .note.GNU-stack
                0x00000000        0x0 ../ulib/libuserxe.a(libuserxe_a-udos2.o)
 .note.GNU-stack
                0x00000000        0x0 ../ulib/libuserxe.a(libuserxe_a-uedit2.o)
 .note.GNU-stack
                0x00000000        0x0 ../ulib/libuserxe.a(libuserxe_a-uehl.o)
 .note.GNU-stack
                0x00000000        0x0 ../ulib/libuserxe.a(libuserxe_a-uproc22.o)
 .note.GNU-stack
                0x00000000        0x0 ../ulib/libuserxe.a(libuserxe_a-uproc3.o)
 .note.GNU-stack
                0x00000000        0x0 ../ulib/libuserxe.a(libuserxe_a-uviom.o)
 .note.GNU-stack
                0x00000000        0x0 ../ulib/libuserxe.a(libuserxe_a-ucalc.o)
 .note.GNU-stack
                0x00000000        0x0 ../ulib/libuserxe.a(libuserxe_a-ucvebc3.o)
 .note.GNU-stack
                0x00000000        0x0 ../ulib/libuserxe.a(libuserxe_a-ucvebc4.o)
 .note.GNU-stack
                0x00000000        0x0 /usr/lib/gcc/arm-linux-gnueabihf/8/libgcc.a(_divsi3.o)
 .note.GNU-stack
                0x00000000        0x0 /usr/lib/gcc/arm-linux-gnueabihf/8/libgcc.a(_aeabi_ldivmod.o)
 .note.GNU-stack
                0x00000000        0x0 /usr/lib/gcc/arm-linux-gnueabihf/8/libgcc.a(_dvmd_lnx.o)
 .note.GNU-stack
                0x00000000        0x0 /usr/lib/gcc/arm-linux-gnueabihf/8/libgcc.a(_udivmoddi4.o)
 .note.GNU-stack
                0x00000000        0x0 //usr/lib/arm-linux-gnueabihf/libc_nonshared.a(elf-init.oS)
 .note.GNU-stack
                0x00000000        0x0 //usr/lib/arm-linux-gnueabihf/libc_nonshared.a(stat64.oS)
 .note.GNU-stack
                0x00000000        0x0 //usr/lib/arm-linux-gnueabihf/libc_nonshared.a(lstat64.oS)
 .note.GNU-stack
                0x00000000        0x0 /usr/lib/gcc/arm-linux-gnueabihf/8/crtend.o
 .note.GNU-stack
                0x00000000        0x0 /usr/lib/gcc/arm-linux-gnueabihf/8/../../../arm-linux-gnueabihf/crtn.o

Memory Configuration

Name             Origin             Length             Attributes
*default*        0x00000000         0xffffffff

Linker script and memory map

LOAD /usr/lib/gcc/arm-linux-gnueabihf/8/../../../arm-linux-gnueabihf/crt1.o
LOAD /usr/lib/gcc/arm-linux-gnueabihf/8/../../../arm-linux-gnueabihf/crti.o
LOAD /usr/lib/gcc/arm-linux-gnueabihf/8/crtbegin.o
LOAD xmj.o
LOAD ../ulib/libuserxe.a
LOAD /usr/lib/gcc/arm-linux-gnueabihf/8/../../../arm-linux-gnueabihf/libgnomeui-2.so
LOAD /usr/lib/gcc/arm-linux-gnueabihf/8/../../../arm-linux-gnueabihf/libSM.so
LOAD /usr/lib/gcc/arm-linux-gnueabihf/8/../../../arm-linux-gnueabihf/libICE.so
LOAD /usr/lib/gcc/arm-linux-gnueabihf/8/../../../arm-linux-gnueabihf/libbonoboui-2.so
LOAD /usr/lib/gcc/arm-linux-gnueabihf/8/../../../arm-linux-gnueabihf/libgnome-2.so
LOAD /usr/lib/gcc/arm-linux-gnueabihf/8/../../../arm-linux-gnueabihf/libpopt.so
LOAD /usr/lib/gcc/arm-linux-gnueabihf/8/../../../arm-linux-gnueabihf/libbonobo-2.so
LOAD /usr/lib/gcc/arm-linux-gnueabihf/8/../../../arm-linux-gnueabihf/libbonobo-activation.so
LOAD /usr/lib/gcc/arm-linux-gnueabihf/8/../../../arm-linux-gnueabihf/libORBit-2.so
LOAD /usr/lib/gcc/arm-linux-gnueabihf/8/../../../arm-linux-gnueabihf/libgnomecanvas-2.so
LOAD /usr/lib/gcc/arm-linux-gnueabihf/8/../../../arm-linux-gnueabihf/libart_lgpl_2.so
LOAD /usr/lib/gcc/arm-linux-gnueabihf/8/../../../arm-linux-gnueabihf/libgnomevfs-2.so
LOAD /usr/lib/gcc/arm-linux-gnueabihf/8/../../../arm-linux-gnueabihf/libgconf-2.so
LOAD /usr/lib/gcc/arm-linux-gnueabihf/8/../../../arm-linux-gnueabihf/libgthread-2.0.so
LOAD /usr/lib/gcc/arm-linux-gnueabihf/8/../../../arm-linux-gnueabihf/libgmodule-2.0.so
LOAD /usr/lib/gcc/arm-linux-gnueabihf/8/../../../arm-linux-gnueabihf/libgtk-x11-2.0.so
LOAD /usr/lib/gcc/arm-linux-gnueabihf/8/../../../arm-linux-gnueabihf/libgdk-x11-2.0.so
LOAD /usr/lib/gcc/arm-linux-gnueabihf/8/../../../arm-linux-gnueabihf/libpangocairo-1.0.so
LOAD /usr/lib/gcc/arm-linux-gnueabihf/8/../../../arm-linux-gnueabihf/libatk-1.0.so
LOAD /usr/lib/gcc/arm-linux-gnueabihf/8/../../../arm-linux-gnueabihf/libcairo.so
LOAD /usr/lib/gcc/arm-linux-gnueabihf/8/../../../arm-linux-gnueabihf/libgdk_pixbuf-2.0.so
LOAD /usr/lib/gcc/arm-linux-gnueabihf/8/../../../arm-linux-gnueabihf/libgio-2.0.so
LOAD /usr/lib/gcc/arm-linux-gnueabihf/8/../../../arm-linux-gnueabihf/libpangoft2-1.0.so
LOAD /usr/lib/gcc/arm-linux-gnueabihf/8/../../../arm-linux-gnueabihf/libpango-1.0.so
LOAD /usr/lib/gcc/arm-linux-gnueabihf/8/../../../arm-linux-gnueabihf/libgobject-2.0.so
LOAD /usr/lib/gcc/arm-linux-gnueabihf/8/../../../arm-linux-gnueabihf/libglib-2.0.so
LOAD /usr/lib/gcc/arm-linux-gnueabihf/8/../../../arm-linux-gnueabihf/libfontconfig.so
LOAD /usr/lib/gcc/arm-linux-gnueabihf/8/../../../arm-linux-gnueabihf/libfreetype.so
LOAD /usr/lib/gcc/arm-linux-gnueabihf/8/../../../arm-linux-gnueabihf/libdl.so
LOAD /usr/lib/gcc/arm-linux-gnueabihf/8/../../../arm-linux-gnueabihf/libncursesw.so
LOAD /lib/arm-linux-gnueabihf/libncursesw.so.6
LOAD /usr/lib/gcc/arm-linux-gnueabihf/8/../../../arm-linux-gnueabihf/libtinfo.so
LOAD /usr/lib/gcc/arm-linux-gnueabihf/8/../../../arm-linux-gnueabihf/libcups.so
LOAD /usr/lib/gcc/arm-linux-gnueabihf/8/libgcc.a
LOAD /usr/lib/gcc/arm-linux-gnueabihf/8/libgcc_s.so
START GROUP
LOAD /usr/lib/gcc/arm-linux-gnueabihf/8/libgcc_s.so.1
LOAD /usr/lib/gcc/arm-linux-gnueabihf/8/libgcc.a
END GROUP
LOAD /usr/lib/gcc/arm-linux-gnueabihf/8/../../../arm-linux-gnueabihf/libpthread.so
LOAD /usr/lib/gcc/arm-linux-gnueabihf/8/../../../arm-linux-gnueabihf/libc.so
START GROUP
LOAD //lib/arm-linux-gnueabihf/libc.so.6
LOAD //usr/lib/arm-linux-gnueabihf/libc_nonshared.a
LOAD //lib/arm-linux-gnueabihf/ld-linux-armhf.so.3
END GROUP
LOAD /usr/lib/gcc/arm-linux-gnueabihf/8/libgcc.a
LOAD /usr/lib/gcc/arm-linux-gnueabihf/8/libgcc_s.so
START GROUP
LOAD /usr/lib/gcc/arm-linux-gnueabihf/8/libgcc_s.so.1
LOAD /usr/lib/gcc/arm-linux-gnueabihf/8/libgcc.a
END GROUP
LOAD /usr/lib/gcc/arm-linux-gnueabihf/8/crtend.o
LOAD /usr/lib/gcc/arm-linux-gnueabihf/8/../../../arm-linux-gnueabihf/crtn.o
                [!provide]                PROVIDE (__executable_start = SEGMENT_START ("text-segment", 0x10000))
                0x00010154                . = (SEGMENT_START ("text-segment", 0x10000) + SIZEOF_HEADERS)

.interp         0x00010154       0x19
 *(.interp)
 .interp        0x00010154       0x19 /usr/lib/gcc/arm-linux-gnueabihf/8/../../../arm-linux-gnueabihf/crt1.o

.note.ABI-tag   0x00010170       0x20
 .note.ABI-tag  0x00010170       0x20 /usr/lib/gcc/arm-linux-gnueabihf/8/../../../arm-linux-gnueabihf/crt1.o

.note.gnu.build-id
                0x00010190       0x24
 *(.note.gnu.build-id)
 .note.gnu.build-id
                0x00010190       0x24 linker stubs

.hash
 *(.hash)

.gnu.hash       0x000101b4      0x738
 *(.gnu.hash)
 .gnu.hash      0x000101b4      0x738 /usr/lib/gcc/arm-linux-gnueabihf/8/../../../arm-linux-gnueabihf/crt1.o

.dynsym         0x000108ec      0xc90
 *(.dynsym)
 .dynsym        0x000108ec      0xc90 /usr/lib/gcc/arm-linux-gnueabihf/8/../../../arm-linux-gnueabihf/crt1.o

.dynstr         0x0001157c      0x9b5
 *(.dynstr)
 .dynstr        0x0001157c      0x9b5 /usr/lib/gcc/arm-linux-gnueabihf/8/../../../arm-linux-gnueabihf/crt1.o

.gnu.version    0x00011f32      0x192
 *(.gnu.version)
 .gnu.version   0x00011f32      0x192 /usr/lib/gcc/arm-linux-gnueabihf/8/../../../arm-linux-gnueabihf/crt1.o

.gnu.version_d  0x000120c4        0x0
 *(.gnu.version_d)
 .gnu.version_d
                0x000120c4        0x0 /usr/lib/gcc/arm-linux-gnueabihf/8/../../../arm-linux-gnueabihf/crt1.o

.gnu.version_r  0x000120c4       0xc0
 *(.gnu.version_r)
 .gnu.version_r
                0x000120c4       0xc0 /usr/lib/gcc/arm-linux-gnueabihf/8/../../../arm-linux-gnueabihf/crt1.o

.rel.dyn        0x00012184       0x60
 *(.rel.init)
 *(.rel.text .rel.text.* .rel.gnu.linkonce.t.*)
 *(.rel.fini)
 *(.rel.rodata .rel.rodata.* .rel.gnu.linkonce.r.*)
 *(.rel.data.rel.ro .rel.data.rel.ro.* .rel.gnu.linkonce.d.rel.ro.*)
 .rel.data.rel.ro
                0x00012184        0x0 /usr/lib/gcc/arm-linux-gnueabihf/8/../../../arm-linux-gnueabihf/crt1.o
 *(.rel.data .rel.data.* .rel.gnu.linkonce.d.*)
 *(.rel.tdata .rel.tdata.* .rel.gnu.linkonce.td.*)
 *(.rel.tbss .rel.tbss.* .rel.gnu.linkonce.tb.*)
 *(.rel.ctors)
 *(.rel.dtors)
 *(.rel.got)
 .rel.got       0x00012184        0x8 /usr/lib/gcc/arm-linux-gnueabihf/8/../../../arm-linux-gnueabihf/crt1.o
 *(.rel.bss .rel.bss.* .rel.gnu.linkonce.b.*)
 .rel.bss       0x0001218c       0x58 /usr/lib/gcc/arm-linux-gnueabihf/8/../../../arm-linux-gnueabihf/crt1.o
                [!provide]                PROVIDE (__rel_iplt_start = .)
 *(.rel.iplt)
 .rel.iplt      0x000121e4        0x0 /usr/lib/gcc/arm-linux-gnueabihf/8/../../../arm-linux-gnueabihf/crt1.o
                [!provide]                PROVIDE (__rel_iplt_end = .)

.rela.dyn       0x000121e4        0x0
 *(.rela.init)
 *(.rela.text .rela.text.* .rela.gnu.linkonce.t.*)
 *(.rela.fini)
 *(.rela.rodata .rela.rodata.* .rela.gnu.linkonce.r.*)
 *(.rela.data .rela.data.* .rela.gnu.linkonce.d.*)
 *(.rela.tdata .rela.tdata.* .rela.gnu.linkonce.td.*)
 *(.rela.tbss .rela.tbss.* .rela.gnu.linkonce.tb.*)
 *(.rela.ctors)
 *(.rela.dtors)
 *(.rela.got)
 *(.rela.bss .rela.bss.* .rela.gnu.linkonce.b.*)
                [!provide]                PROVIDE (__rela_iplt_start = .)
 *(.rela.iplt)
                [!provide]                PROVIDE (__rela_iplt_end = .)

.rel.plt        0x000121e4      0x5a0
 *(.rel.plt)
 .rel.plt       0x000121e4      0x5a0 /usr/lib/gcc/arm-linux-gnueabihf/8/../../../arm-linux-gnueabihf/crt1.o

.rela.plt
 *(.rela.plt)

.init           0x00012784        0xc
 *(SORT_NONE(.init))
 .init          0x00012784        0x8 /usr/lib/gcc/arm-linux-gnueabihf/8/../../../arm-linux-gnueabihf/crti.o
                0x00012784                _init
 .init          0x0001278c        0x4 /usr/lib/gcc/arm-linux-gnueabihf/8/../../../arm-linux-gnueabihf/crtn.o

.plt            0x00012790      0x884
 *(.plt)
 .plt           0x00012790      0x884 /usr/lib/gcc/arm-linux-gnueabihf/8/../../../arm-linux-gnueabihf/crt1.o
                0x000127a4                gethostname@@GLIBC_2.4
                0x000127b0                getuid@@GLIBC_2.4
                0x000127bc                fopen64@@GLIBC_2.4
                0x000127c8                endwin@@NCURSESW6_5.1.20000708
                0x000127d4                fwrite@@GLIBC_2.4
                0x000127e0                mbrtowc@@GLIBC_2.4
                0x000127ec                toupper@@GLIBC_2.4
                0x000127f8                __isoc99_sscanf@@GLIBC_2.7
                0x00012804                fprintf@@GLIBC_2.4
                0x00012810                waddnstr@@NCURSESW6_5.1.20000708
                0x0001281c                strstr@@GLIBC_2.4
                0x00012828                isatty@@GLIBC_2.4
                0x00012834                getppid@@GLIBC_2.4
                0x00012840                wbkgdset@@NCURSESW6_5.1.20000708
                0x0001284c                execvp@@GLIBC_2.4
                0x00012858                write@@GLIBC_2.4
                0x00012864                wctomb@@GLIBC_2.4
                0x00012870                can_change_color@@NCURSESW6_5.1.20000708
                0x0001287c                opendir@@GLIBC_2.4
                0x00012888                printf@@GLIBC_2.4
                0x00012894                gnome_vfs_mime_get_default_application
                0x000128a0                bsearch@@GLIBC_2.4
                0x000128ac                fclose@@GLIBC_2.4
                0x000128b8                atoll@@GLIBC_2.4
                0x000128c4                qsort@@GLIBC_2.4
                0x000128d0                getgid@@GLIBC_2.4
                0x000128dc                wclear@@NCURSESW6_5.1.20000708
                0x000128e8                __ctype_b_loc@@GLIBC_2.4
                0x000128f4                strnlen@@GLIBC_2.4
                0x00012900                nonl@@NCURSESW6_5.1.20000708
                0x0001290c                getmntent@@GLIBC_2.4
                0x00012918                iconv@@GLIBC_2.4
                0x00012924                fputc@@GLIBC_2.4
                0x00012930                dlclose@@GLIBC_2.4
                0x0001293c                beep@@NCURSESW6_5.1.20000708
                0x00012948                __xstat64@@GLIBC_2.4
                0x00012954                chown@@GLIBC_2.4
                0x00012960                strpbrk@@GLIBC_2.4
                0x0001296c                fseek@@GLIBC_2.4
                0x00012978                strerror@@GLIBC_2.4
                0x00012984                color_content@@NCURSESW6_5.1.20000708
                0x00012990                tolower@@GLIBC_2.4
                0x0001299c                putchar@@GLIBC_2.4
                0x000129a8                has_colors@@NCURSESW6_5.1.20000708
                0x000129b4                puts@@GLIBC_2.4
                0x000129c0                init_pair@@NCURSESW6_5.1.20000708
                0x000129cc                __libc_start_main@@GLIBC_2.4
                0x000129e4                setupterm@@NCURSES6_TINFO_5.0.19991023
                0x000129f0                strchr@@GLIBC_2.4
                0x000129fc                __errno_location@@GLIBC_2.4
                0x00012a08                keypad@@NCURSES6_TINFO_5.0.19991023
                0x00012a14                lutimes@@GLIBC_2.4
                0x00012a20                atol@@GLIBC_2.4
                0x00012a2c                ftello64@@GLIBC_2.4
                0x00012a38                tcsetattr@@GLIBC_2.4
                0x00012a44                curs_set@@NCURSES6_TINFO_5.0.19991023
                0x00012a50                symlink@@GLIBC_2.4
                0x00012a5c                setenv@@GLIBC_2.4
                0x00012a68                mkdir@@GLIBC_2.4
                0x00012a74                pthread_mutex_lock@@GLIBC_2.4
                0x00012a80                pipe@@GLIBC_2.4
                0x00012a8c                noecho@@NCURSESW6_5.1.20000708
                0x00012a98                gnome_vfs_get_mime_type
                0x00012aa4                waddchnstr@@NCURSESW6_5.1.20000708
                0x00012ab0                pthread_cond_wait@@GLIBC_2.4
                0x00012abc                free@@GLIBC_2.4
                0x00012ac8                iconv_close@@GLIBC_2.4
                0x00012ad4                wcwidth@@GLIBC_2.4
                0x00012ae0                close@@GLIBC_2.4
                0x00012aec                clearok@@NCURSESW6_5.1.20000708
                0x00012af8                memcpy@@GLIBC_2.4
                0x00012b04                wcstombs@@GLIBC_2.4
                0x00012b10                iconv_open@@GLIBC_2.4
                0x00012b1c                memmove@@GLIBC_2.4
                0x00012b28                strncpy@@GLIBC_2.4
                0x00012b34                winchnstr@@NCURSESW6_5.1.20000708
                0x00012b40                win_wchnstr@@NCURSESW6_5.3.20021019
                0x00012b4c                access@@GLIBC_2.4
                0x00012b58                unlink@@GLIBC_2.4
                0x00012b64                ferror@@GLIBC_2.4
                0x00012b70                strcpy@@GLIBC_2.4
                0x00012b7c                execv@@GLIBC_2.4
                0x00012b88                raise@@GLIBC_2.4
                0x00012b94                getgrgid@@GLIBC_2.4
                0x00012ba0                start_color@@NCURSESW6_5.1.20000708
                0x00012bac                atoi@@GLIBC_2.4
                0x00012bb8                dlsym@@GLIBC_2.4
                0x00012bc4                ftime@@GLIBC_2.4
                0x00012bd0                fork@@GLIBC_2.4
                0x00012bdc                signal@@GLIBC_2.4
                0x00012be8                gettimeofday@@GLIBC_2.4
                0x00012bf4                getpwuid@@GLIBC_2.4
                0x00012c00                system@@GLIBC_2.4
                0x00012c0c                malloc@@GLIBC_2.4
                0x00012c18                localtime@@GLIBC_2.4
                0x00012c24                getcwd@@GLIBC_2.4
                0x00012c30                tcgetattr@@GLIBC_2.4
                0x00012c3c                pthread_cond_init@@GLIBC_2.4
                0x00012c48                kill@@GLIBC_2.4
                0x00012c54                strdup@@GLIBC_2.4
                0x00012c60                strlen@@GLIBC_2.4
                0x00012c6c                pthread_mutex_destroy@@GLIBC_2.4
                0x00012c78                chdir@@GLIBC_2.4
                0x00012c84                chmod@@GLIBC_2.4
                0x00012c90                mktime@@GLIBC_2.4
                0x00012c9c                wadd_wchnstr@@NCURSESW6_5.3.20021019
                0x00012ca8                closedir@@GLIBC_2.4
                0x00012cb4                getpid@@GLIBC_2.4
                0x00012cc0                winnstr@@NCURSESW6_5.1.20000708
                0x00012ccc                __lxstat64@@GLIBC_2.4
                0x00012cd8                select@@GLIBC_2.4
                0x00012ce4                readlink@@GLIBC_2.4
                0x00012cf0                iswalpha@@GLIBC_2.4
                0x00012cfc                fseeko64@@GLIBC_2.4
                0x00012d08                dup@@GLIBC_2.4
                0x00012d14                sprintf@@GLIBC_2.4
                0x00012d20                snprintf@@GLIBC_2.4
                0x00012d2c                fflush@@GLIBC_2.4
                0x00012d38                mbtowc@@GLIBC_2.4
                0x00012d44                curses_version@@NCURSES6_TINFO_5.0.19991023
                0x00012d50                perror@@GLIBC_2.4
                0x00012d5c                setlocale@@GLIBC_2.4
                0x00012d68                vfprintf@@GLIBC_2.4
                0x00012d74                mousemask@@NCURSESW6_5.1.20000708
                0x00012d80                gnome_vfs_mime_application_free
                0x00012d8c                strcmp@@GLIBC_2.4
                0x00012d98                initscr@@NCURSESW6_5.1.20000708
                0x00012da4                memcmp@@GLIBC_2.4
                0x00012db0                memset@@GLIBC_2.4
                0x00012dbc                wrefresh@@NCURSESW6_5.1.20000708
                0x00012dc8                getenv@@GLIBC_2.4
                0x00012dd4                rename@@GLIBC_2.4
                0x00012de0                flock@@GLIBC_2.4
                0x00012dec                mkfifo@@GLIBC_2.4
                0x00012df8                time@@GLIBC_2.4
                0x00012e04                meta@@NCURSES6_TINFO_5.0.19991023
                0x00012e10                wait@@GLIBC_2.4
                0x00012e1c                statfs64@@GLIBC_2.4
                0x00012e28                pthread_cond_broadcast@@GLIBC_2.4
                0x00012e34                fread@@GLIBC_2.4
                0x00012e40                gnome_vfs_init
                0x00012e4c                pthread_create@@GLIBC_2.4
                0x00012e58                strcat@@GLIBC_2.4
                0x00012e64                abort@@GLIBC_2.4
                0x00012e70                init_color@@NCURSESW6_5.1.20000708
                0x00012e7c                gnome_vfs_get_uri_from_local_path
                0x00012e88                waitpid@@GLIBC_2.4
                0x00012e94                gnome_vfs_get_file_info
                0x00012ea0                pthread_cond_timedwait@@GLIBC_2.4
                0x00012eac                exit@@GLIBC_2.4
                0x00012eb8                calloc@@GLIBC_2.4
                0x00012ec4                setmntent@@GLIBC_2.4
                0x00012ed0                rmdir@@GLIBC_2.4
                0x00012edc                strrchr@@GLIBC_2.4
                0x00012ee8                wmove@@NCURSESW6_5.1.20000708
                0x00012ef4                dup2@@GLIBC_2.4
                0x00012f00                getmntent_r@@GLIBC_2.4
                0x00012f0c                fgets@@GLIBC_2.4
                0x00012f18                raw@@NCURSES6_TINFO_5.0.19991023
                0x00012f24                utimes@@GLIBC_2.4
                0x00012f30                endmntent@@GLIBC_2.4
                0x00012f3c                memchr@@GLIBC_2.4
                0x00012f48                read@@GLIBC_2.4
                0x00012f54                readdir64@@GLIBC_2.4
                0x00012f60                pthread_mutex_unlock@@GLIBC_2.4
                0x00012f6c                wcrtomb@@GLIBC_2.4
                0x00012f78                nl_langinfo@@GLIBC_2.4
                0x00012f84                pthread_mutex_init@@GLIBC_2.4
                0x00012f90                fileno@@GLIBC_2.4
                0x00012f9c                mkstemp64@@GLIBC_2.4
                0x00012fa8                strspn@@GLIBC_2.4
                0x00012fb4                open64@@GLIBC_2.4
                0x00012fc0                ioctl@@GLIBC_2.4
                0x00012fcc                fputs@@GLIBC_2.4
                0x00012fd8                nanosleep@@GLIBC_2.4
                0x00012fe4                iswprint@@GLIBC_2.4
                0x00012ff0                putenv@@GLIBC_2.4
                0x00012ffc                ttyname@@GLIBC_2.4
                0x00013008                dlopen@@GLIBC_2.4

.iplt           0x00013014        0x0
 *(.iplt)
 .iplt          0x00013014        0x0 /usr/lib/gcc/arm-linux-gnueabihf/8/../../../arm-linux-gnueabihf/crt1.o

.text           0x00013018    0xab950
 *(.text.unlikely .text.*_unlikely .text.unlikely.*)
 *(.text.exit .text.exit.*)
 *(.text.startup .text.startup.*)
 *(.text.hot .text.hot.*)
 *(.text .stub .text.* .gnu.linkonce.t.*)
 .text          0x00013018       0x3c /usr/lib/gcc/arm-linux-gnueabihf/8/../../../arm-linux-gnueabihf/crt1.o
                0x00013018                _start
 .text          0x00013054       0x24 /usr/lib/gcc/arm-linux-gnueabihf/8/../../../arm-linux-gnueabihf/crti.o
 .text          0x00013078       0x90 /usr/lib/gcc/arm-linux-gnueabihf/8/crtbegin.o
 .text          0x00013108     0x1de0 xmj.o
                0x00013108                main
                0x000132b4                parmprechk
                0x0001345c                parmchk
                0x000136b0                openoutfile
                0x00013890                parmflagchk
                0x00013c04                getkey1parm
                0x00013db8                getkey2parm
                0x00013f20                mjmain
                0x00014700                getmaxlrecl
                0x000147ac                xmj_getline
                0x00014aa4                opderr
                0x00014ad8                confirm
                0x00014bb0                help
 .text          0x00014ee8      0xe50 ../ulib/libuserxe.a(libuserxe_a-uallocl.o)
                0x00014ee8                ualloc_init
                0x0001513c                ugetallocdata
                0x00015274                ualloc_chk
                0x0001543c                umalloc
                0x00015680                ucalloc
                0x000158f0                ufree
                0x00015b20                uallocsz
                0x00015b6c                ufreesz
                0x00015bbc                uallocmapset
                0x00015cd0                ufreesizeerr
                0x00015d04                umallocsizeerr
 .text          0x00015d38     0x3fe8 ../ulib/libuserxe.a(libuserxe_a-uedit.o)
                0x00015d38                uedit
                0x00015d50                unumedit
                0x00016088                utimeedit
                0x00016c00                uitoa10
                0x00016c34                ucmdparmedit
                0x0001735c                ueditenv
                0x00017788                uwordrep
                0x00017e34                ugethex
                0x00017f94                ugethexdump
                0x00018174                ux2FILESZ
                0x000181a4                ux2l
                0x00018338                ux2ll
                0x00018420                ua2ll
                0x00018450                ux2s
                0x000185ac                ugetnumrange3
                0x00018724                ugetnumrange2
                0x00018820                ugetnumrange2XFILESZ
                0x000188f4                ugetnumrange
                0x00018b00                ugetxnumrange
                0x00018f24                ugetxnumrangeLL
                0x00019350                unumlen
                0x00019590                uatoin
                0x00019610                getKMGTB
                0x00019798                ueditFILESZ
                0x00019a0c                ueditLONGHANDLE
                0x00019c14                ueditKMG
 .text          0x00019d20     0x29f8 ../ulib/libuserxe.a(libuserxe_a-uerr.o)
                0x00019d20                uerr
                0x00019d38                ubell_init
                0x00019d78                ubell_init2
                0x00019da8                ubell
                0x00019ec0                uerrexit_init
                0x00019f88                uerrexit_optinit
                0x00019fb8                uerrsetopt2
                0x0001a01c                uerrexit
                0x0001a214                uerrmsg_init
                0x0001a3f4                uerrmsg
                0x0001a604                uerrmsg2
                0x0001a784                uerrmsgcat
                0x0001a890                uerrsprintf
                0x0001a97c                uerrfprintfutf
                0x0001ade8                uerrhelpmsg
                0x0001b2d4                uerrscrheight
                0x0001b384                useterrmsg
                0x0001b3f8                ugeterrmsg
                0x0001b444                ugeterrmsg2
                0x0001b484                uerrmsgedit
                0x0001be18                uconfirmmsg
                0x0001c130                uerrornomsg
                0x0001c158                ugeterrdescription
                0x0001c1dc                uerrapi1
                0x0001c224                uerrapi1x
                0x0001c268                uerrapi0
                0x0001c2a4                uerrapi0x
                0x0001c2dc                uerrapi1t
                0x0001c34c                uerrapi1nt
                0x0001c3a0                uerrapi1tx
                0x0001c40c                uerrapi0t
                0x0001c474                uerrapi0tx
                0x0001c4d8                uerrnotsupported
                0x0001c51c                uerrmsg_initstart
                0x0001c5e0                uerrmsg_initstack
                0x0001c644                uerrmsg_initcomp
 .text          0x0001c718      0xec0 ../ulib/libuserxe.a(libuserxe_a-ufemsg.o)
                0x0001c718                ufemsg
                0x0001c730                ufilenotfound
                0x0001c76c                ufilenotfoundotherexist
                0x0001c7a8                ufilepatherr
                0x0001c7e4                ufileapierr
                0x0001c82c                ufileapierr_str
                0x0001c884                ufiledelpath
                0x0001c8c0                ufilereadonly
                0x0001c8fc                ufilereadonly2
                0x0001c93c                ufiledeleted
                0x0001ca6c                ufileshare
                0x0001caa8                ufileexist
                0x0001cae4                ufileexistcopy
                0x0001cb20                ufileexist2
                0x0001cb64                ufileexistdir
                0x0001cba0                ufilenotdir
                0x0001cbdc                ufilediskfull
                0x0001cc20                ufilewildtarget
                0x0001cc54                ufilewildcarderr
                0x0001cc88                ufilewildpatherr
                0x0001ccbc                ufileroot
                0x0001ccf8                ufileapierr2
                0x0001cd4c                ufiledirna
                0x0001cd98                ufileerrdir
                0x0001cdd4                ufilenotvfat
                0x0001cdfc                ufilenopermission
                0x0001ce40                ufileslinkloop
                0x0001ce98                ufileerrspecialfile
                0x0001ced4                ufileerrnotnormal
                0x0001cf10                ufileerrdir2file
                0x0001cf40                ufileerrnoentry
                0x0001cf78                ufileerrnofileentry
                0x0001cfb0                ufileTooLongFullpathName
                0x0001d008                ufileTooLongFullpathName2
                0x0001d168                ufileeditsz
                0x0001d500                ufileslinktargeterr
                0x0001d544                ufileopenerrInvalidargument
                0x0001d5a0                ufileErrInvalidName
 .text          0x0001d5d8     0x3508 ../ulib/libuserxe.a(libuserxe_a-ufile.o)
                0x0001d5d8                ufile
                0x0001d5f0                ufullpathwildexp
                0x0001dca4                ufullpathresolvespecialdirid
                0x0001de60                ufilegetpathdir
                0x0001e04c                udirlistnomsg
                0x0001e0ac                udirlist
                0x0001e260                udirlistsub
                0x0001e754                udirlist_set_slinkname
                0x0001e8a8                ufile_udirlist_copy
                0x0001eb04                ufile_udirlist_swap
                0x0001ece8                ufile_udirlist_alloc1
                0x0001ed7c                ufile_udirlist_free
                0x0001ee78                udircompare_pointer
                0x0001eee8                udirlistsort
                0x0001f0ac                udircomp
                0x0001f0f0                udircompare
                0x0001fb70                udircompsub
                0x0001fc98                uredirect
                0x000200e0                uredirectrestore
                0x000201fc                ufdateedit
                0x0002053c                uftimeedit
                0x00020774                uftimeedit_1sec
                0x000207d0                udirlist_chk_max_entry
                0x00020838                udirlist_setname
                0x00020a14                udirlist_setname_cat
 .text          0x00020ae0     0x1b00 ../ulib/libuserxe.a(libuserxe_a-ufile1f.o)
                0x00020ae0                uftpfstat
                0x00020e00                uftpwinchk
                0x00020f2c                uftpfullpathnorid
                0x00020f8c                uftpfullpath
                0x00021654                uftppathlen
                0x000216a4                uftpgetcwd
                0x000217a4                uftpgethome
                0x00021824                uftpgethomesub
                0x000219f8                uftpchdir
                0x00021bc4                uftpchdirsub
                0x00021d94                uftplchdirrespchk
                0x00021fa0                uftpdirlistsub
                0x00022380                uftpfindfirst
                0x000224d0                uftpfindfirstfile
                0x00022558                uftpfindnext
 .text          0x000225e0     0x4344 ../ulib/libuserxe.a(libuserxe_a-ufile1l.o)
                0x000225e0                ufstat
                0x00022e50                ufilechkwildmultiple
                0x000230ec                ufstat_wild
                0x0002317c                ufilefscomp
                0x000231f4                ufilegetfsid
                0x000232d4                ufilegetftime
                0x000233e4                ufullpath
                0x00023dec                upathlen
                0x00023e3c                ugetcwd
                0x00023e68                uchdir
                0x00023f94                udosfindfirstnomsg
                0x00024004                udosfindfirst
                0x00024780                udosfindnext
                0x000247f0                udosfindnextmsg
                0x00024bf4                ufilelnxwildselect
                0x00024c60                ufilelnxattrselect
                0x00024e38                ufilelnxgetmembfstat
                0x00025064                ufilelnxsavehdir
                0x00025194                ufilelnxsrchhdir
                0x0002529c                ufilelnxclosehdir
                0x000253dc                ufilemode2attr
                0x00025588                ufilemktime
                0x00025640                ufilerepwildname
                0x00025740                errwildname
                0x00025948                filesrchmountpoint
                0x00025b20                filegetdevt
                0x00025da4                filegetdevicename
                0x00025f50                filegetdevicemntent
                0x00026070                filegetmntent
                0x00026244                filegetmntoption
                0x000263a8                ufilegetiocharset
                0x000264ac                ufilefnmcvcs
                0x000266f0                ufullpathCP
 .text          0x00026924     0x1f08 ../ulib/libuserxe.a(libuserxe_a-ufile1l2.o)
                0x00026924                mtoolsinit
                0x00026950                ufstat_mdos
                0x00026e9c                ufilegetmdosattr
                0x00026fa0                uopendir_mdos
                0x0002729c                ureaddir_mdos
                0x000274e0                ufilegetmdosdl
                0x00027a40                ufilegetmdosattrlist
                0x00027c38                ugetcwd_mdos
                0x00027db4                uchdir_mdos
                0x00027e50                ustatfs_mdos
                0x00028090                uminfo
                0x0002836c                ufilegetnum
                0x00028470                ufilemdoscmd
                0x000286c8                ufilemdoserrchk
 .text          0x0002882c     0x4588 ../ulib/libuserxe.a(libuserxe_a-ufile2.o)
                0x0002882c                ufile2
                0x00028844                uxddpchk
                0x00028c94                uxddsub
                0x000294e4                uxdelete
                0x0002a264                ufilewildxdel
                0x0002a498                uxdelsub
                0x0002ae40                uremovenomsg
                0x0002ae94                uremove
                0x0002b0f4                urenamenomsg
                0x0002b14c                urename2
                0x0002b1a4                urename
                0x0002b8a8                ufilewildrename
                0x0002b8e0                uwildfunc
                0x0002bcdc                ufilecdirchk
                0x0002c074                ufilespfnchk
                0x0002c09c                wildchk
                0x0002c234                ufilechkwildmemb
                0x0002c364                ufilechkwildname
                0x0002c4f8                ufileopenexclusivewrite
                0x0002c5b4                ufiledelifnotopened
                0x0002c690                ufile2quietmsg
                0x0002c7c0                ugetmoveavailablepath
                0x0002ccac                uwildfunc_LongName
 .text          0x0002cdb4     0x47cc ../ulib/libuserxe.a(libuserxe_a-ufile2f.o)
                0x0002cdb4                uftpmkdir
                0x0002d3ac                uftprmdir
                0x0002d7b8                uftpremove
                0x0002dbfc                uftprename
                0x0002dfa8                uftprenamesub
                0x0002e37c                uftpwildrename
                0x0002e3cc                uftpattrib
                0x0002e6d8                uftpattrxon
                0x0002e720                uftpattrxchk
                0x0002e8f8                uftpgetftime
                0x0002ea4c                uftpgetftime_1sec
                0x0002ebc4                uftpsetftime
                0x0002ec3c                uftpsetftime2
                0x0002ecb4                uftpcopypathinfo
                0x0002eddc                uftpsetown
                0x0002ee54                uftpsetmod
                0x0002f334                uftpwildfunc
                0x0002f560                uftpwildfunc2
                0x0002f8d8                uftpmultidel
                0x0002f9f0                uftpmultirename
                0x0002fb08                uftpwildxdel
                0x0002fe44                uftpmultidelsub
                0x0002ffd0                uftpmultirenamesub
                0x00030210                uftpbypassreason
                0x0003029c                uftpxdelrchk
                0x000306a8                uftpmultidelrchk
                0x00030944                uftpmultirenamerchk
                0x00030bec                ufile2putstmt
                0x00030d2c                uftpnotsupported
                0x00030d84                uftpnotsupportedforlocal
                0x00030ddc                uftpdelsubdir
                0x0003105c                ufile3xdeleteinit
                0x000310e8                uxdelsubftp
                0x00031538                errtoolongname
 .text          0x00031580     0x19d8 ../ulib/libuserxe.a(libuserxe_a-ufile2l.o)
                0x00031580                umkdir
                0x000315ec                umkdirmode
                0x00031920                urmdir
                0x00031dc4                uattrib
                0x00032110                uattrxon
                0x00032188                uattrxchk
                0x00032368                ugetftime
                0x000324a0                ugetftime_1sec
                0x00032620                usetftime
                0x0003279c                usetftime_1sec
                0x000327f8                usetftime2
                0x00032954                ucopypathinfo
                0x00032d60                ufilesetown
                0x00032e58                ufilesetmod
 .text          0x00032f58      0xbc8 ../ulib/libuserxe.a(libuserxe_a-ufile2l2.o)
                0x00032f58                umkdir_mdos
                0x00033024                urmdir_mdos
                0x00033138                uattrib_mdos
                0x0003333c                uremove_mdos
                0x00033450                urename_mdos
                0x000334e8                ucopy_mdos
                0x0003377c                uappend_mdos
                0x00033ac4                ufilemdoscopyerr
 .text          0x00033b20     0x4dd0 ../ulib/libuserxe.a(libuserxe_a-ufile3.o)
                0x00033b20                ufile3
                0x00033b38                invalidtargetfilename
                0x00033b70                uxcopy
                0x00034a60                ufilecreateparmproc
                0x000351cc                ufilecpymvflags
                0x00035498                ufilewildcopy
                0x00035738                ucopysub_slinktarget
                0x000358d8                ucopysub_slink
                0x00035bd0                ucopysub
                0x000362f4                udoscopy
                0x000366ac                uxmove
                0x000370c4                ufilewildmove
                0x00037254                umovesub_slink
                0x00037990                umovesub
                0x000380c0                ufilecopytschk
                0x000381d8                ufilechkslinkpath
                0x00038420                ufilegetslinkfinaltarget
                0x000385a8                ufilesymlink
                0x0003862c                ufilesymlink_copyfiletime
                0x00038724                ufilesymlink_copy
                0x000387d0                ufileerrdirandfile
                0x00038810                ufileerrslinktarget
                0x00038854                ufileerrslinkappend
                0x00038894                ufileerrnotargetslink
 .text          0x000388f0     0x539c ../ulib/libuserxe.a(libuserxe_a-ufile3f.o)
                0x000388f0                uftpxmove
                0x00038ab8                uftpxcopy
                0x00038db0                uftpxcopyr2r
                0x00039034                uftpupload
                0x000396d4                uftpdownload
                0x00039d24                uftptargetflag
                0x0003a0ac                uftpsourceflag
                0x0003a464                uftps2tchk
                0x0003aa58                uftpcreateparmproc
                0x0003ae9c                uftpmoveparmproc
                0x0003b150                uftpupdownctl
                0x0003ba54                uftpgetdirlist
                0x0003bb28                uftpexistchk1
                0x0003bd84                uftpexistchkm
                0x0003c2e4                uftpcopycallback
                0x0003cb08                uftpcopyrchk
                0x0003d29c                uftpputstmt
                0x0003d3e0                uftpputstmt2
                0x0003d580                uftpcopyftime
                0x0003d8cc                ufileftpcopytschk
                0x0003db08                uftpmktdir
                0x0003db68                uftperrsourceisroot
                0x0003db90                uftperrtargetisnotdir
                0x0003dbc4                uftperrdir2file
                0x0003dc04                uftpfileanddir
                0x0003dc50                uftpappenddir2dir
 .text          0x0003dc8c     0x2acc ../ulib/libuserxe.a(libuserxe_a-ufile4.o)
                0x0003dc8c                ufile4
                0x0003dca4                utempnam
                0x0003df84                utempnamd
                0x0003dfdc                ufgetpos
                0x0003e00c                udirwalk
                0x0003e744                udirwalksub
                0x0003f7f4                ufileslinkoutoflinkchk
                0x0003fc94                ufileslinkloopchk
                0x00040138                ufileslinkloopchk2
                0x00040248                ugetdiskfree
                0x000403dc                ufileisvfat
                0x00040410                ufileisntfs
                0x00040434                ufileisvfatMounted
                0x000404b4                ufileisntfsMounted
                0x00040534                ufileisMSMounted
                0x000405e0                ufsetlock
                0x00040648                uflock
 .text          0x00040758     0x4e20 ../ulib/libuserxe.a(libuserxe_a-ufile5.o)
                0x00040758                ufile5
                0x00040770                ufgetsinit
                0x00040b8c                ufgetscurpos
                0x00040bb4                ufgets_setcurpos
                0x00040c38                ufgets
                0x00040ffc                ufgetssub
                0x000415e4                ufgetsbinchk_utf8
                0x000418bc                ufgetsbinchk_ebc
                0x00041adc                ufgetsbinchk
                0x00041f94                isSameU8c
                0x000421dc                udoseditname
                0x00042aa0                ufileeditname
                0x00042f68                ufilewildcomp
                0x000432e8                ufilewildcompsub
                0x000434b8                ufilecomp
                0x00043990                ufilecomptextmode
                0x00043d38                ufilecomptextmodefixed
                0x00043fc4                ufilecomptextmodesub
                0x00044108                ufreads
                0x000443e8                ufgetsVHeader
                0x00044670                ufgetsVRecord
                0x00044968                ufgetsV
                0x00044be8                ufile5chkvfmt
                0x00044d48                ufile5getVfmtstr
                0x00044e0c                ufseek
                0x00044e48                uftell
                0x00044e78                fileeditname_copypath
                0x00045494                fileeditname_copypath_err
                0x000454f8                filetouch
 .text          0x00045578     0x4f50 ../ulib/libuserxe.a(libuserxe_a-uftp.o)
                0x00045578                uftpfstatroot
                0x00045620                uftplshome
                0x00045788                uftpfstatudl
                0x00045acc                uftpisexist
                0x00045be8                uftpopendir
                0x000461c0                uftpreaddir
                0x00046324                uftpattrselect
                0x000464ec                uftpgetslinkattr
                0x000468cc                uftpdirlistslink
                0x00046ebc                uftpsortslink
                0x00046f14                uftpslinkcomp
                0x00046f98                uftpslinklscmd
                0x000472d0                uftplsoutchk
                0x00047644                uftpmodtimerchk
                0x00047b20                uftpmodtimeerr
                0x00047b74                uftplsoutchkslinkerrskip
                0x00047ca0                uftplsoutchkslink
                0x00047da0                uftpsavehdir
                0x00047ee8                uftpsrchhdir
                0x00047f94                uftpclosehdir
                0x00047ff8                uftpmode2attr
                0x00048174                uftpudl2ffb3
                0x00048324                uftpgetpathname
                0x000483ec                uftpnodesrch
                0x0004849c                uftpnodeadd
                0x00048554                uftpnodedel
                0x000485b0                uftpnodeclear
                0x000485cc                uftpgethostqhaddr
                0x000485ec                uftphoststbinit
                0x0004890c                uftpgethostsdata
                0x00049978                uftgetstringopd
                0x00049bf8                uftpipachk
                0x00049e18                uftpgetportno
                0x00049ea4                uftpisremote
                0x0004a030                uftpisrootdir
                0x0004a0b4                uftphostscrypt
                0x0004a390                uftptempnam
                0x0004a3ec                uftp_mempswd
                0x0004a484                uftp_udirlist_setname
 .text          0x0004a4c8     0x2c2c ../ulib/libuserxe.a(libuserxe_a-uftp2.o)
                0x0004a4c8                uftpinit
                0x0004a618                uftpterm
                0x0004a660                uftplog
                0x0004aa34                uftpnodeinit
                0x0004ac1c                uftpcmd
                0x0004b354                uftpcmdrespchk
                0x0004b460                uftpcmdresphdrchk
                0x0004b588                uftpcmdsrchrespid
                0x0004b7e8                uftpsimplerespchk
                0x0004b8c0                uftpnextstdo
                0x0004b990                uftpsrchfname
                0x0004bb58                uftpsrchfnameslink
                0x0004bde0                uftpgetdl
                0x0004c100                uftpgetdl1
                0x0004c808                uftpgetmode
                0x0004cb50                uftpgetdlftime
                0x0004ccf4                uftpgetmonth
                0x0004cd70                uftpgetwday
                0x0004cde8                uftpajustjst
                0x0004d044                uftpmktempwd
                0x0004d090                uftpdeltempwd
 .text          0x0004d0f4     0x5ab0 ../ulib/libuserxe.a(libuserxe_a-uftp3.o)
                0x0004d0f4                uftp3setssh
                0x0004d3b4                uftp3editpsftpcmd
                0x0004d4f4                uftp3cmdrespchk
                0x0004d610                uftp3cmdresphdrchk
                0x0004d764                uftp3srchcmdecho
                0x0004d8b8                uftp3gethomesub
                0x0004da18                uftp3simplerespchk
                0x0004db84                uftp3simplerespchkOK
                0x0004dd20                uftp3simplerespchkCHNG
                0x0004deb0                uftp3lchdirrespchk
                0x0004df1c                uftp3getputrespchk
                0x0004e038                uftp3cdrespchk
                0x0004e174                uftp3setsmb
                0x0004e230                uftp3smb_setcmd
                0x0004e6b0                uftp3smb_editcmdline
                0x0004e968                uftp3smb_nodeinit
                0x0004ea14                uftp3smbcmd
                0x0004ea98                uftp3smb_cmd
                0x0004efa0                uftp3smb_chkstatuserr
                0x0004f1e8                uftp3smb_srchresp
                0x0004f410                uftp3smb_stderrlog
                0x0004f488                uftp3smb_getdltime
                0x0004f62c                uftp3smb_getdltimestat
                0x0004f77c                uftp3smb_setdltime
                0x0004f8ac                uftp3smb_getmode
                0x0004fadc                uftp3smb_getdirlistctr
                0x0004fb24                uftp3smb_getdl1
                0x0004fd98                uftp3smb_fstatudl
                0x000500a8                uftp3smb_fstatudl_byls
                0x000502d8                uftp3smb_fstatudl_byls_root
                0x00050574                uftp3smb_lsoutchk
                0x000506f8                uftp3smb_getdlattr
                0x000507f0                uftp3smb_fstatdircallback
                0x00050a90                uftp3smb_fstatdirrchk
                0x00050ed8                uftp3smb_fstatoutchk
                0x000513dc                uftp3smb_putstmt
                0x00051984                uftp3smb_respchk_srchnext
                0x00051cbc                uftp3smb_respchk
                0x000520e4                uftp3smb_lchdirrespchk
                0x00052134                uftp3smb_strfname
                0x000523e4                uftp3smb_enclosefnm
                0x00052524                uftp3smb_editcmdparm
                0x000526c4                uftp3smb_dirnameforlist
                0x00052794                uftp3smb_mode2attr_winsub
                0x00052824                uftp3smb_mode2attr_win
                0x00052874                uftp3smb_strattr
                0x0005295c                uftp3smb_setmod_win
 .text          0x00052ba4      0x4b0 ../ulib/libuserxe.a(libuserxe_a-ugcclib.o)
                0x00052ba4                strupr
                0x00052c0c                strlwr
                0x00052c74                memicmp
                0x00052d40                stricmp
                0x00052dd0                itoa
                0x00052e64                kbhit
                0x00052e7c                getch_nc
                0x00052e9c                getche
                0x00052ebc                spawnvp
                0x00052f14                spawnv
 .text          0x00053054     0x1d30 ../ulib/libuserxe.a(libuserxe_a-ukbdl.o)
                0x00053054                ukbdpeek
                0x00053080                ukbdcharin
                0x00053228                ukbdl_init
                0x00053314                ukbdl_term
                0x0005332c                ukbdl_setkbmode
                0x000533b4                ukbdl_shellmode
                0x000534c0                ukbdl_setgetchmode
                0x00053580                ukbdl_tcgetattr
                0x00053620                ukbdl_tcsetattr
                0x000536c4                ukbdl_getch_init
                0x00053718                ukbdl_getche_init
                0x0005376c                ukbdl_getch_term
                0x000537b8                ukbdl_getche_term
                0x00053804                ukbdl_kbhit
                0x00053854                ukbdl_getch
                0x000538f4                ukbdl_getche
                0x00053994                ukbdl_gettermid
                0x00053ad8                ukbdl_gettermsim
                0x00054010                ukbdl_editstring
                0x000540d8                ukbdsetstatus
                0x00054190                ukbdl_wcinit
                0x00054290                ukbdl_readutf8
                0x00054884                ukbdl_readdbcs
                0x00054b8c                ukbd_simutf8_f2l
 .text          0x00054d84     0x8020 ../ulib/libuserxe.a(libuserxe_a-ukbdlnxc.o)
                0x00054d84                ukbdlnxc_gettbl
                0x00054e20                ukbdlnxc_init
                0x00054fd0                ukbdlnxc_term
                0x0005504c                ukbdlnxc_getnext
                0x000550d4                ukbdlnxc_read
                0x00055288                ukbdlnxc_readkbd
                0x0005611c                ukbdlnxc_optproc
                0x00056298                ukbdlnxc_setupckt
                0x0005695c                ukbdlnxc_setupcktsub
                0x00056bc8                ukbdlnxc_setupcktx
                0x00059284                cktovferr
                0x00059300                ukbdlnxc_addstrtbl
                0x000595d8                ukbdlnxc_dupstrchk
                0x00059934                ukbdlnxc_cleanup
                0x000599bc                ukbdlnxc_termexit
                0x000599f0                ukbdlnxc_getplainsym
                0x00059cc4                ukbdlnxc_chkothersym
                0x00059d30                ukbdlnxc_xbsdel
                0x00059e34                ukbdlnxc_delopt
                0x00059f18                ukbdlnxc_setfunckey
                0x0005a0fc                ukbdlnxc_setfuncstr
                0x0005a4e0                ukbdlnxc_setcompose
                0x0005a578                ukbdlnxc_getkeysym
                0x0005a658                ukbdlnxc_setkeysym
                0x0005a738                ukbdlnxc_getstring
                0x0005a808                ukbdlnxc_setstring
                0x0005a900                ukbdlnxc_getdiacr
                0x0005a9ac                ukbdlnxc_setdiacr
                0x0005aa58                ukbdlnxc_setmetamode
                0x0005ac64                ukbdlnxc_getconsole
                0x0005ade8                ukbdlnxc_getptty
                0x0005af24                ukbdlnxc_open
                0x0005afac                ukbdlnxc_chkconsole
                0x0005afd4                ukbdlnxc_save1st
                0x0005b370                ukbdlnxc_restorelast
                0x0005b92c                ukbdlnxc_lockfwrite
                0x0005b9b0                ukbdlnxc_lockfread
                0x0005ba34                ukbdlnxc_pidsetlock
                0x0005bb20                ukbdlnxc_pidresetlock
                0x0005bbc0                ukbdlnxc_pidchklock
                0x0005bc78                ukbdlnxc_chngttkey
                0x0005c844                ukbdlnxc_setrctl
                0x0005c978                ukbdlnxc_setrctlstr
                0x0005cd7c                uttyname
 .text          0x0005cda4      0x848 ../ulib/libuserxe.a(libuserxe_a-ukbdlnxm.o)
                0x0005cda4                ukbdlnxm_mouseopt
                0x0005ceb4                ukbdlnxm_mouseinit
                0x0005cf1c                ukbdlnxm_mouseterm
                0x0005cf7c                ukbdlnxm_getmouse
                0x0005d3d4                clickchk
 .text          0x0005d5ec     0x22e0 ../ulib/libuserxe.a(libuserxe_a-uparse.o)
                0x0005d5ec                uparsein
                0x0005d894                uparseindir
                0x0005da08                uparsev
                0x0005dbd0                uparse2
                0x0005dd0c                uparse
                0x0005ea14                uparsefname
                0x0005eba0                uparsecmd
                0x0005f310                uparsecmdin
                0x0005f568                uparsegetopt
 .text          0x0005f8cc     0x3754 ../ulib/libuserxe.a(libuserxe_a-uproc.o)
                0x0005f8cc                usystem2
                0x0005fa08                usystem
                0x0005fb1c                uspawnl
                0x0005fc48                uspawnlp
                0x0005fd74                uspawnvp
                0x0005fe70                uprocopt
                0x0005ff3c                uspawnrc
                0x00060164                uprocerrmem
                0x000601a0                uprocerrnotf
                0x000601dc                uexecchk
                0x000605e4                uextdirsrch
                0x00060624                ucmdnmcomp
                0x000607a0                ugetexepath
                0x000607c4                uproc_getpsinfo
                0x00060d1c                uproc_srchpsinfo
                0x00060eac                uproc_freepsinfo
                0x00060f1c                usystem_redirect
                0x00061204                uspawn_redirect
                0x000615dc                uproc_redirectoutchk
                0x00061f58                uspawnvp_pipe
                0x000623ac                uspawnvp_pipeclose
                0x00062478                usystem_cmdserverinit
                0x0006251c                usystem_cmdserverterm
                0x00062658                usystem_cmdserversetup
                0x00062ac8                usystem_cmdtocmdserver
                0x00062b54                usystem_cmdserverreq
                0x00062f60                usystem_cmdserverreqwithoutbuff
                0x00062ff4                usystem_pidalivechk
 .text          0x00063020     0x142c ../ulib/libuserxe.a(libuserxe_a-uproc2.o)
                0x00063020                uprocparseredirect
                0x00063428                uproc_rsh
                0x00063b48                uproc_redirectrewrite
                0x00063c70                uproc_rshlog
                0x00063d40                ugetpid
                0x00063d8c                uprocredirectchk
                0x00063ddc                uproc_loaddllpath
                0x00064044                uproc_loaddll
                0x000641f4                uproc_getdllproc
                0x000642e0                uproc_freedll
                0x0006433c                uproc_getprocaddr
 .text          0x0006444c     0x11dc ../ulib/libuserxe.a(libuserxe_a-uproc4.o)
                0x0006444c                uproc_shcmd
                0x00064554                uproc_shserverinit
                0x000645f8                uproc_shserverterm
                0x000646d0                uproc_shserversetup
                0x00064b90                uproc_shserverreq
                0x00064fd4                uproc_srchprocessw
                0x00065098                uproc_srchprocess
                0x0006517c                uproc_select
                0x00065540                uproc4_fdset
                0x000655b0                uproc4_fdisset
 .text          0x00065628      0x9d4 ../ulib/libuserxe.a(libuserxe_a-uque.o)
                0x00065628                uque
                0x00065640                uenq
                0x00065914                udeq
                0x00065bf0                uqscan
                0x00065d14                uqfree
                0x00065d6c                uqufree
                0x00065dc4                uenqchain
                0x00065edc                uenqent
                0x00065f7c                uqhmove
 .text          0x00065ffc      0x274 ../ulib/libuserxe.a(libuserxe_a-ustrcpy.o)
                0x00065ffc                ustring_memcpy
                0x000660b8                ustring_strncpy
                0x000661d8                ustring_strcpy
 .text          0x00066270     0x2778 ../ulib/libuserxe.a(libuserxe_a-ustring.o)
                0x00066270                ustring
                0x00066288                ustrnchr
                0x00066310                ustrnpbrk
                0x000663ec                ustrnspn
                0x000664e8                ustrrspn
                0x00066588                ustrnrspn
                0x00066638                umemrspn
                0x000666f0                umemspnc
                0x0006677c                umemspn_spacetab
                0x0006680c                umemrspnc
                0x0006689c                ustrnstr
                0x000669a4                ustrrstr
                0x00066a34                ustrnrstr
                0x00066b20                ustrstri
                0x00066c78                ustrnstri
                0x00066d6c                ustrrstri
                0x00066dfc                ustrnrstri
                0x00066ee8                ustrnrchr
                0x00066fdc                umemchr_utf
                0x00067178                ustrchr2
                0x000672c0                ustrnchr2
                0x0006730c                umemchr2
                0x0006744c                ustrrchr2
                0x0006758c                ustrnrchr2
                0x000675d8                umemrchr2
                0x000676ec                umemrchr
                0x0006776c                umempbrk
                0x00067838                umemrpbrk
                0x00067908                ustrnlen
                0x0006795c                umemstr
                0x000679a0                umemstri
                0x000679e4                umemrstr
                0x00067a28                umemrstri
                0x00067a6c                umemmem
                0x00067b5c                umemmemi
                0x00067d5c                umemrmem
                0x00067e54                umemrmemi
                0x00068038                ustrncpyz
                0x000680dc                uispunct
                0x000681a4                uispunctdbcs
                0x000683b0                ustrdup
                0x0006847c                umemtrim
                0x000686c8                umemicmpdbcs
                0x000687c4                umemstridbcs
                0x000688e4                umemrstridbcs
 .text          0x000689e8       0x70 ../ulib/libuserxe.a(libuserxe_a-utf.o)
                0x000689e8                utf_init
 .text          0x00068a58     0x5ba0 ../ulib/libuserxe.a(libuserxe_a-utf2.o)
                0x00068a58                umbtowc
                0x00068b14                utfpos2offs
                0x00068da4                utfctr2offs
                0x000690bc                utfstrchkmbr2wc
                0x0006953c                utfcvf2u
                0x00069a44                utfcvl2fmix
                0x00069d1c                utfcvl2f
                0x0006a3e8                utfcvl2ftab
                0x0006a5a4                utfsetdbcstbl
                0x0006a8a8                utfisvalidutf8
                0x0006a9ac                utfgetstrwidth
                0x0006aa74                utfisvalidutf8char
                0x0006ac04                utfstrvalidate
                0x0006ad70                utfgetutf8strlen
                0x0006aee8                utfsplitchk
                0x0006b10c                utfcvl2fany
                0x0006b994                utfcvf2l1
                0x0006bb7c                utfcvf2l
                0x0006c018                utfcvf2lany
                0x0006c5b4                utfcvl2fany1
                0x0006c818                utfcvl2fany1mb
                0x0006c97c                utfcvl2uany1mb
                0x0006cb20                utfcvf2lany1
                0x0006cf30                utfcvf2lany1mb
                0x0006d0b4                utfcvu2lany1mb
                0x0006d218                utfcvlocaleinit
                0x0006d444                utfcvsetdefaultlocale
                0x0006d5b4                utfcvsetparmlocale
                0x0006d710                utfgetcharset_std
                0x0006da3c                utfgetcharset
                0x0006dc60                utflocalechk
                0x0006dce0                utfcvlocaleopen
                0x0006ddf8                utfcvlocaleclose
                0x0006de24                utfcvlocaletclose
                0x0006de64                utfcviconvdbcschk_topbyte
                0x0006dfa0                utfcviconvdbcschk1
                0x0006e10c                utfcvlocaleinitICU
                0x0006e174                utfcvf2lany1ICU
                0x0006e2f0                utfcvl2fany1ICU
                0x0006e494                utfcvsetdefaultlocaleICU
                0x0006e4d8                utflocalechkICU
                0x0006e540                utfgetstrlenHK
 .text          0x0006e5f8     0x7bb0 ../ulib/libuserxe.a(libuserxe_a-utf22.o)
                0x0006e5f8                utfwwapichk
                0x0006e860                utfddflag2sbcsid
                0x0006e8f8                utfddgetlenflag
                0x0006ebb8                utf22_mapwidth0_rounddown
                0x0006ecf4                utf22_mapwidth0
                0x0006ef0c                utfucsmapinit
                0x0006f41c                utf22setworkdir
                0x0006f5b4                utf22versionchk
                0x0006f7ac                utfucsloadmap
                0x0006f9a4                utfucssavemap
                0x0006fb38                utfucsmapinit_remap
                0x0006fec8                utfucsmapmodify
                0x00070040                utfmapucs2dd
                0x000700f8                utfmapdd2ucs
                0x0007017c                utfddsetsbcs
                0x00070244                utfddgetsbcs
                0x000702a8                utfgetwcw
                0x000703e8                utfcvu2dd1w
                0x000706b4                utfcvu2dd1
                0x000707b0                utfcvf2dd
                0x00070a9c                utfdd2u1
                0x00070b08                utfdd2u1vio
                0x00070be4                utfdd2u1chsz
                0x00070dd8                utfdd2u
                0x00071304                utfucs42utf16
                0x000714d0                utfddgetucsctr
                0x0007164c                utfu2dd
                0x00071860                utfddcmp
                0x0007215c                utfddicmp
                0x000722a0                utfcvdd2f
                0x00072934                utfchkdd
                0x00072a1c                utfddisasciistr
                0x00072b90                utfddissbcsstr
                0x00072c48                utfddasciilen
                0x00072c90                utfddpos2offs
                0x00072ec8                utfddoffs2pos
                0x000731fc                utfddispunct
                0x000733f4                utfddmemspnc
                0x000734f8                utfddmemrspnc
                0x00073618                utfddstrnlen
                0x00073700                utfddstrlen
                0x000737b0                utfddstrnspn
                0x00073838                utfddmemspn
                0x0007396c                utfddmemrspn
                0x00073aa4                utfddmemchr
                0x00073bd4                utfddmemchr_nonascii
                0x00073cc8                utfddmemrchr
                0x00073db0                utfddmemrchr_nonascii
                0x00073e60                utfddmempbrk
                0x00073f40                utfddmempbrk_nonascii
                0x00074044                utfddmemrpbrk
                0x00074140                utfddmemrpbrk_nonascii
                0x00074260                utfddcmpdbcstab
                0x00074370                utfddmemmem
                0x000745f4                utfddmemrmem
                0x000746e0                utfddnumlen
                0x000749a4                utfddgetdbcslr
                0x00074ae4                utfddgetcsrposbca
                0x00074e78                utfgetvisiblealtch
                0x0007523c                utfgetvisiblealtchprint
                0x000752d8                utf_setsubchar_dbcs
                0x000754dc                utf_subcharcmp
                0x00075658                utfmemrchrDD
                0x00075714                utfmemchrDD
                0x000757f0                isASCIIstr
                0x00075858                isPrintableASCIIstr
                0x000758d0                isPrintableASCIImem
                0x0007595c                utf22_setunpucsvio
                0x00075a98                utf22_setdbcsspacealt
                0x00075b54                utfsetvisiblealtch
                0x00075cac                utf22_iswidth0Ovf
                0x00075da0                utf22_iswidth0DBCS
                0x00075e78                utf_iswidth0
                0x00075fb8                utf_iscombinable
                0x000760f4                utf_iscombining
 .text          0x000761a8     0x178c ../ulib/libuserxe.a(libuserxe_a-utf3.o)
                0x000761a8                utfmb2wc
                0x00076404                utfwcwidth
                0x00076690                utfwcwidthNoMap
                0x00076830                utfwcwidthsub
                0x00076a70                utfwcwidthsubNoMap
                0x00076c9c                utfiswide
                0x00076cd4                utfisprint
                0x00076ed8                utfgetwc
                0x00076f74                utftbinit
                0x000774ec                utftbfhelp
                0x0007750c                utftbterm
                0x00077560                utftbsrch
                0x000776dc                utftbsrch_jeuc
                0x00077748                utftbsrch_cjk
                0x00077890                utf3_wcwidthXXE
 .text          0x00077934      0xad0 ../ulib/libuserxe.a(libuserxe_a-utf4.o)
                0x00077a38                mk_wcwidth_combining
                0x00077a84                mk_wcwidth
                0x00077d48                mk_wcwidth_cjk
                0x00077e84                mk_wcswidth_cjk
                0x00077f1c                mk_wcwidth_adjsbcs
                0x0007811c                utf4_isSpacingCombiningMark
                0x000781d8                utf4_isAmbiguous
                0x000782e4                utf4_isAmbiguous_XXE
                0x00078364                utf4_isFormat
                0x000783b8                mk_wcwidth_combining2SCM
 .text          0x00078404     0x1754 ../ulib/libuserxe.a(libuserxe_a-utrace.o)
                0x00078404                utrace_initmt
                0x00078460                utrace_init
                0x000786c4                utracepop
                0x00078830                utracepopf
                0x000789e4                utracepnop
                0x00078a04                utrace_ebc
                0x00078afc                utrace
                0x00078ee0                utracectime
                0x00079104                utraceopen_force
                0x000792d4                utraceocmsg_force
                0x00079a78                utrace_term
 .text          0x00079b58      0x5b8 ../ulib/libuserxe.a(libuserxe_a-uunxsub.o)
                0x00079b58                ugetugid
                0x00079bfc                ugetusername
                0x00079c94                ugetgroupname
                0x00079d2c                usrchugname
                0x00079d98                uaddugname
                0x00079e8c                unc_setupterm
                0x00079f00                unx_fsetlock
                0x00079fc4                unx_fresetlock
                0x0007a020                unx_fchklock
                0x0007a0dc                ugethostname
 .text          0x0007a110     0x3914 ../ulib/libuserxe.a(libuserxe_a-uviol.o)
                0x0007a110                uviol_cell2attr
                0x0007a250                uviol_attr2cell
                0x0007a32c                uviol_repfg
                0x0007a3ac                uviol_altcharset
                0x0007a4f4                uvio_initparm
                0x0007a54c                uviogetmode
                0x0007a6e0                uviol_init
                0x0007ac1c                uviol_acssetup
                0x0007ad6c                uviol_init2
                0x0007ad9c                uviol_konchk
                0x0007ae90                uviol_konchk2
                0x0007af00                uviol_colorinit
                0x0007b118                uviol_termexit
                0x0007b148                uviol_cleanup
                0x0007b258                uviol_term
                0x0007b2dc                uviol_beep
                0x0007b318                uviosetmode
                0x0007b350                uvioreadcellstr
                0x0007b4e4                uviowrtcellstr
                0x0007b710                uvioreadcharstr
                0x0007b82c                uviowrtcharstr
                0x0007b934                uviowrtcharstratt
                0x0007bb30                uviowrtnattr
                0x0007bd40                uviowrtncell
                0x0007be9c                uviowrtnchar
                0x0007bffc                uviogetcurpos
                0x0007c0e8                uviosetcurpos
                0x0007c244                uviogetcurtype
                0x0007c2f4                uviosetcurtype
                0x0007c428                uviowrttty
                0x0007c468                uviol_rgb2colorno
                0x0007c680                uviol_colorno2rgb
                0x0007c7d8                uviogetstate
                0x0007ca8c                uviosetstate
                0x0007cc6c                uvioscrolldn
                0x0007cf98                uvioscrollup
                0x0007d2c4                uviol_clear
                0x0007d2fc                uviol_clearok
                0x0007d348                uviol_refresh
                0x0007d370                uviol_mvaddchnstr
                0x0007d50c                uviol_attrupdate
                0x0007d9a4                uviol_set_padattrsub
 .text          0x0007da24     0x3778 ../ulib/libuserxe.a(libuserxe_a-u3270.o)
                0x0007da24                u3270init
                0x0007da8c                u3270fstat
                0x0007e080                u3270findfile
                0x0007e2b4                u3270fullpathistso
                0x0007e340                u3270getcwd
                0x0007e3c8                u3270chdir
                0x0007e464                u3270fullpath
                0x0007e740                u3270fullpathwildexp
                0x0007ec5c                u3270getmembname
                0x0007ee00                u3270chkmembname
                0x0007ef48                u3270getlastname
                0x0007f020                u3270getnthname
                0x0007f128                u3270concatfilename
                0x0007f410                u3270editname
                0x0007f7b8                u3270parsedsn
                0x0007f854                u3270parentdsn
                0x0007f9f4                u3270getsetdsnwild
                0x0007fd14                u3270pathlen
                0x0007fe64                u3270sethostuser
                0x0007ff18                u3270cmdrequest
                0x00080190                u3270editrespmsg
                0x000802a8                u3270dirlistsub
                0x00080564                u3270setdirlist
                0x00080a24                u3270srchdirlist
                0x00080af0                u3270setdirlistdsn
                0x00080dbc                u3270setattr
                0x00080ed8                u3270getattrstr
                0x00081164                u3270errdsnpath
 .text          0x0008119c     0x152c ../ulib/libuserxe.a(libuserxe_a-u32702.o)
                0x0008119c                u3270mkdir
                0x000811d4                u3270rmdir
                0x00081204                u3270xddsub
                0x00081384                u3270xdelete
                0x00081594                u3270wildxdel
                0x000815cc                u3270xdelsub
                0x000816d4                u3270remove
                0x00081838                u3270rename
                0x00081a88                u3270renamesub
                0x00081b5c                u3270wildrename
                0x00081bac                u3270spfupdate
                0x00081d7c                u3270spfsetparm
                0x000822b8                u3270attrib
                0x000822f0                u3270attrxchk
                0x00082324                u3270getftime
                0x0008235c                u3270setftime
                0x00082394                u3270setftime2
                0x000823cc                u3270copypathinfo
                0x00082404                u3270setown
                0x0008243c                u3270setmod
                0x00082470                u3270wildfunc
                0x00082678                u3270errnotsupported
 .text          0x000826c8     0x3ab0 ../ulib/libuserxe.a(libuserxe_a-u32703.o)
                0x000826c8                u3270xmove
                0x00082838                u3270xcopyr2r
                0x00082b00                u3270xcopy
                0x00082cc8                u3270xcopyget
                0x00083784                u3270xcopyput
                0x00084238                u3270filecreateparmproc
                0x000844dc                u3270filecpymvflags
                0x00084a30                u3270filewildcopyget
                0x00084c78                u3270filewildcopyput
                0x00084fb8                u3270copysubget
                0x00085214                u3270copysubput
                0x000856a0                u3270transfer
                0x00085c04                u3270srcdupchk
                0x00085e48                u3270copyspfupdate
                0x000860ec                u3270setftpparm
 .text          0x00086178       0x40 ../ulib/libuserxe.a(libuserxe_a-uabend.o)
                0x00086178                uabend
 .text          0x000861b8     0x417c ../ulib/libuserxe.a(libuserxe_a-ucalc2.o)
                0x000861b8                bc_getxdw
                0x0008630c                bc_getld
                0x0008655c                bc_dwbinop
                0x00086b14                bc_twbinop
                0x00087034                bc_edittod
                0x000871a8                bc_dweditnum64
                0x00087210                bc_dweditnum
                0x0008752c                bc_dwupeditnum
                0x000876f4                ucalc_dwmult
                0x00087948                ucalc_twmult
                0x00087e10                ucalc_dwdiv
                0x000880f0                ucalc_dwdiv2
                0x00088428                ucalc_twdiv
                0x000885b0                ucalc_twdivbyup
                0x000886f4                ucalc_twshiftup
                0x00088810                ucalc_dwshiftdown
                0x00088940                ucalc_ltime
                0x00088d60                ucalc_getdate
                0x00088f4c                ucalc_nextday
                0x000891fc                ucalc_ld2dw
                0x00089794                ucalc_dw2ld
                0x000898a0                ucalc_nsadd
                0x00089b08                ucalc_ldedit
                0x00089c48                ucalc_dwupinit
                0x00089ca8                ucalc_dwupset
                0x00089dd8                bc_numfmt2dw
                0x00089e88                bc_dw2numfmt
                0x00089f60                ucalc_dwup2dwandup
                0x0008a104                bc_dword2word
                0x0008a200                ucalc_dw2err
                0x0008a238                ucalc_dw2errresidual
                0x0008a2ac                ucalc_dwuperr
                0x0008a2d4                ucalc_dwmaxerr
                0x0008a30c                ucalcerrdwordovf
 .text          0x0008a334     0x1ad0 ../ulib/libuserxe.a(libuserxe_a-ucvebc.o)
                0x0008a334                ucvebcinite2uJ
                0x0008a488                ucvebc
                0x0008a4a0                ucvebc_gettrte2a
                0x0008a4c0                ucvebc2asc_handle
                0x0008a560                ucvasc2ebc_handle
                0x0008a600                ucvebc2asc
                0x0008aa18                ucvebc2asc1sbcsJ
                0x0008ab98                ucvebc2ucs1sbcsJ
                0x0008ad2c                ucvasc2ebc
                0x0008b2d4                ucvebc_defaultremap
                0x0008b5b4                ucvebcinita2e
                0x0008b720                ucvkandl
                0x0008b910                ucvebcinitkandl
                0x0008ba34                ucvebc2_chkprintsbcs
                0x0008bd10                ucvebc_chkeolopt
 .text          0x0008be04     0x1718 ../ulib/libuserxe.a(libuserxe_a-ucvebc2.o)
                0x0008be04                ucvebc2
                0x0008be1c                ucvebc2_init
                0x0008be8c                ucvebc2_codecomp
                0x0008bed4                ucvebc2_s2e
                0x0008bf70                ucvebc2_e2s
                0x0008c008                ucvebc2_chkprint
                0x0008c2d0                ucvebc2_chkprintnewold
                0x0008c548                ucvebc2_chkprintdup
                0x0008c6f4                ucvebc2_e2ssub
                0x0008c934                ucvebc2_s2esub
                0x0008c9ec                ucvebc2_stre2s
                0x0008cc9c                ucvebc2_ebc2asc1dbcsJ
                0x0008cd38                ucvebc2_strs2e
                0x0008d2ec                ucvebc2_setsi
                0x0008d410                ucvebc2_setso
 .text          0x0008d51c       0xa8 ../ulib/libuserxe.a(libuserxe_a-ucvebct.o)
                0x0008d51c                ucvebc2gettbl
 .text          0x0008d5c4     0x6c18 ../ulib/libuserxe.a(libuserxe_a-ucvext.o)
                0x0008d5c4                ucvext_cfglineerr
                0x0008d600                ucvext_cfgdupoption
                0x0008d63c                ucvext_ux2s
                0x0008d724                ucvext_cfgmap
                0x0008d89c                ucvext_getcfg
                0x0008e690                ucvext_setdefaultlocalcv
                0x0008e7d4                ucvext_getarmso1
                0x0008ea34                ucvext_getarmso
                0x0008ecc0                ucvext_getarmdata1
                0x0008ee30                ucvext_getarmdata
                0x0008efe0                chkapiver
                0x0008f19c                ucvext_icuinit_env
                0x0008f438                setdatadir
                0x0008f504                ucvext_mapinit
                0x0008fee8                ucvext_setupsubch
                0x000904bc                ucvext_loaddll_icudata
                0x00090750                ucvext_loaddll
                0x00090800                ucvext_icuinit
                0x00090f24                ucvext_icuenumcvname
                0x000912f4                ucvext_icuuerrname
                0x00091364                ucvext_icugetdefaultconvertername2
                0x00091480                ucvext_getstdcharset
                0x00091858                ucvext_icugetdefaultconvertername
                0x00091998                ucvext_icugetconvertertype
                0x00091bbc                ucvext_icugetsubchars
                0x00091d40                ucvext_icusetsubchars
                0x00091e34                ucvext_icugetstarter
                0x00091fc0                ucvext_icugetconverter
                0x000925d0                ucvext_getparmconverter
                0x00092854                ucvext_openparmconverter
                0x000929d4                ucvext_getcvoption
                0x00092d40                set_internal_CP037
                0x00092e28                ucvext_mapinitsetdefault
                0x00093064                ucvext_setlocalconverter
                0x00093160                ucvext_icusubcharchk
                0x00093514                ucvext_isdbcs1st
                0x00093598                chk_converter_is_ebcdic
                0x0009368c                ucvext_handle0init
                0x000938d0                ucvext_icuclose
                0x00093938                ucvext_icureset
                0x000939a0                ucvext_icugetmbconverter
                0x00093a80                ucvext_icumbinit12
                0x00093ae0                ucvext_icumbinit
                0x00093dac                ucvext_setdefaultlocale
                0x00093e9c                chkicuversion
                0x00094128                ucvext_getConverterCfg
 .text          0x000941dc     0x49f4 ../ulib/libuserxe.a(libuserxe_a-ucvext12.o)
                0x000941dc                ucvext12_init
                0x00094340                ucvext_icuebc2ucs1
                0x000945fc                ucvext_iculocal2ucs1
                0x000948f0                ucvext_icuucs2ebc1
                0x00094c08                ucvext_icuucs2local1
                0x00094ed4                ucvext_icuebc2mb1
                0x00095334                ucvext_icumb2ebc1
                0x000957f4                ucvext_icuebc2mbs_handle
                0x00095874                ucvext_icuebc2mbs
                0x00095b7c                ucvext_icumb2ebcdbcs
                0x0009613c                ucvext_icumb2ebcs_handle
                0x000961bc                ucvext_icumb2ebcs
                0x000966bc                ucvext_icuebc2mbf
                0x00096ba4                ucvext_icumb2ebcf
                0x00097340                ucvext_icumb2ucs1
                0x0009754c                ucvext_icuucs2mb1
                0x00097774                ucvext_icuutf2mb1
                0x00097920                ucvext_icumb2utf1
                0x00097b1c                ucvext_icumb2utf
                0x00097dc4                ucvext_icuisprint
                0x00097e64                ucvext_locale1ICU
                0x00097f48                ucvext_getparmconvertermbICU
                0x00098380                ucvext_icua2ainit
                0x00098444                ucvext_icua2aterm
                0x000984bc                ucvext_icua2as
                0x00098b7c                ucvext_icusubcharchk_handle
 .text          0x00098bd0     0x1ec0 ../ulib/libuserxe.a(libuserxe_a-ucvext2.o)
                0x00098bd0                ucvext_iconvmapinit
                0x00098c1c                ucvext_iconvgetstarter
                0x00098d80                ucvext_iconvgetconvertertype
                0x00098dfc                ucvext_iconvgetconverter
                0x00098f40                ucvext_iconvgetparmconverter
                0x00099148                ucvext_iconvebc2ucs1
                0x000992b8                ucvext_iconvlocal2ucs1
                0x00099578                ucvext_iconvucs2ebc1
                0x000996ec                ucvext_iconvucs2local1
                0x00099854                ucvext_iconva2as
                0x00099e68                ucvext_iconvb2bs
                0x0009a014                ucvext_iconva2af
                0x0009a724                ucvext_iconva2ainit
                0x0009a844                ucvext_iconva2acont
 .text          0x0009aa90     0x4f64 ../ulib/libuserxe.a(libuserxe_a-ucvucs.o)
                0x0009aa90                ucp932init
                0x0009b018                ucp932term
                0x0009b0c0                ucp932sjis2ucs
                0x0009b190                ucp932ucs2sjis
                0x0009b314                uccvsjis2ucs
                0x0009b448                uccvucs2sjis
                0x0009b478                uccvucs2utf
                0x0009b6ac                uccvutf2ucs
                0x0009ba50                uccvucss2utf
                0x0009bb34                uccvutf2ucss
                0x0009bd00                uccvsjis2ucss
                0x0009bd80                uccvucss2sjis
                0x0009bdc4                uccvsjis2utf
                0x0009bea8                uccvutf2sjis
                0x0009bf74                ucvsucs2utf
                0x0009c318                ucvsescucs2utf
                0x0009c6dc                ucvssjis2utf
                0x0009caa8                ucvsmb2utf
                0x0009ce08                ucvsutf2ucs
                0x0009d16c                ucvsutf2sjis
                0x0009d608                ucvsutf2mb
                0x0009d9e8                ucvssjis2ucs
                0x0009dd0c                ucvsucs2sjis
                0x0009e0ac                ucvsescucs2sjis
                0x0009e430                ucvfsjis2ucs
                0x0009e650                ucvfucs2sjis
                0x0009e854                ucvfutf2ucs
                0x0009eaf0                ucvfucs2utf
                0x0009ed5c                ucvfsjis2utf
                0x0009efc8                ucvfutf2sjis
                0x0009f264                ucvbomchk
                0x0009f40c                ucvbomset
                0x0009f568                ucvsetucss
                0x0009f798                ucvgetucss
                0x0009f8d4                ucverrutf
                0x0009f934                ucverrucs
                0x0009f994                ucverrsjis
 .text          0x0009f9f4       0x38 ../ulib/libuserxe.a(libuserxe_a-ucvucst.o)
                0x0009f9f4                ugetcp932tbl
 .text          0x0009fa2c     0x3084 ../ulib/libuserxe.a(libuserxe_a-udbcschk.o)
                0x0009fa2c                udbcschk_wcinit
                0x0009fdcc                udbcschk_getbaseconverter
                0x0009fe74                udbcschk_setunprintable
                0x000a000c                udbcschk_wclocaleinit
                0x000a0178                udbcschk_wclocalereset
                0x000a058c                udbcschk_chklocale
                0x000a064c                udbcschk_getlinuxleadbyte
                0x000a07b4                udbcschk
                0x000a0940                udbcschk_hk
                0x000a0a2c                udbcschk_getmblen
                0x000a0cec                udbcschk_mblen
                0x000a0dbc                udbcschk_mb2nd
                0x000a0f44                udbcschk_isvalidmbchar
                0x000a1028                udbcschk_locale_topbyte
                0x000a112c                udbcschk_getdbcs1st
                0x000a1220                udbcschk_ismbdbcs1st
                0x000a1280                udbcschk_locale1
                0x000a156c                udbcschk_mb2ucs1
                0x000a16d8                udbcschk_ucs2mb1
                0x000a1804                udbcschk_forceenglish
                0x000a1870                udbcschkcp
                0x000a19dc                ugetcp
                0x000a1ac0                udbcsenv
                0x000a1b00                udosquerydbcsenv
                0x000a1c74                udbcschk2
                0x000a1d38                udbcschk_pos2offs
                0x000a1f14                usetdbcstbl
                0x000a2278                usetdbcstblmb
                0x000a26e8                udbcschk_setlocale
                0x000a2938                udbcschk_setdbcstype
                0x000a2a50                udbcschk_icugetlocalconverter
 .text          0x000a2ab0     0x2e38 ../ulib/libuserxe.a(libuserxe_a-udbcsck2.o)
                0x000a2ab0                ujischkx208
                0x000a2b80                usjischkx208
                0x000a2c60                usjis2jis
                0x000a2d68                ujis2sjis
                0x000a2e58                ustrjis2sjis
                0x000a3370                ustrsjis2jis
                0x000a3878                ushift2euc
                0x000a3db0                ushift2euc1
                0x000a3f8c                ushift2euccount
                0x000a41cc                usjischk
                0x000a4480                ueuc2shift1SS3
                0x000a44b0                ueuc2shift
                0x000a4c3c                ueucchk
                0x000a5078                ueuc2shift1
                0x000a52ec                ueuc2shift1c
                0x000a54a0                uhan2zen
                0x000a5764                udbcschktty
                0x000a57e8                udbcschk_srchSS2
 .text          0x000a58e8      0x3dc ../ulib/libuserxe.a(libuserxe_a-udos2.o)
                0x000a58e8                udos2
                0x000a5900                ugetdriveidlist
                0x000a59f4                ugetdrivelist
                0x000a5a94                ugetdrivetype
                0x000a5bbc                udos_setenv
 .text          0x000a5cc4     0x2890 ../ulib/libuserxe.a(libuserxe_a-uedit2.o)
                0x000a5cc4                uedit2
                0x000a5cdc                uasciidump
                0x000a5ef8                uasciidump_utf
                0x000a61b0                uucsdump
                0x000a64fc                ub2x
                0x000a662c                ueditfattr
                0x000a6a04                ueditfattrspf
                0x000a6ad8                ueditfattr_mdos
                0x000a6c58                uxdumpline
                0x000a7658                xdlputs
                0x000a7704                ugetdtparm
                0x000a7800                ugetdateparm
                0x000a7874                ugettimeparm
                0x000a78e8                ueditgetftnum
                0x000a7bb8                ueditsetfdateUSHORT
                0x000a7c4c                ueditsetfdate
                0x000a7d2c                ueditsetftimeUSHORT
                0x000a7dc0                ueditsetftime
                0x000a7eb8                uxdumpstr
                0x000a80e0                ueditNowFileTime
                0x000a8210                ueditescrep
 .text          0x000a8554      0x354 ../ulib/libuserxe.a(libuserxe_a-uehl.o)
                0x000a8554                useteh
                0x000a8620                uehl_setsh
                0x000a8674                ureseteh
                0x000a873c                uehl_resetsh
                0x000a8778                usighandler
 .text          0x000a88a8      0xd74 ../ulib/libuserxe.a(libuserxe_a-uproc22.o)
                0x000a88a8                ukillpid
                0x000a8944                uthread
                0x000a89bc                uevent
                0x000a8c28                uevent_wait1
                0x000a8df4                uevent_post1
                0x000a8ef8                uevent_waitm
                0x000a90dc                uevent_postm
                0x000a921c                uevent_reset1
                0x000a92b0                uevent_setuplist
                0x000a9444                uevent_resetlist
                0x000a94f4                ucriticalsection
 .text          0x000a961c     0x19c4 ../ulib/libuserxe.a(libuserxe_a-uproc3.o)
                0x000a961c                uproc_gvfsinit
                0x000a9680                ushellexec
                0x000a9b34                ushellexecsub
                0x000a9e08                ulnxlgettermpgmopt
                0x000a9f8c                ulnxlgetshellpgm
                0x000aa058                ulnxxgettermpgmopt
                0x000aa36c                uproc3pgmchk
                0x000aa410                usystemlnxterm
                0x000aa4ec                usleepms
                0x000aa590                uprocconnect
                0x000aa84c                uprocdisconnect
                0x000aa8f8                uprocpipeio
                0x000aab04                startserver
                0x000aab80                uprocpiperead
                0x000aac14                uprocpiperecevmsg
                0x000aad90                uprocpipeiodata
 .text          0x000aafe0     0x65fc ../ulib/libuserxe.a(libuserxe_a-uviom.o)
                0x000aafe0                uviom_init
                0x000ab278                uviom_setopt2
                0x000ab574                uviom_notify
                0x000ab63c                uvio_wcinit
                0x000ab69c                uviom_savecell
                0x000ab744                uviom_readcell
                0x000ab7ec                uvio_mvaddchnstrF
                0x000abe98                uviom_mvaddwchnstr
                0x000abf08                uvio_mvaddchnstrW_ligature
                0x000ac25c                uvio_mvaddchnstrW_combine
                0x000ac85c                uvio_mvaddchnstrW
                0x000acb20                uviom_cht2cchar
                0x000adb1c                uviom_setcchar_itself
                0x000adba4                uviom_setcchar_shadow
                0x000adc7c                uviom_setcombine1
                0x000ae0dc                uviom_setcombine
                0x000ae8f4                uviom_setcombineSCM
                0x000aeb14                uvio_ddcht2cchar
                0x000af840                uvio_ddcht2cchar_ligature
                0x000b05d4                uvio_getcombinectr
                0x000b0738                uviom_escrep
                0x000b0924                uviom_set_padattr
                0x000b0988                uviom_fillattrspace
                0x000b0aa4                uviom_setunpucs
                0x000b0e74                uviom_attr_itself
                0x000b0f18                uviom_ISUCSWIDTH0
                0x000b1098                uviom_iscombining
                0x000b1280                uviom_spaceclear
                0x000b12d8                uviom_clearscr
                0x000b1378                uviom_getcombaltchUcs
                0x000b1400                uviom_getcombaltchU8
 .text          0x000b15dc     0x5de8 ../ulib/libuserxe.a(libuserxe_a-ucalc.o)
                0x000b15dc                ucalc_bcmain
                0x000b245c                bc_opdchk
                0x000b3340                getvarname
                0x000b3420                ucalc_chkvrparm
                0x000b35ac                bc_getvalue
                0x000b3ca0                ucalc_vrajust
                0x000b3fc4                ucalc_o2l
                0x000b40ac                ucalc_gettimevalue
                0x000b44d4                ucalc_getunderpointdata
                0x000b4638                bc_opdcopy
                0x000b48f8                bc_putwordordword
                0x000b49d0                bc_expand2dword
                0x000b4a6c                ucalc_binop
                0x000b5008                ucalc_binopsub
                0x000b5abc                ucalc_underpoint
                0x000b5da4                ucalc_editnum
                0x000b5f6c                ucalc_editevenhex
                0x000b5ff8                ucalc_dwtime
                0x000b61e0                ucalc_time
                0x000b66d8                ucalc_timeedit
                0x000b6a68                ucalc_shiftdown
                0x000b6bb4                ucalc_shiftup
                0x000b6cf4                bc_getbase
                0x000b6d38                calcuperr1
                0x000b6d60                calcuperr2
                0x000b6d88                calcuperr3
                0x000b6db0                calcerrinvalid
                0x000b6de8                calcerrinvalid_dw
                0x000b6e20                calcerrformat
                0x000b6e48                calcerrunderflow
                0x000b6e74                calcerrwordovf
                0x000b6eb8                calcerrminus
                0x000b6ee0                calcerr0div
                0x000b6f08                calcerrtimeop
                0x000b6f30                bc_getvalue3
                0x000b71e4                bc_setconvtype3
 .text          0x000b73c4     0x54c8 ../ulib/libuserxe.a(libuserxe_a-ucvebc3.o)
                0x000b73c4                ucvebc3_getcfgparmconverter
                0x000b75c8                ucvebc3_init_xcv
                0x000b7608                ucvebc3_getconvertersubchar
                0x000b767c                ucvebc3_setletter
                0x000b7fb0                ucvebc3_init
                0x000b8224                ucvebc3_cfgerr
                0x000b824c                ucvebc3_b2uSbcs1
                0x000b8534                ucvebc3_b2ddSbcs1
                0x000b8724                ucvebc3_b2ddSbcs
                0x000b8be4                ucvebc3_b2uDbcs1
                0x000b8e00                ucvebc3_b2ddDbcs1
                0x000b9020                ucvebc3_b2ddDbcsstr
                0x000b9220                ucvebc3_b2ddDbcs
                0x000b994c                ucvebc3_b2dd
                0x000b9a40                ucvebc3_u2b1map
                0x000b9b80                ucvebc3_u2b1
                0x000b9f24                ucvebc3_m2b1Sbcs1
                0x000ba0e0                ucvebc3_m2b1
                0x000ba418                ucvebc3_m2b
                0x000ba928                ucvebc3_f2b
                0x000bafc0                ucvebc3_dd2b
                0x000bb690                ucvebc3_b2mSbcs
                0x000bbd5c                ucvebc3_b2mDbcsstr
                0x000bbffc                ucvebc3_b2m
                0x000bc4d4                ucvebc3_setdbcstbl
                0x000bc674                ucvebc3_getebc3opt
                0x000bc764                ucvebc3_b2f
                0x000bc800                ucvebc3_f2bcmd
 .text          0x000bc88c     0x1c0c ../ulib/libuserxe.a(libuserxe_a-ucvebc4.o)
                0x000bc88c                ucvebc4_init
                0x000bc918                ucvebc4_compbyname
                0x000bc970                ucvebc4_compbyhandle
                0x000bc9c0                ucvebc4_srchcveh
                0x000bcb14                ucvebc4_gethandle
                0x000bcc04                ucvebc4_getpucveh
                0x000bcc84                ucvebc4_getcvname
                0x000bcce8                ucvebc4_getcvtype
                0x000bce6c                ucvebc4_createhandle
                0x000bcfa8                ucvebc4_getparmconverter
                0x000bd0d8                ucvebc4_chkdbcsconverter
                0x000bd1f0                ucvebc4_setuphandle
                0x000bd300                ucvebc4_setletter
                0x000bda5c                ucvebc4_b2uSbcs1
                0x000bdb78                ucvebc4_b2mSbcs
                0x000bdfa4                ucvebc4_setupsubch
 .text          0x000be498      0x240 /usr/lib/gcc/arm-linux-gnueabihf/8/libgcc.a(_divsi3.o)
                0x000be498                __divsi3
                0x000be498                __aeabi_idiv
                0x000be6b8                __aeabi_idivmod
 .text          0x000be6d8       0xd4 /usr/lib/gcc/arm-linux-gnueabihf/8/libgcc.a(_aeabi_ldivmod.o)
                0x000be6d8                __aeabi_ldivmod
 .text          0x000be7ac       0x10 /usr/lib/gcc/arm-linux-gnueabihf/8/libgcc.a(_dvmd_lnx.o)
                0x000be7ac                __aeabi_idiv0
                0x000be7ac                __aeabi_ldiv0
 .text          0x000be7bc      0x128 /usr/lib/gcc/arm-linux-gnueabihf/8/libgcc.a(_udivmoddi4.o)
                0x000be7bc                __udivmoddi4
 .text          0x000be8e4       0x64 //usr/lib/arm-linux-gnueabihf/libc_nonshared.a(elf-init.oS)
                0x000be8e4                __libc_csu_init
                0x000be944                __libc_csu_fini
 .text          0x000be948       0x10 //usr/lib/arm-linux-gnueabihf/libc_nonshared.a(stat64.oS)
                0x000be948                stat64
 .text          0x000be958       0x10 //usr/lib/arm-linux-gnueabihf/libc_nonshared.a(lstat64.oS)
                0x000be958                lstat64
 .text          0x000be968        0x0 /usr/lib/gcc/arm-linux-gnueabihf/8/crtend.o
 .text          0x000be968        0x0 /usr/lib/gcc/arm-linux-gnueabihf/8/../../../arm-linux-gnueabihf/crtn.o
 *(.gnu.warning)
 *(.glue_7t)
 .glue_7t       0x000be968        0x0 linker stubs
 *(.glue_7)
 .glue_7        0x000be968        0x0 linker stubs
 *(.vfp11_veneer)
 .vfp11_veneer  0x000be968        0x0 linker stubs
 *(.v4_bx)
 .v4_bx         0x000be968        0x0 linker stubs

.fini           0x000be968        0x8
 *(SORT_NONE(.fini))
 .fini          0x000be968        0x4 /usr/lib/gcc/arm-linux-gnueabihf/8/../../../arm-linux-gnueabihf/crti.o
                0x000be968                _fini
 .fini          0x000be96c        0x4 /usr/lib/gcc/arm-linux-gnueabihf/8/../../../arm-linux-gnueabihf/crtn.o
                [!provide]                PROVIDE (__etext = .)
                [!provide]                PROVIDE (_etext = .)
                [!provide]                PROVIDE (etext = .)

.rodata         0x000be970     0xc288
 *(.rodata .rodata.* .gnu.linkonce.r.*)
 .rodata.cst4   0x000be970        0x4 /usr/lib/gcc/arm-linux-gnueabihf/8/../../../arm-linux-gnueabihf/crt1.o
                0x000be970                _IO_stdin_used
 .rodata        0x000be974      0xa19 xmj.o
 *fill*         0x000bf38d        0x3 
 .rodata        0x000bf390      0x571 ../ulib/libuserxe.a(libuserxe_a-uallocl.o)
 *fill*         0x000bf901        0x3 
 .rodata        0x000bf904       0xed ../ulib/libuserxe.a(libuserxe_a-uedit.o)
 *fill*         0x000bf9f1        0x3 
 .rodata        0x000bf9f4      0x30d ../ulib/libuserxe.a(libuserxe_a-uerr.o)
 *fill*         0x000bfd01        0x3 
 .rodata        0x000bfd04      0x8b9 ../ulib/libuserxe.a(libuserxe_a-ufemsg.o)
 *fill*         0x000c05bd        0x3 
 .rodata        0x000c05c0      0x113 ../ulib/libuserxe.a(libuserxe_a-ufile.o)
 *fill*         0x000c06d3        0x1 
 .rodata        0x000c06d4      0x12b ../ulib/libuserxe.a(libuserxe_a-ufile1f.o)
 *fill*         0x000c07ff        0x1 
 .rodata        0x000c0800      0x6a3 ../ulib/libuserxe.a(libuserxe_a-ufile1l.o)
 *fill*         0x000c0ea3        0x1 
 .rodata        0x000c0ea4      0x10f ../ulib/libuserxe.a(libuserxe_a-ufile1l2.o)
 *fill*         0x000c0fb3        0x1 
 .rodata        0x000c0fb4      0x7e4 ../ulib/libuserxe.a(libuserxe_a-ufile2.o)
 .rodata        0x000c1798      0x357 ../ulib/libuserxe.a(libuserxe_a-ufile2f.o)
 *fill*         0x000c1aef        0x1 
 .rodata        0x000c1af0       0xf6 ../ulib/libuserxe.a(libuserxe_a-ufile2l.o)
 *fill*         0x000c1be6        0x2 
 .rodata        0x000c1be8       0xfc ../ulib/libuserxe.a(libuserxe_a-ufile2l2.o)
 .rodata        0x000c1ce4      0x4da ../ulib/libuserxe.a(libuserxe_a-ufile3.o)
 *fill*         0x000c21be        0x2 
 .rodata        0x000c21c0      0x476 ../ulib/libuserxe.a(libuserxe_a-ufile3f.o)
 *fill*         0x000c2636        0x2 
 .rodata        0x000c2638      0x234 ../ulib/libuserxe.a(libuserxe_a-ufile4.o)
 .rodata        0x000c286c      0x1a6 ../ulib/libuserxe.a(libuserxe_a-ufile5.o)
 *fill*         0x000c2a12        0x2 
 .rodata        0x000c2a14      0x619 ../ulib/libuserxe.a(libuserxe_a-uftp.o)
 *fill*         0x000c302d        0x3 
 .rodata        0x000c3030      0x45c ../ulib/libuserxe.a(libuserxe_a-uftp2.o)
 .rodata        0x000c348c      0x512 ../ulib/libuserxe.a(libuserxe_a-uftp3.o)
 *fill*         0x000c399e        0x2 
 .rodata        0x000c39a0        0xb ../ulib/libuserxe.a(libuserxe_a-ugcclib.o)
 *fill*         0x000c39ab        0x1 
 .rodata        0x000c39ac       0xef ../ulib/libuserxe.a(libuserxe_a-ukbdl.o)
 *fill*         0x000c3a9b        0x1 
 .rodata        0x000c3a9c      0xf2a ../ulib/libuserxe.a(libuserxe_a-ukbdlnxc.o)
 *fill*         0x000c49c6        0x2 
 .rodata        0x000c49c8       0x2d ../ulib/libuserxe.a(libuserxe_a-uparse.o)
 *fill*         0x000c49f5        0x3 
 .rodata        0x000c49f8      0x4fd ../ulib/libuserxe.a(libuserxe_a-uproc.o)
 *fill*         0x000c4ef5        0x3 
 .rodata        0x000c4ef8      0x168 ../ulib/libuserxe.a(libuserxe_a-uproc2.o)
 .rodata        0x000c5060      0x341 ../ulib/libuserxe.a(libuserxe_a-uproc4.o)
 *fill*         0x000c53a1        0x3 
 .rodata        0x000c53a4      0x384 ../ulib/libuserxe.a(libuserxe_a-uque.o)
 .rodata        0x000c5728       0x7e ../ulib/libuserxe.a(libuserxe_a-ustrcpy.o)
 *fill*         0x000c57a6        0x2 
 .rodata        0x000c57a8        0x4 ../ulib/libuserxe.a(libuserxe_a-ustring.o)
 .rodata        0x000c57ac      0x1cc ../ulib/libuserxe.a(libuserxe_a-utf2.o)
 .rodata        0x000c5978      0x325 ../ulib/libuserxe.a(libuserxe_a-utf22.o)
 *fill*         0x000c5c9d        0x3 
 .rodata        0x000c5ca0      0x133 ../ulib/libuserxe.a(libuserxe_a-utf3.o)
 *fill*         0x000c5dd3        0x1 
 .rodata        0x000c5dd4     0x19d0 ../ulib/libuserxe.a(libuserxe_a-utf4.o)
 .rodata        0x000c77a4      0x161 ../ulib/libuserxe.a(libuserxe_a-utrace.o)
 *fill*         0x000c7905        0x3 
 .rodata        0x000c7908       0x98 ../ulib/libuserxe.a(libuserxe_a-uunxsub.o)
 .rodata        0x000c79a0       0x7a ../ulib/libuserxe.a(libuserxe_a-uviol.o)
 *fill*         0x000c7a1a        0x2 
 .rodata        0x000c7a1c      0x161 ../ulib/libuserxe.a(libuserxe_a-u3270.o)
 *fill*         0x000c7b7d        0x3 
 .rodata        0x000c7b80      0x1ad ../ulib/libuserxe.a(libuserxe_a-u32702.o)
 *fill*         0x000c7d2d        0x3 
 .rodata        0x000c7d30      0x395 ../ulib/libuserxe.a(libuserxe_a-u32703.o)
 *fill*         0x000c80c5        0x3 
 .rodata        0x000c80c8       0x30 ../ulib/libuserxe.a(libuserxe_a-uabend.o)
 .rodata        0x000c80f8      0x7c3 ../ulib/libuserxe.a(libuserxe_a-ucalc2.o)
 *fill*         0x000c88bb        0x1 
 .rodata        0x000c88bc      0x88e ../ulib/libuserxe.a(libuserxe_a-ucvebc.o)
 *fill*         0x000c914a        0x2 
 .rodata        0x000c914c      0x221 ../ulib/libuserxe.a(libuserxe_a-ucvebc2.o)
 *fill*         0x000c936d        0x3 
 .rodata        0x000c9370      0x8e8 ../ulib/libuserxe.a(libuserxe_a-ucvext.o)
 .rodata        0x000c9c58       0xca ../ulib/libuserxe.a(libuserxe_a-ucvext12.o)
 *fill*         0x000c9d22        0x2 
 .rodata        0x000c9d24      0x172 ../ulib/libuserxe.a(libuserxe_a-ucvext2.o)
 *fill*         0x000c9e96        0x2 
 .rodata        0x000c9e98       0xa2 ../ulib/libuserxe.a(libuserxe_a-ucvucs.o)
 *fill*         0x000c9f3a        0x2 
 .rodata        0x000c9f3c      0x10c ../ulib/libuserxe.a(libuserxe_a-udbcschk.o)
 .rodata        0x000ca048        0xc ../ulib/libuserxe.a(libuserxe_a-udbcsck2.o)
 .rodata        0x000ca054       0x47 ../ulib/libuserxe.a(libuserxe_a-udos2.o)
 *fill*         0x000ca09b        0x1 
 .rodata        0x000ca09c       0xbd ../ulib/libuserxe.a(libuserxe_a-uedit2.o)
 *fill*         0x000ca159        0x3 
 .rodata        0x000ca15c       0x33 ../ulib/libuserxe.a(libuserxe_a-uehl.o)
 *fill*         0x000ca18f        0x1 
 .rodata        0x000ca190       0x66 ../ulib/libuserxe.a(libuserxe_a-uproc22.o)
 *fill*         0x000ca1f6        0x2 
 .rodata        0x000ca1f8      0x410 ../ulib/libuserxe.a(libuserxe_a-uproc3.o)
 .rodata        0x000ca608        0x2 ../ulib/libuserxe.a(libuserxe_a-uviom.o)
 *fill*         0x000ca60a        0x2 
 .rodata        0x000ca60c      0x4ad ../ulib/libuserxe.a(libuserxe_a-ucalc.o)
 *fill*         0x000caab9        0x3 
 .rodata        0x000caabc       0x8f ../ulib/libuserxe.a(libuserxe_a-ucvebc3.o)
 *fill*         0x000cab4b        0x1 
 .rodata        0x000cab4c       0xac ../ulib/libuserxe.a(libuserxe_a-ucvebc4.o)

.rodata1
 *(.rodata1)

.ARM.extab      0x000cabf8        0x0
 *(.ARM.extab* .gnu.linkonce.armextab.*)
 .ARM.extab     0x000cabf8        0x0 /usr/lib/gcc/arm-linux-gnueabihf/8/../../../arm-linux-gnueabihf/crt1.o
 .ARM.extab     0x000cabf8        0x0 /usr/lib/gcc/arm-linux-gnueabihf/8/libgcc.a(_udivmoddi4.o)
                [!provide]                PROVIDE (__exidx_start = .)

.ARM.exidx      0x000cabf8        0x8
 *(.ARM.exidx* .gnu.linkonce.armexidx.*)
 .ARM.exidx     0x000cabf8        0x8 /usr/lib/gcc/arm-linux-gnueabihf/8/../../../arm-linux-gnueabihf/crt1.o
 .ARM.exidx     0x000cac00        0x0 /usr/lib/gcc/arm-linux-gnueabihf/8/libgcc.a(_udivmoddi4.o)
                                  0x8 (size before relaxing)
                [!provide]                PROVIDE (__exidx_end = .)

.eh_frame_hdr
 *(.eh_frame_hdr)
 *(.eh_frame_entry .eh_frame_entry.*)

.eh_frame       0x000cac00        0x4
 *(.eh_frame)
 .eh_frame      0x000cac00        0x4 /usr/lib/gcc/arm-linux-gnueabihf/8/crtend.o
 *(.eh_frame.*)

.gcc_except_table
 *(.gcc_except_table .gcc_except_table.*)

.gnu_extab
 *(.gnu_extab*)

.exception_ranges
 *(.exception_ranges .exception_ranges*)
                0x000dae08                . = DATA_SEGMENT_ALIGN (CONSTANT (MAXPAGESIZE), CONSTANT (COMMONPAGESIZE))

.eh_frame
 *(.eh_frame)
 *(.eh_frame.*)

.gnu_extab
 *(.gnu_extab)

.gcc_except_table
 *(.gcc_except_table .gcc_except_table.*)

.exception_ranges
 *(.exception_ranges .exception_ranges*)

.tdata          0x000dae08        0x0
                [!provide]                PROVIDE (__tdata_start = .)
 *(.tdata .tdata.* .gnu.linkonce.td.*)

.tbss
 *(.tbss .tbss.* .gnu.linkonce.tb.*)
 *(.tcommon)

.preinit_array  0x000dae08        0x0
                [!provide]                PROVIDE (__preinit_array_start = .)
 *(.preinit_array)
                [!provide]                PROVIDE (__preinit_array_end = .)

.init_array     0x000dae08        0x4
                0x000dae08                PROVIDE (__init_array_start = .)
 *(SORT_BY_INIT_PRIORITY(.init_array.*) SORT_BY_INIT_PRIORITY(.ctors.*))
 *(.init_array EXCLUDE_FILE(*crtend?.o *crtend.o *crtbegin?.o *crtbegin.o) .ctors)
 .init_array    0x000dae08        0x4 /usr/lib/gcc/arm-linux-gnueabihf/8/crtbegin.o
                0x000dae0c                PROVIDE (__init_array_end = .)

.fini_array     0x000dae0c        0x4
                [!provide]                PROVIDE (__fini_array_start = .)
 *(SORT_BY_INIT_PRIORITY(.fini_array.*) SORT_BY_INIT_PRIORITY(.dtors.*))
 *(.fini_array EXCLUDE_FILE(*crtend?.o *crtend.o *crtbegin?.o *crtbegin.o) .dtors)
 .fini_array    0x000dae0c        0x4 /usr/lib/gcc/arm-linux-gnueabihf/8/crtbegin.o
                [!provide]                PROVIDE (__fini_array_end = .)

.ctors
 *crtbegin.o(.ctors)
 *crtbegin?.o(.ctors)
 *(EXCLUDE_FILE(*crtend?.o *crtend.o) .ctors)
 *(SORT_BY_NAME(.ctors.*))
 *(.ctors)

.dtors
 *crtbegin.o(.dtors)
 *crtbegin?.o(.dtors)
 *(EXCLUDE_FILE(*crtend?.o *crtend.o) .dtors)
 *(SORT_BY_NAME(.dtors.*))
 *(.dtors)

.jcr
 *(.jcr)

.data.rel.ro    0x000dae10        0x0
 *(.data.rel.ro.local* .gnu.linkonce.d.rel.ro.local.*)
 *(.data.rel.ro .data.rel.ro.* .gnu.linkonce.d.rel.ro.*)
 .data.rel.ro   0x000dae10        0x0 /usr/lib/gcc/arm-linux-gnueabihf/8/../../../arm-linux-gnueabihf/crt1.o

.dynamic        0x000dae10      0x1f0
 *(.dynamic)
 .dynamic       0x000dae10      0x1f0 /usr/lib/gcc/arm-linux-gnueabihf/8/../../../arm-linux-gnueabihf/crt1.o
                0x000dae10                _DYNAMIC
                0x000db000                . = DATA_SEGMENT_RELRO_END (., 0x0)

.got            0x000db000      0x2e0
 *(.got.plt)
 .got.plt       0x000db000      0x2dc /usr/lib/gcc/arm-linux-gnueabihf/8/../../../arm-linux-gnueabihf/crt1.o
                0x000db000                _GLOBAL_OFFSET_TABLE_
 *(.igot.plt)
 .igot.plt      0x000db2dc        0x0 /usr/lib/gcc/arm-linux-gnueabihf/8/../../../arm-linux-gnueabihf/crt1.o
 *(.got)
 .got           0x000db2dc        0x4 /usr/lib/gcc/arm-linux-gnueabihf/8/../../../arm-linux-gnueabihf/crt1.o
 *(.igot)

.data           0x000db2e0    0x2766c
                [!provide]                PROVIDE (__data_start = .)
 *(.data .data.* .gnu.linkonce.d.*)
 .data          0x000db2e0        0x4 /usr/lib/gcc/arm-linux-gnueabihf/8/../../../arm-linux-gnueabihf/crt1.o
                0x000db2e0                __data_start
                0x000db2e0                data_start
 .data          0x000db2e4        0x0 /usr/lib/gcc/arm-linux-gnueabihf/8/../../../arm-linux-gnueabihf/crti.o
 .data          0x000db2e4        0x4 /usr/lib/gcc/arm-linux-gnueabihf/8/crtbegin.o
                0x000db2e4                __dso_handle
 .data          0x000db2e8       0x30 xmj.o
 .data          0x000db318     0x1000 ../ulib/libuserxe.a(libuserxe_a-uallocl.o)
 .data          0x000dc318        0x0 ../ulib/libuserxe.a(libuserxe_a-uedit.o)
 .data          0x000dc318        0xd ../ulib/libuserxe.a(libuserxe_a-uerr.o)
 .data          0x000dc325        0x0 ../ulib/libuserxe.a(libuserxe_a-ufemsg.o)
 *fill*         0x000dc325        0x3 
 .data          0x000dc328        0xc ../ulib/libuserxe.a(libuserxe_a-ufile.o)
 .data          0x000dc334        0x0 ../ulib/libuserxe.a(libuserxe_a-ufile1f.o)
 .data          0x000dc334        0x0 ../ulib/libuserxe.a(libuserxe_a-ufile1l.o)
 .data          0x000dc334       0x2c ../ulib/libuserxe.a(libuserxe_a-ufile1l2.o)
 .data          0x000dc360        0x0 ../ulib/libuserxe.a(libuserxe_a-ufile2.o)
 .data          0x000dc360        0x0 ../ulib/libuserxe.a(libuserxe_a-ufile2f.o)
 .data          0x000dc360        0x0 ../ulib/libuserxe.a(libuserxe_a-ufile2l.o)
 .data          0x000dc360        0x0 ../ulib/libuserxe.a(libuserxe_a-ufile2l2.o)
 .data          0x000dc360        0x0 ../ulib/libuserxe.a(libuserxe_a-ufile3.o)
 .data          0x000dc360        0x0 ../ulib/libuserxe.a(libuserxe_a-ufile3f.o)
 .data          0x000dc360        0x0 ../ulib/libuserxe.a(libuserxe_a-ufile4.o)
 .data          0x000dc360        0x0 ../ulib/libuserxe.a(libuserxe_a-ufile5.o)
 .data          0x000dc360       0x10 ../ulib/libuserxe.a(libuserxe_a-uftp.o)
 .data          0x000dc370       0x50 ../ulib/libuserxe.a(libuserxe_a-uftp2.o)
 .data          0x000dc3c0        0x4 ../ulib/libuserxe.a(libuserxe_a-uftp3.o)
 .data          0x000dc3c4        0x0 ../ulib/libuserxe.a(libuserxe_a-ugcclib.o)
 .data          0x000dc3c4        0x0 ../ulib/libuserxe.a(libuserxe_a-ukbdl.o)
 .data          0x000dc3c4     0xb6bc ../ulib/libuserxe.a(libuserxe_a-ukbdlnxc.o)
 .data          0x000e7a80       0x10 ../ulib/libuserxe.a(libuserxe_a-ukbdlnxm.o)
 .data          0x000e7a90        0x0 ../ulib/libuserxe.a(libuserxe_a-uparse.o)
 .data          0x000e7a90       0x20 ../ulib/libuserxe.a(libuserxe_a-uproc.o)
 .data          0x000e7ab0        0x0 ../ulib/libuserxe.a(libuserxe_a-uproc2.o)
 .data          0x000e7ab0        0x0 ../ulib/libuserxe.a(libuserxe_a-uproc4.o)
 .data          0x000e7ab0        0x0 ../ulib/libuserxe.a(libuserxe_a-uque.o)
 .data          0x000e7ab0        0x0 ../ulib/libuserxe.a(libuserxe_a-ustrcpy.o)
 .data          0x000e7ab0       0xfb ../ulib/libuserxe.a(libuserxe_a-ustring.o)
 .data          0x000e7bab        0x0 ../ulib/libuserxe.a(libuserxe_a-utf.o)
 .data          0x000e7bab        0x0 ../ulib/libuserxe.a(libuserxe_a-utf2.o)
 *fill*         0x000e7bab        0x1 
 .data          0x000e7bac      0x164 ../ulib/libuserxe.a(libuserxe_a-utf22.o)
 .data          0x000e7d10      0xe98 ../ulib/libuserxe.a(libuserxe_a-utf3.o)
 .data          0x000e8ba8        0x0 ../ulib/libuserxe.a(libuserxe_a-utf4.o)
 .data          0x000e8ba8     0x1928 ../ulib/libuserxe.a(libuserxe_a-utrace.o)
 .data          0x000ea4d0        0x0 ../ulib/libuserxe.a(libuserxe_a-uunxsub.o)
 .data          0x000ea4d0        0xc ../ulib/libuserxe.a(libuserxe_a-uviol.o)
 .data          0x000ea4dc        0x4 ../ulib/libuserxe.a(libuserxe_a-u3270.o)
 .data          0x000ea4e0        0x0 ../ulib/libuserxe.a(libuserxe_a-u32702.o)
 .data          0x000ea4e0        0x0 ../ulib/libuserxe.a(libuserxe_a-u32703.o)
 .data          0x000ea4e0        0x0 ../ulib/libuserxe.a(libuserxe_a-uabend.o)
 .data          0x000ea4e0      0x24c ../ulib/libuserxe.a(libuserxe_a-ucalc2.o)
 .data          0x000ea72c      0x248 ../ulib/libuserxe.a(libuserxe_a-ucvebc.o)
 .data          0x000ea974        0x0 ../ulib/libuserxe.a(libuserxe_a-ucvebc2.o)
 .data          0x000ea974     0xed30 ../ulib/libuserxe.a(libuserxe_a-ucvebct.o)
 .data          0x000f96a4      0x316 ../ulib/libuserxe.a(libuserxe_a-ucvext.o)
 .data          0x000f99ba        0x6 ../ulib/libuserxe.a(libuserxe_a-ucvext12.o)
 .data          0x000f99c0        0x0 ../ulib/libuserxe.a(libuserxe_a-ucvext2.o)
 .data          0x000f99c0       0x28 ../ulib/libuserxe.a(libuserxe_a-ucvucs.o)
 .data          0x000f99e8     0x7cb0 ../ulib/libuserxe.a(libuserxe_a-ucvucst.o)
                0x000f99e8                Scp932tb
 .data          0x00101698        0x8 ../ulib/libuserxe.a(libuserxe_a-udbcschk.o)
                0x00101698                Gpdbcstbl
 .data          0x001016a0     0x1148 ../ulib/libuserxe.a(libuserxe_a-udbcsck2.o)
 .data          0x001027e8        0x0 ../ulib/libuserxe.a(libuserxe_a-udos2.o)
 .data          0x001027e8       0x78 ../ulib/libuserxe.a(libuserxe_a-uedit2.o)
 .data          0x00102860       0x38 ../ulib/libuserxe.a(libuserxe_a-uehl.o)
 .data          0x00102898        0x0 ../ulib/libuserxe.a(libuserxe_a-uproc22.o)
 .data          0x00102898       0x54 ../ulib/libuserxe.a(libuserxe_a-uproc3.o)
 .data          0x001028ec        0x4 ../ulib/libuserxe.a(libuserxe_a-uviom.o)
                0x001028ec                Guviomdbcspad
 .data          0x001028f0       0x54 ../ulib/libuserxe.a(libuserxe_a-ucalc.o)
 .data          0x00102944        0x8 ../ulib/libuserxe.a(libuserxe_a-ucvebc3.o)
 .data          0x0010294c        0x0 ../ulib/libuserxe.a(libuserxe_a-ucvebc4.o)
 .data          0x0010294c        0x0 /usr/lib/gcc/arm-linux-gnueabihf/8/libgcc.a(_divsi3.o)
 .data          0x0010294c        0x0 /usr/lib/gcc/arm-linux-gnueabihf/8/libgcc.a(_aeabi_ldivmod.o)
 .data          0x0010294c        0x0 /usr/lib/gcc/arm-linux-gnueabihf/8/libgcc.a(_dvmd_lnx.o)
 .data          0x0010294c        0x0 /usr/lib/gcc/arm-linux-gnueabihf/8/libgcc.a(_udivmoddi4.o)
 .data          0x0010294c        0x0 //usr/lib/arm-linux-gnueabihf/libc_nonshared.a(elf-init.oS)
 .data          0x0010294c        0x0 //usr/lib/arm-linux-gnueabihf/libc_nonshared.a(stat64.oS)
 .data          0x0010294c        0x0 //usr/lib/arm-linux-gnueabihf/libc_nonshared.a(lstat64.oS)
 .data          0x0010294c        0x0 /usr/lib/gcc/arm-linux-gnueabihf/8/crtend.o
 .data          0x0010294c        0x0 /usr/lib/gcc/arm-linux-gnueabihf/8/../../../arm-linux-gnueabihf/crtn.o

.tm_clone_table
                0x0010294c        0x0
 .tm_clone_table
                0x0010294c        0x0 /usr/lib/gcc/arm-linux-gnueabihf/8/crtbegin.o
 .tm_clone_table
                0x0010294c        0x0 /usr/lib/gcc/arm-linux-gnueabihf/8/crtend.o

.data1
 *(.data1)
                0x0010294c                _edata = .
                [!provide]                PROVIDE (edata = .)
                0x0010294c                . = .
                0x0010294c                __bss_start = .
                0x0010294c                __bss_start__ = .

.bss            0x00102950   0x147a80
 *(.dynbss)
 .dynbss        0x00102950      0x230 /usr/lib/gcc/arm-linux-gnueabihf/8/../../../arm-linux-gnueabihf/crt1.o
                0x00102950                COLORS@@NCURSESW6_5.1.20000708
                0x00102954                LINES@@NCURSES6_TINFO_5.0.19991023
                0x00102958                acs_map@@NCURSES6_TINFO_5.0.19991023
                0x00102b58                stdscr@@NCURSES6_TINFO_5.0.19991023
                0x00102b5c                cur_term@@NCURSES6_TINFO_5.0.19991023
                0x00102b60                COLS@@NCURSES6_TINFO_5.0.19991023
                0x00102b64                stdout@@GLIBC_2.4
                0x00102b68                COLOR_PAIRS@@NCURSESW6_5.1.20000708
                0x00102b70                stdin@@GLIBC_2.4
                0x00102b78                stderr@@GLIBC_2.4
                0x00102b7c                newscr@@NCURSES6_TINFO_5.0.19991023
 *(.bss .bss.* .gnu.linkonce.b.*)
 .bss           0x00102b80        0x0 /usr/lib/gcc/arm-linux-gnueabihf/8/../../../arm-linux-gnueabihf/crt1.o
 .bss           0x00102b80        0x0 /usr/lib/gcc/arm-linux-gnueabihf/8/../../../arm-linux-gnueabihf/crti.o
 .bss           0x00102b80        0x1 /usr/lib/gcc/arm-linux-gnueabihf/8/crtbegin.o
 *fill*         0x00102b81        0x3 
 .bss           0x00102b84     0x30d4 xmj.o
 .bss           0x00105c58       0x84 ../ulib/libuserxe.a(libuserxe_a-uallocl.o)
 .bss           0x00105cdc       0xd8 ../ulib/libuserxe.a(libuserxe_a-uedit.o)
 .bss           0x00105db4     0x40e4 ../ulib/libuserxe.a(libuserxe_a-uerr.o)
 .bss           0x00109e98       0x20 ../ulib/libuserxe.a(libuserxe_a-ufemsg.o)
 .bss           0x00109eb8       0x18 ../ulib/libuserxe.a(libuserxe_a-ufile.o)
 .bss           0x00109ed0        0x4 ../ulib/libuserxe.a(libuserxe_a-ufile1f.o)
 .bss           0x00109ed4    0x64658 ../ulib/libuserxe.a(libuserxe_a-ufile1l.o)
 .bss           0x0016e52c        0x4 ../ulib/libuserxe.a(libuserxe_a-ufile1l2.o)
 .bss           0x0016e530       0x34 ../ulib/libuserxe.a(libuserxe_a-ufile2.o)
 .bss           0x0016e564       0x20 ../ulib/libuserxe.a(libuserxe_a-ufile2f.o)
 .bss           0x0016e584        0x4 ../ulib/libuserxe.a(libuserxe_a-ufile2l.o)
 .bss           0x0016e588        0x0 ../ulib/libuserxe.a(libuserxe_a-ufile2l2.o)
 .bss           0x0016e588        0x8 ../ulib/libuserxe.a(libuserxe_a-ufile3.o)
 .bss           0x0016e590     0x100d ../ulib/libuserxe.a(libuserxe_a-ufile3f.o)
 *fill*         0x0016f59d        0x3 
 .bss           0x0016f5a0     0x1034 ../ulib/libuserxe.a(libuserxe_a-ufile4.o)
 *fill*         0x001705d4        0x4 
 .bss           0x001705d8       0x5d ../ulib/libuserxe.a(libuserxe_a-ufile5.o)
 *fill*         0x00170635        0x3 
 .bss           0x00170638    0x64d00 ../ulib/libuserxe.a(libuserxe_a-uftp.o)
 .bss           0x001d5338        0x8 ../ulib/libuserxe.a(libuserxe_a-uftp2.o)
 .bss           0x001d5340        0x0 ../ulib/libuserxe.a(libuserxe_a-uftp3.o)
 .bss           0x001d5340        0x4 ../ulib/libuserxe.a(libuserxe_a-ugcclib.o)
 .bss           0x001d5344       0xf4 ../ulib/libuserxe.a(libuserxe_a-ukbdl.o)
                0x001d5344                Swcstat
 .bss           0x001d5438     0x5808 ../ulib/libuserxe.a(libuserxe_a-ukbdlnxc.o)
 .bss           0x001dac40        0x8 ../ulib/libuserxe.a(libuserxe_a-ukbdlnxm.o)
 .bss           0x001dac48      0x205 ../ulib/libuserxe.a(libuserxe_a-uparse.o)
 *fill*         0x001dae4d        0x3 
 .bss           0x001dae50       0x1c ../ulib/libuserxe.a(libuserxe_a-uproc.o)
                0x001dae50                Sserverstat
                0x001dae54                Scmdservercallback
                0x001dae58                Scallbackparm
                0x001dae5c                Scmdserverchildpid
 .bss           0x001dae6c        0x4 ../ulib/libuserxe.a(libuserxe_a-uproc2.o)
 .bss           0x001dae70       0x1c ../ulib/libuserxe.a(libuserxe_a-uproc4.o)
 .bss           0x001dae8c        0x0 ../ulib/libuserxe.a(libuserxe_a-uque.o)
 .bss           0x001dae8c        0x0 ../ulib/libuserxe.a(libuserxe_a-ustrcpy.o)
 .bss           0x001dae8c        0x0 ../ulib/libuserxe.a(libuserxe_a-ustring.o)
 .bss           0x001dae8c        0x0 ../ulib/libuserxe.a(libuserxe_a-utf.o)
 .bss           0x001dae8c       0x98 ../ulib/libuserxe.a(libuserxe_a-utf2.o)
 .bss           0x001daf24       0x14 ../ulib/libuserxe.a(libuserxe_a-utf22.o)
 .bss           0x001daf38        0x8 ../ulib/libuserxe.a(libuserxe_a-utf3.o)
 .bss           0x001daf40        0x4 ../ulib/libuserxe.a(libuserxe_a-utf4.o)
 .bss           0x001daf44     0x1170 ../ulib/libuserxe.a(libuserxe_a-utrace.o)
 .bss           0x001dc0b4       0x20 ../ulib/libuserxe.a(libuserxe_a-uunxsub.o)
 .bss           0x001dc0d4      0x508 ../ulib/libuserxe.a(libuserxe_a-uviol.o)
 .bss           0x001dc5dc        0xc ../ulib/libuserxe.a(libuserxe_a-u3270.o)
 .bss           0x001dc5e8       0x10 ../ulib/libuserxe.a(libuserxe_a-u32702.o)
 .bss           0x001dc5f8     0x1208 ../ulib/libuserxe.a(libuserxe_a-u32703.o)
 .bss           0x001dd800        0x0 ../ulib/libuserxe.a(libuserxe_a-uabend.o)
 .bss           0x001dd800        0x0 ../ulib/libuserxe.a(libuserxe_a-ucalc2.o)
 .bss           0x001dd800      0x790 ../ulib/libuserxe.a(libuserxe_a-ucvebc.o)
 .bss           0x001ddf90       0x10 ../ulib/libuserxe.a(libuserxe_a-ucvebc2.o)
 .bss           0x001ddfa0        0x0 ../ulib/libuserxe.a(libuserxe_a-ucvebct.o)
 .bss           0x001ddfa0     0x1cd4 ../ulib/libuserxe.a(libuserxe_a-ucvext.o)
 .bss           0x001dfc74       0x24 ../ulib/libuserxe.a(libuserxe_a-ucvext12.o)
 .bss           0x001dfc98        0xc ../ulib/libuserxe.a(libuserxe_a-ucvext2.o)
 .bss           0x001dfca4        0xc ../ulib/libuserxe.a(libuserxe_a-ucvucs.o)
 .bss           0x001dfcb0        0x0 ../ulib/libuserxe.a(libuserxe_a-ucvucst.o)
 .bss           0x001dfcb0      0x2f9 ../ulib/libuserxe.a(libuserxe_a-udbcschk.o)
 .bss           0x001dffa9        0x0 ../ulib/libuserxe.a(libuserxe_a-udbcsck2.o)
 .bss           0x001dffa9        0x0 ../ulib/libuserxe.a(libuserxe_a-udos2.o)
 *fill*         0x001dffa9        0x3 
 .bss           0x001dffac      0x268 ../ulib/libuserxe.a(libuserxe_a-uedit2.o)
 .bss           0x001e0214       0x64 ../ulib/libuserxe.a(libuserxe_a-uehl.o)
 .bss           0x001e0278       0x18 ../ulib/libuserxe.a(libuserxe_a-uproc22.o)
 .bss           0x001e0290       0x10 ../ulib/libuserxe.a(libuserxe_a-uproc3.o)
 .bss           0x001e02a0       0x58 ../ulib/libuserxe.a(libuserxe_a-uviom.o)
 .bss           0x001e02f8      0x114 ../ulib/libuserxe.a(libuserxe_a-ucalc.o)
 .bss           0x001e040c       0x34 ../ulib/libuserxe.a(libuserxe_a-ucvebc3.o)
 .bss           0x001e0440        0x4 ../ulib/libuserxe.a(libuserxe_a-ucvebc4.o)
 .bss           0x001e0444        0x0 /usr/lib/gcc/arm-linux-gnueabihf/8/libgcc.a(_divsi3.o)
 .bss           0x001e0444        0x0 /usr/lib/gcc/arm-linux-gnueabihf/8/libgcc.a(_aeabi_ldivmod.o)
 .bss           0x001e0444        0x0 /usr/lib/gcc/arm-linux-gnueabihf/8/libgcc.a(_dvmd_lnx.o)
 .bss           0x001e0444        0x0 /usr/lib/gcc/arm-linux-gnueabihf/8/libgcc.a(_udivmoddi4.o)
 .bss           0x001e0444        0x0 //usr/lib/arm-linux-gnueabihf/libc_nonshared.a(elf-init.oS)
 .bss           0x001e0444        0x0 //usr/lib/arm-linux-gnueabihf/libc_nonshared.a(stat64.oS)
 .bss           0x001e0444        0x0 //usr/lib/arm-linux-gnueabihf/libc_nonshared.a(lstat64.oS)
 .bss           0x001e0444        0x0 /usr/lib/gcc/arm-linux-gnueabihf/8/crtend.o
 .bss           0x001e0444        0x0 /usr/lib/gcc/arm-linux-gnueabihf/8/../../../arm-linux-gnueabihf/crtn.o
 *(COMMON)
 COMMON         0x001e0444        0x8 ../ulib/libuserxe.a(libuserxe_a-uallocl.o)
                0x001e0444                Gualloc_amount
                0x001e0448                Gualloc16_amount
 COMMON         0x001e044c        0x5 ../ulib/libuserxe.a(libuserxe_a-uerr.o)
                0x001e044c                Guerropt2
                0x001e0450                Guerropt
 *fill*         0x001e0451        0x3 
 COMMON         0x001e0454        0x8 ../ulib/libuserxe.a(libuserxe_a-ufile.o)
                0x001e0454                Gufile_opt
                0x001e0458                Gufile_nomsg
 COMMON         0x001e045c       0x88 ../ulib/libuserxe.a(libuserxe_a-uftp2.o)
                0x001e045c                Gftperr
                0x001e0460                Gftpopt
                0x001e0464                Gftpclient
 COMMON         0x001e04e4        0x8 ../ulib/libuserxe.a(libuserxe_a-ukbdl.o)
                0x001e04e4                Sphiconv
                0x001e04e8                Gukbdl_flag
 COMMON         0x001e04ec        0x8 ../ulib/libuserxe.a(libuserxe_a-uproc.o)
                0x001e04ec                Sfdpiper
                0x001e04f0                Sfdpipew
 COMMON         0x001e04f4        0xc ../ulib/libuserxe.a(libuserxe_a-utf.o)
                0x001e04f4                Gulibutfmode
                0x001e04f8                Gutfrc
                0x001e04fc                Gutfcombaltch
 COMMON         0x001e0500    0x60000 ../ulib/libuserxe.a(libuserxe_a-utf22.o)
                0x001e0500                Gucs2ddmap_i2u
                0x00200500                Gucs2ddmap
 COMMON         0x00240500      0x104 ../ulib/libuserxe.a(libuserxe_a-utrace.o)
                0x00240500                Gtracehdr
                0x00240600                Slockhandle
 COMMON         0x00240604        0x4 ../ulib/libuserxe.a(libuserxe_a-uviol.o)
                0x00240604                Guviol_flag
 COMMON         0x00240608     0x9c48 ../ulib/libuserxe.a(libuserxe_a-ucvebc.o)
                0x00240608                Gucvebchctr
                0x0024060c                Gucvebch
                0x0024a24c                Gucvebc_stat
 COMMON         0x0024a250       0x10 ../ulib/libuserxe.a(libuserxe_a-ucvebc2.o)
                0x0024a250                Snewoldctr
                0x0024a254                Se2stctr
                0x0024a258                Sduptctr
                0x0024a25c                Ss2etctr
 COMMON         0x0024a260        0xc ../ulib/libuserxe.a(libuserxe_a-udbcschk.o)
                0x0024a260                Gudbcschk_flag
                0x0024a264                Gudbcschk_width0top
                0x0024a268                Sdbcschk_hkopt
 COMMON         0x0024a26c       0x24 ../ulib/libuserxe.a(libuserxe_a-uviom.o)
                0x0024a26c                Guviombuffu
                0x0024a270                Guviomopt
                0x0024a274                Guviomoptstr
                0x0024a278                Guviomopt2
                0x0024a27c                Gw95buffopt
                0x0024a280                Guviomoptstrucs
 COMMON         0x0024a290      0x140 ../ulib/libuserxe.a(libuserxe_a-ucalc.o)
                0x0024a290                Gucalc_result
                0x0024a3d0                . = ALIGN ((. != 0x0)?0x4:0x1)
                0x0024a3d0                _bss_end__ = .
                0x0024a3d0                __bss_end__ = .
                0x0024a3d0                . = ALIGN (0x4)
                0x0024a3d0                . = SEGMENT_START ("ldata-segment", .)
                0x0024a3d0                . = ALIGN (0x4)
                0x0024a3d0                __end__ = .
                0x0024a3d0                _end = .
                [!provide]                PROVIDE (end = .)
                0x0024a3d0                . = DATA_SEGMENT_END (.)

.stab
 *(.stab)

.stabstr
 *(.stabstr)

.stab.excl
 *(.stab.excl)

.stab.exclstr
 *(.stab.exclstr)

.stab.index
 *(.stab.index)

.stab.indexstr
 *(.stab.indexstr)

.comment        0x00000000       0x23
 *(.comment)
 .comment       0x00000000       0x23 /usr/lib/gcc/arm-linux-gnueabihf/8/crtbegin.o
                                 0x24 (size before relaxing)
 .comment       0x00000023       0x24 xmj.o
 .comment       0x00000023       0x24 ../ulib/libuserxe.a(libuserxe_a-uallocl.o)
 .comment       0x00000023       0x24 ../ulib/libuserxe.a(libuserxe_a-uedit.o)
 .comment       0x00000023       0x24 ../ulib/libuserxe.a(libuserxe_a-uerr.o)
 .comment       0x00000023       0x24 ../ulib/libuserxe.a(libuserxe_a-ufemsg.o)
 .comment       0x00000023       0x24 ../ulib/libuserxe.a(libuserxe_a-ufile.o)
 .comment       0x00000023       0x24 ../ulib/libuserxe.a(libuserxe_a-ufile1f.o)
 .comment       0x00000023       0x24 ../ulib/libuserxe.a(libuserxe_a-ufile1l.o)
 .comment       0x00000023       0x24 ../ulib/libuserxe.a(libuserxe_a-ufile1l2.o)
 .comment       0x00000023       0x24 ../ulib/libuserxe.a(libuserxe_a-ufile2.o)
 .comment       0x00000023       0x24 ../ulib/libuserxe.a(libuserxe_a-ufile2f.o)
 .comment       0x00000023       0x24 ../ulib/libuserxe.a(libuserxe_a-ufile2l.o)
 .comment       0x00000023       0x24 ../ulib/libuserxe.a(libuserxe_a-ufile2l2.o)
 .comment       0x00000023       0x24 ../ulib/libuserxe.a(libuserxe_a-ufile3.o)
 .comment       0x00000023       0x24 ../ulib/libuserxe.a(libuserxe_a-ufile3f.o)
 .comment       0x00000023       0x24 ../ulib/libuserxe.a(libuserxe_a-ufile4.o)
 .comment       0x00000023       0x24 ../ulib/libuserxe.a(libuserxe_a-ufile5.o)
 .comment       0x00000023       0x24 ../ulib/libuserxe.a(libuserxe_a-uftp.o)
 .comment       0x00000023       0x24 ../ulib/libuserxe.a(libuserxe_a-uftp2.o)
 .comment       0x00000023       0x24 ../ulib/libuserxe.a(libuserxe_a-uftp3.o)
 .comment       0x00000023       0x24 ../ulib/libuserxe.a(libuserxe_a-ugcclib.o)
 .comment       0x00000023       0x24 ../ulib/libuserxe.a(libuserxe_a-ukbdl.o)
 .comment       0x00000023       0x24 ../ulib/libuserxe.a(libuserxe_a-ukbdlnxc.o)
 .comment       0x00000023       0x24 ../ulib/libuserxe.a(libuserxe_a-ukbdlnxm.o)
 .comment       0x00000023       0x24 ../ulib/libuserxe.a(libuserxe_a-uparse.o)
 .comment       0x00000023       0x24 ../ulib/libuserxe.a(libuserxe_a-uproc.o)
 .comment       0x00000023       0x24 ../ulib/libuserxe.a(libuserxe_a-uproc2.o)
 .comment       0x00000023       0x24 ../ulib/libuserxe.a(libuserxe_a-uproc4.o)
 .comment       0x00000023       0x24 ../ulib/libuserxe.a(libuserxe_a-uque.o)
 .comment       0x00000023       0x24 ../ulib/libuserxe.a(libuserxe_a-ustrcpy.o)
 .comment       0x00000023       0x24 ../ulib/libuserxe.a(libuserxe_a-ustring.o)
 .comment       0x00000023       0x24 ../ulib/libuserxe.a(libuserxe_a-utf.o)
 .comment       0x00000023       0x24 ../ulib/libuserxe.a(libuserxe_a-utf2.o)
 .comment       0x00000023       0x24 ../ulib/libuserxe.a(libuserxe_a-utf22.o)
 .comment       0x00000023       0x24 ../ulib/libuserxe.a(libuserxe_a-utf3.o)
 .comment       0x00000023       0x24 ../ulib/libuserxe.a(libuserxe_a-utf4.o)
 .comment       0x00000023       0x24 ../ulib/libuserxe.a(libuserxe_a-utrace.o)
 .comment       0x00000023       0x24 ../ulib/libuserxe.a(libuserxe_a-uunxsub.o)
 .comment       0x00000023       0x24 ../ulib/libuserxe.a(libuserxe_a-uviol.o)
 .comment       0x00000023       0x24 ../ulib/libuserxe.a(libuserxe_a-u3270.o)
 .comment       0x00000023       0x24 ../ulib/libuserxe.a(libuserxe_a-u32702.o)
 .comment       0x00000023       0x24 ../ulib/libuserxe.a(libuserxe_a-u32703.o)
 .comment       0x00000023       0x24 ../ulib/libuserxe.a(libuserxe_a-uabend.o)
 .comment       0x00000023       0x24 ../ulib/libuserxe.a(libuserxe_a-ucalc2.o)
 .comment       0x00000023       0x24 ../ulib/libuserxe.a(libuserxe_a-ucvebc.o)
 .comment       0x00000023       0x24 ../ulib/libuserxe.a(libuserxe_a-ucvebc2.o)
 .comment       0x00000023       0x24 ../ulib/libuserxe.a(libuserxe_a-ucvebct.o)
 .comment       0x00000023       0x24 ../ulib/libuserxe.a(libuserxe_a-ucvext.o)
 .comment       0x00000023       0x24 ../ulib/libuserxe.a(libuserxe_a-ucvext12.o)
 .comment       0x00000023       0x24 ../ulib/libuserxe.a(libuserxe_a-ucvext2.o)
 .comment       0x00000023       0x24 ../ulib/libuserxe.a(libuserxe_a-ucvucs.o)
 .comment       0x00000023       0x24 ../ulib/libuserxe.a(libuserxe_a-ucvucst.o)
 .comment       0x00000023       0x24 ../ulib/libuserxe.a(libuserxe_a-udbcschk.o)
 .comment       0x00000023       0x24 ../ulib/libuserxe.a(libuserxe_a-udbcsck2.o)
 .comment       0x00000023       0x24 ../ulib/libuserxe.a(libuserxe_a-udos2.o)
 .comment       0x00000023       0x24 ../ulib/libuserxe.a(libuserxe_a-uedit2.o)
 .comment       0x00000023       0x24 ../ulib/libuserxe.a(libuserxe_a-uehl.o)
 .comment       0x00000023       0x24 ../ulib/libuserxe.a(libuserxe_a-uproc22.o)
 .comment       0x00000023       0x24 ../ulib/libuserxe.a(libuserxe_a-uproc3.o)
 .comment       0x00000023       0x24 ../ulib/libuserxe.a(libuserxe_a-uviom.o)
 .comment       0x00000023       0x24 ../ulib/libuserxe.a(libuserxe_a-ucalc.o)
 .comment       0x00000023       0x24 ../ulib/libuserxe.a(libuserxe_a-ucvebc3.o)
 .comment       0x00000023       0x24 ../ulib/libuserxe.a(libuserxe_a-ucvebc4.o)
 .comment       0x00000023       0x24 /usr/lib/gcc/arm-linux-gnueabihf/8/crtend.o

.ARM.attributes
                0x00000000       0x2f
 .ARM.attributes
                0x00000000       0x2f /usr/lib/gcc/arm-linux-gnueabihf/8/../../../arm-linux-gnueabihf/crt1.o
 .ARM.attributes
                0x0000002f       0x23 /usr/lib/gcc/arm-linux-gnueabihf/8/../../../arm-linux-gnueabihf/crti.o
 .ARM.attributes
                0x00000052       0x2f /usr/lib/gcc/arm-linux-gnueabihf/8/crtbegin.o
 .ARM.attributes
                0x00000081       0x2f xmj.o
 .ARM.attributes
                0x000000b0       0x2f ../ulib/libuserxe.a(libuserxe_a-uallocl.o)
 .ARM.attributes
                0x000000df       0x2f ../ulib/libuserxe.a(libuserxe_a-uedit.o)
 .ARM.attributes
                0x0000010e       0x2f ../ulib/libuserxe.a(libuserxe_a-uerr.o)
 .ARM.attributes
                0x0000013d       0x2f ../ulib/libuserxe.a(libuserxe_a-ufemsg.o)
 .ARM.attributes
                0x0000016c       0x2f ../ulib/libuserxe.a(libuserxe_a-ufile.o)
 .ARM.attributes
                0x0000019b       0x2f ../ulib/libuserxe.a(libuserxe_a-ufile1f.o)
 .ARM.attributes
                0x000001ca       0x2f ../ulib/libuserxe.a(libuserxe_a-ufile1l.o)
 .ARM.attributes
                0x000001f9       0x2f ../ulib/libuserxe.a(libuserxe_a-ufile1l2.o)
 .ARM.attributes
                0x00000228       0x2f ../ulib/libuserxe.a(libuserxe_a-ufile2.o)
 .ARM.attributes
                0x00000257       0x2f ../ulib/libuserxe.a(libuserxe_a-ufile2f.o)
 .ARM.attributes
                0x00000286       0x2f ../ulib/libuserxe.a(libuserxe_a-ufile2l.o)
 .ARM.attributes
                0x000002b5       0x2f ../ulib/libuserxe.a(libuserxe_a-ufile2l2.o)
 .ARM.attributes
                0x000002e4       0x2f ../ulib/libuserxe.a(libuserxe_a-ufile3.o)
 .ARM.attributes
                0x00000313       0x2f ../ulib/libuserxe.a(libuserxe_a-ufile3f.o)
 .ARM.attributes
                0x00000342       0x2f ../ulib/libuserxe.a(libuserxe_a-ufile4.o)
 .ARM.attributes
                0x00000371       0x2f ../ulib/libuserxe.a(libuserxe_a-ufile5.o)
 .ARM.attributes
                0x000003a0       0x2f ../ulib/libuserxe.a(libuserxe_a-uftp.o)
 .ARM.attributes
                0x000003cf       0x2f ../ulib/libuserxe.a(libuserxe_a-uftp2.o)
 .ARM.attributes
                0x000003fe       0x2f ../ulib/libuserxe.a(libuserxe_a-uftp3.o)
 .ARM.attributes
                0x0000042d       0x2f ../ulib/libuserxe.a(libuserxe_a-ugcclib.o)
 .ARM.attributes
                0x0000045c       0x2f ../ulib/libuserxe.a(libuserxe_a-ukbdl.o)
 .ARM.attributes
                0x0000048b       0x2f ../ulib/libuserxe.a(libuserxe_a-ukbdlnxc.o)
 .ARM.attributes
                0x000004ba       0x2f ../ulib/libuserxe.a(libuserxe_a-ukbdlnxm.o)
 .ARM.attributes
                0x000004e9       0x2f ../ulib/libuserxe.a(libuserxe_a-uparse.o)
 .ARM.attributes
                0x00000518       0x2f ../ulib/libuserxe.a(libuserxe_a-uproc.o)
 .ARM.attributes
                0x00000547       0x2f ../ulib/libuserxe.a(libuserxe_a-uproc2.o)
 .ARM.attributes
                0x00000576       0x2f ../ulib/libuserxe.a(libuserxe_a-uproc4.o)
 .ARM.attributes
                0x000005a5       0x2f ../ulib/libuserxe.a(libuserxe_a-uque.o)
 .ARM.attributes
                0x000005d4       0x2f ../ulib/libuserxe.a(libuserxe_a-ustrcpy.o)
 .ARM.attributes
                0x00000603       0x2f ../ulib/libuserxe.a(libuserxe_a-ustring.o)
 .ARM.attributes
                0x00000632       0x2f ../ulib/libuserxe.a(libuserxe_a-utf.o)
 .ARM.attributes
                0x00000661       0x2f ../ulib/libuserxe.a(libuserxe_a-utf2.o)
 .ARM.attributes
                0x00000690       0x2f ../ulib/libuserxe.a(libuserxe_a-utf22.o)
 .ARM.attributes
                0x000006bf       0x2f ../ulib/libuserxe.a(libuserxe_a-utf3.o)
 .ARM.attributes
                0x000006ee       0x2f ../ulib/libuserxe.a(libuserxe_a-utf4.o)
 .ARM.attributes
                0x0000071d       0x2f ../ulib/libuserxe.a(libuserxe_a-utrace.o)
 .ARM.attributes
                0x0000074c       0x2f ../ulib/libuserxe.a(libuserxe_a-uunxsub.o)
 .ARM.attributes
                0x0000077b       0x2f ../ulib/libuserxe.a(libuserxe_a-uviol.o)
 .ARM.attributes
                0x000007aa       0x2f ../ulib/libuserxe.a(libuserxe_a-u3270.o)
 .ARM.attributes
                0x000007d9       0x2f ../ulib/libuserxe.a(libuserxe_a-u32702.o)
 .ARM.attributes
                0x00000808       0x2f ../ulib/libuserxe.a(libuserxe_a-u32703.o)
 .ARM.attributes
                0x00000837       0x2f ../ulib/libuserxe.a(libuserxe_a-uabend.o)
 .ARM.attributes
                0x00000866       0x2f ../ulib/libuserxe.a(libuserxe_a-ucalc2.o)
 .ARM.attributes
                0x00000895       0x2f ../ulib/libuserxe.a(libuserxe_a-ucvebc.o)
 .ARM.attributes
                0x000008c4       0x2f ../ulib/libuserxe.a(libuserxe_a-ucvebc2.o)
 .ARM.attributes
                0x000008f3       0x2f ../ulib/libuserxe.a(libuserxe_a-ucvebct.o)
 .ARM.attributes
                0x00000922       0x2f ../ulib/libuserxe.a(libuserxe_a-ucvext.o)
 .ARM.attributes
                0x00000951       0x2f ../ulib/libuserxe.a(libuserxe_a-ucvext12.o)
 .ARM.attributes
                0x00000980       0x2f ../ulib/libuserxe.a(libuserxe_a-ucvext2.o)
 .ARM.attributes
                0x000009af       0x2f ../ulib/libuserxe.a(libuserxe_a-ucvucs.o)
 .ARM.attributes
                0x000009de       0x2f ../ulib/libuserxe.a(libuserxe_a-ucvucst.o)
 .ARM.attributes
                0x00000a0d       0x2f ../ulib/libuserxe.a(libuserxe_a-udbcschk.o)
 .ARM.attributes
                0x00000a3c       0x2f ../ulib/libuserxe.a(libuserxe_a-udbcsck2.o)
 .ARM.attributes
                0x00000a6b       0x2f ../ulib/libuserxe.a(libuserxe_a-udos2.o)
 .ARM.attributes
                0x00000a9a       0x2f ../ulib/libuserxe.a(libuserxe_a-uedit2.o)
 .ARM.attributes
                0x00000ac9       0x2f ../ulib/libuserxe.a(libuserxe_a-uehl.o)
 .ARM.attributes
                0x00000af8       0x2f ../ulib/libuserxe.a(libuserxe_a-uproc22.o)
 .ARM.attributes
                0x00000b27       0x2f ../ulib/libuserxe.a(libuserxe_a-uproc3.o)
 .ARM.attributes
                0x00000b56       0x2f ../ulib/libuserxe.a(libuserxe_a-uviom.o)
 .ARM.attributes
                0x00000b85       0x2f ../ulib/libuserxe.a(libuserxe_a-ucalc.o)
 .ARM.attributes
                0x00000bb4       0x2f ../ulib/libuserxe.a(libuserxe_a-ucvebc3.o)
 .ARM.attributes
                0x00000be3       0x2f ../ulib/libuserxe.a(libuserxe_a-ucvebc4.o)
 .ARM.attributes
                0x00000c12       0x1d /usr/lib/gcc/arm-linux-gnueabihf/8/libgcc.a(_divsi3.o)
 .ARM.attributes
                0x00000c2f       0x1d /usr/lib/gcc/arm-linux-gnueabihf/8/libgcc.a(_aeabi_ldivmod.o)
 .ARM.attributes
                0x00000c4c       0x1d /usr/lib/gcc/arm-linux-gnueabihf/8/libgcc.a(_dvmd_lnx.o)
 .ARM.attributes
                0x00000c69       0x2f /usr/lib/gcc/arm-linux-gnueabihf/8/libgcc.a(_udivmoddi4.o)
 .ARM.attributes
                0x00000c98       0x31 //usr/lib/arm-linux-gnueabihf/libc_nonshared.a(elf-init.oS)
 .ARM.attributes
                0x00000cc9       0x31 //usr/lib/arm-linux-gnueabihf/libc_nonshared.a(stat64.oS)
 .ARM.attributes
                0x00000cfa       0x31 //usr/lib/arm-linux-gnueabihf/libc_nonshared.a(lstat64.oS)
 .ARM.attributes
                0x00000d2b       0x2f /usr/lib/gcc/arm-linux-gnueabihf/8/crtend.o
 .ARM.attributes
                0x00000d5a       0x23 /usr/lib/gcc/arm-linux-gnueabihf/8/../../../arm-linux-gnueabihf/crtn.o

.debug
 *(.debug)

.line
 *(.line)

.debug_srcinfo
 *(.debug_srcinfo)

.debug_sfnames
 *(.debug_sfnames)

.debug_aranges
 *(.debug_aranges)

.debug_pubnames
 *(.debug_pubnames)

.debug_info
 *(.debug_info .gnu.linkonce.wi.*)

.debug_abbrev
 *(.debug_abbrev)

.debug_line
 *(.debug_line .debug_line.* .debug_line_end)

.debug_frame
 *(.debug_frame)

.debug_str
 *(.debug_str)

.debug_loc
 *(.debug_loc)

.debug_macinfo
 *(.debug_macinfo)

.debug_weaknames
 *(.debug_weaknames)

.debug_funcnames
 *(.debug_funcnames)

.debug_typenames
 *(.debug_typenames)

.debug_varnames
 *(.debug_varnames)

.debug_pubtypes
 *(.debug_pubtypes)

.debug_ranges
 *(.debug_ranges)

.debug_macro
 *(.debug_macro)

.debug_addr
 *(.debug_addr)

.gnu.attributes
 *(.gnu.attributes)

.note.gnu.arm.ident
 *(.note.gnu.arm.ident)

/DISCARD/
 *(.note.GNU-stack)
 *(.gnu_debuglink)
 *(.gnu.lto_*)
OUTPUT(xmj elf32-littlearm)
