Archive member included to satisfy reference by file (symbol)

../ulib/libuserxe.a(libuserxe_a-uedit.o)
                              xpe.o (unumlen)
../ulib/libuserxe.a(libuserxe_a-uerr.o)
                              xpe.o (uerrexit_init)
../ulib/libuserxe.a(libuserxe_a-ufile2.o)
                              ../ulib/libuserxe.a(libuserxe_a-uerr.o) (uremove)
../ulib/libuserxe.a(libuserxe_a-ufile2f.o)
                              ../ulib/libuserxe.a(libuserxe_a-ufile2.o) (uftpremove)
../ulib/libuserxe.a(libuserxe_a-ufile2l.o)
                              ../ulib/libuserxe.a(libuserxe_a-ufile2.o) (urmdir)
../ulib/libuserxe.a(libuserxe_a-ufile2l2.o)
                              ../ulib/libuserxe.a(libuserxe_a-ufile2l.o) (umkdir_mdos)
../ulib/libuserxe.a(libuserxe_a-ufile3.o)
                              ../ulib/libuserxe.a(libuserxe_a-ufile2l2.o) (udoscopy)
../ulib/libuserxe.a(libuserxe_a-ufile3f.o)
                              ../ulib/libuserxe.a(libuserxe_a-ufile3.o) (uftpxmove)
../ulib/libuserxe.a(libuserxe_a-ufile4.o)
                              ../ulib/libuserxe.a(libuserxe_a-ufile2l2.o) (utempnam)
../ulib/libuserxe.a(libuserxe_a-ufile5.o)
                              ../ulib/libuserxe.a(libuserxe_a-ufile2.o) (udoseditname)
../ulib/libuserxe.a(libuserxe_a-uftp.o)
                              ../ulib/libuserxe.a(libuserxe_a-ufile2f.o) (uftpisexist)
../ulib/libuserxe.a(libuserxe_a-uftp2.o)
                              ../ulib/libuserxe.a(libuserxe_a-uftp.o) (Gftpopt)
../ulib/libuserxe.a(libuserxe_a-uftp3.o)
                              ../ulib/libuserxe.a(libuserxe_a-uftp.o) (uftp3setssh)
../ulib/libuserxe.a(libuserxe_a-ugcclib.o)
                              ../ulib/libuserxe.a(libuserxe_a-uedit.o) (memicmp)
../ulib/libuserxe.a(libuserxe_a-ukbdl.o)
                              ../ulib/libuserxe.a(libuserxe_a-ugcclib.o) (ukbdl_getch_init)
../ulib/libuserxe.a(libuserxe_a-ukbdlnxc.o)
                              ../ulib/libuserxe.a(libuserxe_a-ukbdl.o) (ukbdlnxc_init)
../ulib/libuserxe.a(libuserxe_a-ukbdlnxm.o)
                              ../ulib/libuserxe.a(libuserxe_a-ukbdlnxc.o) (ukbdlnxm_mouseinit)
../ulib/libuserxe.a(libuserxe_a-uparse.o)
                              ../ulib/libuserxe.a(libuserxe_a-uftp.o) (uparsev)
../ulib/libuserxe.a(libuserxe_a-uproc.o)
                              ../ulib/libuserxe.a(libuserxe_a-ukbdl.o) (uproc_getpsinfo)
../ulib/libuserxe.a(libuserxe_a-uproc2.o)
                              ../ulib/libuserxe.a(libuserxe_a-ufile2f.o) (uproc_rsh)
../ulib/libuserxe.a(libuserxe_a-uproc4.o)
                              ../ulib/libuserxe.a(libuserxe_a-ukbdlnxc.o) (uproc_select)
../ulib/libuserxe.a(libuserxe_a-uque.o)
                              ../ulib/libuserxe.a(libuserxe_a-uftp.o) (uenq)
../ulib/libuserxe.a(libuserxe_a-ustrcpy.o)
                              ../ulib/libuserxe.a(libuserxe_a-uedit.o) (ustring_memcpy)
../ulib/libuserxe.a(libuserxe_a-ustring.o)
                              ../ulib/libuserxe.a(libuserxe_a-uftp.o) (ustrnlen)
../ulib/libuserxe.a(libuserxe_a-utf3.o)
                              ../ulib/libuserxe.a(libuserxe_a-ufile5.o) (utfgetwc)
../ulib/libuserxe.a(libuserxe_a-utf4.o)
                              ../ulib/libuserxe.a(libuserxe_a-utf3.o) (mk_wcwidth)
../ulib/libuserxe.a(libuserxe_a-utrace.o)
                              ../ulib/libuserxe.a(libuserxe_a-uftp2.o) (Gtracehdr)
../ulib/libuserxe.a(libuserxe_a-uunxsub.o)
                              ../ulib/libuserxe.a(libuserxe_a-ufile2l.o) (ugetugid)
../ulib/libuserxe.a(libuserxe_a-uviol.o)
                              ../ulib/libuserxe.a(libuserxe_a-uerr.o) (Guviol_flag)
../ulib/libuserxe.a(libuserxe_a-u3270.o)
                              ../ulib/libuserxe.a(libuserxe_a-ufile5.o) (u3270editname)
../ulib/libuserxe.a(libuserxe_a-u32702.o)
                              ../ulib/libuserxe.a(libuserxe_a-ufile2f.o) (u3270mkdir)
../ulib/libuserxe.a(libuserxe_a-u32703.o)
                              ../ulib/libuserxe.a(libuserxe_a-ufile3.o) (u3270xmove)
../ulib/libuserxe.a(libuserxe_a-uabend.o)
                              ../ulib/libuserxe.a(libuserxe_a-ukbdl.o) (uabend)
../ulib/libuserxe.a(libuserxe_a-uallocl.o)
                              ../ulib/libuserxe.a(libuserxe_a-uedit.o) (umalloc)
../ulib/libuserxe.a(libuserxe_a-ucalc2.o)
                              ../ulib/libuserxe.a(libuserxe_a-uftp2.o) (ucalc_ld2dw)
../ulib/libuserxe.a(libuserxe_a-ucvebc.o)
                              ../ulib/libuserxe.a(libuserxe_a-uerr.o) (Gucvebc_stat)
../ulib/libuserxe.a(libuserxe_a-ucvebc2.o)
                              ../ulib/libuserxe.a(libuserxe_a-ucvebc.o) (ucvebc2_stre2s)
../ulib/libuserxe.a(libuserxe_a-ucvebct.o)
                              ../ulib/libuserxe.a(libuserxe_a-ucvebc2.o) (ucvebc2gettbl)
../ulib/libuserxe.a(libuserxe_a-ucvext12.o)
                              ../ulib/libuserxe.a(libuserxe_a-ucvebc.o) (ucvext_icuebc2mbs_handle)
../ulib/libuserxe.a(libuserxe_a-ucvext2.o)
                              ../ulib/libuserxe.a(libuserxe_a-ucvext12.o) (ucvext_iconvebc2ucs1)
../ulib/libuserxe.a(libuserxe_a-ucvucs.o)
                              ../ulib/libuserxe.a(libuserxe_a-ucvext12.o) (uccvucs2utf)
../ulib/libuserxe.a(libuserxe_a-ucvucst.o)
                              ../ulib/libuserxe.a(libuserxe_a-ucvucs.o) (ugetcp932tbl)
../ulib/libuserxe.a(libuserxe_a-udbcschk.o)
                              ../ulib/libuserxe.a(libuserxe_a-uerr.o) (Gudbcschk_flag)
../ulib/libuserxe.a(libuserxe_a-udbcsck2.o)
                              ../ulib/libuserxe.a(libuserxe_a-uerr.o) (ushift2euc)
../ulib/libuserxe.a(libuserxe_a-uedit2.o)
                              ../ulib/libuserxe.a(libuserxe_a-uftp.o) (ueditsetfdateUSHORT)
../ulib/libuserxe.a(libuserxe_a-uehl.o)
                              ../ulib/libuserxe.a(libuserxe_a-ukbdlnxc.o) (uehl_setsh)
../ulib/libuserxe.a(libuserxe_a-ufemsg.o)
                              ../ulib/libuserxe.a(libuserxe_a-ufile2.o) (ufilenotfound)
../ulib/libuserxe.a(libuserxe_a-ufile.o)
                              ../ulib/libuserxe.a(libuserxe_a-ufile2.o) (Gufile_nomsg)
../ulib/libuserxe.a(libuserxe_a-ufile1f.o)
                              ../ulib/libuserxe.a(libuserxe_a-ufile2f.o) (uftpfstat)
../ulib/libuserxe.a(libuserxe_a-ufile1l.o)
                              ../ulib/libuserxe.a(libuserxe_a-ufile2.o) (ufstat)
../ulib/libuserxe.a(libuserxe_a-ufile1l2.o)
                              ../ulib/libuserxe.a(libuserxe_a-ufile1l.o) (ufstat_mdos)
../ulib/libuserxe.a(libuserxe_a-uproc22.o)
                              ../ulib/libuserxe.a(libuserxe_a-utrace.o) (ucriticalsection)
../ulib/libuserxe.a(libuserxe_a-uproc3.o)
                              ../ulib/libuserxe.a(libuserxe_a-uproc4.o) (usleepms)
../ulib/libuserxe.a(libuserxe_a-utf.o)
                              ../ulib/libuserxe.a(libuserxe_a-utf3.o) (Gulibutfmode)
../ulib/libuserxe.a(libuserxe_a-utf2.o)
                              ../ulib/libuserxe.a(libuserxe_a-ufile1l.o) (utfcvl2fany)
../ulib/libuserxe.a(libuserxe_a-utf22.o)
                              ../ulib/libuserxe.a(libuserxe_a-utf3.o) (utfwwapichk)
../ulib/libuserxe.a(libuserxe_a-uviom.o)
                              ../ulib/libuserxe.a(libuserxe_a-uviol.o) (Guviomopt)
../ulib/libuserxe.a(libuserxe_a-ucalc.o)
                              ../ulib/libuserxe.a(libuserxe_a-ucalc2.o) (ucalc_binop)
../ulib/libuserxe.a(libuserxe_a-ucvebc3.o)
                              ../ulib/libuserxe.a(libuserxe_a-ucvext2.o) (ucvebc3_b2dd)
../ulib/libuserxe.a(libuserxe_a-ucvebc4.o)
                              ../ulib/libuserxe.a(libuserxe_a-ucvext2.o) (ucvebc4_createhandle)
../ulib/libuserxe.a(libuserxe_a-ucvext.o)
                              ../ulib/libuserxe.a(libuserxe_a-ucvebc3.o) (ucvext_mapinit)
../ulib/libuserxe.a(libuserxe_a-udos2.o)
                              ../ulib/libuserxe.a(libuserxe_a-ufile1l2.o) (udos_setenv)
/usr/lib/gcc/arm-linux-gnueabihf/8/libgcc.a(_divsi3.o)
                              ../ulib/libuserxe.a(libuserxe_a-ufile2.o) (__aeabi_idiv)
/usr/lib/gcc/arm-linux-gnueabihf/8/libgcc.a(_aeabi_ldivmod.o)
                              ../ulib/libuserxe.a(libuserxe_a-u32703.o) (__aeabi_ldivmod)
/usr/lib/gcc/arm-linux-gnueabihf/8/libgcc.a(_dvmd_lnx.o)
                              /usr/lib/gcc/arm-linux-gnueabihf/8/libgcc.a(_aeabi_ldivmod.o) (__aeabi_ldiv0)
/usr/lib/gcc/arm-linux-gnueabihf/8/libgcc.a(_udivmoddi4.o)
                              /usr/lib/gcc/arm-linux-gnueabihf/8/libgcc.a(_aeabi_ldivmod.o) (__udivmoddi4)
//usr/lib/arm-linux-gnueabihf/libc_nonshared.a(elf-init.oS)
                              /usr/lib/gcc/arm-linux-gnueabihf/8/../../../arm-linux-gnueabihf/crt1.o (__libc_csu_init)
//usr/lib/arm-linux-gnueabihf/libc_nonshared.a(stat64.oS)
                              ../ulib/libuserxe.a(libuserxe_a-ufile1l.o) (stat64)
//usr/lib/arm-linux-gnueabihf/libc_nonshared.a(lstat64.oS)
                              ../ulib/libuserxe.a(libuserxe_a-ufile1l.o) (lstat64)

Allocating common symbols
Common symbol       size              file

Gucs2ddmap_i2u      0x20000           ../ulib/libuserxe.a(libuserxe_a-utf22.o)
Guviombuffu         0x4               ../ulib/libuserxe.a(libuserxe_a-uviom.o)
Gufile_opt          0x4               ../ulib/libuserxe.a(libuserxe_a-ufile.o)
Sphiconv            0x4               ../ulib/libuserxe.a(libuserxe_a-ukbdl.o)
Snewoldctr          0x4               ../ulib/libuserxe.a(libuserxe_a-ucvebc2.o)
Gftperr             0x4               ../ulib/libuserxe.a(libuserxe_a-uftp2.o)
Gulibutfmode        0x4               ../ulib/libuserxe.a(libuserxe_a-utf.o)
Se2stctr            0x4               ../ulib/libuserxe.a(libuserxe_a-ucvebc2.o)
Gtracehdr           0x100             ../ulib/libuserxe.a(libuserxe_a-utrace.o)
Sfdpiper            0x4               ../ulib/libuserxe.a(libuserxe_a-uproc.o)
Gutfrc              0x4               ../ulib/libuserxe.a(libuserxe_a-utf.o)
Gualloc_amount      0x4               ../ulib/libuserxe.a(libuserxe_a-uallocl.o)
Guviomopt           0x4               ../ulib/libuserxe.a(libuserxe_a-uviom.o)
Slockhandle         0x4               ../ulib/libuserxe.a(libuserxe_a-utrace.o)
Gucvebchctr         0x4               ../ulib/libuserxe.a(libuserxe_a-ucvebc.o)
Gudbcschk_flag      0x4               ../ulib/libuserxe.a(libuserxe_a-udbcschk.o)
Guerropt2           0x4               ../ulib/libuserxe.a(libuserxe_a-uerr.o)
Sduptctr            0x4               ../ulib/libuserxe.a(libuserxe_a-ucvebc2.o)
Gukbdl_flag         0x4               ../ulib/libuserxe.a(libuserxe_a-ukbdl.o)
Ss2etctr            0x4               ../ulib/libuserxe.a(libuserxe_a-ucvebc2.o)
Gucvebch            0x9c40            ../ulib/libuserxe.a(libuserxe_a-ucvebc.o)
Gucalc_result       0x140             ../ulib/libuserxe.a(libuserxe_a-ucalc.o)
Guviol_flag         0x4               ../ulib/libuserxe.a(libuserxe_a-uviol.o)
Guviomoptstr        0x4               ../ulib/libuserxe.a(libuserxe_a-uviom.o)
Gftpopt             0x4               ../ulib/libuserxe.a(libuserxe_a-uftp2.o)
Gufile_nomsg        0x4               ../ulib/libuserxe.a(libuserxe_a-ufile.o)
Gualloc16_amount    0x4               ../ulib/libuserxe.a(libuserxe_a-uallocl.o)
Gudbcschk_width0top
                    0x4               ../ulib/libuserxe.a(libuserxe_a-udbcschk.o)
Gucvebc_stat        0x4               ../ulib/libuserxe.a(libuserxe_a-ucvebc.o)
Gftpclient          0x80              ../ulib/libuserxe.a(libuserxe_a-uftp2.o)
Guviomopt2          0x4               ../ulib/libuserxe.a(libuserxe_a-uviom.o)
Sdbcschk_hkopt      0x4               ../ulib/libuserxe.a(libuserxe_a-udbcschk.o)
Gutfcombaltch       0x4               ../ulib/libuserxe.a(libuserxe_a-utf.o)
Gucs2ddmap          0x40000           ../ulib/libuserxe.a(libuserxe_a-utf22.o)
Gw95buffopt         0x4               ../ulib/libuserxe.a(libuserxe_a-uviom.o)
Guerropt            0x1               ../ulib/libuserxe.a(libuserxe_a-uerr.o)
Guviomoptstrucs     0x10              ../ulib/libuserxe.a(libuserxe_a-uviom.o)
Sfdpipew            0x4               ../ulib/libuserxe.a(libuserxe_a-uproc.o)

Discarded input sections

 .note.GNU-stack
                0x00000000        0x0 /usr/lib/gcc/arm-linux-gnueabihf/8/../../../arm-linux-gnueabihf/crt1.o
 .note.GNU-stack
                0x00000000        0x0 /usr/lib/gcc/arm-linux-gnueabihf/8/../../../arm-linux-gnueabihf/crti.o
 .note.GNU-stack
                0x00000000        0x0 /usr/lib/gcc/arm-linux-gnueabihf/8/crtbegin.o
 .note.GNU-stack
                0x00000000        0x0 xpe.o
 .note.GNU-stack
                0x00000000        0x0 ../ulib/libuserxe.a(libuserxe_a-uedit.o)
 .note.GNU-stack
                0x00000000        0x0 ../ulib/libuserxe.a(libuserxe_a-uerr.o)
 .note.GNU-stack
                0x00000000        0x0 ../ulib/libuserxe.a(libuserxe_a-ufile2.o)
 .note.GNU-stack
                0x00000000        0x0 ../ulib/libuserxe.a(libuserxe_a-ufile2f.o)
 .note.GNU-stack
                0x00000000        0x0 ../ulib/libuserxe.a(libuserxe_a-ufile2l.o)
 .note.GNU-stack
                0x00000000        0x0 ../ulib/libuserxe.a(libuserxe_a-ufile2l2.o)
 .note.GNU-stack
                0x00000000        0x0 ../ulib/libuserxe.a(libuserxe_a-ufile3.o)
 .note.GNU-stack
                0x00000000        0x0 ../ulib/libuserxe.a(libuserxe_a-ufile3f.o)
 .note.GNU-stack
                0x00000000        0x0 ../ulib/libuserxe.a(libuserxe_a-ufile4.o)
 .note.GNU-stack
                0x00000000        0x0 ../ulib/libuserxe.a(libuserxe_a-ufile5.o)
 .note.GNU-stack
                0x00000000        0x0 ../ulib/libuserxe.a(libuserxe_a-uftp.o)
 .note.GNU-stack
                0x00000000        0x0 ../ulib/libuserxe.a(libuserxe_a-uftp2.o)
 .note.GNU-stack
                0x00000000        0x0 ../ulib/libuserxe.a(libuserxe_a-uftp3.o)
 .note.GNU-stack
                0x00000000        0x0 ../ulib/libuserxe.a(libuserxe_a-ugcclib.o)
 .note.GNU-stack
                0x00000000        0x0 ../ulib/libuserxe.a(libuserxe_a-ukbdl.o)
 .note.GNU-stack
                0x00000000        0x0 ../ulib/libuserxe.a(libuserxe_a-ukbdlnxc.o)
 .note.GNU-stack
                0x00000000        0x0 ../ulib/libuserxe.a(libuserxe_a-ukbdlnxm.o)
 .note.GNU-stack
                0x00000000        0x0 ../ulib/libuserxe.a(libuserxe_a-uparse.o)
 .note.GNU-stack
                0x00000000        0x0 ../ulib/libuserxe.a(libuserxe_a-uproc.o)
 .note.GNU-stack
                0x00000000        0x0 ../ulib/libuserxe.a(libuserxe_a-uproc2.o)
 .note.GNU-stack
                0x00000000        0x0 ../ulib/libuserxe.a(libuserxe_a-uproc4.o)
 .note.GNU-stack
                0x00000000        0x0 ../ulib/libuserxe.a(libuserxe_a-uque.o)
 .note.GNU-stack
                0x00000000        0x0 ../ulib/libuserxe.a(libuserxe_a-ustrcpy.o)
 .note.GNU-stack
                0x00000000        0x0 ../ulib/libuserxe.a(libuserxe_a-ustring.o)
 .note.GNU-stack
                0x00000000        0x0 ../ulib/libuserxe.a(libuserxe_a-utf3.o)
 .note.GNU-stack
                0x00000000        0x0 ../ulib/libuserxe.a(libuserxe_a-utf4.o)
 .note.GNU-stack
                0x00000000        0x0 ../ulib/libuserxe.a(libuserxe_a-utrace.o)
 .note.GNU-stack
                0x00000000        0x0 ../ulib/libuserxe.a(libuserxe_a-uunxsub.o)
 .note.GNU-stack
                0x00000000        0x0 ../ulib/libuserxe.a(libuserxe_a-uviol.o)
 .note.GNU-stack
                0x00000000        0x0 ../ulib/libuserxe.a(libuserxe_a-u3270.o)
 .note.GNU-stack
                0x00000000        0x0 ../ulib/libuserxe.a(libuserxe_a-u32702.o)
 .note.GNU-stack
                0x00000000        0x0 ../ulib/libuserxe.a(libuserxe_a-u32703.o)
 .note.GNU-stack
                0x00000000        0x0 ../ulib/libuserxe.a(libuserxe_a-uabend.o)
 .note.GNU-stack
                0x00000000        0x0 ../ulib/libuserxe.a(libuserxe_a-uallocl.o)
 .note.GNU-stack
                0x00000000        0x0 ../ulib/libuserxe.a(libuserxe_a-ucalc2.o)
 .note.GNU-stack
                0x00000000        0x0 ../ulib/libuserxe.a(libuserxe_a-ucvebc.o)
 .note.GNU-stack
                0x00000000        0x0 ../ulib/libuserxe.a(libuserxe_a-ucvebc2.o)
 .note.GNU-stack
                0x00000000        0x0 ../ulib/libuserxe.a(libuserxe_a-ucvebct.o)
 .note.GNU-stack
                0x00000000        0x0 ../ulib/libuserxe.a(libuserxe_a-ucvext12.o)
 .note.GNU-stack
                0x00000000        0x0 ../ulib/libuserxe.a(libuserxe_a-ucvext2.o)
 .note.GNU-stack
                0x00000000        0x0 ../ulib/libuserxe.a(libuserxe_a-ucvucs.o)
 .note.GNU-stack
                0x00000000        0x0 ../ulib/libuserxe.a(libuserxe_a-ucvucst.o)
 .note.GNU-stack
                0x00000000        0x0 ../ulib/libuserxe.a(libuserxe_a-udbcschk.o)
 .note.GNU-stack
                0x00000000        0x0 ../ulib/libuserxe.a(libuserxe_a-udbcsck2.o)
 .note.GNU-stack
                0x00000000        0x0 ../ulib/libuserxe.a(libuserxe_a-uedit2.o)
 .note.GNU-stack
                0x00000000        0x0 ../ulib/libuserxe.a(libuserxe_a-uehl.o)
 .note.GNU-stack
                0x00000000        0x0 ../ulib/libuserxe.a(libuserxe_a-ufemsg.o)
 .note.GNU-stack
                0x00000000        0x0 ../ulib/libuserxe.a(libuserxe_a-ufile.o)
 .note.GNU-stack
                0x00000000        0x0 ../ulib/libuserxe.a(libuserxe_a-ufile1f.o)
 .note.GNU-stack
                0x00000000        0x0 ../ulib/libuserxe.a(libuserxe_a-ufile1l.o)
 .note.GNU-stack
                0x00000000        0x0 ../ulib/libuserxe.a(libuserxe_a-ufile1l2.o)
 .note.GNU-stack
                0x00000000        0x0 ../ulib/libuserxe.a(libuserxe_a-uproc22.o)
 .note.GNU-stack
                0x00000000        0x0 ../ulib/libuserxe.a(libuserxe_a-uproc3.o)
 .note.GNU-stack
                0x00000000        0x0 ../ulib/libuserxe.a(libuserxe_a-utf.o)
 .note.GNU-stack
                0x00000000        0x0 ../ulib/libuserxe.a(libuserxe_a-utf2.o)
 .note.GNU-stack
                0x00000000        0x0 ../ulib/libuserxe.a(libuserxe_a-utf22.o)
 .note.GNU-stack
                0x00000000        0x0 ../ulib/libuserxe.a(libuserxe_a-uviom.o)
 .note.GNU-stack
                0x00000000        0x0 ../ulib/libuserxe.a(libuserxe_a-ucalc.o)
 .note.GNU-stack
                0x00000000        0x0 ../ulib/libuserxe.a(libuserxe_a-ucvebc3.o)
 .note.GNU-stack
                0x00000000        0x0 ../ulib/libuserxe.a(libuserxe_a-ucvebc4.o)
 .note.GNU-stack
                0x00000000        0x0 ../ulib/libuserxe.a(libuserxe_a-ucvext.o)
 .note.GNU-stack
                0x00000000        0x0 ../ulib/libuserxe.a(libuserxe_a-udos2.o)
 .note.GNU-stack
                0x00000000        0x0 /usr/lib/gcc/arm-linux-gnueabihf/8/libgcc.a(_divsi3.o)
 .note.GNU-stack
                0x00000000        0x0 /usr/lib/gcc/arm-linux-gnueabihf/8/libgcc.a(_aeabi_ldivmod.o)
 .note.GNU-stack
                0x00000000        0x0 /usr/lib/gcc/arm-linux-gnueabihf/8/libgcc.a(_dvmd_lnx.o)
 .note.GNU-stack
                0x00000000        0x0 /usr/lib/gcc/arm-linux-gnueabihf/8/libgcc.a(_udivmoddi4.o)
 .note.GNU-stack
                0x00000000        0x0 //usr/lib/arm-linux-gnueabihf/libc_nonshared.a(elf-init.oS)
 .note.GNU-stack
                0x00000000        0x0 //usr/lib/arm-linux-gnueabihf/libc_nonshared.a(stat64.oS)
 .note.GNU-stack
                0x00000000        0x0 //usr/lib/arm-linux-gnueabihf/libc_nonshared.a(lstat64.oS)
 .note.GNU-stack
                0x00000000        0x0 /usr/lib/gcc/arm-linux-gnueabihf/8/crtend.o
 .note.GNU-stack
                0x00000000        0x0 /usr/lib/gcc/arm-linux-gnueabihf/8/../../../arm-linux-gnueabihf/crtn.o

Memory Configuration

Name             Origin             Length             Attributes
*default*        0x00000000         0xffffffff

Linker script and memory map

LOAD /usr/lib/gcc/arm-linux-gnueabihf/8/../../../arm-linux-gnueabihf/crt1.o
LOAD /usr/lib/gcc/arm-linux-gnueabihf/8/../../../arm-linux-gnueabihf/crti.o
LOAD /usr/lib/gcc/arm-linux-gnueabihf/8/crtbegin.o
LOAD xpe.o
LOAD ../ulib/libuserxe.a
LOAD /usr/lib/gcc/arm-linux-gnueabihf/8/../../../arm-linux-gnueabihf/libgnomeui-2.so
LOAD /usr/lib/gcc/arm-linux-gnueabihf/8/../../../arm-linux-gnueabihf/libSM.so
LOAD /usr/lib/gcc/arm-linux-gnueabihf/8/../../../arm-linux-gnueabihf/libICE.so
LOAD /usr/lib/gcc/arm-linux-gnueabihf/8/../../../arm-linux-gnueabihf/libbonoboui-2.so
LOAD /usr/lib/gcc/arm-linux-gnueabihf/8/../../../arm-linux-gnueabihf/libgnome-2.so
LOAD /usr/lib/gcc/arm-linux-gnueabihf/8/../../../arm-linux-gnueabihf/libpopt.so
LOAD /usr/lib/gcc/arm-linux-gnueabihf/8/../../../arm-linux-gnueabihf/libbonobo-2.so
LOAD /usr/lib/gcc/arm-linux-gnueabihf/8/../../../arm-linux-gnueabihf/libbonobo-activation.so
LOAD /usr/lib/gcc/arm-linux-gnueabihf/8/../../../arm-linux-gnueabihf/libORBit-2.so
LOAD /usr/lib/gcc/arm-linux-gnueabihf/8/../../../arm-linux-gnueabihf/libgnomecanvas-2.so
LOAD /usr/lib/gcc/arm-linux-gnueabihf/8/../../../arm-linux-gnueabihf/libart_lgpl_2.so
LOAD /usr/lib/gcc/arm-linux-gnueabihf/8/../../../arm-linux-gnueabihf/libgnomevfs-2.so
LOAD /usr/lib/gcc/arm-linux-gnueabihf/8/../../../arm-linux-gnueabihf/libgconf-2.so
LOAD /usr/lib/gcc/arm-linux-gnueabihf/8/../../../arm-linux-gnueabihf/libgthread-2.0.so
LOAD /usr/lib/gcc/arm-linux-gnueabihf/8/../../../arm-linux-gnueabihf/libgmodule-2.0.so
LOAD /usr/lib/gcc/arm-linux-gnueabihf/8/../../../arm-linux-gnueabihf/libgtk-x11-2.0.so
LOAD /usr/lib/gcc/arm-linux-gnueabihf/8/../../../arm-linux-gnueabihf/libgdk-x11-2.0.so
LOAD /usr/lib/gcc/arm-linux-gnueabihf/8/../../../arm-linux-gnueabihf/libpangocairo-1.0.so
LOAD /usr/lib/gcc/arm-linux-gnueabihf/8/../../../arm-linux-gnueabihf/libatk-1.0.so
LOAD /usr/lib/gcc/arm-linux-gnueabihf/8/../../../arm-linux-gnueabihf/libcairo.so
LOAD /usr/lib/gcc/arm-linux-gnueabihf/8/../../../arm-linux-gnueabihf/libgdk_pixbuf-2.0.so
LOAD /usr/lib/gcc/arm-linux-gnueabihf/8/../../../arm-linux-gnueabihf/libgio-2.0.so
LOAD /usr/lib/gcc/arm-linux-gnueabihf/8/../../../arm-linux-gnueabihf/libpangoft2-1.0.so
LOAD /usr/lib/gcc/arm-linux-gnueabihf/8/../../../arm-linux-gnueabihf/libpango-1.0.so
LOAD /usr/lib/gcc/arm-linux-gnueabihf/8/../../../arm-linux-gnueabihf/libgobject-2.0.so
LOAD /usr/lib/gcc/arm-linux-gnueabihf/8/../../../arm-linux-gnueabihf/libglib-2.0.so
LOAD /usr/lib/gcc/arm-linux-gnueabihf/8/../../../arm-linux-gnueabihf/libfontconfig.so
LOAD /usr/lib/gcc/arm-linux-gnueabihf/8/../../../arm-linux-gnueabihf/libfreetype.so
LOAD /usr/lib/gcc/arm-linux-gnueabihf/8/../../../arm-linux-gnueabihf/libdl.so
LOAD /usr/lib/gcc/arm-linux-gnueabihf/8/../../../arm-linux-gnueabihf/libncursesw.so
LOAD /lib/arm-linux-gnueabihf/libncursesw.so.6
LOAD /usr/lib/gcc/arm-linux-gnueabihf/8/../../../arm-linux-gnueabihf/libtinfo.so
LOAD /usr/lib/gcc/arm-linux-gnueabihf/8/../../../arm-linux-gnueabihf/libcups.so
LOAD /usr/lib/gcc/arm-linux-gnueabihf/8/libgcc.a
LOAD /usr/lib/gcc/arm-linux-gnueabihf/8/libgcc_s.so
START GROUP
LOAD /usr/lib/gcc/arm-linux-gnueabihf/8/libgcc_s.so.1
LOAD /usr/lib/gcc/arm-linux-gnueabihf/8/libgcc.a
END GROUP
LOAD /usr/lib/gcc/arm-linux-gnueabihf/8/../../../arm-linux-gnueabihf/libpthread.so
LOAD /usr/lib/gcc/arm-linux-gnueabihf/8/../../../arm-linux-gnueabihf/libc.so
START GROUP
LOAD //lib/arm-linux-gnueabihf/libc.so.6
LOAD //usr/lib/arm-linux-gnueabihf/libc_nonshared.a
LOAD //lib/arm-linux-gnueabihf/ld-linux-armhf.so.3
END GROUP
LOAD /usr/lib/gcc/arm-linux-gnueabihf/8/libgcc.a
LOAD /usr/lib/gcc/arm-linux-gnueabihf/8/libgcc_s.so
START GROUP
LOAD /usr/lib/gcc/arm-linux-gnueabihf/8/libgcc_s.so.1
LOAD /usr/lib/gcc/arm-linux-gnueabihf/8/libgcc.a
END GROUP
LOAD /usr/lib/gcc/arm-linux-gnueabihf/8/crtend.o
LOAD /usr/lib/gcc/arm-linux-gnueabihf/8/../../../arm-linux-gnueabihf/crtn.o
                [!provide]                PROVIDE (__executable_start = SEGMENT_START ("text-segment", 0x10000))
                0x00010154                . = (SEGMENT_START ("text-segment", 0x10000) + SIZEOF_HEADERS)

.interp         0x00010154       0x19
 *(.interp)
 .interp        0x00010154       0x19 /usr/lib/gcc/arm-linux-gnueabihf/8/../../../arm-linux-gnueabihf/crt1.o

.note.ABI-tag   0x00010170       0x20
 .note.ABI-tag  0x00010170       0x20 /usr/lib/gcc/arm-linux-gnueabihf/8/../../../arm-linux-gnueabihf/crt1.o

.note.gnu.build-id
                0x00010190       0x24
 *(.note.gnu.build-id)
 .note.gnu.build-id
                0x00010190       0x24 linker stubs

.hash
 *(.hash)

.gnu.hash       0x000101b4      0x738
 *(.gnu.hash)
 .gnu.hash      0x000101b4      0x738 /usr/lib/gcc/arm-linux-gnueabihf/8/../../../arm-linux-gnueabihf/crt1.o

.dynsym         0x000108ec      0xc90
 *(.dynsym)
 .dynsym        0x000108ec      0xc90 /usr/lib/gcc/arm-linux-gnueabihf/8/../../../arm-linux-gnueabihf/crt1.o

.dynstr         0x0001157c      0x9b5
 *(.dynstr)
 .dynstr        0x0001157c      0x9b5 /usr/lib/gcc/arm-linux-gnueabihf/8/../../../arm-linux-gnueabihf/crt1.o

.gnu.version    0x00011f32      0x192
 *(.gnu.version)
 .gnu.version   0x00011f32      0x192 /usr/lib/gcc/arm-linux-gnueabihf/8/../../../arm-linux-gnueabihf/crt1.o

.gnu.version_d  0x000120c4        0x0
 *(.gnu.version_d)
 .gnu.version_d
                0x000120c4        0x0 /usr/lib/gcc/arm-linux-gnueabihf/8/../../../arm-linux-gnueabihf/crt1.o

.gnu.version_r  0x000120c4       0xc0
 *(.gnu.version_r)
 .gnu.version_r
                0x000120c4       0xc0 /usr/lib/gcc/arm-linux-gnueabihf/8/../../../arm-linux-gnueabihf/crt1.o

.rel.dyn        0x00012184       0x60
 *(.rel.init)
 *(.rel.text .rel.text.* .rel.gnu.linkonce.t.*)
 *(.rel.fini)
 *(.rel.rodata .rel.rodata.* .rel.gnu.linkonce.r.*)
 *(.rel.data.rel.ro .rel.data.rel.ro.* .rel.gnu.linkonce.d.rel.ro.*)
 .rel.data.rel.ro
                0x00012184        0x0 /usr/lib/gcc/arm-linux-gnueabihf/8/../../../arm-linux-gnueabihf/crt1.o
 *(.rel.data .rel.data.* .rel.gnu.linkonce.d.*)
 *(.rel.tdata .rel.tdata.* .rel.gnu.linkonce.td.*)
 *(.rel.tbss .rel.tbss.* .rel.gnu.linkonce.tb.*)
 *(.rel.ctors)
 *(.rel.dtors)
 *(.rel.got)
 .rel.got       0x00012184        0x8 /usr/lib/gcc/arm-linux-gnueabihf/8/../../../arm-linux-gnueabihf/crt1.o
 *(.rel.bss .rel.bss.* .rel.gnu.linkonce.b.*)
 .rel.bss       0x0001218c       0x58 /usr/lib/gcc/arm-linux-gnueabihf/8/../../../arm-linux-gnueabihf/crt1.o
                [!provide]                PROVIDE (__rel_iplt_start = .)
 *(.rel.iplt)
 .rel.iplt      0x000121e4        0x0 /usr/lib/gcc/arm-linux-gnueabihf/8/../../../arm-linux-gnueabihf/crt1.o
                [!provide]                PROVIDE (__rel_iplt_end = .)

.rela.dyn       0x000121e4        0x0
 *(.rela.init)
 *(.rela.text .rela.text.* .rela.gnu.linkonce.t.*)
 *(.rela.fini)
 *(.rela.rodata .rela.rodata.* .rela.gnu.linkonce.r.*)
 *(.rela.data .rela.data.* .rela.gnu.linkonce.d.*)
 *(.rela.tdata .rela.tdata.* .rela.gnu.linkonce.td.*)
 *(.rela.tbss .rela.tbss.* .rela.gnu.linkonce.tb.*)
 *(.rela.ctors)
 *(.rela.dtors)
 *(.rela.got)
 *(.rela.bss .rela.bss.* .rela.gnu.linkonce.b.*)
                [!provide]                PROVIDE (__rela_iplt_start = .)
 *(.rela.iplt)
                [!provide]                PROVIDE (__rela_iplt_end = .)

.rel.plt        0x000121e4      0x5a0
 *(.rel.plt)
 .rel.plt       0x000121e4      0x5a0 /usr/lib/gcc/arm-linux-gnueabihf/8/../../../arm-linux-gnueabihf/crt1.o

.rela.plt
 *(.rela.plt)

.init           0x00012784        0xc
 *(SORT_NONE(.init))
 .init          0x00012784        0x8 /usr/lib/gcc/arm-linux-gnueabihf/8/../../../arm-linux-gnueabihf/crti.o
                0x00012784                _init
 .init          0x0001278c        0x4 /usr/lib/gcc/arm-linux-gnueabihf/8/../../../arm-linux-gnueabihf/crtn.o

.plt            0x00012790      0x884
 *(.plt)
 .plt           0x00012790      0x884 /usr/lib/gcc/arm-linux-gnueabihf/8/../../../arm-linux-gnueabihf/crt1.o
                0x000127a4                gethostname@@GLIBC_2.4
                0x000127b0                getuid@@GLIBC_2.4
                0x000127bc                fopen64@@GLIBC_2.4
                0x000127c8                endwin@@NCURSESW6_5.1.20000708
                0x000127d4                fwrite@@GLIBC_2.4
                0x000127e0                mbrtowc@@GLIBC_2.4
                0x000127ec                toupper@@GLIBC_2.4
                0x000127f8                __isoc99_sscanf@@GLIBC_2.7
                0x00012804                fprintf@@GLIBC_2.4
                0x00012810                waddnstr@@NCURSESW6_5.1.20000708
                0x0001281c                strstr@@GLIBC_2.4
                0x00012828                isatty@@GLIBC_2.4
                0x00012834                getppid@@GLIBC_2.4
                0x00012840                wbkgdset@@NCURSESW6_5.1.20000708
                0x0001284c                execvp@@GLIBC_2.4
                0x00012858                write@@GLIBC_2.4
                0x00012864                wctomb@@GLIBC_2.4
                0x00012870                can_change_color@@NCURSESW6_5.1.20000708
                0x0001287c                opendir@@GLIBC_2.4
                0x00012888                printf@@GLIBC_2.4
                0x00012894                gnome_vfs_mime_get_default_application
                0x000128a0                bsearch@@GLIBC_2.4
                0x000128ac                fclose@@GLIBC_2.4
                0x000128b8                atoll@@GLIBC_2.4
                0x000128c4                qsort@@GLIBC_2.4
                0x000128d0                getgid@@GLIBC_2.4
                0x000128dc                wclear@@NCURSESW6_5.1.20000708
                0x000128e8                __ctype_b_loc@@GLIBC_2.4
                0x000128f4                strnlen@@GLIBC_2.4
                0x00012900                nonl@@NCURSESW6_5.1.20000708
                0x0001290c                getmntent@@GLIBC_2.4
                0x00012918                iconv@@GLIBC_2.4
                0x00012924                fputc@@GLIBC_2.4
                0x00012930                dlclose@@GLIBC_2.4
                0x0001293c                beep@@NCURSESW6_5.1.20000708
                0x00012948                __xstat64@@GLIBC_2.4
                0x00012954                chown@@GLIBC_2.4
                0x00012960                strpbrk@@GLIBC_2.4
                0x0001296c                fseek@@GLIBC_2.4
                0x00012978                strerror@@GLIBC_2.4
                0x00012984                color_content@@NCURSESW6_5.1.20000708
                0x00012990                tolower@@GLIBC_2.4
                0x0001299c                putchar@@GLIBC_2.4
                0x000129a8                has_colors@@NCURSESW6_5.1.20000708
                0x000129b4                puts@@GLIBC_2.4
                0x000129c0                init_pair@@NCURSESW6_5.1.20000708
                0x000129cc                __libc_start_main@@GLIBC_2.4
                0x000129e4                setupterm@@NCURSES6_TINFO_5.0.19991023
                0x000129f0                strchr@@GLIBC_2.4
                0x000129fc                __errno_location@@GLIBC_2.4
                0x00012a08                keypad@@NCURSES6_TINFO_5.0.19991023
                0x00012a14                lutimes@@GLIBC_2.4
                0x00012a20                atol@@GLIBC_2.4
                0x00012a2c                ftello64@@GLIBC_2.4
                0x00012a38                tcsetattr@@GLIBC_2.4
                0x00012a44                curs_set@@NCURSES6_TINFO_5.0.19991023
                0x00012a50                symlink@@GLIBC_2.4
                0x00012a5c                setenv@@GLIBC_2.4
                0x00012a68                mkdir@@GLIBC_2.4
                0x00012a74                pthread_mutex_lock@@GLIBC_2.4
                0x00012a80                pipe@@GLIBC_2.4
                0x00012a8c                noecho@@NCURSESW6_5.1.20000708
                0x00012a98                gnome_vfs_get_mime_type
                0x00012aa4                waddchnstr@@NCURSESW6_5.1.20000708
                0x00012ab0                pthread_cond_wait@@GLIBC_2.4
                0x00012abc                free@@GLIBC_2.4
                0x00012ac8                iconv_close@@GLIBC_2.4
                0x00012ad4                wcwidth@@GLIBC_2.4
                0x00012ae0                close@@GLIBC_2.4
                0x00012aec                clearok@@NCURSESW6_5.1.20000708
                0x00012af8                memcpy@@GLIBC_2.4
                0x00012b04                wcstombs@@GLIBC_2.4
                0x00012b10                iconv_open@@GLIBC_2.4
                0x00012b1c                memmove@@GLIBC_2.4
                0x00012b28                strncpy@@GLIBC_2.4
                0x00012b34                winchnstr@@NCURSESW6_5.1.20000708
                0x00012b40                win_wchnstr@@NCURSESW6_5.3.20021019
                0x00012b4c                access@@GLIBC_2.4
                0x00012b58                unlink@@GLIBC_2.4
                0x00012b64                ferror@@GLIBC_2.4
                0x00012b70                strcpy@@GLIBC_2.4
                0x00012b7c                execv@@GLIBC_2.4
                0x00012b88                raise@@GLIBC_2.4
                0x00012b94                getgrgid@@GLIBC_2.4
                0x00012ba0                start_color@@NCURSESW6_5.1.20000708
                0x00012bac                atoi@@GLIBC_2.4
                0x00012bb8                dlsym@@GLIBC_2.4
                0x00012bc4                ftime@@GLIBC_2.4
                0x00012bd0                fork@@GLIBC_2.4
                0x00012bdc                signal@@GLIBC_2.4
                0x00012be8                gettimeofday@@GLIBC_2.4
                0x00012bf4                getpwuid@@GLIBC_2.4
                0x00012c00                system@@GLIBC_2.4
                0x00012c0c                malloc@@GLIBC_2.4
                0x00012c18                localtime@@GLIBC_2.4
                0x00012c24                getcwd@@GLIBC_2.4
                0x00012c30                tcgetattr@@GLIBC_2.4
                0x00012c3c                pthread_cond_init@@GLIBC_2.4
                0x00012c48                kill@@GLIBC_2.4
                0x00012c54                strdup@@GLIBC_2.4
                0x00012c60                strlen@@GLIBC_2.4
                0x00012c6c                pthread_mutex_destroy@@GLIBC_2.4
                0x00012c78                chdir@@GLIBC_2.4
                0x00012c84                chmod@@GLIBC_2.4
                0x00012c90                mktime@@GLIBC_2.4
                0x00012c9c                wadd_wchnstr@@NCURSESW6_5.3.20021019
                0x00012ca8                closedir@@GLIBC_2.4
                0x00012cb4                getpid@@GLIBC_2.4
                0x00012cc0                winnstr@@NCURSESW6_5.1.20000708
                0x00012ccc                __lxstat64@@GLIBC_2.4
                0x00012cd8                select@@GLIBC_2.4
                0x00012ce4                readlink@@GLIBC_2.4
                0x00012cf0                iswalpha@@GLIBC_2.4
                0x00012cfc                fseeko64@@GLIBC_2.4
                0x00012d08                dup@@GLIBC_2.4
                0x00012d14                sprintf@@GLIBC_2.4
                0x00012d20                snprintf@@GLIBC_2.4
                0x00012d2c                fflush@@GLIBC_2.4
                0x00012d38                mbtowc@@GLIBC_2.4
                0x00012d44                curses_version@@NCURSES6_TINFO_5.0.19991023
                0x00012d50                perror@@GLIBC_2.4
                0x00012d5c                setlocale@@GLIBC_2.4
                0x00012d68                vfprintf@@GLIBC_2.4
                0x00012d74                mousemask@@NCURSESW6_5.1.20000708
                0x00012d80                gnome_vfs_mime_application_free
                0x00012d8c                strcmp@@GLIBC_2.4
                0x00012d98                initscr@@NCURSESW6_5.1.20000708
                0x00012da4                memcmp@@GLIBC_2.4
                0x00012db0                memset@@GLIBC_2.4
                0x00012dbc                wrefresh@@NCURSESW6_5.1.20000708
                0x00012dc8                getenv@@GLIBC_2.4
                0x00012dd4                rename@@GLIBC_2.4
                0x00012de0                flock@@GLIBC_2.4
                0x00012dec                mkfifo@@GLIBC_2.4
                0x00012df8                time@@GLIBC_2.4
                0x00012e04                meta@@NCURSES6_TINFO_5.0.19991023
                0x00012e10                wait@@GLIBC_2.4
                0x00012e1c                statfs64@@GLIBC_2.4
                0x00012e28                pthread_cond_broadcast@@GLIBC_2.4
                0x00012e34                fread@@GLIBC_2.4
                0x00012e40                gnome_vfs_init
                0x00012e4c                pthread_create@@GLIBC_2.4
                0x00012e58                strcat@@GLIBC_2.4
                0x00012e64                abort@@GLIBC_2.4
                0x00012e70                init_color@@NCURSESW6_5.1.20000708
                0x00012e7c                gnome_vfs_get_uri_from_local_path
                0x00012e88                waitpid@@GLIBC_2.4
                0x00012e94                gnome_vfs_get_file_info
                0x00012ea0                pthread_cond_timedwait@@GLIBC_2.4
                0x00012eac                exit@@GLIBC_2.4
                0x00012eb8                calloc@@GLIBC_2.4
                0x00012ec4                setmntent@@GLIBC_2.4
                0x00012ed0                rmdir@@GLIBC_2.4
                0x00012edc                strrchr@@GLIBC_2.4
                0x00012ee8                wmove@@NCURSESW6_5.1.20000708
                0x00012ef4                dup2@@GLIBC_2.4
                0x00012f00                getmntent_r@@GLIBC_2.4
                0x00012f0c                fgets@@GLIBC_2.4
                0x00012f18                raw@@NCURSES6_TINFO_5.0.19991023
                0x00012f24                utimes@@GLIBC_2.4
                0x00012f30                endmntent@@GLIBC_2.4
                0x00012f3c                memchr@@GLIBC_2.4
                0x00012f48                read@@GLIBC_2.4
                0x00012f54                readdir64@@GLIBC_2.4
                0x00012f60                pthread_mutex_unlock@@GLIBC_2.4
                0x00012f6c                wcrtomb@@GLIBC_2.4
                0x00012f78                nl_langinfo@@GLIBC_2.4
                0x00012f84                pthread_mutex_init@@GLIBC_2.4
                0x00012f90                fileno@@GLIBC_2.4
                0x00012f9c                mkstemp64@@GLIBC_2.4
                0x00012fa8                strspn@@GLIBC_2.4
                0x00012fb4                open64@@GLIBC_2.4
                0x00012fc0                ioctl@@GLIBC_2.4
                0x00012fcc                fputs@@GLIBC_2.4
                0x00012fd8                nanosleep@@GLIBC_2.4
                0x00012fe4                iswprint@@GLIBC_2.4
                0x00012ff0                putenv@@GLIBC_2.4
                0x00012ffc                ttyname@@GLIBC_2.4
                0x00013008                dlopen@@GLIBC_2.4

.iplt           0x00013014        0x0
 *(.iplt)
 .iplt          0x00013014        0x0 /usr/lib/gcc/arm-linux-gnueabihf/8/../../../arm-linux-gnueabihf/crt1.o

.text           0x00013018    0xaa038
 *(.text.unlikely .text.*_unlikely .text.unlikely.*)
 *(.text.exit .text.exit.*)
 *(.text.startup .text.startup.*)
 *(.text.hot .text.hot.*)
 *(.text .stub .text.* .gnu.linkonce.t.*)
 .text          0x00013018       0x3c /usr/lib/gcc/arm-linux-gnueabihf/8/../../../arm-linux-gnueabihf/crt1.o
                0x00013018                _start
 .text          0x00013054       0x24 /usr/lib/gcc/arm-linux-gnueabihf/8/../../../arm-linux-gnueabihf/crti.o
 .text          0x00013078       0x90 /usr/lib/gcc/arm-linux-gnueabihf/8/crtbegin.o
 .text          0x00013108      0x4c4 xpe.o
                0x00013108                main
                0x000132f4                pesub
                0x00013330                parmchk
                0x00013504                parmerr
                0x00013538                help
 .text          0x000135cc     0x3fe8 ../ulib/libuserxe.a(libuserxe_a-uedit.o)
                0x000135cc                uedit
                0x000135e4                unumedit
                0x0001391c                utimeedit
                0x00014494                uitoa10
                0x000144c8                ucmdparmedit
                0x00014bf0                ueditenv
                0x0001501c                uwordrep
                0x000156c8                ugethex
                0x00015828                ugethexdump
                0x00015a08                ux2FILESZ
                0x00015a38                ux2l
                0x00015bcc                ux2ll
                0x00015cb4                ua2ll
                0x00015ce4                ux2s
                0x00015e40                ugetnumrange3
                0x00015fb8                ugetnumrange2
                0x000160b4                ugetnumrange2XFILESZ
                0x00016188                ugetnumrange
                0x00016394                ugetxnumrange
                0x000167b8                ugetxnumrangeLL
                0x00016be4                unumlen
                0x00016e24                uatoin
                0x00016ea4                getKMGTB
                0x0001702c                ueditFILESZ
                0x000172a0                ueditLONGHANDLE
                0x000174a8                ueditKMG
 .text          0x000175b4     0x29f8 ../ulib/libuserxe.a(libuserxe_a-uerr.o)
                0x000175b4                uerr
                0x000175cc                ubell_init
                0x0001760c                ubell_init2
                0x0001763c                ubell
                0x00017754                uerrexit_init
                0x0001781c                uerrexit_optinit
                0x0001784c                uerrsetopt2
                0x000178b0                uerrexit
                0x00017aa8                uerrmsg_init
                0x00017c88                uerrmsg
                0x00017e98                uerrmsg2
                0x00018018                uerrmsgcat
                0x00018124                uerrsprintf
                0x00018210                uerrfprintfutf
                0x0001867c                uerrhelpmsg
                0x00018b68                uerrscrheight
                0x00018c18                useterrmsg
                0x00018c8c                ugeterrmsg
                0x00018cd8                ugeterrmsg2
                0x00018d18                uerrmsgedit
                0x000196ac                uconfirmmsg
                0x000199c4                uerrornomsg
                0x000199ec                ugeterrdescription
                0x00019a70                uerrapi1
                0x00019ab8                uerrapi1x
                0x00019afc                uerrapi0
                0x00019b38                uerrapi0x
                0x00019b70                uerrapi1t
                0x00019be0                uerrapi1nt
                0x00019c34                uerrapi1tx
                0x00019ca0                uerrapi0t
                0x00019d08                uerrapi0tx
                0x00019d6c                uerrnotsupported
                0x00019db0                uerrmsg_initstart
                0x00019e74                uerrmsg_initstack
                0x00019ed8                uerrmsg_initcomp
 .text          0x00019fac     0x4588 ../ulib/libuserxe.a(libuserxe_a-ufile2.o)
                0x00019fac                ufile2
                0x00019fc4                uxddpchk
                0x0001a414                uxddsub
                0x0001ac64                uxdelete
                0x0001b9e4                ufilewildxdel
                0x0001bc18                uxdelsub
                0x0001c5c0                uremovenomsg
                0x0001c614                uremove
                0x0001c874                urenamenomsg
                0x0001c8cc                urename2
                0x0001c924                urename
                0x0001d028                ufilewildrename
                0x0001d060                uwildfunc
                0x0001d45c                ufilecdirchk
                0x0001d7f4                ufilespfnchk
                0x0001d81c                wildchk
                0x0001d9b4                ufilechkwildmemb
                0x0001dae4                ufilechkwildname
                0x0001dc78                ufileopenexclusivewrite
                0x0001dd34                ufiledelifnotopened
                0x0001de10                ufile2quietmsg
                0x0001df40                ugetmoveavailablepath
                0x0001e42c                uwildfunc_LongName
 .text          0x0001e534     0x47cc ../ulib/libuserxe.a(libuserxe_a-ufile2f.o)
                0x0001e534                uftpmkdir
                0x0001eb2c                uftprmdir
                0x0001ef38                uftpremove
                0x0001f37c                uftprename
                0x0001f728                uftprenamesub
                0x0001fafc                uftpwildrename
                0x0001fb4c                uftpattrib
                0x0001fe58                uftpattrxon
                0x0001fea0                uftpattrxchk
                0x00020078                uftpgetftime
                0x000201cc                uftpgetftime_1sec
                0x00020344                uftpsetftime
                0x000203bc                uftpsetftime2
                0x00020434                uftpcopypathinfo
                0x0002055c                uftpsetown
                0x000205d4                uftpsetmod
                0x00020ab4                uftpwildfunc
                0x00020ce0                uftpwildfunc2
                0x00021058                uftpmultidel
                0x00021170                uftpmultirename
                0x00021288                uftpwildxdel
                0x000215c4                uftpmultidelsub
                0x00021750                uftpmultirenamesub
                0x00021990                uftpbypassreason
                0x00021a1c                uftpxdelrchk
                0x00021e28                uftpmultidelrchk
                0x000220c4                uftpmultirenamerchk
                0x0002236c                ufile2putstmt
                0x000224ac                uftpnotsupported
                0x00022504                uftpnotsupportedforlocal
                0x0002255c                uftpdelsubdir
                0x000227dc                ufile3xdeleteinit
                0x00022868                uxdelsubftp
                0x00022cb8                errtoolongname
 .text          0x00022d00     0x19d8 ../ulib/libuserxe.a(libuserxe_a-ufile2l.o)
                0x00022d00                umkdir
                0x00022d6c                umkdirmode
                0x000230a0                urmdir
                0x00023544                uattrib
                0x00023890                uattrxon
                0x00023908                uattrxchk
                0x00023ae8                ugetftime
                0x00023c20                ugetftime_1sec
                0x00023da0                usetftime
                0x00023f1c                usetftime_1sec
                0x00023f78                usetftime2
                0x000240d4                ucopypathinfo
                0x000244e0                ufilesetown
                0x000245d8                ufilesetmod
 .text          0x000246d8      0xbc8 ../ulib/libuserxe.a(libuserxe_a-ufile2l2.o)
                0x000246d8                umkdir_mdos
                0x000247a4                urmdir_mdos
                0x000248b8                uattrib_mdos
                0x00024abc                uremove_mdos
                0x00024bd0                urename_mdos
                0x00024c68                ucopy_mdos
                0x00024efc                uappend_mdos
                0x00025244                ufilemdoscopyerr
 .text          0x000252a0     0x4dd0 ../ulib/libuserxe.a(libuserxe_a-ufile3.o)
                0x000252a0                ufile3
                0x000252b8                invalidtargetfilename
                0x000252f0                uxcopy
                0x000261e0                ufilecreateparmproc
                0x0002694c                ufilecpymvflags
                0x00026c18                ufilewildcopy
                0x00026eb8                ucopysub_slinktarget
                0x00027058                ucopysub_slink
                0x00027350                ucopysub
                0x00027a74                udoscopy
                0x00027e2c                uxmove
                0x00028844                ufilewildmove
                0x000289d4                umovesub_slink
                0x00029110                umovesub
                0x00029840                ufilecopytschk
                0x00029958                ufilechkslinkpath
                0x00029ba0                ufilegetslinkfinaltarget
                0x00029d28                ufilesymlink
                0x00029dac                ufilesymlink_copyfiletime
                0x00029ea4                ufilesymlink_copy
                0x00029f50                ufileerrdirandfile
                0x00029f90                ufileerrslinktarget
                0x00029fd4                ufileerrslinkappend
                0x0002a014                ufileerrnotargetslink
 .text          0x0002a070     0x539c ../ulib/libuserxe.a(libuserxe_a-ufile3f.o)
                0x0002a070                uftpxmove
                0x0002a238                uftpxcopy
                0x0002a530                uftpxcopyr2r
                0x0002a7b4                uftpupload
                0x0002ae54                uftpdownload
                0x0002b4a4                uftptargetflag
                0x0002b82c                uftpsourceflag
                0x0002bbe4                uftps2tchk
                0x0002c1d8                uftpcreateparmproc
                0x0002c61c                uftpmoveparmproc
                0x0002c8d0                uftpupdownctl
                0x0002d1d4                uftpgetdirlist
                0x0002d2a8                uftpexistchk1
                0x0002d504                uftpexistchkm
                0x0002da64                uftpcopycallback
                0x0002e288                uftpcopyrchk
                0x0002ea1c                uftpputstmt
                0x0002eb60                uftpputstmt2
                0x0002ed00                uftpcopyftime
                0x0002f04c                ufileftpcopytschk
                0x0002f288                uftpmktdir
                0x0002f2e8                uftperrsourceisroot
                0x0002f310                uftperrtargetisnotdir
                0x0002f344                uftperrdir2file
                0x0002f384                uftpfileanddir
                0x0002f3d0                uftpappenddir2dir
 .text          0x0002f40c     0x2acc ../ulib/libuserxe.a(libuserxe_a-ufile4.o)
                0x0002f40c                ufile4
                0x0002f424                utempnam
                0x0002f704                utempnamd
                0x0002f75c                ufgetpos
                0x0002f78c                udirwalk
                0x0002fec4                udirwalksub
                0x00030f74                ufileslinkoutoflinkchk
                0x00031414                ufileslinkloopchk
                0x000318b8                ufileslinkloopchk2
                0x000319c8                ugetdiskfree
                0x00031b5c                ufileisvfat
                0x00031b90                ufileisntfs
                0x00031bb4                ufileisvfatMounted
                0x00031c34                ufileisntfsMounted
                0x00031cb4                ufileisMSMounted
                0x00031d60                ufsetlock
                0x00031dc8                uflock
 .text          0x00031ed8     0x4e20 ../ulib/libuserxe.a(libuserxe_a-ufile5.o)
                0x00031ed8                ufile5
                0x00031ef0                ufgetsinit
                0x0003230c                ufgetscurpos
                0x00032334                ufgets_setcurpos
                0x000323b8                ufgets
                0x0003277c                ufgetssub
                0x00032d64                ufgetsbinchk_utf8
                0x0003303c                ufgetsbinchk_ebc
                0x0003325c                ufgetsbinchk
                0x00033714                isSameU8c
                0x0003395c                udoseditname
                0x00034220                ufileeditname
                0x000346e8                ufilewildcomp
                0x00034a68                ufilewildcompsub
                0x00034c38                ufilecomp
                0x00035110                ufilecomptextmode
                0x000354b8                ufilecomptextmodefixed
                0x00035744                ufilecomptextmodesub
                0x00035888                ufreads
                0x00035b68                ufgetsVHeader
                0x00035df0                ufgetsVRecord
                0x000360e8                ufgetsV
                0x00036368                ufile5chkvfmt
                0x000364c8                ufile5getVfmtstr
                0x0003658c                ufseek
                0x000365c8                uftell
                0x000365f8                fileeditname_copypath
                0x00036c14                fileeditname_copypath_err
                0x00036c78                filetouch
 .text          0x00036cf8     0x4f50 ../ulib/libuserxe.a(libuserxe_a-uftp.o)
                0x00036cf8                uftpfstatroot
                0x00036da0                uftplshome
                0x00036f08                uftpfstatudl
                0x0003724c                uftpisexist
                0x00037368                uftpopendir
                0x00037940                uftpreaddir
                0x00037aa4                uftpattrselect
                0x00037c6c                uftpgetslinkattr
                0x0003804c                uftpdirlistslink
                0x0003863c                uftpsortslink
                0x00038694                uftpslinkcomp
                0x00038718                uftpslinklscmd
                0x00038a50                uftplsoutchk
                0x00038dc4                uftpmodtimerchk
                0x000392a0                uftpmodtimeerr
                0x000392f4                uftplsoutchkslinkerrskip
                0x00039420                uftplsoutchkslink
                0x00039520                uftpsavehdir
                0x00039668                uftpsrchhdir
                0x00039714                uftpclosehdir
                0x00039778                uftpmode2attr
                0x000398f4                uftpudl2ffb3
                0x00039aa4                uftpgetpathname
                0x00039b6c                uftpnodesrch
                0x00039c1c                uftpnodeadd
                0x00039cd4                uftpnodedel
                0x00039d30                uftpnodeclear
                0x00039d4c                uftpgethostqhaddr
                0x00039d6c                uftphoststbinit
                0x0003a08c                uftpgethostsdata
                0x0003b0f8                uftgetstringopd
                0x0003b378                uftpipachk
                0x0003b598                uftpgetportno
                0x0003b624                uftpisremote
                0x0003b7b0                uftpisrootdir
                0x0003b834                uftphostscrypt
                0x0003bb10                uftptempnam
                0x0003bb6c                uftp_mempswd
                0x0003bc04                uftp_udirlist_setname
 .text          0x0003bc48     0x2c2c ../ulib/libuserxe.a(libuserxe_a-uftp2.o)
                0x0003bc48                uftpinit
                0x0003bd98                uftpterm
                0x0003bde0                uftplog
                0x0003c1b4                uftpnodeinit
                0x0003c39c                uftpcmd
                0x0003cad4                uftpcmdrespchk
                0x0003cbe0                uftpcmdresphdrchk
                0x0003cd08                uftpcmdsrchrespid
                0x0003cf68                uftpsimplerespchk
                0x0003d040                uftpnextstdo
                0x0003d110                uftpsrchfname
                0x0003d2d8                uftpsrchfnameslink
                0x0003d560                uftpgetdl
                0x0003d880                uftpgetdl1
                0x0003df88                uftpgetmode
                0x0003e2d0                uftpgetdlftime
                0x0003e474                uftpgetmonth
                0x0003e4f0                uftpgetwday
                0x0003e568                uftpajustjst
                0x0003e7c4                uftpmktempwd
                0x0003e810                uftpdeltempwd
 .text          0x0003e874     0x5ab0 ../ulib/libuserxe.a(libuserxe_a-uftp3.o)
                0x0003e874                uftp3setssh
                0x0003eb34                uftp3editpsftpcmd
                0x0003ec74                uftp3cmdrespchk
                0x0003ed90                uftp3cmdresphdrchk
                0x0003eee4                uftp3srchcmdecho
                0x0003f038                uftp3gethomesub
                0x0003f198                uftp3simplerespchk
                0x0003f304                uftp3simplerespchkOK
                0x0003f4a0                uftp3simplerespchkCHNG
                0x0003f630                uftp3lchdirrespchk
                0x0003f69c                uftp3getputrespchk
                0x0003f7b8                uftp3cdrespchk
                0x0003f8f4                uftp3setsmb
                0x0003f9b0                uftp3smb_setcmd
                0x0003fe30                uftp3smb_editcmdline
                0x000400e8                uftp3smb_nodeinit
                0x00040194                uftp3smbcmd
                0x00040218                uftp3smb_cmd
                0x00040720                uftp3smb_chkstatuserr
                0x00040968                uftp3smb_srchresp
                0x00040b90                uftp3smb_stderrlog
                0x00040c08                uftp3smb_getdltime
                0x00040dac                uftp3smb_getdltimestat
                0x00040efc                uftp3smb_setdltime
                0x0004102c                uftp3smb_getmode
                0x0004125c                uftp3smb_getdirlistctr
                0x000412a4                uftp3smb_getdl1
                0x00041518                uftp3smb_fstatudl
                0x00041828                uftp3smb_fstatudl_byls
                0x00041a58                uftp3smb_fstatudl_byls_root
                0x00041cf4                uftp3smb_lsoutchk
                0x00041e78                uftp3smb_getdlattr
                0x00041f70                uftp3smb_fstatdircallback
                0x00042210                uftp3smb_fstatdirrchk
                0x00042658                uftp3smb_fstatoutchk
                0x00042b5c                uftp3smb_putstmt
                0x00043104                uftp3smb_respchk_srchnext
                0x0004343c                uftp3smb_respchk
                0x00043864                uftp3smb_lchdirrespchk
                0x000438b4                uftp3smb_strfname
                0x00043b64                uftp3smb_enclosefnm
                0x00043ca4                uftp3smb_editcmdparm
                0x00043e44                uftp3smb_dirnameforlist
                0x00043f14                uftp3smb_mode2attr_winsub
                0x00043fa4                uftp3smb_mode2attr_win
                0x00043ff4                uftp3smb_strattr
                0x000440dc                uftp3smb_setmod_win
 .text          0x00044324      0x4b0 ../ulib/libuserxe.a(libuserxe_a-ugcclib.o)
                0x00044324                strupr
                0x0004438c                strlwr
                0x000443f4                memicmp
                0x000444c0                stricmp
                0x00044550                itoa
                0x000445e4                kbhit
                0x000445fc                getch_nc
                0x0004461c                getche
                0x0004463c                spawnvp
                0x00044694                spawnv
 .text          0x000447d4     0x1d30 ../ulib/libuserxe.a(libuserxe_a-ukbdl.o)
                0x000447d4                ukbdpeek
                0x00044800                ukbdcharin
                0x000449a8                ukbdl_init
                0x00044a94                ukbdl_term
                0x00044aac                ukbdl_setkbmode
                0x00044b34                ukbdl_shellmode
                0x00044c40                ukbdl_setgetchmode
                0x00044d00                ukbdl_tcgetattr
                0x00044da0                ukbdl_tcsetattr
                0x00044e44                ukbdl_getch_init
                0x00044e98                ukbdl_getche_init
                0x00044eec                ukbdl_getch_term
                0x00044f38                ukbdl_getche_term
                0x00044f84                ukbdl_kbhit
                0x00044fd4                ukbdl_getch
                0x00045074                ukbdl_getche
                0x00045114                ukbdl_gettermid
                0x00045258                ukbdl_gettermsim
                0x00045790                ukbdl_editstring
                0x00045858                ukbdsetstatus
                0x00045910                ukbdl_wcinit
                0x00045a10                ukbdl_readutf8
                0x00046004                ukbdl_readdbcs
                0x0004630c                ukbd_simutf8_f2l
 .text          0x00046504     0x8020 ../ulib/libuserxe.a(libuserxe_a-ukbdlnxc.o)
                0x00046504                ukbdlnxc_gettbl
                0x000465a0                ukbdlnxc_init
                0x00046750                ukbdlnxc_term
                0x000467cc                ukbdlnxc_getnext
                0x00046854                ukbdlnxc_read
                0x00046a08                ukbdlnxc_readkbd
                0x0004789c                ukbdlnxc_optproc
                0x00047a18                ukbdlnxc_setupckt
                0x000480dc                ukbdlnxc_setupcktsub
                0x00048348                ukbdlnxc_setupcktx
                0x0004aa04                cktovferr
                0x0004aa80                ukbdlnxc_addstrtbl
                0x0004ad58                ukbdlnxc_dupstrchk
                0x0004b0b4                ukbdlnxc_cleanup
                0x0004b13c                ukbdlnxc_termexit
                0x0004b170                ukbdlnxc_getplainsym
                0x0004b444                ukbdlnxc_chkothersym
                0x0004b4b0                ukbdlnxc_xbsdel
                0x0004b5b4                ukbdlnxc_delopt
                0x0004b698                ukbdlnxc_setfunckey
                0x0004b87c                ukbdlnxc_setfuncstr
                0x0004bc60                ukbdlnxc_setcompose
                0x0004bcf8                ukbdlnxc_getkeysym
                0x0004bdd8                ukbdlnxc_setkeysym
                0x0004beb8                ukbdlnxc_getstring
                0x0004bf88                ukbdlnxc_setstring
                0x0004c080                ukbdlnxc_getdiacr
                0x0004c12c                ukbdlnxc_setdiacr
                0x0004c1d8                ukbdlnxc_setmetamode
                0x0004c3e4                ukbdlnxc_getconsole
                0x0004c568                ukbdlnxc_getptty
                0x0004c6a4                ukbdlnxc_open
                0x0004c72c                ukbdlnxc_chkconsole
                0x0004c754                ukbdlnxc_save1st
                0x0004caf0                ukbdlnxc_restorelast
                0x0004d0ac                ukbdlnxc_lockfwrite
                0x0004d130                ukbdlnxc_lockfread
                0x0004d1b4                ukbdlnxc_pidsetlock
                0x0004d2a0                ukbdlnxc_pidresetlock
                0x0004d340                ukbdlnxc_pidchklock
                0x0004d3f8                ukbdlnxc_chngttkey
                0x0004dfc4                ukbdlnxc_setrctl
                0x0004e0f8                ukbdlnxc_setrctlstr
                0x0004e4fc                uttyname
 .text          0x0004e524      0x848 ../ulib/libuserxe.a(libuserxe_a-ukbdlnxm.o)
                0x0004e524                ukbdlnxm_mouseopt
                0x0004e634                ukbdlnxm_mouseinit
                0x0004e69c                ukbdlnxm_mouseterm
                0x0004e6fc                ukbdlnxm_getmouse
                0x0004eb54                clickchk
 .text          0x0004ed6c     0x22e0 ../ulib/libuserxe.a(libuserxe_a-uparse.o)
                0x0004ed6c                uparsein
                0x0004f014                uparseindir
                0x0004f188                uparsev
                0x0004f350                uparse2
                0x0004f48c                uparse
                0x00050194                uparsefname
                0x00050320                uparsecmd
                0x00050a90                uparsecmdin
                0x00050ce8                uparsegetopt
 .text          0x0005104c     0x3754 ../ulib/libuserxe.a(libuserxe_a-uproc.o)
                0x0005104c                usystem2
                0x00051188                usystem
                0x0005129c                uspawnl
                0x000513c8                uspawnlp
                0x000514f4                uspawnvp
                0x000515f0                uprocopt
                0x000516bc                uspawnrc
                0x000518e4                uprocerrmem
                0x00051920                uprocerrnotf
                0x0005195c                uexecchk
                0x00051d64                uextdirsrch
                0x00051da4                ucmdnmcomp
                0x00051f20                ugetexepath
                0x00051f44                uproc_getpsinfo
                0x0005249c                uproc_srchpsinfo
                0x0005262c                uproc_freepsinfo
                0x0005269c                usystem_redirect
                0x00052984                uspawn_redirect
                0x00052d5c                uproc_redirectoutchk
                0x000536d8                uspawnvp_pipe
                0x00053b2c                uspawnvp_pipeclose
                0x00053bf8                usystem_cmdserverinit
                0x00053c9c                usystem_cmdserverterm
                0x00053dd8                usystem_cmdserversetup
                0x00054248                usystem_cmdtocmdserver
                0x000542d4                usystem_cmdserverreq
                0x000546e0                usystem_cmdserverreqwithoutbuff
                0x00054774                usystem_pidalivechk
 .text          0x000547a0     0x142c ../ulib/libuserxe.a(libuserxe_a-uproc2.o)
                0x000547a0                uprocparseredirect
                0x00054ba8                uproc_rsh
                0x000552c8                uproc_redirectrewrite
                0x000553f0                uproc_rshlog
                0x000554c0                ugetpid
                0x0005550c                uprocredirectchk
                0x0005555c                uproc_loaddllpath
                0x000557c4                uproc_loaddll
                0x00055974                uproc_getdllproc
                0x00055a60                uproc_freedll
                0x00055abc                uproc_getprocaddr
 .text          0x00055bcc     0x11dc ../ulib/libuserxe.a(libuserxe_a-uproc4.o)
                0x00055bcc                uproc_shcmd
                0x00055cd4                uproc_shserverinit
                0x00055d78                uproc_shserverterm
                0x00055e50                uproc_shserversetup
                0x00056310                uproc_shserverreq
                0x00056754                uproc_srchprocessw
                0x00056818                uproc_srchprocess
                0x000568fc                uproc_select
                0x00056cc0                uproc4_fdset
                0x00056d30                uproc4_fdisset
 .text          0x00056da8      0x9d4 ../ulib/libuserxe.a(libuserxe_a-uque.o)
                0x00056da8                uque
                0x00056dc0                uenq
                0x00057094                udeq
                0x00057370                uqscan
                0x00057494                uqfree
                0x000574ec                uqufree
                0x00057544                uenqchain
                0x0005765c                uenqent
                0x000576fc                uqhmove
 .text          0x0005777c      0x274 ../ulib/libuserxe.a(libuserxe_a-ustrcpy.o)
                0x0005777c                ustring_memcpy
                0x00057838                ustring_strncpy
                0x00057958                ustring_strcpy
 .text          0x000579f0     0x2778 ../ulib/libuserxe.a(libuserxe_a-ustring.o)
                0x000579f0                ustring
                0x00057a08                ustrnchr
                0x00057a90                ustrnpbrk
                0x00057b6c                ustrnspn
                0x00057c68                ustrrspn
                0x00057d08                ustrnrspn
                0x00057db8                umemrspn
                0x00057e70                umemspnc
                0x00057efc                umemspn_spacetab
                0x00057f8c                umemrspnc
                0x0005801c                ustrnstr
                0x00058124                ustrrstr
                0x000581b4                ustrnrstr
                0x000582a0                ustrstri
                0x000583f8                ustrnstri
                0x000584ec                ustrrstri
                0x0005857c                ustrnrstri
                0x00058668                ustrnrchr
                0x0005875c                umemchr_utf
                0x000588f8                ustrchr2
                0x00058a40                ustrnchr2
                0x00058a8c                umemchr2
                0x00058bcc                ustrrchr2
                0x00058d0c                ustrnrchr2
                0x00058d58                umemrchr2
                0x00058e6c                umemrchr
                0x00058eec                umempbrk
                0x00058fb8                umemrpbrk
                0x00059088                ustrnlen
                0x000590dc                umemstr
                0x00059120                umemstri
                0x00059164                umemrstr
                0x000591a8                umemrstri
                0x000591ec                umemmem
                0x000592dc                umemmemi
                0x000594dc                umemrmem
                0x000595d4                umemrmemi
                0x000597b8                ustrncpyz
                0x0005985c                uispunct
                0x00059924                uispunctdbcs
                0x00059b30                ustrdup
                0x00059bfc                umemtrim
                0x00059e48                umemicmpdbcs
                0x00059f44                umemstridbcs
                0x0005a064                umemrstridbcs
 .text          0x0005a168     0x178c ../ulib/libuserxe.a(libuserxe_a-utf3.o)
                0x0005a168                utfmb2wc
                0x0005a3c4                utfwcwidth
                0x0005a650                utfwcwidthNoMap
                0x0005a7f0                utfwcwidthsub
                0x0005aa30                utfwcwidthsubNoMap
                0x0005ac5c                utfiswide
                0x0005ac94                utfisprint
                0x0005ae98                utfgetwc
                0x0005af34                utftbinit
                0x0005b4ac                utftbfhelp
                0x0005b4cc                utftbterm
                0x0005b520                utftbsrch
                0x0005b69c                utftbsrch_jeuc
                0x0005b708                utftbsrch_cjk
                0x0005b850                utf3_wcwidthXXE
 .text          0x0005b8f4      0xad0 ../ulib/libuserxe.a(libuserxe_a-utf4.o)
                0x0005b9f8                mk_wcwidth_combining
                0x0005ba44                mk_wcwidth
                0x0005bd08                mk_wcwidth_cjk
                0x0005be44                mk_wcswidth_cjk
                0x0005bedc                mk_wcwidth_adjsbcs
                0x0005c0dc                utf4_isSpacingCombiningMark
                0x0005c198                utf4_isAmbiguous
                0x0005c2a4                utf4_isAmbiguous_XXE
                0x0005c324                utf4_isFormat
                0x0005c378                mk_wcwidth_combining2SCM
 .text          0x0005c3c4     0x1754 ../ulib/libuserxe.a(libuserxe_a-utrace.o)
                0x0005c3c4                utrace_initmt
                0x0005c420                utrace_init
                0x0005c684                utracepop
                0x0005c7f0                utracepopf
                0x0005c9a4                utracepnop
                0x0005c9c4                utrace_ebc
                0x0005cabc                utrace
                0x0005cea0                utracectime
                0x0005d0c4                utraceopen_force
                0x0005d294                utraceocmsg_force
                0x0005da38                utrace_term
 .text          0x0005db18      0x5b8 ../ulib/libuserxe.a(libuserxe_a-uunxsub.o)
                0x0005db18                ugetugid
                0x0005dbbc                ugetusername
                0x0005dc54                ugetgroupname
                0x0005dcec                usrchugname
                0x0005dd58                uaddugname
                0x0005de4c                unc_setupterm
                0x0005dec0                unx_fsetlock
                0x0005df84                unx_fresetlock
                0x0005dfe0                unx_fchklock
                0x0005e09c                ugethostname
 .text          0x0005e0d0     0x3914 ../ulib/libuserxe.a(libuserxe_a-uviol.o)
                0x0005e0d0                uviol_cell2attr
                0x0005e210                uviol_attr2cell
                0x0005e2ec                uviol_repfg
                0x0005e36c                uviol_altcharset
                0x0005e4b4                uvio_initparm
                0x0005e50c                uviogetmode
                0x0005e6a0                uviol_init
                0x0005ebdc                uviol_acssetup
                0x0005ed2c                uviol_init2
                0x0005ed5c                uviol_konchk
                0x0005ee50                uviol_konchk2
                0x0005eec0                uviol_colorinit
                0x0005f0d8                uviol_termexit
                0x0005f108                uviol_cleanup
                0x0005f218                uviol_term
                0x0005f29c                uviol_beep
                0x0005f2d8                uviosetmode
                0x0005f310                uvioreadcellstr
                0x0005f4a4                uviowrtcellstr
                0x0005f6d0                uvioreadcharstr
                0x0005f7ec                uviowrtcharstr
                0x0005f8f4                uviowrtcharstratt
                0x0005faf0                uviowrtnattr
                0x0005fd00                uviowrtncell
                0x0005fe5c                uviowrtnchar
                0x0005ffbc                uviogetcurpos
                0x000600a8                uviosetcurpos
                0x00060204                uviogetcurtype
                0x000602b4                uviosetcurtype
                0x000603e8                uviowrttty
                0x00060428                uviol_rgb2colorno
                0x00060640                uviol_colorno2rgb
                0x00060798                uviogetstate
                0x00060a4c                uviosetstate
                0x00060c2c                uvioscrolldn
                0x00060f58                uvioscrollup
                0x00061284                uviol_clear
                0x000612bc                uviol_clearok
                0x00061308                uviol_refresh
                0x00061330                uviol_mvaddchnstr
                0x000614cc                uviol_attrupdate
                0x00061964                uviol_set_padattrsub
 .text          0x000619e4     0x3778 ../ulib/libuserxe.a(libuserxe_a-u3270.o)
                0x000619e4                u3270init
                0x00061a4c                u3270fstat
                0x00062040                u3270findfile
                0x00062274                u3270fullpathistso
                0x00062300                u3270getcwd
                0x00062388                u3270chdir
                0x00062424                u3270fullpath
                0x00062700                u3270fullpathwildexp
                0x00062c1c                u3270getmembname
                0x00062dc0                u3270chkmembname
                0x00062f08                u3270getlastname
                0x00062fe0                u3270getnthname
                0x000630e8                u3270concatfilename
                0x000633d0                u3270editname
                0x00063778                u3270parsedsn
                0x00063814                u3270parentdsn
                0x000639b4                u3270getsetdsnwild
                0x00063cd4                u3270pathlen
                0x00063e24                u3270sethostuser
                0x00063ed8                u3270cmdrequest
                0x00064150                u3270editrespmsg
                0x00064268                u3270dirlistsub
                0x00064524                u3270setdirlist
                0x000649e4                u3270srchdirlist
                0x00064ab0                u3270setdirlistdsn
                0x00064d7c                u3270setattr
                0x00064e98                u3270getattrstr
                0x00065124                u3270errdsnpath
 .text          0x0006515c     0x152c ../ulib/libuserxe.a(libuserxe_a-u32702.o)
                0x0006515c                u3270mkdir
                0x00065194                u3270rmdir
                0x000651c4                u3270xddsub
                0x00065344                u3270xdelete
                0x00065554                u3270wildxdel
                0x0006558c                u3270xdelsub
                0x00065694                u3270remove
                0x000657f8                u3270rename
                0x00065a48                u3270renamesub
                0x00065b1c                u3270wildrename
                0x00065b6c                u3270spfupdate
                0x00065d3c                u3270spfsetparm
                0x00066278                u3270attrib
                0x000662b0                u3270attrxchk
                0x000662e4                u3270getftime
                0x0006631c                u3270setftime
                0x00066354                u3270setftime2
                0x0006638c                u3270copypathinfo
                0x000663c4                u3270setown
                0x000663fc                u3270setmod
                0x00066430                u3270wildfunc
                0x00066638                u3270errnotsupported
 .text          0x00066688     0x3ab0 ../ulib/libuserxe.a(libuserxe_a-u32703.o)
                0x00066688                u3270xmove
                0x000667f8                u3270xcopyr2r
                0x00066ac0                u3270xcopy
                0x00066c88                u3270xcopyget
                0x00067744                u3270xcopyput
                0x000681f8                u3270filecreateparmproc
                0x0006849c                u3270filecpymvflags
                0x000689f0                u3270filewildcopyget
                0x00068c38                u3270filewildcopyput
                0x00068f78                u3270copysubget
                0x000691d4                u3270copysubput
                0x00069660                u3270transfer
                0x00069bc4                u3270srcdupchk
                0x00069e08                u3270copyspfupdate
                0x0006a0ac                u3270setftpparm
 .text          0x0006a138       0x40 ../ulib/libuserxe.a(libuserxe_a-uabend.o)
                0x0006a138                uabend
 .text          0x0006a178      0xe50 ../ulib/libuserxe.a(libuserxe_a-uallocl.o)
                0x0006a178                ualloc_init
                0x0006a3cc                ugetallocdata
                0x0006a504                ualloc_chk
                0x0006a6cc                umalloc
                0x0006a910                ucalloc
                0x0006ab80                ufree
                0x0006adb0                uallocsz
                0x0006adfc                ufreesz
                0x0006ae4c                uallocmapset
                0x0006af60                ufreesizeerr
                0x0006af94                umallocsizeerr
 .text          0x0006afc8     0x417c ../ulib/libuserxe.a(libuserxe_a-ucalc2.o)
                0x0006afc8                bc_getxdw
                0x0006b11c                bc_getld
                0x0006b36c                bc_dwbinop
                0x0006b924                bc_twbinop
                0x0006be44                bc_edittod
                0x0006bfb8                bc_dweditnum64
                0x0006c020                bc_dweditnum
                0x0006c33c                bc_dwupeditnum
                0x0006c504                ucalc_dwmult
                0x0006c758                ucalc_twmult
                0x0006cc20                ucalc_dwdiv
                0x0006cf00                ucalc_dwdiv2
                0x0006d238                ucalc_twdiv
                0x0006d3c0                ucalc_twdivbyup
                0x0006d504                ucalc_twshiftup
                0x0006d620                ucalc_dwshiftdown
                0x0006d750                ucalc_ltime
                0x0006db70                ucalc_getdate
                0x0006dd5c                ucalc_nextday
                0x0006e00c                ucalc_ld2dw
                0x0006e5a4                ucalc_dw2ld
                0x0006e6b0                ucalc_nsadd
                0x0006e918                ucalc_ldedit
                0x0006ea58                ucalc_dwupinit
                0x0006eab8                ucalc_dwupset
                0x0006ebe8                bc_numfmt2dw
                0x0006ec98                bc_dw2numfmt
                0x0006ed70                ucalc_dwup2dwandup
                0x0006ef14                bc_dword2word
                0x0006f010                ucalc_dw2err
                0x0006f048                ucalc_dw2errresidual
                0x0006f0bc                ucalc_dwuperr
                0x0006f0e4                ucalc_dwmaxerr
                0x0006f11c                ucalcerrdwordovf
 .text          0x0006f144     0x1ad0 ../ulib/libuserxe.a(libuserxe_a-ucvebc.o)
                0x0006f144                ucvebcinite2uJ
                0x0006f298                ucvebc
                0x0006f2b0                ucvebc_gettrte2a
                0x0006f2d0                ucvebc2asc_handle
                0x0006f370                ucvasc2ebc_handle
                0x0006f410                ucvebc2asc
                0x0006f828                ucvebc2asc1sbcsJ
                0x0006f9a8                ucvebc2ucs1sbcsJ
                0x0006fb3c                ucvasc2ebc
                0x000700e4                ucvebc_defaultremap
                0x000703c4                ucvebcinita2e
                0x00070530                ucvkandl
                0x00070720                ucvebcinitkandl
                0x00070844                ucvebc2_chkprintsbcs
                0x00070b20                ucvebc_chkeolopt
 .text          0x00070c14     0x1718 ../ulib/libuserxe.a(libuserxe_a-ucvebc2.o)
                0x00070c14                ucvebc2
                0x00070c2c                ucvebc2_init
                0x00070c9c                ucvebc2_codecomp
                0x00070ce4                ucvebc2_s2e
                0x00070d80                ucvebc2_e2s
                0x00070e18                ucvebc2_chkprint
                0x000710e0                ucvebc2_chkprintnewold
                0x00071358                ucvebc2_chkprintdup
                0x00071504                ucvebc2_e2ssub
                0x00071744                ucvebc2_s2esub
                0x000717fc                ucvebc2_stre2s
                0x00071aac                ucvebc2_ebc2asc1dbcsJ
                0x00071b48                ucvebc2_strs2e
                0x000720fc                ucvebc2_setsi
                0x00072220                ucvebc2_setso
 .text          0x0007232c       0xa8 ../ulib/libuserxe.a(libuserxe_a-ucvebct.o)
                0x0007232c                ucvebc2gettbl
 .text          0x000723d4     0x49f4 ../ulib/libuserxe.a(libuserxe_a-ucvext12.o)
                0x000723d4                ucvext12_init
                0x00072538                ucvext_icuebc2ucs1
                0x000727f4                ucvext_iculocal2ucs1
                0x00072ae8                ucvext_icuucs2ebc1
                0x00072e00                ucvext_icuucs2local1
                0x000730cc                ucvext_icuebc2mb1
                0x0007352c                ucvext_icumb2ebc1
                0x000739ec                ucvext_icuebc2mbs_handle
                0x00073a6c                ucvext_icuebc2mbs
                0x00073d74                ucvext_icumb2ebcdbcs
                0x00074334                ucvext_icumb2ebcs_handle
                0x000743b4                ucvext_icumb2ebcs
                0x000748b4                ucvext_icuebc2mbf
                0x00074d9c                ucvext_icumb2ebcf
                0x00075538                ucvext_icumb2ucs1
                0x00075744                ucvext_icuucs2mb1
                0x0007596c                ucvext_icuutf2mb1
                0x00075b18                ucvext_icumb2utf1
                0x00075d14                ucvext_icumb2utf
                0x00075fbc                ucvext_icuisprint
                0x0007605c                ucvext_locale1ICU
                0x00076140                ucvext_getparmconvertermbICU
                0x00076578                ucvext_icua2ainit
                0x0007663c                ucvext_icua2aterm
                0x000766b4                ucvext_icua2as
                0x00076d74                ucvext_icusubcharchk_handle
 .text          0x00076dc8     0x1ec0 ../ulib/libuserxe.a(libuserxe_a-ucvext2.o)
                0x00076dc8                ucvext_iconvmapinit
                0x00076e14                ucvext_iconvgetstarter
                0x00076f78                ucvext_iconvgetconvertertype
                0x00076ff4                ucvext_iconvgetconverter
                0x00077138                ucvext_iconvgetparmconverter
                0x00077340                ucvext_iconvebc2ucs1
                0x000774b0                ucvext_iconvlocal2ucs1
                0x00077770                ucvext_iconvucs2ebc1
                0x000778e4                ucvext_iconvucs2local1
                0x00077a4c                ucvext_iconva2as
                0x00078060                ucvext_iconvb2bs
                0x0007820c                ucvext_iconva2af
                0x0007891c                ucvext_iconva2ainit
                0x00078a3c                ucvext_iconva2acont
 .text          0x00078c88     0x4f64 ../ulib/libuserxe.a(libuserxe_a-ucvucs.o)
                0x00078c88                ucp932init
                0x00079210                ucp932term
                0x000792b8                ucp932sjis2ucs
                0x00079388                ucp932ucs2sjis
                0x0007950c                uccvsjis2ucs
                0x00079640                uccvucs2sjis
                0x00079670                uccvucs2utf
                0x000798a4                uccvutf2ucs
                0x00079c48                uccvucss2utf
                0x00079d2c                uccvutf2ucss
                0x00079ef8                uccvsjis2ucss
                0x00079f78                uccvucss2sjis
                0x00079fbc                uccvsjis2utf
                0x0007a0a0                uccvutf2sjis
                0x0007a16c                ucvsucs2utf
                0x0007a510                ucvsescucs2utf
                0x0007a8d4                ucvssjis2utf
                0x0007aca0                ucvsmb2utf
                0x0007b000                ucvsutf2ucs
                0x0007b364                ucvsutf2sjis
                0x0007b800                ucvsutf2mb
                0x0007bbe0                ucvssjis2ucs
                0x0007bf04                ucvsucs2sjis
                0x0007c2a4                ucvsescucs2sjis
                0x0007c628                ucvfsjis2ucs
                0x0007c848                ucvfucs2sjis
                0x0007ca4c                ucvfutf2ucs
                0x0007cce8                ucvfucs2utf
                0x0007cf54                ucvfsjis2utf
                0x0007d1c0                ucvfutf2sjis
                0x0007d45c                ucvbomchk
                0x0007d604                ucvbomset
                0x0007d760                ucvsetucss
                0x0007d990                ucvgetucss
                0x0007dacc                ucverrutf
                0x0007db2c                ucverrucs
                0x0007db8c                ucverrsjis
 .text          0x0007dbec       0x38 ../ulib/libuserxe.a(libuserxe_a-ucvucst.o)
                0x0007dbec                ugetcp932tbl
 .text          0x0007dc24     0x3084 ../ulib/libuserxe.a(libuserxe_a-udbcschk.o)
                0x0007dc24                udbcschk_wcinit
                0x0007dfc4                udbcschk_getbaseconverter
                0x0007e06c                udbcschk_setunprintable
                0x0007e204                udbcschk_wclocaleinit
                0x0007e370                udbcschk_wclocalereset
                0x0007e784                udbcschk_chklocale
                0x0007e844                udbcschk_getlinuxleadbyte
                0x0007e9ac                udbcschk
                0x0007eb38                udbcschk_hk
                0x0007ec24                udbcschk_getmblen
                0x0007eee4                udbcschk_mblen
                0x0007efb4                udbcschk_mb2nd
                0x0007f13c                udbcschk_isvalidmbchar
                0x0007f220                udbcschk_locale_topbyte
                0x0007f324                udbcschk_getdbcs1st
                0x0007f418                udbcschk_ismbdbcs1st
                0x0007f478                udbcschk_locale1
                0x0007f764                udbcschk_mb2ucs1
                0x0007f8d0                udbcschk_ucs2mb1
                0x0007f9fc                udbcschk_forceenglish
                0x0007fa68                udbcschkcp
                0x0007fbd4                ugetcp
                0x0007fcb8                udbcsenv
                0x0007fcf8                udosquerydbcsenv
                0x0007fe6c                udbcschk2
                0x0007ff30                udbcschk_pos2offs
                0x0008010c                usetdbcstbl
                0x00080470                usetdbcstblmb
                0x000808e0                udbcschk_setlocale
                0x00080b30                udbcschk_setdbcstype
                0x00080c48                udbcschk_icugetlocalconverter
 .text          0x00080ca8     0x2e38 ../ulib/libuserxe.a(libuserxe_a-udbcsck2.o)
                0x00080ca8                ujischkx208
                0x00080d78                usjischkx208
                0x00080e58                usjis2jis
                0x00080f60                ujis2sjis
                0x00081050                ustrjis2sjis
                0x00081568                ustrsjis2jis
                0x00081a70                ushift2euc
                0x00081fa8                ushift2euc1
                0x00082184                ushift2euccount
                0x000823c4                usjischk
                0x00082678                ueuc2shift1SS3
                0x000826a8                ueuc2shift
                0x00082e34                ueucchk
                0x00083270                ueuc2shift1
                0x000834e4                ueuc2shift1c
                0x00083698                uhan2zen
                0x0008395c                udbcschktty
                0x000839e0                udbcschk_srchSS2
 .text          0x00083ae0     0x2890 ../ulib/libuserxe.a(libuserxe_a-uedit2.o)
                0x00083ae0                uedit2
                0x00083af8                uasciidump
                0x00083d14                uasciidump_utf
                0x00083fcc                uucsdump
                0x00084318                ub2x
                0x00084448                ueditfattr
                0x00084820                ueditfattrspf
                0x000848f4                ueditfattr_mdos
                0x00084a74                uxdumpline
                0x00085474                xdlputs
                0x00085520                ugetdtparm
                0x0008561c                ugetdateparm
                0x00085690                ugettimeparm
                0x00085704                ueditgetftnum
                0x000859d4                ueditsetfdateUSHORT
                0x00085a68                ueditsetfdate
                0x00085b48                ueditsetftimeUSHORT
                0x00085bdc                ueditsetftime
                0x00085cd4                uxdumpstr
                0x00085efc                ueditNowFileTime
                0x0008602c                ueditescrep
 .text          0x00086370      0x354 ../ulib/libuserxe.a(libuserxe_a-uehl.o)
                0x00086370                useteh
                0x0008643c                uehl_setsh
                0x00086490                ureseteh
                0x00086558                uehl_resetsh
                0x00086594                usighandler
 *fill*         0x000866c4        0x4 
 .text          0x000866c8      0xec0 ../ulib/libuserxe.a(libuserxe_a-ufemsg.o)
                0x000866c8                ufemsg
                0x000866e0                ufilenotfound
                0x0008671c                ufilenotfoundotherexist
                0x00086758                ufilepatherr
                0x00086794                ufileapierr
                0x000867dc                ufileapierr_str
                0x00086834                ufiledelpath
                0x00086870                ufilereadonly
                0x000868ac                ufilereadonly2
                0x000868ec                ufiledeleted
                0x00086a1c                ufileshare
                0x00086a58                ufileexist
                0x00086a94                ufileexistcopy
                0x00086ad0                ufileexist2
                0x00086b14                ufileexistdir
                0x00086b50                ufilenotdir
                0x00086b8c                ufilediskfull
                0x00086bd0                ufilewildtarget
                0x00086c04                ufilewildcarderr
                0x00086c38                ufilewildpatherr
                0x00086c6c                ufileroot
                0x00086ca8                ufileapierr2
                0x00086cfc                ufiledirna
                0x00086d48                ufileerrdir
                0x00086d84                ufilenotvfat
                0x00086dac                ufilenopermission
                0x00086df0                ufileslinkloop
                0x00086e48                ufileerrspecialfile
                0x00086e84                ufileerrnotnormal
                0x00086ec0                ufileerrdir2file
                0x00086ef0                ufileerrnoentry
                0x00086f28                ufileerrnofileentry
                0x00086f60                ufileTooLongFullpathName
                0x00086fb8                ufileTooLongFullpathName2
                0x00087118                ufileeditsz
                0x000874b0                ufileslinktargeterr
                0x000874f4                ufileopenerrInvalidargument
                0x00087550                ufileErrInvalidName
 .text          0x00087588     0x3508 ../ulib/libuserxe.a(libuserxe_a-ufile.o)
                0x00087588                ufile
                0x000875a0                ufullpathwildexp
                0x00087c54                ufullpathresolvespecialdirid
                0x00087e10                ufilegetpathdir
                0x00087ffc                udirlistnomsg
                0x0008805c                udirlist
                0x00088210                udirlistsub
                0x00088704                udirlist_set_slinkname
                0x00088858                ufile_udirlist_copy
                0x00088ab4                ufile_udirlist_swap
                0x00088c98                ufile_udirlist_alloc1
                0x00088d2c                ufile_udirlist_free
                0x00088e28                udircompare_pointer
                0x00088e98                udirlistsort
                0x0008905c                udircomp
                0x000890a0                udircompare
                0x00089b20                udircompsub
                0x00089c48                uredirect
                0x0008a090                uredirectrestore
                0x0008a1ac                ufdateedit
                0x0008a4ec                uftimeedit
                0x0008a724                uftimeedit_1sec
                0x0008a780                udirlist_chk_max_entry
                0x0008a7e8                udirlist_setname
                0x0008a9c4                udirlist_setname_cat
 .text          0x0008aa90     0x1b00 ../ulib/libuserxe.a(libuserxe_a-ufile1f.o)
                0x0008aa90                uftpfstat
                0x0008adb0                uftpwinchk
                0x0008aedc                uftpfullpathnorid
                0x0008af3c                uftpfullpath
                0x0008b604                uftppathlen
                0x0008b654                uftpgetcwd
                0x0008b754                uftpgethome
                0x0008b7d4                uftpgethomesub
                0x0008b9a8                uftpchdir
                0x0008bb74                uftpchdirsub
                0x0008bd44                uftplchdirrespchk
                0x0008bf50                uftpdirlistsub
                0x0008c330                uftpfindfirst
                0x0008c480                uftpfindfirstfile
                0x0008c508                uftpfindnext
 .text          0x0008c590     0x4344 ../ulib/libuserxe.a(libuserxe_a-ufile1l.o)
                0x0008c590                ufstat
                0x0008ce00                ufilechkwildmultiple
                0x0008d09c                ufstat_wild
                0x0008d12c                ufilefscomp
                0x0008d1a4                ufilegetfsid
                0x0008d284                ufilegetftime
                0x0008d394                ufullpath
                0x0008dd9c                upathlen
                0x0008ddec                ugetcwd
                0x0008de18                uchdir
                0x0008df44                udosfindfirstnomsg
                0x0008dfb4                udosfindfirst
                0x0008e730                udosfindnext
                0x0008e7a0                udosfindnextmsg
                0x0008eba4                ufilelnxwildselect
                0x0008ec10                ufilelnxattrselect
                0x0008ede8                ufilelnxgetmembfstat
                0x0008f014                ufilelnxsavehdir
                0x0008f144                ufilelnxsrchhdir
                0x0008f24c                ufilelnxclosehdir
                0x0008f38c                ufilemode2attr
                0x0008f538                ufilemktime
                0x0008f5f0                ufilerepwildname
                0x0008f6f0                errwildname
                0x0008f8f8                filesrchmountpoint
                0x0008fad0                filegetdevt
                0x0008fd54                filegetdevicename
                0x0008ff00                filegetdevicemntent
                0x00090020                filegetmntent
                0x000901f4                filegetmntoption
                0x00090358                ufilegetiocharset
                0x0009045c                ufilefnmcvcs
                0x000906a0                ufullpathCP
 .text          0x000908d4     0x1f08 ../ulib/libuserxe.a(libuserxe_a-ufile1l2.o)
                0x000908d4                mtoolsinit
                0x00090900                ufstat_mdos
                0x00090e4c                ufilegetmdosattr
                0x00090f50                uopendir_mdos
                0x0009124c                ureaddir_mdos
                0x00091490                ufilegetmdosdl
                0x000919f0                ufilegetmdosattrlist
                0x00091be8                ugetcwd_mdos
                0x00091d64                uchdir_mdos
                0x00091e00                ustatfs_mdos
                0x00092040                uminfo
                0x0009231c                ufilegetnum
                0x00092420                ufilemdoscmd
                0x00092678                ufilemdoserrchk
 .text          0x000927dc      0xd74 ../ulib/libuserxe.a(libuserxe_a-uproc22.o)
                0x000927dc                ukillpid
                0x00092878                uthread
                0x000928f0                uevent
                0x00092b5c                uevent_wait1
                0x00092d28                uevent_post1
                0x00092e2c                uevent_waitm
                0x00093010                uevent_postm
                0x00093150                uevent_reset1
                0x000931e4                uevent_setuplist
                0x00093378                uevent_resetlist
                0x00093428                ucriticalsection
 .text          0x00093550     0x19c4 ../ulib/libuserxe.a(libuserxe_a-uproc3.o)
                0x00093550                uproc_gvfsinit
                0x000935b4                ushellexec
                0x00093a68                ushellexecsub
                0x00093d3c                ulnxlgettermpgmopt
                0x00093ec0                ulnxlgetshellpgm
                0x00093f8c                ulnxxgettermpgmopt
                0x000942a0                uproc3pgmchk
                0x00094344                usystemlnxterm
                0x00094420                usleepms
                0x000944c4                uprocconnect
                0x00094780                uprocdisconnect
                0x0009482c                uprocpipeio
                0x00094a38                startserver
                0x00094ab4                uprocpiperead
                0x00094b48                uprocpiperecevmsg
                0x00094cc4                uprocpipeiodata
 .text          0x00094f14       0x70 ../ulib/libuserxe.a(libuserxe_a-utf.o)
                0x00094f14                utf_init
 .text          0x00094f84     0x5ba0 ../ulib/libuserxe.a(libuserxe_a-utf2.o)
                0x00094f84                umbtowc
                0x00095040                utfpos2offs
                0x000952d0                utfctr2offs
                0x000955e8                utfstrchkmbr2wc
                0x00095a68                utfcvf2u
                0x00095f70                utfcvl2fmix
                0x00096248                utfcvl2f
                0x00096914                utfcvl2ftab
                0x00096ad0                utfsetdbcstbl
                0x00096dd4                utfisvalidutf8
                0x00096ed8                utfgetstrwidth
                0x00096fa0                utfisvalidutf8char
                0x00097130                utfstrvalidate
                0x0009729c                utfgetutf8strlen
                0x00097414                utfsplitchk
                0x00097638                utfcvl2fany
                0x00097ec0                utfcvf2l1
                0x000980a8                utfcvf2l
                0x00098544                utfcvf2lany
                0x00098ae0                utfcvl2fany1
                0x00098d44                utfcvl2fany1mb
                0x00098ea8                utfcvl2uany1mb
                0x0009904c                utfcvf2lany1
                0x0009945c                utfcvf2lany1mb
                0x000995e0                utfcvu2lany1mb
                0x00099744                utfcvlocaleinit
                0x00099970                utfcvsetdefaultlocale
                0x00099ae0                utfcvsetparmlocale
                0x00099c3c                utfgetcharset_std
                0x00099f68                utfgetcharset
                0x0009a18c                utflocalechk
                0x0009a20c                utfcvlocaleopen
                0x0009a324                utfcvlocaleclose
                0x0009a350                utfcvlocaletclose
                0x0009a390                utfcviconvdbcschk_topbyte
                0x0009a4cc                utfcviconvdbcschk1
                0x0009a638                utfcvlocaleinitICU
                0x0009a6a0                utfcvf2lany1ICU
                0x0009a81c                utfcvl2fany1ICU
                0x0009a9c0                utfcvsetdefaultlocaleICU
                0x0009aa04                utflocalechkICU
                0x0009aa6c                utfgetstrlenHK
 .text          0x0009ab24     0x7bb0 ../ulib/libuserxe.a(libuserxe_a-utf22.o)
                0x0009ab24                utfwwapichk
                0x0009ad8c                utfddflag2sbcsid
                0x0009ae24                utfddgetlenflag
                0x0009b0e4                utf22_mapwidth0_rounddown
                0x0009b220                utf22_mapwidth0
                0x0009b438                utfucsmapinit
                0x0009b948                utf22setworkdir
                0x0009bae0                utf22versionchk
                0x0009bcd8                utfucsloadmap
                0x0009bed0                utfucssavemap
                0x0009c064                utfucsmapinit_remap
                0x0009c3f4                utfucsmapmodify
                0x0009c56c                utfmapucs2dd
                0x0009c624                utfmapdd2ucs
                0x0009c6a8                utfddsetsbcs
                0x0009c770                utfddgetsbcs
                0x0009c7d4                utfgetwcw
                0x0009c914                utfcvu2dd1w
                0x0009cbe0                utfcvu2dd1
                0x0009ccdc                utfcvf2dd
                0x0009cfc8                utfdd2u1
                0x0009d034                utfdd2u1vio
                0x0009d110                utfdd2u1chsz
                0x0009d304                utfdd2u
                0x0009d830                utfucs42utf16
                0x0009d9fc                utfddgetucsctr
                0x0009db78                utfu2dd
                0x0009dd8c                utfddcmp
                0x0009e688                utfddicmp
                0x0009e7cc                utfcvdd2f
                0x0009ee60                utfchkdd
                0x0009ef48                utfddisasciistr
                0x0009f0bc                utfddissbcsstr
                0x0009f174                utfddasciilen
                0x0009f1bc                utfddpos2offs
                0x0009f3f4                utfddoffs2pos
                0x0009f728                utfddispunct
                0x0009f920                utfddmemspnc
                0x0009fa24                utfddmemrspnc
                0x0009fb44                utfddstrnlen
                0x0009fc2c                utfddstrlen
                0x0009fcdc                utfddstrnspn
                0x0009fd64                utfddmemspn
                0x0009fe98                utfddmemrspn
                0x0009ffd0                utfddmemchr
                0x000a0100                utfddmemchr_nonascii
                0x000a01f4                utfddmemrchr
                0x000a02dc                utfddmemrchr_nonascii
                0x000a038c                utfddmempbrk
                0x000a046c                utfddmempbrk_nonascii
                0x000a0570                utfddmemrpbrk
                0x000a066c                utfddmemrpbrk_nonascii
                0x000a078c                utfddcmpdbcstab
                0x000a089c                utfddmemmem
                0x000a0b20                utfddmemrmem
                0x000a0c0c                utfddnumlen
                0x000a0ed0                utfddgetdbcslr
                0x000a1010                utfddgetcsrposbca
                0x000a13a4                utfgetvisiblealtch
                0x000a1768                utfgetvisiblealtchprint
                0x000a1804                utf_setsubchar_dbcs
                0x000a1a08                utf_subcharcmp
                0x000a1b84                utfmemrchrDD
                0x000a1c40                utfmemchrDD
                0x000a1d1c                isASCIIstr
                0x000a1d84                isPrintableASCIIstr
                0x000a1dfc                isPrintableASCIImem
                0x000a1e88                utf22_setunpucsvio
                0x000a1fc4                utf22_setdbcsspacealt
                0x000a2080                utfsetvisiblealtch
                0x000a21d8                utf22_iswidth0Ovf
                0x000a22cc                utf22_iswidth0DBCS
                0x000a23a4                utf_iswidth0
                0x000a24e4                utf_iscombinable
                0x000a2620                utf_iscombining
 .text          0x000a26d4     0x65fc ../ulib/libuserxe.a(libuserxe_a-uviom.o)
                0x000a26d4                uviom_init
                0x000a296c                uviom_setopt2
                0x000a2c68                uviom_notify
                0x000a2d30                uvio_wcinit
                0x000a2d90                uviom_savecell
                0x000a2e38                uviom_readcell
                0x000a2ee0                uvio_mvaddchnstrF
                0x000a358c                uviom_mvaddwchnstr
                0x000a35fc                uvio_mvaddchnstrW_ligature
                0x000a3950                uvio_mvaddchnstrW_combine
                0x000a3f50                uvio_mvaddchnstrW
                0x000a4214                uviom_cht2cchar
                0x000a5210                uviom_setcchar_itself
                0x000a5298                uviom_setcchar_shadow
                0x000a5370                uviom_setcombine1
                0x000a57d0                uviom_setcombine
                0x000a5fe8                uviom_setcombineSCM
                0x000a6208                uvio_ddcht2cchar
                0x000a6f34                uvio_ddcht2cchar_ligature
                0x000a7cc8                uvio_getcombinectr
                0x000a7e2c                uviom_escrep
                0x000a8018                uviom_set_padattr
                0x000a807c                uviom_fillattrspace
                0x000a8198                uviom_setunpucs
                0x000a8568                uviom_attr_itself
                0x000a860c                uviom_ISUCSWIDTH0
                0x000a878c                uviom_iscombining
                0x000a8974                uviom_spaceclear
                0x000a89cc                uviom_clearscr
                0x000a8a6c                uviom_getcombaltchUcs
                0x000a8af4                uviom_getcombaltchU8
 .text          0x000a8cd0     0x5de8 ../ulib/libuserxe.a(libuserxe_a-ucalc.o)
                0x000a8cd0                ucalc_bcmain
                0x000a9b50                bc_opdchk
                0x000aaa34                getvarname
                0x000aab14                ucalc_chkvrparm
                0x000aaca0                bc_getvalue
                0x000ab394                ucalc_vrajust
                0x000ab6b8                ucalc_o2l
                0x000ab7a0                ucalc_gettimevalue
                0x000abbc8                ucalc_getunderpointdata
                0x000abd2c                bc_opdcopy
                0x000abfec                bc_putwordordword
                0x000ac0c4                bc_expand2dword
                0x000ac160                ucalc_binop
                0x000ac6fc                ucalc_binopsub
                0x000ad1b0                ucalc_underpoint
                0x000ad498                ucalc_editnum
                0x000ad660                ucalc_editevenhex
                0x000ad6ec                ucalc_dwtime
                0x000ad8d4                ucalc_time
                0x000addcc                ucalc_timeedit
                0x000ae15c                ucalc_shiftdown
                0x000ae2a8                ucalc_shiftup
                0x000ae3e8                bc_getbase
                0x000ae42c                calcuperr1
                0x000ae454                calcuperr2
                0x000ae47c                calcuperr3
                0x000ae4a4                calcerrinvalid
                0x000ae4dc                calcerrinvalid_dw
                0x000ae514                calcerrformat
                0x000ae53c                calcerrunderflow
                0x000ae568                calcerrwordovf
                0x000ae5ac                calcerrminus
                0x000ae5d4                calcerr0div
                0x000ae5fc                calcerrtimeop
                0x000ae624                bc_getvalue3
                0x000ae8d8                bc_setconvtype3
 .text          0x000aeab8     0x54c8 ../ulib/libuserxe.a(libuserxe_a-ucvebc3.o)
                0x000aeab8                ucvebc3_getcfgparmconverter
                0x000aecbc                ucvebc3_init_xcv
                0x000aecfc                ucvebc3_getconvertersubchar
                0x000aed70                ucvebc3_setletter
                0x000af6a4                ucvebc3_init
                0x000af918                ucvebc3_cfgerr
                0x000af940                ucvebc3_b2uSbcs1
                0x000afc28                ucvebc3_b2ddSbcs1
                0x000afe18                ucvebc3_b2ddSbcs
                0x000b02d8                ucvebc3_b2uDbcs1
                0x000b04f4                ucvebc3_b2ddDbcs1
                0x000b0714                ucvebc3_b2ddDbcsstr
                0x000b0914                ucvebc3_b2ddDbcs
                0x000b1040                ucvebc3_b2dd
                0x000b1134                ucvebc3_u2b1map
                0x000b1274                ucvebc3_u2b1
                0x000b1618                ucvebc3_m2b1Sbcs1
                0x000b17d4                ucvebc3_m2b1
                0x000b1b0c                ucvebc3_m2b
                0x000b201c                ucvebc3_f2b
                0x000b26b4                ucvebc3_dd2b
                0x000b2d84                ucvebc3_b2mSbcs
                0x000b3450                ucvebc3_b2mDbcsstr
                0x000b36f0                ucvebc3_b2m
                0x000b3bc8                ucvebc3_setdbcstbl
                0x000b3d68                ucvebc3_getebc3opt
                0x000b3e58                ucvebc3_b2f
                0x000b3ef4                ucvebc3_f2bcmd
 .text          0x000b3f80     0x1c0c ../ulib/libuserxe.a(libuserxe_a-ucvebc4.o)
                0x000b3f80                ucvebc4_init
                0x000b400c                ucvebc4_compbyname
                0x000b4064                ucvebc4_compbyhandle
                0x000b40b4                ucvebc4_srchcveh
                0x000b4208                ucvebc4_gethandle
                0x000b42f8                ucvebc4_getpucveh
                0x000b4378                ucvebc4_getcvname
                0x000b43dc                ucvebc4_getcvtype
                0x000b4560                ucvebc4_createhandle
                0x000b469c                ucvebc4_getparmconverter
                0x000b47cc                ucvebc4_chkdbcsconverter
                0x000b48e4                ucvebc4_setuphandle
                0x000b49f4                ucvebc4_setletter
                0x000b5150                ucvebc4_b2uSbcs1
                0x000b526c                ucvebc4_b2mSbcs
                0x000b5698                ucvebc4_setupsubch
 .text          0x000b5b8c     0x6c18 ../ulib/libuserxe.a(libuserxe_a-ucvext.o)
                0x000b5b8c                ucvext_cfglineerr
                0x000b5bc8                ucvext_cfgdupoption
                0x000b5c04                ucvext_ux2s
                0x000b5cec                ucvext_cfgmap
                0x000b5e64                ucvext_getcfg
                0x000b6c58                ucvext_setdefaultlocalcv
                0x000b6d9c                ucvext_getarmso1
                0x000b6ffc                ucvext_getarmso
                0x000b7288                ucvext_getarmdata1
                0x000b73f8                ucvext_getarmdata
                0x000b75a8                chkapiver
                0x000b7764                ucvext_icuinit_env
                0x000b7a00                setdatadir
                0x000b7acc                ucvext_mapinit
                0x000b84b0                ucvext_setupsubch
                0x000b8a84                ucvext_loaddll_icudata
                0x000b8d18                ucvext_loaddll
                0x000b8dc8                ucvext_icuinit
                0x000b94ec                ucvext_icuenumcvname
                0x000b98bc                ucvext_icuuerrname
                0x000b992c                ucvext_icugetdefaultconvertername2
                0x000b9a48                ucvext_getstdcharset
                0x000b9e20                ucvext_icugetdefaultconvertername
                0x000b9f60                ucvext_icugetconvertertype
                0x000ba184                ucvext_icugetsubchars
                0x000ba308                ucvext_icusetsubchars
                0x000ba3fc                ucvext_icugetstarter
                0x000ba588                ucvext_icugetconverter
                0x000bab98                ucvext_getparmconverter
                0x000bae1c                ucvext_openparmconverter
                0x000baf9c                ucvext_getcvoption
                0x000bb308                set_internal_CP037
                0x000bb3f0                ucvext_mapinitsetdefault
                0x000bb62c                ucvext_setlocalconverter
                0x000bb728                ucvext_icusubcharchk
                0x000bbadc                ucvext_isdbcs1st
                0x000bbb60                chk_converter_is_ebcdic
                0x000bbc54                ucvext_handle0init
                0x000bbe98                ucvext_icuclose
                0x000bbf00                ucvext_icureset
                0x000bbf68                ucvext_icugetmbconverter
                0x000bc048                ucvext_icumbinit12
                0x000bc0a8                ucvext_icumbinit
                0x000bc374                ucvext_setdefaultlocale
                0x000bc464                chkicuversion
                0x000bc6f0                ucvext_getConverterCfg
 .text          0x000bc7a4      0x3dc ../ulib/libuserxe.a(libuserxe_a-udos2.o)
                0x000bc7a4                udos2
                0x000bc7bc                ugetdriveidlist
                0x000bc8b0                ugetdrivelist
                0x000bc950                ugetdrivetype
                0x000bca78                udos_setenv
 .text          0x000bcb80      0x240 /usr/lib/gcc/arm-linux-gnueabihf/8/libgcc.a(_divsi3.o)
                0x000bcb80                __divsi3
                0x000bcb80                __aeabi_idiv
                0x000bcda0                __aeabi_idivmod
 .text          0x000bcdc0       0xd4 /usr/lib/gcc/arm-linux-gnueabihf/8/libgcc.a(_aeabi_ldivmod.o)
                0x000bcdc0                __aeabi_ldivmod
 .text          0x000bce94       0x10 /usr/lib/gcc/arm-linux-gnueabihf/8/libgcc.a(_dvmd_lnx.o)
                0x000bce94                __aeabi_idiv0
                0x000bce94                __aeabi_ldiv0
 .text          0x000bcea4      0x128 /usr/lib/gcc/arm-linux-gnueabihf/8/libgcc.a(_udivmoddi4.o)
                0x000bcea4                __udivmoddi4
 .text          0x000bcfcc       0x64 //usr/lib/arm-linux-gnueabihf/libc_nonshared.a(elf-init.oS)
                0x000bcfcc                __libc_csu_init
                0x000bd02c                __libc_csu_fini
 .text          0x000bd030       0x10 //usr/lib/arm-linux-gnueabihf/libc_nonshared.a(stat64.oS)
                0x000bd030                stat64
 .text          0x000bd040       0x10 //usr/lib/arm-linux-gnueabihf/libc_nonshared.a(lstat64.oS)
                0x000bd040                lstat64
 .text          0x000bd050        0x0 /usr/lib/gcc/arm-linux-gnueabihf/8/crtend.o
 .text          0x000bd050        0x0 /usr/lib/gcc/arm-linux-gnueabihf/8/../../../arm-linux-gnueabihf/crtn.o
 *(.gnu.warning)
 *(.glue_7t)
 .glue_7t       0x000bd050        0x0 linker stubs
 *(.glue_7)
 .glue_7        0x000bd050        0x0 linker stubs
 *(.vfp11_veneer)
 .vfp11_veneer  0x000bd050        0x0 linker stubs
 *(.v4_bx)
 .v4_bx         0x000bd050        0x0 linker stubs

.fini           0x000bd050        0x8
 *(SORT_NONE(.fini))
 .fini          0x000bd050        0x4 /usr/lib/gcc/arm-linux-gnueabihf/8/../../../arm-linux-gnueabihf/crti.o
                0x000bd050                _fini
 .fini          0x000bd054        0x4 /usr/lib/gcc/arm-linux-gnueabihf/8/../../../arm-linux-gnueabihf/crtn.o
                [!provide]                PROVIDE (__etext = .)
                [!provide]                PROVIDE (_etext = .)
                [!provide]                PROVIDE (etext = .)

.rodata         0x000bd058     0xba07
 *(.rodata .rodata.* .gnu.linkonce.r.*)
 .rodata.cst4   0x000bd058        0x4 /usr/lib/gcc/arm-linux-gnueabihf/8/../../../arm-linux-gnueabihf/crt1.o
                0x000bd058                _IO_stdin_used
 .rodata        0x000bd05c      0x19b xpe.o
 *fill*         0x000bd1f7        0x1 
 .rodata        0x000bd1f8       0xed ../ulib/libuserxe.a(libuserxe_a-uedit.o)
 *fill*         0x000bd2e5        0x3 
 .rodata        0x000bd2e8      0x30d ../ulib/libuserxe.a(libuserxe_a-uerr.o)
 *fill*         0x000bd5f5        0x3 
 .rodata        0x000bd5f8      0x7e4 ../ulib/libuserxe.a(libuserxe_a-ufile2.o)
 .rodata        0x000bdddc      0x357 ../ulib/libuserxe.a(libuserxe_a-ufile2f.o)
 *fill*         0x000be133        0x1 
 .rodata        0x000be134       0xf6 ../ulib/libuserxe.a(libuserxe_a-ufile2l.o)
 *fill*         0x000be22a        0x2 
 .rodata        0x000be22c       0xfc ../ulib/libuserxe.a(libuserxe_a-ufile2l2.o)
 .rodata        0x000be328      0x4da ../ulib/libuserxe.a(libuserxe_a-ufile3.o)
 *fill*         0x000be802        0x2 
 .rodata        0x000be804      0x476 ../ulib/libuserxe.a(libuserxe_a-ufile3f.o)
 *fill*         0x000bec7a        0x2 
 .rodata        0x000bec7c      0x234 ../ulib/libuserxe.a(libuserxe_a-ufile4.o)
 .rodata        0x000beeb0      0x1a6 ../ulib/libuserxe.a(libuserxe_a-ufile5.o)
 *fill*         0x000bf056        0x2 
 .rodata        0x000bf058      0x619 ../ulib/libuserxe.a(libuserxe_a-uftp.o)
 *fill*         0x000bf671        0x3 
 .rodata        0x000bf674      0x45c ../ulib/libuserxe.a(libuserxe_a-uftp2.o)
 .rodata        0x000bfad0      0x512 ../ulib/libuserxe.a(libuserxe_a-uftp3.o)
 *fill*         0x000bffe2        0x2 
 .rodata        0x000bffe4        0xb ../ulib/libuserxe.a(libuserxe_a-ugcclib.o)
 *fill*         0x000bffef        0x1 
 .rodata        0x000bfff0       0xef ../ulib/libuserxe.a(libuserxe_a-ukbdl.o)
 *fill*         0x000c00df        0x1 
 .rodata        0x000c00e0      0xf2a ../ulib/libuserxe.a(libuserxe_a-ukbdlnxc.o)
 *fill*         0x000c100a        0x2 
 .rodata        0x000c100c       0x2d ../ulib/libuserxe.a(libuserxe_a-uparse.o)
 *fill*         0x000c1039        0x3 
 .rodata        0x000c103c      0x4fd ../ulib/libuserxe.a(libuserxe_a-uproc.o)
 *fill*         0x000c1539        0x3 
 .rodata        0x000c153c      0x168 ../ulib/libuserxe.a(libuserxe_a-uproc2.o)
 .rodata        0x000c16a4      0x341 ../ulib/libuserxe.a(libuserxe_a-uproc4.o)
 *fill*         0x000c19e5        0x3 
 .rodata        0x000c19e8      0x384 ../ulib/libuserxe.a(libuserxe_a-uque.o)
 .rodata        0x000c1d6c       0x7e ../ulib/libuserxe.a(libuserxe_a-ustrcpy.o)
 *fill*         0x000c1dea        0x2 
 .rodata        0x000c1dec        0x4 ../ulib/libuserxe.a(libuserxe_a-ustring.o)
 .rodata        0x000c1df0      0x133 ../ulib/libuserxe.a(libuserxe_a-utf3.o)
 *fill*         0x000c1f23        0x1 
 .rodata        0x000c1f24     0x19d0 ../ulib/libuserxe.a(libuserxe_a-utf4.o)
 .rodata        0x000c38f4      0x161 ../ulib/libuserxe.a(libuserxe_a-utrace.o)
 *fill*         0x000c3a55        0x3 
 .rodata        0x000c3a58       0x98 ../ulib/libuserxe.a(libuserxe_a-uunxsub.o)
 .rodata        0x000c3af0       0x7a ../ulib/libuserxe.a(libuserxe_a-uviol.o)
 *fill*         0x000c3b6a        0x2 
 .rodata        0x000c3b6c      0x161 ../ulib/libuserxe.a(libuserxe_a-u3270.o)
 *fill*         0x000c3ccd        0x3 
 .rodata        0x000c3cd0      0x1ad ../ulib/libuserxe.a(libuserxe_a-u32702.o)
 *fill*         0x000c3e7d        0x3 
 .rodata        0x000c3e80      0x395 ../ulib/libuserxe.a(libuserxe_a-u32703.o)
 *fill*         0x000c4215        0x3 
 .rodata        0x000c4218       0x30 ../ulib/libuserxe.a(libuserxe_a-uabend.o)
 .rodata        0x000c4248      0x571 ../ulib/libuserxe.a(libuserxe_a-uallocl.o)
 *fill*         0x000c47b9        0x3 
 .rodata        0x000c47bc      0x7c3 ../ulib/libuserxe.a(libuserxe_a-ucalc2.o)
 *fill*         0x000c4f7f        0x1 
 .rodata        0x000c4f80      0x88e ../ulib/libuserxe.a(libuserxe_a-ucvebc.o)
 *fill*         0x000c580e        0x2 
 .rodata        0x000c5810      0x221 ../ulib/libuserxe.a(libuserxe_a-ucvebc2.o)
 *fill*         0x000c5a31        0x3 
 .rodata        0x000c5a34       0xca ../ulib/libuserxe.a(libuserxe_a-ucvext12.o)
 *fill*         0x000c5afe        0x2 
 .rodata        0x000c5b00      0x172 ../ulib/libuserxe.a(libuserxe_a-ucvext2.o)
 *fill*         0x000c5c72        0x2 
 .rodata        0x000c5c74       0xa2 ../ulib/libuserxe.a(libuserxe_a-ucvucs.o)
 *fill*         0x000c5d16        0x2 
 .rodata        0x000c5d18      0x10c ../ulib/libuserxe.a(libuserxe_a-udbcschk.o)
 .rodata        0x000c5e24        0xc ../ulib/libuserxe.a(libuserxe_a-udbcsck2.o)
 .rodata        0x000c5e30       0xbd ../ulib/libuserxe.a(libuserxe_a-uedit2.o)
 *fill*         0x000c5eed        0x3 
 .rodata        0x000c5ef0       0x33 ../ulib/libuserxe.a(libuserxe_a-uehl.o)
 *fill*         0x000c5f23        0x1 
 .rodata        0x000c5f24      0x8b9 ../ulib/libuserxe.a(libuserxe_a-ufemsg.o)
 *fill*         0x000c67dd        0x3 
 .rodata        0x000c67e0      0x113 ../ulib/libuserxe.a(libuserxe_a-ufile.o)
 *fill*         0x000c68f3        0x1 
 .rodata        0x000c68f4      0x12b ../ulib/libuserxe.a(libuserxe_a-ufile1f.o)
 *fill*         0x000c6a1f        0x1 
 .rodata        0x000c6a20      0x6a3 ../ulib/libuserxe.a(libuserxe_a-ufile1l.o)
 *fill*         0x000c70c3        0x1 
 .rodata        0x000c70c4      0x10f ../ulib/libuserxe.a(libuserxe_a-ufile1l2.o)
 *fill*         0x000c71d3        0x1 
 .rodata        0x000c71d4       0x66 ../ulib/libuserxe.a(libuserxe_a-uproc22.o)
 *fill*         0x000c723a        0x2 
 .rodata        0x000c723c      0x410 ../ulib/libuserxe.a(libuserxe_a-uproc3.o)
 .rodata        0x000c764c      0x1cc ../ulib/libuserxe.a(libuserxe_a-utf2.o)
 .rodata        0x000c7818      0x325 ../ulib/libuserxe.a(libuserxe_a-utf22.o)
 *fill*         0x000c7b3d        0x3 
 .rodata        0x000c7b40        0x2 ../ulib/libuserxe.a(libuserxe_a-uviom.o)
 *fill*         0x000c7b42        0x2 
 .rodata        0x000c7b44      0x4ad ../ulib/libuserxe.a(libuserxe_a-ucalc.o)
 *fill*         0x000c7ff1        0x3 
 .rodata        0x000c7ff4       0x8f ../ulib/libuserxe.a(libuserxe_a-ucvebc3.o)
 *fill*         0x000c8083        0x1 
 .rodata        0x000c8084       0xac ../ulib/libuserxe.a(libuserxe_a-ucvebc4.o)
 .rodata        0x000c8130      0x8e8 ../ulib/libuserxe.a(libuserxe_a-ucvext.o)
 .rodata        0x000c8a18       0x47 ../ulib/libuserxe.a(libuserxe_a-udos2.o)

.rodata1
 *(.rodata1)

.ARM.extab      0x000c8a5f        0x0
 *(.ARM.extab* .gnu.linkonce.armextab.*)
 .ARM.extab     0x000c8a5f        0x0 /usr/lib/gcc/arm-linux-gnueabihf/8/../../../arm-linux-gnueabihf/crt1.o
 .ARM.extab     0x000c8a5f        0x0 /usr/lib/gcc/arm-linux-gnueabihf/8/libgcc.a(_udivmoddi4.o)
                [!provide]                PROVIDE (__exidx_start = .)

.ARM.exidx      0x000c8a60        0x8
 *(.ARM.exidx* .gnu.linkonce.armexidx.*)
 .ARM.exidx     0x000c8a60        0x8 /usr/lib/gcc/arm-linux-gnueabihf/8/../../../arm-linux-gnueabihf/crt1.o
 .ARM.exidx     0x000c8a68        0x0 /usr/lib/gcc/arm-linux-gnueabihf/8/libgcc.a(_udivmoddi4.o)
                                  0x8 (size before relaxing)
                [!provide]                PROVIDE (__exidx_end = .)

.eh_frame_hdr
 *(.eh_frame_hdr)
 *(.eh_frame_entry .eh_frame_entry.*)

.eh_frame       0x000c8a68        0x4
 *(.eh_frame)
 .eh_frame      0x000c8a68        0x4 /usr/lib/gcc/arm-linux-gnueabihf/8/crtend.o
 *(.eh_frame.*)

.gcc_except_table
 *(.gcc_except_table .gcc_except_table.*)

.gnu_extab
 *(.gnu_extab*)

.exception_ranges
 *(.exception_ranges .exception_ranges*)
                0x000d8e08                . = DATA_SEGMENT_ALIGN (CONSTANT (MAXPAGESIZE), CONSTANT (COMMONPAGESIZE))

.eh_frame
 *(.eh_frame)
 *(.eh_frame.*)

.gnu_extab
 *(.gnu_extab)

.gcc_except_table
 *(.gcc_except_table .gcc_except_table.*)

.exception_ranges
 *(.exception_ranges .exception_ranges*)

.tdata          0x000d8e08        0x0
                [!provide]                PROVIDE (__tdata_start = .)
 *(.tdata .tdata.* .gnu.linkonce.td.*)

.tbss
 *(.tbss .tbss.* .gnu.linkonce.tb.*)
 *(.tcommon)

.preinit_array  0x000d8e08        0x0
                [!provide]                PROVIDE (__preinit_array_start = .)
 *(.preinit_array)
                [!provide]                PROVIDE (__preinit_array_end = .)

.init_array     0x000d8e08        0x4
                0x000d8e08                PROVIDE (__init_array_start = .)
 *(SORT_BY_INIT_PRIORITY(.init_array.*) SORT_BY_INIT_PRIORITY(.ctors.*))
 *(.init_array EXCLUDE_FILE(*crtend?.o *crtend.o *crtbegin?.o *crtbegin.o) .ctors)
 .init_array    0x000d8e08        0x4 /usr/lib/gcc/arm-linux-gnueabihf/8/crtbegin.o
                0x000d8e0c                PROVIDE (__init_array_end = .)

.fini_array     0x000d8e0c        0x4
                [!provide]                PROVIDE (__fini_array_start = .)
 *(SORT_BY_INIT_PRIORITY(.fini_array.*) SORT_BY_INIT_PRIORITY(.dtors.*))
 *(.fini_array EXCLUDE_FILE(*crtend?.o *crtend.o *crtbegin?.o *crtbegin.o) .dtors)
 .fini_array    0x000d8e0c        0x4 /usr/lib/gcc/arm-linux-gnueabihf/8/crtbegin.o
                [!provide]                PROVIDE (__fini_array_end = .)

.ctors
 *crtbegin.o(.ctors)
 *crtbegin?.o(.ctors)
 *(EXCLUDE_FILE(*crtend?.o *crtend.o) .ctors)
 *(SORT_BY_NAME(.ctors.*))
 *(.ctors)

.dtors
 *crtbegin.o(.dtors)
 *crtbegin?.o(.dtors)
 *(EXCLUDE_FILE(*crtend?.o *crtend.o) .dtors)
 *(SORT_BY_NAME(.dtors.*))
 *(.dtors)

.jcr
 *(.jcr)

.data.rel.ro    0x000d8e10        0x0
 *(.data.rel.ro.local* .gnu.linkonce.d.rel.ro.local.*)
 *(.data.rel.ro .data.rel.ro.* .gnu.linkonce.d.rel.ro.*)
 .data.rel.ro   0x000d8e10        0x0 /usr/lib/gcc/arm-linux-gnueabihf/8/../../../arm-linux-gnueabihf/crt1.o

.dynamic        0x000d8e10      0x1f0
 *(.dynamic)
 .dynamic       0x000d8e10      0x1f0 /usr/lib/gcc/arm-linux-gnueabihf/8/../../../arm-linux-gnueabihf/crt1.o
                0x000d8e10                _DYNAMIC
                0x000d9000                . = DATA_SEGMENT_RELRO_END (., 0x0)

.got            0x000d9000      0x2e0
 *(.got.plt)
 .got.plt       0x000d9000      0x2dc /usr/lib/gcc/arm-linux-gnueabihf/8/../../../arm-linux-gnueabihf/crt1.o
                0x000d9000                _GLOBAL_OFFSET_TABLE_
 *(.igot.plt)
 .igot.plt      0x000d92dc        0x0 /usr/lib/gcc/arm-linux-gnueabihf/8/../../../arm-linux-gnueabihf/crt1.o
 *(.got)
 .got           0x000d92dc        0x4 /usr/lib/gcc/arm-linux-gnueabihf/8/../../../arm-linux-gnueabihf/crt1.o
 *(.igot)

.data           0x000d92e0    0x27646
                [!provide]                PROVIDE (__data_start = .)
 *(.data .data.* .gnu.linkonce.d.*)
 .data          0x000d92e0        0x4 /usr/lib/gcc/arm-linux-gnueabihf/8/../../../arm-linux-gnueabihf/crt1.o
                0x000d92e0                __data_start
                0x000d92e0                data_start
 .data          0x000d92e4        0x0 /usr/lib/gcc/arm-linux-gnueabihf/8/../../../arm-linux-gnueabihf/crti.o
 .data          0x000d92e4        0x4 /usr/lib/gcc/arm-linux-gnueabihf/8/crtbegin.o
                0x000d92e4                __dso_handle
 .data          0x000d92e8        0x8 xpe.o
 .data          0x000d92f0        0x0 ../ulib/libuserxe.a(libuserxe_a-uedit.o)
 .data          0x000d92f0        0xd ../ulib/libuserxe.a(libuserxe_a-uerr.o)
 .data          0x000d92fd        0x0 ../ulib/libuserxe.a(libuserxe_a-ufile2.o)
 .data          0x000d92fd        0x0 ../ulib/libuserxe.a(libuserxe_a-ufile2f.o)
 .data          0x000d92fd        0x0 ../ulib/libuserxe.a(libuserxe_a-ufile2l.o)
 .data          0x000d92fd        0x0 ../ulib/libuserxe.a(libuserxe_a-ufile2l2.o)
 .data          0x000d92fd        0x0 ../ulib/libuserxe.a(libuserxe_a-ufile3.o)
 .data          0x000d92fd        0x0 ../ulib/libuserxe.a(libuserxe_a-ufile3f.o)
 .data          0x000d92fd        0x0 ../ulib/libuserxe.a(libuserxe_a-ufile4.o)
 .data          0x000d92fd        0x0 ../ulib/libuserxe.a(libuserxe_a-ufile5.o)
 *fill*         0x000d92fd        0x3 
 .data          0x000d9300       0x10 ../ulib/libuserxe.a(libuserxe_a-uftp.o)
 .data          0x000d9310       0x50 ../ulib/libuserxe.a(libuserxe_a-uftp2.o)
 .data          0x000d9360        0x4 ../ulib/libuserxe.a(libuserxe_a-uftp3.o)
 .data          0x000d9364        0x0 ../ulib/libuserxe.a(libuserxe_a-ugcclib.o)
 .data          0x000d9364        0x0 ../ulib/libuserxe.a(libuserxe_a-ukbdl.o)
 .data          0x000d9364     0xb6bc ../ulib/libuserxe.a(libuserxe_a-ukbdlnxc.o)
 .data          0x000e4a20       0x10 ../ulib/libuserxe.a(libuserxe_a-ukbdlnxm.o)
 .data          0x000e4a30        0x0 ../ulib/libuserxe.a(libuserxe_a-uparse.o)
 .data          0x000e4a30       0x20 ../ulib/libuserxe.a(libuserxe_a-uproc.o)
 .data          0x000e4a50        0x0 ../ulib/libuserxe.a(libuserxe_a-uproc2.o)
 .data          0x000e4a50        0x0 ../ulib/libuserxe.a(libuserxe_a-uproc4.o)
 .data          0x000e4a50        0x0 ../ulib/libuserxe.a(libuserxe_a-uque.o)
 .data          0x000e4a50        0x0 ../ulib/libuserxe.a(libuserxe_a-ustrcpy.o)
 .data          0x000e4a50       0xfb ../ulib/libuserxe.a(libuserxe_a-ustring.o)
 *fill*         0x000e4b4b        0x1 
 .data          0x000e4b4c      0xe98 ../ulib/libuserxe.a(libuserxe_a-utf3.o)
 .data          0x000e59e4        0x0 ../ulib/libuserxe.a(libuserxe_a-utf4.o)
 .data          0x000e59e4     0x1928 ../ulib/libuserxe.a(libuserxe_a-utrace.o)
 .data          0x000e730c        0x0 ../ulib/libuserxe.a(libuserxe_a-uunxsub.o)
 .data          0x000e730c        0xc ../ulib/libuserxe.a(libuserxe_a-uviol.o)
 .data          0x000e7318        0x4 ../ulib/libuserxe.a(libuserxe_a-u3270.o)
 .data          0x000e731c        0x0 ../ulib/libuserxe.a(libuserxe_a-u32702.o)
 .data          0x000e731c        0x0 ../ulib/libuserxe.a(libuserxe_a-u32703.o)
 .data          0x000e731c        0x0 ../ulib/libuserxe.a(libuserxe_a-uabend.o)
 .data          0x000e731c     0x1000 ../ulib/libuserxe.a(libuserxe_a-uallocl.o)
 .data          0x000e831c      0x24c ../ulib/libuserxe.a(libuserxe_a-ucalc2.o)
 .data          0x000e8568      0x248 ../ulib/libuserxe.a(libuserxe_a-ucvebc.o)
 .data          0x000e87b0        0x0 ../ulib/libuserxe.a(libuserxe_a-ucvebc2.o)
 .data          0x000e87b0     0xed30 ../ulib/libuserxe.a(libuserxe_a-ucvebct.o)
 .data          0x000f74e0        0x6 ../ulib/libuserxe.a(libuserxe_a-ucvext12.o)
 .data          0x000f74e6        0x0 ../ulib/libuserxe.a(libuserxe_a-ucvext2.o)
 *fill*         0x000f74e6        0x2 
 .data          0x000f74e8       0x28 ../ulib/libuserxe.a(libuserxe_a-ucvucs.o)
 .data          0x000f7510     0x7cb0 ../ulib/libuserxe.a(libuserxe_a-ucvucst.o)
                0x000f7510                Scp932tb
 .data          0x000ff1c0        0x8 ../ulib/libuserxe.a(libuserxe_a-udbcschk.o)
                0x000ff1c0                Gpdbcstbl
 .data          0x000ff1c8     0x1148 ../ulib/libuserxe.a(libuserxe_a-udbcsck2.o)
 .data          0x00100310       0x78 ../ulib/libuserxe.a(libuserxe_a-uedit2.o)
 .data          0x00100388       0x38 ../ulib/libuserxe.a(libuserxe_a-uehl.o)
 .data          0x001003c0        0x0 ../ulib/libuserxe.a(libuserxe_a-ufemsg.o)
 .data          0x001003c0        0xc ../ulib/libuserxe.a(libuserxe_a-ufile.o)
 .data          0x001003cc        0x0 ../ulib/libuserxe.a(libuserxe_a-ufile1f.o)
 .data          0x001003cc        0x0 ../ulib/libuserxe.a(libuserxe_a-ufile1l.o)
 .data          0x001003cc       0x2c ../ulib/libuserxe.a(libuserxe_a-ufile1l2.o)
 .data          0x001003f8        0x0 ../ulib/libuserxe.a(libuserxe_a-uproc22.o)
 .data          0x001003f8       0x54 ../ulib/libuserxe.a(libuserxe_a-uproc3.o)
 .data          0x0010044c        0x0 ../ulib/libuserxe.a(libuserxe_a-utf.o)
 .data          0x0010044c        0x0 ../ulib/libuserxe.a(libuserxe_a-utf2.o)
 .data          0x0010044c      0x164 ../ulib/libuserxe.a(libuserxe_a-utf22.o)
 .data          0x001005b0        0x4 ../ulib/libuserxe.a(libuserxe_a-uviom.o)
                0x001005b0                Guviomdbcspad
 .data          0x001005b4       0x54 ../ulib/libuserxe.a(libuserxe_a-ucalc.o)
 .data          0x00100608        0x8 ../ulib/libuserxe.a(libuserxe_a-ucvebc3.o)
 .data          0x00100610        0x0 ../ulib/libuserxe.a(libuserxe_a-ucvebc4.o)
 .data          0x00100610      0x316 ../ulib/libuserxe.a(libuserxe_a-ucvext.o)
 .data          0x00100926        0x0 ../ulib/libuserxe.a(libuserxe_a-udos2.o)
 .data          0x00100926        0x0 /usr/lib/gcc/arm-linux-gnueabihf/8/libgcc.a(_divsi3.o)
 .data          0x00100926        0x0 /usr/lib/gcc/arm-linux-gnueabihf/8/libgcc.a(_aeabi_ldivmod.o)
 .data          0x00100926        0x0 /usr/lib/gcc/arm-linux-gnueabihf/8/libgcc.a(_dvmd_lnx.o)
 .data          0x00100926        0x0 /usr/lib/gcc/arm-linux-gnueabihf/8/libgcc.a(_udivmoddi4.o)
 .data          0x00100926        0x0 //usr/lib/arm-linux-gnueabihf/libc_nonshared.a(elf-init.oS)
 .data          0x00100926        0x0 //usr/lib/arm-linux-gnueabihf/libc_nonshared.a(stat64.oS)
 .data          0x00100926        0x0 //usr/lib/arm-linux-gnueabihf/libc_nonshared.a(lstat64.oS)
 .data          0x00100926        0x0 /usr/lib/gcc/arm-linux-gnueabihf/8/crtend.o
 .data          0x00100926        0x0 /usr/lib/gcc/arm-linux-gnueabihf/8/../../../arm-linux-gnueabihf/crtn.o

.tm_clone_table
                0x00100928        0x0
 .tm_clone_table
                0x00100928        0x0 /usr/lib/gcc/arm-linux-gnueabihf/8/crtbegin.o
 .tm_clone_table
                0x00100928        0x0 /usr/lib/gcc/arm-linux-gnueabihf/8/crtend.o

.data1
 *(.data1)
                0x00100928                _edata = .
                [!provide]                PROVIDE (edata = .)
                0x00100928                . = .
                0x00100928                __bss_start = .
                0x00100928                __bss_start__ = .

.bss            0x00100928   0x1449b8
 *(.dynbss)
 .dynbss        0x00100928      0x230 /usr/lib/gcc/arm-linux-gnueabihf/8/../../../arm-linux-gnueabihf/crt1.o
                0x00100928                COLORS@@NCURSESW6_5.1.20000708
                0x0010092c                LINES@@NCURSES6_TINFO_5.0.19991023
                0x00100930                acs_map@@NCURSES6_TINFO_5.0.19991023
                0x00100b30                stdscr@@NCURSES6_TINFO_5.0.19991023
                0x00100b34                cur_term@@NCURSES6_TINFO_5.0.19991023
                0x00100b38                COLS@@NCURSES6_TINFO_5.0.19991023
                0x00100b3c                stdout@@GLIBC_2.4
                0x00100b40                COLOR_PAIRS@@NCURSESW6_5.1.20000708
                0x00100b48                stdin@@GLIBC_2.4
                0x00100b50                stderr@@GLIBC_2.4
                0x00100b54                newscr@@NCURSES6_TINFO_5.0.19991023
 *(.bss .bss.* .gnu.linkonce.b.*)
 .bss           0x00100b58        0x0 /usr/lib/gcc/arm-linux-gnueabihf/8/../../../arm-linux-gnueabihf/crt1.o
 .bss           0x00100b58        0x0 /usr/lib/gcc/arm-linux-gnueabihf/8/../../../arm-linux-gnueabihf/crti.o
 .bss           0x00100b58        0x1 /usr/lib/gcc/arm-linux-gnueabihf/8/crtbegin.o
 *fill*         0x00100b59        0x3 
 .bss           0x00100b5c        0x4 xpe.o
 .bss           0x00100b60       0xd8 ../ulib/libuserxe.a(libuserxe_a-uedit.o)
 .bss           0x00100c38     0x40e4 ../ulib/libuserxe.a(libuserxe_a-uerr.o)
 *fill*         0x00104d1c        0x4 
 .bss           0x00104d20       0x34 ../ulib/libuserxe.a(libuserxe_a-ufile2.o)
 .bss           0x00104d54       0x20 ../ulib/libuserxe.a(libuserxe_a-ufile2f.o)
 .bss           0x00104d74        0x4 ../ulib/libuserxe.a(libuserxe_a-ufile2l.o)
 .bss           0x00104d78        0x0 ../ulib/libuserxe.a(libuserxe_a-ufile2l2.o)
 .bss           0x00104d78        0x8 ../ulib/libuserxe.a(libuserxe_a-ufile3.o)
 .bss           0x00104d80     0x100d ../ulib/libuserxe.a(libuserxe_a-ufile3f.o)
 *fill*         0x00105d8d        0x3 
 .bss           0x00105d90     0x1034 ../ulib/libuserxe.a(libuserxe_a-ufile4.o)
 *fill*         0x00106dc4        0x4 
 .bss           0x00106dc8       0x5d ../ulib/libuserxe.a(libuserxe_a-ufile5.o)
 *fill*         0x00106e25        0x3 
 .bss           0x00106e28    0x64d00 ../ulib/libuserxe.a(libuserxe_a-uftp.o)
 .bss           0x0016bb28        0x8 ../ulib/libuserxe.a(libuserxe_a-uftp2.o)
 .bss           0x0016bb30        0x0 ../ulib/libuserxe.a(libuserxe_a-uftp3.o)
 .bss           0x0016bb30        0x4 ../ulib/libuserxe.a(libuserxe_a-ugcclib.o)
 .bss           0x0016bb34       0xf4 ../ulib/libuserxe.a(libuserxe_a-ukbdl.o)
                0x0016bb34                Swcstat
 .bss           0x0016bc28     0x5808 ../ulib/libuserxe.a(libuserxe_a-ukbdlnxc.o)
 .bss           0x00171430        0x8 ../ulib/libuserxe.a(libuserxe_a-ukbdlnxm.o)
 .bss           0x00171438      0x205 ../ulib/libuserxe.a(libuserxe_a-uparse.o)
 *fill*         0x0017163d        0x3 
 .bss           0x00171640       0x1c ../ulib/libuserxe.a(libuserxe_a-uproc.o)
                0x00171640                Sserverstat
                0x00171644                Scmdservercallback
                0x00171648                Scallbackparm
                0x0017164c                Scmdserverchildpid
 .bss           0x0017165c        0x4 ../ulib/libuserxe.a(libuserxe_a-uproc2.o)
 .bss           0x00171660       0x1c ../ulib/libuserxe.a(libuserxe_a-uproc4.o)
 .bss           0x0017167c        0x0 ../ulib/libuserxe.a(libuserxe_a-uque.o)
 .bss           0x0017167c        0x0 ../ulib/libuserxe.a(libuserxe_a-ustrcpy.o)
 .bss           0x0017167c        0x0 ../ulib/libuserxe.a(libuserxe_a-ustring.o)
 .bss           0x0017167c        0x8 ../ulib/libuserxe.a(libuserxe_a-utf3.o)
 .bss           0x00171684        0x4 ../ulib/libuserxe.a(libuserxe_a-utf4.o)
 .bss           0x00171688     0x1170 ../ulib/libuserxe.a(libuserxe_a-utrace.o)
 .bss           0x001727f8       0x20 ../ulib/libuserxe.a(libuserxe_a-uunxsub.o)
 .bss           0x00172818      0x508 ../ulib/libuserxe.a(libuserxe_a-uviol.o)
 .bss           0x00172d20        0xc ../ulib/libuserxe.a(libuserxe_a-u3270.o)
 .bss           0x00172d2c       0x10 ../ulib/libuserxe.a(libuserxe_a-u32702.o)
 *fill*         0x00172d3c        0x4 
 .bss           0x00172d40     0x1208 ../ulib/libuserxe.a(libuserxe_a-u32703.o)
 .bss           0x00173f48        0x0 ../ulib/libuserxe.a(libuserxe_a-uabend.o)
 .bss           0x00173f48       0x84 ../ulib/libuserxe.a(libuserxe_a-uallocl.o)
 .bss           0x00173fcc        0x0 ../ulib/libuserxe.a(libuserxe_a-ucalc2.o)
 .bss           0x00173fcc      0x790 ../ulib/libuserxe.a(libuserxe_a-ucvebc.o)
 .bss           0x0017475c       0x10 ../ulib/libuserxe.a(libuserxe_a-ucvebc2.o)
 .bss           0x0017476c        0x0 ../ulib/libuserxe.a(libuserxe_a-ucvebct.o)
 .bss           0x0017476c       0x24 ../ulib/libuserxe.a(libuserxe_a-ucvext12.o)
 .bss           0x00174790        0xc ../ulib/libuserxe.a(libuserxe_a-ucvext2.o)
 .bss           0x0017479c        0xc ../ulib/libuserxe.a(libuserxe_a-ucvucs.o)
 .bss           0x001747a8        0x0 ../ulib/libuserxe.a(libuserxe_a-ucvucst.o)
 .bss           0x001747a8      0x2f9 ../ulib/libuserxe.a(libuserxe_a-udbcschk.o)
 .bss           0x00174aa1        0x0 ../ulib/libuserxe.a(libuserxe_a-udbcsck2.o)
 *fill*         0x00174aa1        0x3 
 .bss           0x00174aa4      0x268 ../ulib/libuserxe.a(libuserxe_a-uedit2.o)
 .bss           0x00174d0c       0x64 ../ulib/libuserxe.a(libuserxe_a-uehl.o)
 .bss           0x00174d70       0x20 ../ulib/libuserxe.a(libuserxe_a-ufemsg.o)
 .bss           0x00174d90       0x18 ../ulib/libuserxe.a(libuserxe_a-ufile.o)
 .bss           0x00174da8        0x4 ../ulib/libuserxe.a(libuserxe_a-ufile1f.o)
 .bss           0x00174dac    0x64658 ../ulib/libuserxe.a(libuserxe_a-ufile1l.o)
 .bss           0x001d9404        0x4 ../ulib/libuserxe.a(libuserxe_a-ufile1l2.o)
 .bss           0x001d9408       0x18 ../ulib/libuserxe.a(libuserxe_a-uproc22.o)
 .bss           0x001d9420       0x10 ../ulib/libuserxe.a(libuserxe_a-uproc3.o)
 .bss           0x001d9430        0x0 ../ulib/libuserxe.a(libuserxe_a-utf.o)
 .bss           0x001d9430       0x98 ../ulib/libuserxe.a(libuserxe_a-utf2.o)
 .bss           0x001d94c8       0x14 ../ulib/libuserxe.a(libuserxe_a-utf22.o)
 .bss           0x001d94dc       0x58 ../ulib/libuserxe.a(libuserxe_a-uviom.o)
 .bss           0x001d9534      0x114 ../ulib/libuserxe.a(libuserxe_a-ucalc.o)
 .bss           0x001d9648       0x34 ../ulib/libuserxe.a(libuserxe_a-ucvebc3.o)
 .bss           0x001d967c        0x4 ../ulib/libuserxe.a(libuserxe_a-ucvebc4.o)
 .bss           0x001d9680     0x1cd4 ../ulib/libuserxe.a(libuserxe_a-ucvext.o)
 .bss           0x001db354        0x0 ../ulib/libuserxe.a(libuserxe_a-udos2.o)
 .bss           0x001db354        0x0 /usr/lib/gcc/arm-linux-gnueabihf/8/libgcc.a(_divsi3.o)
 .bss           0x001db354        0x0 /usr/lib/gcc/arm-linux-gnueabihf/8/libgcc.a(_aeabi_ldivmod.o)
 .bss           0x001db354        0x0 /usr/lib/gcc/arm-linux-gnueabihf/8/libgcc.a(_dvmd_lnx.o)
 .bss           0x001db354        0x0 /usr/lib/gcc/arm-linux-gnueabihf/8/libgcc.a(_udivmoddi4.o)
 .bss           0x001db354        0x0 //usr/lib/arm-linux-gnueabihf/libc_nonshared.a(elf-init.oS)
 .bss           0x001db354        0x0 //usr/lib/arm-linux-gnueabihf/libc_nonshared.a(stat64.oS)
 .bss           0x001db354        0x0 //usr/lib/arm-linux-gnueabihf/libc_nonshared.a(lstat64.oS)
 .bss           0x001db354        0x0 /usr/lib/gcc/arm-linux-gnueabihf/8/crtend.o
 .bss           0x001db354        0x0 /usr/lib/gcc/arm-linux-gnueabihf/8/../../../arm-linux-gnueabihf/crtn.o
 *(COMMON)
 COMMON         0x001db354        0x5 ../ulib/libuserxe.a(libuserxe_a-uerr.o)
                0x001db354                Guerropt2
                0x001db358                Guerropt
 *fill*         0x001db359        0x3 
 COMMON         0x001db35c       0x88 ../ulib/libuserxe.a(libuserxe_a-uftp2.o)
                0x001db35c                Gftperr
                0x001db360                Gftpopt
                0x001db364                Gftpclient
 COMMON         0x001db3e4        0x8 ../ulib/libuserxe.a(libuserxe_a-ukbdl.o)
                0x001db3e4                Sphiconv
                0x001db3e8                Gukbdl_flag
 COMMON         0x001db3ec        0x8 ../ulib/libuserxe.a(libuserxe_a-uproc.o)
                0x001db3ec                Sfdpiper
                0x001db3f0                Sfdpipew
 COMMON         0x001db3f4      0x104 ../ulib/libuserxe.a(libuserxe_a-utrace.o)
                0x001db3f4                Gtracehdr
                0x001db4f4                Slockhandle
 COMMON         0x001db4f8        0x4 ../ulib/libuserxe.a(libuserxe_a-uviol.o)
                0x001db4f8                Guviol_flag
 COMMON         0x001db4fc        0x8 ../ulib/libuserxe.a(libuserxe_a-uallocl.o)
                0x001db4fc                Gualloc_amount
                0x001db500                Gualloc16_amount
 COMMON         0x001db504     0x9c48 ../ulib/libuserxe.a(libuserxe_a-ucvebc.o)
                0x001db504                Gucvebchctr
                0x001db508                Gucvebch
                0x001e5148                Gucvebc_stat
 COMMON         0x001e514c       0x10 ../ulib/libuserxe.a(libuserxe_a-ucvebc2.o)
                0x001e514c                Snewoldctr
                0x001e5150                Se2stctr
                0x001e5154                Sduptctr
                0x001e5158                Ss2etctr
 COMMON         0x001e515c        0xc ../ulib/libuserxe.a(libuserxe_a-udbcschk.o)
                0x001e515c                Gudbcschk_flag
                0x001e5160                Gudbcschk_width0top
                0x001e5164                Sdbcschk_hkopt
 COMMON         0x001e5168        0x8 ../ulib/libuserxe.a(libuserxe_a-ufile.o)
                0x001e5168                Gufile_opt
                0x001e516c                Gufile_nomsg
 COMMON         0x001e5170        0xc ../ulib/libuserxe.a(libuserxe_a-utf.o)
                0x001e5170                Gulibutfmode
                0x001e5174                Gutfrc
                0x001e5178                Gutfcombaltch
 COMMON         0x001e517c    0x60000 ../ulib/libuserxe.a(libuserxe_a-utf22.o)
                0x001e517c                Gucs2ddmap_i2u
                0x0020517c                Gucs2ddmap
 COMMON         0x0024517c       0x24 ../ulib/libuserxe.a(libuserxe_a-uviom.o)
                0x0024517c                Guviombuffu
                0x00245180                Guviomopt
                0x00245184                Guviomoptstr
                0x00245188                Guviomopt2
                0x0024518c                Gw95buffopt
                0x00245190                Guviomoptstrucs
 COMMON         0x002451a0      0x140 ../ulib/libuserxe.a(libuserxe_a-ucalc.o)
                0x002451a0                Gucalc_result
                0x002452e0                . = ALIGN ((. != 0x0)?0x4:0x1)
                0x002452e0                _bss_end__ = .
                0x002452e0                __bss_end__ = .
                0x002452e0                . = ALIGN (0x4)
                0x002452e0                . = SEGMENT_START ("ldata-segment", .)
                0x002452e0                . = ALIGN (0x4)
                0x002452e0                __end__ = .
                0x002452e0                _end = .
                [!provide]                PROVIDE (end = .)
                0x002452e0                . = DATA_SEGMENT_END (.)

.stab
 *(.stab)

.stabstr
 *(.stabstr)

.stab.excl
 *(.stab.excl)

.stab.exclstr
 *(.stab.exclstr)

.stab.index
 *(.stab.index)

.stab.indexstr
 *(.stab.indexstr)

.comment        0x00000000       0x23
 *(.comment)
 .comment       0x00000000       0x23 /usr/lib/gcc/arm-linux-gnueabihf/8/crtbegin.o
                                 0x24 (size before relaxing)
 .comment       0x00000023       0x24 xpe.o
 .comment       0x00000023       0x24 ../ulib/libuserxe.a(libuserxe_a-uedit.o)
 .comment       0x00000023       0x24 ../ulib/libuserxe.a(libuserxe_a-uerr.o)
 .comment       0x00000023       0x24 ../ulib/libuserxe.a(libuserxe_a-ufile2.o)
 .comment       0x00000023       0x24 ../ulib/libuserxe.a(libuserxe_a-ufile2f.o)
 .comment       0x00000023       0x24 ../ulib/libuserxe.a(libuserxe_a-ufile2l.o)
 .comment       0x00000023       0x24 ../ulib/libuserxe.a(libuserxe_a-ufile2l2.o)
 .comment       0x00000023       0x24 ../ulib/libuserxe.a(libuserxe_a-ufile3.o)
 .comment       0x00000023       0x24 ../ulib/libuserxe.a(libuserxe_a-ufile3f.o)
 .comment       0x00000023       0x24 ../ulib/libuserxe.a(libuserxe_a-ufile4.o)
 .comment       0x00000023       0x24 ../ulib/libuserxe.a(libuserxe_a-ufile5.o)
 .comment       0x00000023       0x24 ../ulib/libuserxe.a(libuserxe_a-uftp.o)
 .comment       0x00000023       0x24 ../ulib/libuserxe.a(libuserxe_a-uftp2.o)
 .comment       0x00000023       0x24 ../ulib/libuserxe.a(libuserxe_a-uftp3.o)
 .comment       0x00000023       0x24 ../ulib/libuserxe.a(libuserxe_a-ugcclib.o)
 .comment       0x00000023       0x24 ../ulib/libuserxe.a(libuserxe_a-ukbdl.o)
 .comment       0x00000023       0x24 ../ulib/libuserxe.a(libuserxe_a-ukbdlnxc.o)
 .comment       0x00000023       0x24 ../ulib/libuserxe.a(libuserxe_a-ukbdlnxm.o)
 .comment       0x00000023       0x24 ../ulib/libuserxe.a(libuserxe_a-uparse.o)
 .comment       0x00000023       0x24 ../ulib/libuserxe.a(libuserxe_a-uproc.o)
 .comment       0x00000023       0x24 ../ulib/libuserxe.a(libuserxe_a-uproc2.o)
 .comment       0x00000023       0x24 ../ulib/libuserxe.a(libuserxe_a-uproc4.o)
 .comment       0x00000023       0x24 ../ulib/libuserxe.a(libuserxe_a-uque.o)
 .comment       0x00000023       0x24 ../ulib/libuserxe.a(libuserxe_a-ustrcpy.o)
 .comment       0x00000023       0x24 ../ulib/libuserxe.a(libuserxe_a-ustring.o)
 .comment       0x00000023       0x24 ../ulib/libuserxe.a(libuserxe_a-utf3.o)
 .comment       0x00000023       0x24 ../ulib/libuserxe.a(libuserxe_a-utf4.o)
 .comment       0x00000023       0x24 ../ulib/libuserxe.a(libuserxe_a-utrace.o)
 .comment       0x00000023       0x24 ../ulib/libuserxe.a(libuserxe_a-uunxsub.o)
 .comment       0x00000023       0x24 ../ulib/libuserxe.a(libuserxe_a-uviol.o)
 .comment       0x00000023       0x24 ../ulib/libuserxe.a(libuserxe_a-u3270.o)
 .comment       0x00000023       0x24 ../ulib/libuserxe.a(libuserxe_a-u32702.o)
 .comment       0x00000023       0x24 ../ulib/libuserxe.a(libuserxe_a-u32703.o)
 .comment       0x00000023       0x24 ../ulib/libuserxe.a(libuserxe_a-uabend.o)
 .comment       0x00000023       0x24 ../ulib/libuserxe.a(libuserxe_a-uallocl.o)
 .comment       0x00000023       0x24 ../ulib/libuserxe.a(libuserxe_a-ucalc2.o)
 .comment       0x00000023       0x24 ../ulib/libuserxe.a(libuserxe_a-ucvebc.o)
 .comment       0x00000023       0x24 ../ulib/libuserxe.a(libuserxe_a-ucvebc2.o)
 .comment       0x00000023       0x24 ../ulib/libuserxe.a(libuserxe_a-ucvebct.o)
 .comment       0x00000023       0x24 ../ulib/libuserxe.a(libuserxe_a-ucvext12.o)
 .comment       0x00000023       0x24 ../ulib/libuserxe.a(libuserxe_a-ucvext2.o)
 .comment       0x00000023       0x24 ../ulib/libuserxe.a(libuserxe_a-ucvucs.o)
 .comment       0x00000023       0x24 ../ulib/libuserxe.a(libuserxe_a-ucvucst.o)
 .comment       0x00000023       0x24 ../ulib/libuserxe.a(libuserxe_a-udbcschk.o)
 .comment       0x00000023       0x24 ../ulib/libuserxe.a(libuserxe_a-udbcsck2.o)
 .comment       0x00000023       0x24 ../ulib/libuserxe.a(libuserxe_a-uedit2.o)
 .comment       0x00000023       0x24 ../ulib/libuserxe.a(libuserxe_a-uehl.o)
 .comment       0x00000023       0x24 ../ulib/libuserxe.a(libuserxe_a-ufemsg.o)
 .comment       0x00000023       0x24 ../ulib/libuserxe.a(libuserxe_a-ufile.o)
 .comment       0x00000023       0x24 ../ulib/libuserxe.a(libuserxe_a-ufile1f.o)
 .comment       0x00000023       0x24 ../ulib/libuserxe.a(libuserxe_a-ufile1l.o)
 .comment       0x00000023       0x24 ../ulib/libuserxe.a(libuserxe_a-ufile1l2.o)
 .comment       0x00000023       0x24 ../ulib/libuserxe.a(libuserxe_a-uproc22.o)
 .comment       0x00000023       0x24 ../ulib/libuserxe.a(libuserxe_a-uproc3.o)
 .comment       0x00000023       0x24 ../ulib/libuserxe.a(libuserxe_a-utf.o)
 .comment       0x00000023       0x24 ../ulib/libuserxe.a(libuserxe_a-utf2.o)
 .comment       0x00000023       0x24 ../ulib/libuserxe.a(libuserxe_a-utf22.o)
 .comment       0x00000023       0x24 ../ulib/libuserxe.a(libuserxe_a-uviom.o)
 .comment       0x00000023       0x24 ../ulib/libuserxe.a(libuserxe_a-ucalc.o)
 .comment       0x00000023       0x24 ../ulib/libuserxe.a(libuserxe_a-ucvebc3.o)
 .comment       0x00000023       0x24 ../ulib/libuserxe.a(libuserxe_a-ucvebc4.o)
 .comment       0x00000023       0x24 ../ulib/libuserxe.a(libuserxe_a-ucvext.o)
 .comment       0x00000023       0x24 ../ulib/libuserxe.a(libuserxe_a-udos2.o)
 .comment       0x00000023       0x24 /usr/lib/gcc/arm-linux-gnueabihf/8/crtend.o

.ARM.attributes
                0x00000000       0x2f
 .ARM.attributes
                0x00000000       0x2f /usr/lib/gcc/arm-linux-gnueabihf/8/../../../arm-linux-gnueabihf/crt1.o
 .ARM.attributes
                0x0000002f       0x23 /usr/lib/gcc/arm-linux-gnueabihf/8/../../../arm-linux-gnueabihf/crti.o
 .ARM.attributes
                0x00000052       0x2f /usr/lib/gcc/arm-linux-gnueabihf/8/crtbegin.o
 .ARM.attributes
                0x00000081       0x2f xpe.o
 .ARM.attributes
                0x000000b0       0x2f ../ulib/libuserxe.a(libuserxe_a-uedit.o)
 .ARM.attributes
                0x000000df       0x2f ../ulib/libuserxe.a(libuserxe_a-uerr.o)
 .ARM.attributes
                0x0000010e       0x2f ../ulib/libuserxe.a(libuserxe_a-ufile2.o)
 .ARM.attributes
                0x0000013d       0x2f ../ulib/libuserxe.a(libuserxe_a-ufile2f.o)
 .ARM.attributes
                0x0000016c       0x2f ../ulib/libuserxe.a(libuserxe_a-ufile2l.o)
 .ARM.attributes
                0x0000019b       0x2f ../ulib/libuserxe.a(libuserxe_a-ufile2l2.o)
 .ARM.attributes
                0x000001ca       0x2f ../ulib/libuserxe.a(libuserxe_a-ufile3.o)
 .ARM.attributes
                0x000001f9       0x2f ../ulib/libuserxe.a(libuserxe_a-ufile3f.o)
 .ARM.attributes
                0x00000228       0x2f ../ulib/libuserxe.a(libuserxe_a-ufile4.o)
 .ARM.attributes
                0x00000257       0x2f ../ulib/libuserxe.a(libuserxe_a-ufile5.o)
 .ARM.attributes
                0x00000286       0x2f ../ulib/libuserxe.a(libuserxe_a-uftp.o)
 .ARM.attributes
                0x000002b5       0x2f ../ulib/libuserxe.a(libuserxe_a-uftp2.o)
 .ARM.attributes
                0x000002e4       0x2f ../ulib/libuserxe.a(libuserxe_a-uftp3.o)
 .ARM.attributes
                0x00000313       0x2f ../ulib/libuserxe.a(libuserxe_a-ugcclib.o)
 .ARM.attributes
                0x00000342       0x2f ../ulib/libuserxe.a(libuserxe_a-ukbdl.o)
 .ARM.attributes
                0x00000371       0x2f ../ulib/libuserxe.a(libuserxe_a-ukbdlnxc.o)
 .ARM.attributes
                0x000003a0       0x2f ../ulib/libuserxe.a(libuserxe_a-ukbdlnxm.o)
 .ARM.attributes
                0x000003cf       0x2f ../ulib/libuserxe.a(libuserxe_a-uparse.o)
 .ARM.attributes
                0x000003fe       0x2f ../ulib/libuserxe.a(libuserxe_a-uproc.o)
 .ARM.attributes
                0x0000042d       0x2f ../ulib/libuserxe.a(libuserxe_a-uproc2.o)
 .ARM.attributes
                0x0000045c       0x2f ../ulib/libuserxe.a(libuserxe_a-uproc4.o)
 .ARM.attributes
                0x0000048b       0x2f ../ulib/libuserxe.a(libuserxe_a-uque.o)
 .ARM.attributes
                0x000004ba       0x2f ../ulib/libuserxe.a(libuserxe_a-ustrcpy.o)
 .ARM.attributes
                0x000004e9       0x2f ../ulib/libuserxe.a(libuserxe_a-ustring.o)
 .ARM.attributes
                0x00000518       0x2f ../ulib/libuserxe.a(libuserxe_a-utf3.o)
 .ARM.attributes
                0x00000547       0x2f ../ulib/libuserxe.a(libuserxe_a-utf4.o)
 .ARM.attributes
                0x00000576       0x2f ../ulib/libuserxe.a(libuserxe_a-utrace.o)
 .ARM.attributes
                0x000005a5       0x2f ../ulib/libuserxe.a(libuserxe_a-uunxsub.o)
 .ARM.attributes
                0x000005d4       0x2f ../ulib/libuserxe.a(libuserxe_a-uviol.o)
 .ARM.attributes
                0x00000603       0x2f ../ulib/libuserxe.a(libuserxe_a-u3270.o)
 .ARM.attributes
                0x00000632       0x2f ../ulib/libuserxe.a(libuserxe_a-u32702.o)
 .ARM.attributes
                0x00000661       0x2f ../ulib/libuserxe.a(libuserxe_a-u32703.o)
 .ARM.attributes
                0x00000690       0x2f ../ulib/libuserxe.a(libuserxe_a-uabend.o)
 .ARM.attributes
                0x000006bf       0x2f ../ulib/libuserxe.a(libuserxe_a-uallocl.o)
 .ARM.attributes
                0x000006ee       0x2f ../ulib/libuserxe.a(libuserxe_a-ucalc2.o)
 .ARM.attributes
                0x0000071d       0x2f ../ulib/libuserxe.a(libuserxe_a-ucvebc.o)
 .ARM.attributes
                0x0000074c       0x2f ../ulib/libuserxe.a(libuserxe_a-ucvebc2.o)
 .ARM.attributes
                0x0000077b       0x2f ../ulib/libuserxe.a(libuserxe_a-ucvebct.o)
 .ARM.attributes
                0x000007aa       0x2f ../ulib/libuserxe.a(libuserxe_a-ucvext12.o)
 .ARM.attributes
                0x000007d9       0x2f ../ulib/libuserxe.a(libuserxe_a-ucvext2.o)
 .ARM.attributes
                0x00000808       0x2f ../ulib/libuserxe.a(libuserxe_a-ucvucs.o)
 .ARM.attributes
                0x00000837       0x2f ../ulib/libuserxe.a(libuserxe_a-ucvucst.o)
 .ARM.attributes
                0x00000866       0x2f ../ulib/libuserxe.a(libuserxe_a-udbcschk.o)
 .ARM.attributes
                0x00000895       0x2f ../ulib/libuserxe.a(libuserxe_a-udbcsck2.o)
 .ARM.attributes
                0x000008c4       0x2f ../ulib/libuserxe.a(libuserxe_a-uedit2.o)
 .ARM.attributes
                0x000008f3       0x2f ../ulib/libuserxe.a(libuserxe_a-uehl.o)
 .ARM.attributes
                0x00000922       0x2f ../ulib/libuserxe.a(libuserxe_a-ufemsg.o)
 .ARM.attributes
                0x00000951       0x2f ../ulib/libuserxe.a(libuserxe_a-ufile.o)
 .ARM.attributes
                0x00000980       0x2f ../ulib/libuserxe.a(libuserxe_a-ufile1f.o)
 .ARM.attributes
                0x000009af       0x2f ../ulib/libuserxe.a(libuserxe_a-ufile1l.o)
 .ARM.attributes
                0x000009de       0x2f ../ulib/libuserxe.a(libuserxe_a-ufile1l2.o)
 .ARM.attributes
                0x00000a0d       0x2f ../ulib/libuserxe.a(libuserxe_a-uproc22.o)
 .ARM.attributes
                0x00000a3c       0x2f ../ulib/libuserxe.a(libuserxe_a-uproc3.o)
 .ARM.attributes
                0x00000a6b       0x2f ../ulib/libuserxe.a(libuserxe_a-utf.o)
 .ARM.attributes
                0x00000a9a       0x2f ../ulib/libuserxe.a(libuserxe_a-utf2.o)
 .ARM.attributes
                0x00000ac9       0x2f ../ulib/libuserxe.a(libuserxe_a-utf22.o)
 .ARM.attributes
                0x00000af8       0x2f ../ulib/libuserxe.a(libuserxe_a-uviom.o)
 .ARM.attributes
                0x00000b27       0x2f ../ulib/libuserxe.a(libuserxe_a-ucalc.o)
 .ARM.attributes
                0x00000b56       0x2f ../ulib/libuserxe.a(libuserxe_a-ucvebc3.o)
 .ARM.attributes
                0x00000b85       0x2f ../ulib/libuserxe.a(libuserxe_a-ucvebc4.o)
 .ARM.attributes
                0x00000bb4       0x2f ../ulib/libuserxe.a(libuserxe_a-ucvext.o)
 .ARM.attributes
                0x00000be3       0x2f ../ulib/libuserxe.a(libuserxe_a-udos2.o)
 .ARM.attributes
                0x00000c12       0x1d /usr/lib/gcc/arm-linux-gnueabihf/8/libgcc.a(_divsi3.o)
 .ARM.attributes
                0x00000c2f       0x1d /usr/lib/gcc/arm-linux-gnueabihf/8/libgcc.a(_aeabi_ldivmod.o)
 .ARM.attributes
                0x00000c4c       0x1d /usr/lib/gcc/arm-linux-gnueabihf/8/libgcc.a(_dvmd_lnx.o)
 .ARM.attributes
                0x00000c69       0x2f /usr/lib/gcc/arm-linux-gnueabihf/8/libgcc.a(_udivmoddi4.o)
 .ARM.attributes
                0x00000c98       0x31 //usr/lib/arm-linux-gnueabihf/libc_nonshared.a(elf-init.oS)
 .ARM.attributes
                0x00000cc9       0x31 //usr/lib/arm-linux-gnueabihf/libc_nonshared.a(stat64.oS)
 .ARM.attributes
                0x00000cfa       0x31 //usr/lib/arm-linux-gnueabihf/libc_nonshared.a(lstat64.oS)
 .ARM.attributes
                0x00000d2b       0x2f /usr/lib/gcc/arm-linux-gnueabihf/8/crtend.o
 .ARM.attributes
                0x00000d5a       0x23 /usr/lib/gcc/arm-linux-gnueabihf/8/../../../arm-linux-gnueabihf/crtn.o

.debug
 *(.debug)

.line
 *(.line)

.debug_srcinfo
 *(.debug_srcinfo)

.debug_sfnames
 *(.debug_sfnames)

.debug_aranges
 *(.debug_aranges)

.debug_pubnames
 *(.debug_pubnames)

.debug_info
 *(.debug_info .gnu.linkonce.wi.*)

.debug_abbrev
 *(.debug_abbrev)

.debug_line
 *(.debug_line .debug_line.* .debug_line_end)

.debug_frame
 *(.debug_frame)

.debug_str
 *(.debug_str)

.debug_loc
 *(.debug_loc)

.debug_macinfo
 *(.debug_macinfo)

.debug_weaknames
 *(.debug_weaknames)

.debug_funcnames
 *(.debug_funcnames)

.debug_typenames
 *(.debug_typenames)

.debug_varnames
 *(.debug_varnames)

.debug_pubtypes
 *(.debug_pubtypes)

.debug_ranges
 *(.debug_ranges)

.debug_macro
 *(.debug_macro)

.debug_addr
 *(.debug_addr)

.gnu.attributes
 *(.gnu.attributes)

.note.gnu.arm.ident
 *(.note.gnu.arm.ident)

/DISCARD/
 *(.note.GNU-stack)
 *(.gnu_debuglink)
 *(.gnu.lto_*)
OUTPUT(xpe elf32-littlearm)
