Archive member included to satisfy reference by file (symbol)

../ulib/libuserxe.a(libuserxe_a-ucvucs.o)
                              xutf8.o (uccvucs2utf)
../ulib/libuserxe.a(libuserxe_a-ucvucst.o)
                              ../ulib/libuserxe.a(libuserxe_a-ucvucs.o) (ugetcp932tbl)
../ulib/libuserxe.a(libuserxe_a-udbcschk.o)
                              ../ulib/libuserxe.a(libuserxe_a-ucvucs.o) (Gudbcschk_flag)
../ulib/libuserxe.a(libuserxe_a-udbcsck2.o)
                              ../ulib/libuserxe.a(libuserxe_a-ucvucs.o) (ushift2euc1)
../ulib/libuserxe.a(libuserxe_a-uedit.o)
                              ../ulib/libuserxe.a(libuserxe_a-ucvucs.o) (ugethex)
../ulib/libuserxe.a(libuserxe_a-uerr.o)
                              xutf8.o (Guerropt)
../ulib/libuserxe.a(libuserxe_a-ufile2.o)
                              ../ulib/libuserxe.a(libuserxe_a-uerr.o) (uremove)
../ulib/libuserxe.a(libuserxe_a-ufile2f.o)
                              ../ulib/libuserxe.a(libuserxe_a-ufile2.o) (uftpremove)
../ulib/libuserxe.a(libuserxe_a-ufile2l.o)
                              ../ulib/libuserxe.a(libuserxe_a-ufile2.o) (urmdir)
../ulib/libuserxe.a(libuserxe_a-ufile2l2.o)
                              ../ulib/libuserxe.a(libuserxe_a-ufile2l.o) (umkdir_mdos)
../ulib/libuserxe.a(libuserxe_a-ufile3.o)
                              ../ulib/libuserxe.a(libuserxe_a-ufile2l2.o) (udoscopy)
../ulib/libuserxe.a(libuserxe_a-ufile3f.o)
                              ../ulib/libuserxe.a(libuserxe_a-ufile3.o) (uftpxmove)
../ulib/libuserxe.a(libuserxe_a-ufile4.o)
                              ../ulib/libuserxe.a(libuserxe_a-ufile2l2.o) (utempnam)
../ulib/libuserxe.a(libuserxe_a-ufile5.o)
                              ../ulib/libuserxe.a(libuserxe_a-ufile2.o) (udoseditname)
../ulib/libuserxe.a(libuserxe_a-uftp.o)
                              ../ulib/libuserxe.a(libuserxe_a-ufile2f.o) (uftpisexist)
../ulib/libuserxe.a(libuserxe_a-uftp2.o)
                              ../ulib/libuserxe.a(libuserxe_a-uftp.o) (Gftpopt)
../ulib/libuserxe.a(libuserxe_a-uftp3.o)
                              ../ulib/libuserxe.a(libuserxe_a-uftp.o) (uftp3setssh)
../ulib/libuserxe.a(libuserxe_a-ugcclib.o)
                              ../ulib/libuserxe.a(libuserxe_a-uedit.o) (memicmp)
../ulib/libuserxe.a(libuserxe_a-ukbdl.o)
                              ../ulib/libuserxe.a(libuserxe_a-ugcclib.o) (ukbdl_getch_init)
../ulib/libuserxe.a(libuserxe_a-ukbdlnxc.o)
                              ../ulib/libuserxe.a(libuserxe_a-ukbdl.o) (ukbdlnxc_init)
../ulib/libuserxe.a(libuserxe_a-ukbdlnxm.o)
                              ../ulib/libuserxe.a(libuserxe_a-ukbdlnxc.o) (ukbdlnxm_mouseinit)
../ulib/libuserxe.a(libuserxe_a-uparse.o)
                              ../ulib/libuserxe.a(libuserxe_a-uftp.o) (uparsev)
../ulib/libuserxe.a(libuserxe_a-uproc.o)
                              ../ulib/libuserxe.a(libuserxe_a-ukbdl.o) (uproc_getpsinfo)
../ulib/libuserxe.a(libuserxe_a-uproc2.o)
                              ../ulib/libuserxe.a(libuserxe_a-ufile2f.o) (uproc_rsh)
../ulib/libuserxe.a(libuserxe_a-uproc4.o)
                              ../ulib/libuserxe.a(libuserxe_a-ukbdlnxc.o) (uproc_select)
../ulib/libuserxe.a(libuserxe_a-uque.o)
                              ../ulib/libuserxe.a(libuserxe_a-uftp.o) (uenq)
../ulib/libuserxe.a(libuserxe_a-ustrcpy.o)
                              ../ulib/libuserxe.a(libuserxe_a-ucvucs.o) (ustring_memcpy)
../ulib/libuserxe.a(libuserxe_a-ustring.o)
                              ../ulib/libuserxe.a(libuserxe_a-uftp.o) (ustrnlen)
../ulib/libuserxe.a(libuserxe_a-utf.o)
                              ../ulib/libuserxe.a(libuserxe_a-udbcschk.o) (Gulibutfmode)
../ulib/libuserxe.a(libuserxe_a-utf2.o)
                              ../ulib/libuserxe.a(libuserxe_a-udbcschk.o) (utfsetdbcstbl)
../ulib/libuserxe.a(libuserxe_a-utf22.o)
                              ../ulib/libuserxe.a(libuserxe_a-udbcschk.o) (utfucsmapinit)
../ulib/libuserxe.a(libuserxe_a-utf3.o)
                              ../ulib/libuserxe.a(libuserxe_a-utf2.o) (utfmb2wc)
../ulib/libuserxe.a(libuserxe_a-utf4.o)
                              ../ulib/libuserxe.a(libuserxe_a-utf3.o) (mk_wcwidth)
../ulib/libuserxe.a(libuserxe_a-utrace.o)
                              ../ulib/libuserxe.a(libuserxe_a-uftp2.o) (Gtracehdr)
../ulib/libuserxe.a(libuserxe_a-uunxsub.o)
                              ../ulib/libuserxe.a(libuserxe_a-ufile2l.o) (ugetugid)
../ulib/libuserxe.a(libuserxe_a-uviom.o)
                              ../ulib/libuserxe.a(libuserxe_a-udbcschk.o) (uvio_wcinit)
../ulib/libuserxe.a(libuserxe_a-uviol.o)
                              ../ulib/libuserxe.a(libuserxe_a-uerr.o) (Guviol_flag)
../ulib/libuserxe.a(libuserxe_a-u3270.o)
                              ../ulib/libuserxe.a(libuserxe_a-ufile5.o) (u3270editname)
../ulib/libuserxe.a(libuserxe_a-u32702.o)
                              ../ulib/libuserxe.a(libuserxe_a-ufile2f.o) (u3270mkdir)
../ulib/libuserxe.a(libuserxe_a-u32703.o)
                              ../ulib/libuserxe.a(libuserxe_a-ufile3.o) (u3270xmove)
../ulib/libuserxe.a(libuserxe_a-uabend.o)
                              ../ulib/libuserxe.a(libuserxe_a-ukbdl.o) (uabend)
../ulib/libuserxe.a(libuserxe_a-uallocl.o)
                              ../ulib/libuserxe.a(libuserxe_a-ucvucs.o) (umalloc)
../ulib/libuserxe.a(libuserxe_a-ucalc2.o)
                              ../ulib/libuserxe.a(libuserxe_a-uftp2.o) (ucalc_ld2dw)
../ulib/libuserxe.a(libuserxe_a-ucvebc.o)
                              ../ulib/libuserxe.a(libuserxe_a-uerr.o) (Gucvebc_stat)
../ulib/libuserxe.a(libuserxe_a-ucvebc2.o)
                              ../ulib/libuserxe.a(libuserxe_a-ucvebc.o) (ucvebc2_stre2s)
../ulib/libuserxe.a(libuserxe_a-ucvebct.o)
                              ../ulib/libuserxe.a(libuserxe_a-ucvebc2.o) (ucvebc2gettbl)
../ulib/libuserxe.a(libuserxe_a-ucvext.o)
                              ../ulib/libuserxe.a(libuserxe_a-udbcschk.o) (ucvext_icumbinit)
../ulib/libuserxe.a(libuserxe_a-ucvext12.o)
                              ../ulib/libuserxe.a(libuserxe_a-ucvext.o) (ucvext12_init)
../ulib/libuserxe.a(libuserxe_a-ucvext2.o)
                              ../ulib/libuserxe.a(libuserxe_a-ucvext.o) (ucvext_iconvmapinit)
../ulib/libuserxe.a(libuserxe_a-udos2.o)
                              ../ulib/libuserxe.a(libuserxe_a-ucvext.o) (udos_setenv)
../ulib/libuserxe.a(libuserxe_a-uedit2.o)
                              ../ulib/libuserxe.a(libuserxe_a-uftp.o) (ueditsetfdateUSHORT)
../ulib/libuserxe.a(libuserxe_a-uehl.o)
                              ../ulib/libuserxe.a(libuserxe_a-ukbdlnxc.o) (uehl_setsh)
../ulib/libuserxe.a(libuserxe_a-ufemsg.o)
                              ../ulib/libuserxe.a(libuserxe_a-ufile2.o) (ufilenotfound)
../ulib/libuserxe.a(libuserxe_a-ufile.o)
                              ../ulib/libuserxe.a(libuserxe_a-ufile2.o) (Gufile_nomsg)
../ulib/libuserxe.a(libuserxe_a-ufile1f.o)
                              ../ulib/libuserxe.a(libuserxe_a-ufile2f.o) (uftpfstat)
../ulib/libuserxe.a(libuserxe_a-ufile1l.o)
                              ../ulib/libuserxe.a(libuserxe_a-ufile2.o) (ufstat)
../ulib/libuserxe.a(libuserxe_a-ufile1l2.o)
                              ../ulib/libuserxe.a(libuserxe_a-ufile1l.o) (ufstat_mdos)
../ulib/libuserxe.a(libuserxe_a-uproc22.o)
                              ../ulib/libuserxe.a(libuserxe_a-utrace.o) (ucriticalsection)
../ulib/libuserxe.a(libuserxe_a-uproc3.o)
                              ../ulib/libuserxe.a(libuserxe_a-uproc4.o) (usleepms)
../ulib/libuserxe.a(libuserxe_a-ucalc.o)
                              ../ulib/libuserxe.a(libuserxe_a-ucalc2.o) (ucalc_binop)
../ulib/libuserxe.a(libuserxe_a-ucvebc3.o)
                              ../ulib/libuserxe.a(libuserxe_a-ucvext2.o) (ucvebc3_b2dd)
../ulib/libuserxe.a(libuserxe_a-ucvebc4.o)
                              ../ulib/libuserxe.a(libuserxe_a-ucvext.o) (ucvebc4_init)
/usr/lib/gcc/arm-linux-gnueabihf/8/libgcc.a(_divsi3.o)
                              ../ulib/libuserxe.a(libuserxe_a-ufile2.o) (__aeabi_idiv)
/usr/lib/gcc/arm-linux-gnueabihf/8/libgcc.a(_aeabi_ldivmod.o)
                              ../ulib/libuserxe.a(libuserxe_a-u32703.o) (__aeabi_ldivmod)
/usr/lib/gcc/arm-linux-gnueabihf/8/libgcc.a(_dvmd_lnx.o)
                              /usr/lib/gcc/arm-linux-gnueabihf/8/libgcc.a(_aeabi_ldivmod.o) (__aeabi_ldiv0)
/usr/lib/gcc/arm-linux-gnueabihf/8/libgcc.a(_udivmoddi4.o)
                              /usr/lib/gcc/arm-linux-gnueabihf/8/libgcc.a(_aeabi_ldivmod.o) (__udivmoddi4)
//usr/lib/arm-linux-gnueabihf/libc_nonshared.a(elf-init.oS)
                              /usr/lib/gcc/arm-linux-gnueabihf/8/../../../arm-linux-gnueabihf/crt1.o (__libc_csu_init)
//usr/lib/arm-linux-gnueabihf/libc_nonshared.a(stat64.oS)
                              ../ulib/libuserxe.a(libuserxe_a-ufile1l.o) (stat64)
//usr/lib/arm-linux-gnueabihf/libc_nonshared.a(lstat64.oS)
                              ../ulib/libuserxe.a(libuserxe_a-ufile1l.o) (lstat64)

Allocating common symbols
Common symbol       size              file

Gucs2ddmap_i2u      0x20000           ../ulib/libuserxe.a(libuserxe_a-utf22.o)
Guviombuffu         0x4               ../ulib/libuserxe.a(libuserxe_a-uviom.o)
Gufile_opt          0x4               ../ulib/libuserxe.a(libuserxe_a-ufile.o)
Sphiconv            0x4               ../ulib/libuserxe.a(libuserxe_a-ukbdl.o)
Snewoldctr          0x4               ../ulib/libuserxe.a(libuserxe_a-ucvebc2.o)
Gftperr             0x4               ../ulib/libuserxe.a(libuserxe_a-uftp2.o)
Gulibutfmode        0x4               ../ulib/libuserxe.a(libuserxe_a-utf.o)
Se2stctr            0x4               ../ulib/libuserxe.a(libuserxe_a-ucvebc2.o)
Gtracehdr           0x100             ../ulib/libuserxe.a(libuserxe_a-utrace.o)
Sfdpiper            0x4               ../ulib/libuserxe.a(libuserxe_a-uproc.o)
Gutfrc              0x4               ../ulib/libuserxe.a(libuserxe_a-utf.o)
Gualloc_amount      0x4               ../ulib/libuserxe.a(libuserxe_a-uallocl.o)
Guviomopt           0x4               ../ulib/libuserxe.a(libuserxe_a-uviom.o)
Slockhandle         0x4               ../ulib/libuserxe.a(libuserxe_a-utrace.o)
Gucvebchctr         0x4               ../ulib/libuserxe.a(libuserxe_a-ucvebc.o)
Gudbcschk_flag      0x4               ../ulib/libuserxe.a(libuserxe_a-udbcschk.o)
Guerropt2           0x4               ../ulib/libuserxe.a(libuserxe_a-uerr.o)
Sduptctr            0x4               ../ulib/libuserxe.a(libuserxe_a-ucvebc2.o)
Gukbdl_flag         0x4               ../ulib/libuserxe.a(libuserxe_a-ukbdl.o)
Ss2etctr            0x4               ../ulib/libuserxe.a(libuserxe_a-ucvebc2.o)
Gucvebch            0x9c40            ../ulib/libuserxe.a(libuserxe_a-ucvebc.o)
Gucalc_result       0x140             ../ulib/libuserxe.a(libuserxe_a-ucalc.o)
Guviol_flag         0x4               ../ulib/libuserxe.a(libuserxe_a-uviol.o)
Guviomoptstr        0x4               ../ulib/libuserxe.a(libuserxe_a-uviom.o)
Gftpopt             0x4               ../ulib/libuserxe.a(libuserxe_a-uftp2.o)
Gufile_nomsg        0x4               ../ulib/libuserxe.a(libuserxe_a-ufile.o)
Gualloc16_amount    0x4               ../ulib/libuserxe.a(libuserxe_a-uallocl.o)
Gudbcschk_width0top
                    0x4               ../ulib/libuserxe.a(libuserxe_a-udbcschk.o)
Gucvebc_stat        0x4               ../ulib/libuserxe.a(libuserxe_a-ucvebc.o)
Gftpclient          0x80              ../ulib/libuserxe.a(libuserxe_a-uftp2.o)
Guviomopt2          0x4               ../ulib/libuserxe.a(libuserxe_a-uviom.o)
Sdbcschk_hkopt      0x4               ../ulib/libuserxe.a(libuserxe_a-udbcschk.o)
Gutfcombaltch       0x4               ../ulib/libuserxe.a(libuserxe_a-utf.o)
Gucs2ddmap          0x40000           ../ulib/libuserxe.a(libuserxe_a-utf22.o)
Gw95buffopt         0x4               ../ulib/libuserxe.a(libuserxe_a-uviom.o)
Guerropt            0x1               ../ulib/libuserxe.a(libuserxe_a-uerr.o)
Guviomoptstrucs     0x10              ../ulib/libuserxe.a(libuserxe_a-uviom.o)
Sfdpipew            0x4               ../ulib/libuserxe.a(libuserxe_a-uproc.o)

Discarded input sections

 .note.GNU-stack
                0x00000000        0x0 /usr/lib/gcc/arm-linux-gnueabihf/8/../../../arm-linux-gnueabihf/crt1.o
 .note.GNU-stack
                0x00000000        0x0 /usr/lib/gcc/arm-linux-gnueabihf/8/../../../arm-linux-gnueabihf/crti.o
 .note.GNU-stack
                0x00000000        0x0 /usr/lib/gcc/arm-linux-gnueabihf/8/crtbegin.o
 .note.GNU-stack
                0x00000000        0x0 xutf8.o
 .note.GNU-stack
                0x00000000        0x0 ../ulib/libuserxe.a(libuserxe_a-ucvucs.o)
 .note.GNU-stack
                0x00000000        0x0 ../ulib/libuserxe.a(libuserxe_a-ucvucst.o)
 .note.GNU-stack
                0x00000000        0x0 ../ulib/libuserxe.a(libuserxe_a-udbcschk.o)
 .note.GNU-stack
                0x00000000        0x0 ../ulib/libuserxe.a(libuserxe_a-udbcsck2.o)
 .note.GNU-stack
                0x00000000        0x0 ../ulib/libuserxe.a(libuserxe_a-uedit.o)
 .note.GNU-stack
                0x00000000        0x0 ../ulib/libuserxe.a(libuserxe_a-uerr.o)
 .note.GNU-stack
                0x00000000        0x0 ../ulib/libuserxe.a(libuserxe_a-ufile2.o)
 .note.GNU-stack
                0x00000000        0x0 ../ulib/libuserxe.a(libuserxe_a-ufile2f.o)
 .note.GNU-stack
                0x00000000        0x0 ../ulib/libuserxe.a(libuserxe_a-ufile2l.o)
 .note.GNU-stack
                0x00000000        0x0 ../ulib/libuserxe.a(libuserxe_a-ufile2l2.o)
 .note.GNU-stack
                0x00000000        0x0 ../ulib/libuserxe.a(libuserxe_a-ufile3.o)
 .note.GNU-stack
                0x00000000        0x0 ../ulib/libuserxe.a(libuserxe_a-ufile3f.o)
 .note.GNU-stack
                0x00000000        0x0 ../ulib/libuserxe.a(libuserxe_a-ufile4.o)
 .note.GNU-stack
                0x00000000        0x0 ../ulib/libuserxe.a(libuserxe_a-ufile5.o)
 .note.GNU-stack
                0x00000000        0x0 ../ulib/libuserxe.a(libuserxe_a-uftp.o)
 .note.GNU-stack
                0x00000000        0x0 ../ulib/libuserxe.a(libuserxe_a-uftp2.o)
 .note.GNU-stack
                0x00000000        0x0 ../ulib/libuserxe.a(libuserxe_a-uftp3.o)
 .note.GNU-stack
                0x00000000        0x0 ../ulib/libuserxe.a(libuserxe_a-ugcclib.o)
 .note.GNU-stack
                0x00000000        0x0 ../ulib/libuserxe.a(libuserxe_a-ukbdl.o)
 .note.GNU-stack
                0x00000000        0x0 ../ulib/libuserxe.a(libuserxe_a-ukbdlnxc.o)
 .note.GNU-stack
                0x00000000        0x0 ../ulib/libuserxe.a(libuserxe_a-ukbdlnxm.o)
 .note.GNU-stack
                0x00000000        0x0 ../ulib/libuserxe.a(libuserxe_a-uparse.o)
 .note.GNU-stack
                0x00000000        0x0 ../ulib/libuserxe.a(libuserxe_a-uproc.o)
 .note.GNU-stack
                0x00000000        0x0 ../ulib/libuserxe.a(libuserxe_a-uproc2.o)
 .note.GNU-stack
                0x00000000        0x0 ../ulib/libuserxe.a(libuserxe_a-uproc4.o)
 .note.GNU-stack
                0x00000000        0x0 ../ulib/libuserxe.a(libuserxe_a-uque.o)
 .note.GNU-stack
                0x00000000        0x0 ../ulib/libuserxe.a(libuserxe_a-ustrcpy.o)
 .note.GNU-stack
                0x00000000        0x0 ../ulib/libuserxe.a(libuserxe_a-ustring.o)
 .note.GNU-stack
                0x00000000        0x0 ../ulib/libuserxe.a(libuserxe_a-utf.o)
 .note.GNU-stack
                0x00000000        0x0 ../ulib/libuserxe.a(libuserxe_a-utf2.o)
 .note.GNU-stack
                0x00000000        0x0 ../ulib/libuserxe.a(libuserxe_a-utf22.o)
 .note.GNU-stack
                0x00000000        0x0 ../ulib/libuserxe.a(libuserxe_a-utf3.o)
 .note.GNU-stack
                0x00000000        0x0 ../ulib/libuserxe.a(libuserxe_a-utf4.o)
 .note.GNU-stack
                0x00000000        0x0 ../ulib/libuserxe.a(libuserxe_a-utrace.o)
 .note.GNU-stack
                0x00000000        0x0 ../ulib/libuserxe.a(libuserxe_a-uunxsub.o)
 .note.GNU-stack
                0x00000000        0x0 ../ulib/libuserxe.a(libuserxe_a-uviom.o)
 .note.GNU-stack
                0x00000000        0x0 ../ulib/libuserxe.a(libuserxe_a-uviol.o)
 .note.GNU-stack
                0x00000000        0x0 ../ulib/libuserxe.a(libuserxe_a-u3270.o)
 .note.GNU-stack
                0x00000000        0x0 ../ulib/libuserxe.a(libuserxe_a-u32702.o)
 .note.GNU-stack
                0x00000000        0x0 ../ulib/libuserxe.a(libuserxe_a-u32703.o)
 .note.GNU-stack
                0x00000000        0x0 ../ulib/libuserxe.a(libuserxe_a-uabend.o)
 .note.GNU-stack
                0x00000000        0x0 ../ulib/libuserxe.a(libuserxe_a-uallocl.o)
 .note.GNU-stack
                0x00000000        0x0 ../ulib/libuserxe.a(libuserxe_a-ucalc2.o)
 .note.GNU-stack
                0x00000000        0x0 ../ulib/libuserxe.a(libuserxe_a-ucvebc.o)
 .note.GNU-stack
                0x00000000        0x0 ../ulib/libuserxe.a(libuserxe_a-ucvebc2.o)
 .note.GNU-stack
                0x00000000        0x0 ../ulib/libuserxe.a(libuserxe_a-ucvebct.o)
 .note.GNU-stack
                0x00000000        0x0 ../ulib/libuserxe.a(libuserxe_a-ucvext.o)
 .note.GNU-stack
                0x00000000        0x0 ../ulib/libuserxe.a(libuserxe_a-ucvext12.o)
 .note.GNU-stack
                0x00000000        0x0 ../ulib/libuserxe.a(libuserxe_a-ucvext2.o)
 .note.GNU-stack
                0x00000000        0x0 ../ulib/libuserxe.a(libuserxe_a-udos2.o)
 .note.GNU-stack
                0x00000000        0x0 ../ulib/libuserxe.a(libuserxe_a-uedit2.o)
 .note.GNU-stack
                0x00000000        0x0 ../ulib/libuserxe.a(libuserxe_a-uehl.o)
 .note.GNU-stack
                0x00000000        0x0 ../ulib/libuserxe.a(libuserxe_a-ufemsg.o)
 .note.GNU-stack
                0x00000000        0x0 ../ulib/libuserxe.a(libuserxe_a-ufile.o)
 .note.GNU-stack
                0x00000000        0x0 ../ulib/libuserxe.a(libuserxe_a-ufile1f.o)
 .note.GNU-stack
                0x00000000        0x0 ../ulib/libuserxe.a(libuserxe_a-ufile1l.o)
 .note.GNU-stack
                0x00000000        0x0 ../ulib/libuserxe.a(libuserxe_a-ufile1l2.o)
 .note.GNU-stack
                0x00000000        0x0 ../ulib/libuserxe.a(libuserxe_a-uproc22.o)
 .note.GNU-stack
                0x00000000        0x0 ../ulib/libuserxe.a(libuserxe_a-uproc3.o)
 .note.GNU-stack
                0x00000000        0x0 ../ulib/libuserxe.a(libuserxe_a-ucalc.o)
 .note.GNU-stack
                0x00000000        0x0 ../ulib/libuserxe.a(libuserxe_a-ucvebc3.o)
 .note.GNU-stack
                0x00000000        0x0 ../ulib/libuserxe.a(libuserxe_a-ucvebc4.o)
 .note.GNU-stack
                0x00000000        0x0 /usr/lib/gcc/arm-linux-gnueabihf/8/libgcc.a(_divsi3.o)
 .note.GNU-stack
                0x00000000        0x0 /usr/lib/gcc/arm-linux-gnueabihf/8/libgcc.a(_aeabi_ldivmod.o)
 .note.GNU-stack
                0x00000000        0x0 /usr/lib/gcc/arm-linux-gnueabihf/8/libgcc.a(_dvmd_lnx.o)
 .note.GNU-stack
                0x00000000        0x0 /usr/lib/gcc/arm-linux-gnueabihf/8/libgcc.a(_udivmoddi4.o)
 .note.GNU-stack
                0x00000000        0x0 //usr/lib/arm-linux-gnueabihf/libc_nonshared.a(elf-init.oS)
 .note.GNU-stack
                0x00000000        0x0 //usr/lib/arm-linux-gnueabihf/libc_nonshared.a(stat64.oS)
 .note.GNU-stack
                0x00000000        0x0 //usr/lib/arm-linux-gnueabihf/libc_nonshared.a(lstat64.oS)
 .note.GNU-stack
                0x00000000        0x0 /usr/lib/gcc/arm-linux-gnueabihf/8/crtend.o
 .note.GNU-stack
                0x00000000        0x0 /usr/lib/gcc/arm-linux-gnueabihf/8/../../../arm-linux-gnueabihf/crtn.o

Memory Configuration

Name             Origin             Length             Attributes
*default*        0x00000000         0xffffffff

Linker script and memory map

LOAD /usr/lib/gcc/arm-linux-gnueabihf/8/../../../arm-linux-gnueabihf/crt1.o
LOAD /usr/lib/gcc/arm-linux-gnueabihf/8/../../../arm-linux-gnueabihf/crti.o
LOAD /usr/lib/gcc/arm-linux-gnueabihf/8/crtbegin.o
LOAD xutf8.o
LOAD ../ulib/libuserxe.a
LOAD /usr/lib/gcc/arm-linux-gnueabihf/8/../../../arm-linux-gnueabihf/libgnomeui-2.so
LOAD /usr/lib/gcc/arm-linux-gnueabihf/8/../../../arm-linux-gnueabihf/libSM.so
LOAD /usr/lib/gcc/arm-linux-gnueabihf/8/../../../arm-linux-gnueabihf/libICE.so
LOAD /usr/lib/gcc/arm-linux-gnueabihf/8/../../../arm-linux-gnueabihf/libbonoboui-2.so
LOAD /usr/lib/gcc/arm-linux-gnueabihf/8/../../../arm-linux-gnueabihf/libgnome-2.so
LOAD /usr/lib/gcc/arm-linux-gnueabihf/8/../../../arm-linux-gnueabihf/libpopt.so
LOAD /usr/lib/gcc/arm-linux-gnueabihf/8/../../../arm-linux-gnueabihf/libbonobo-2.so
LOAD /usr/lib/gcc/arm-linux-gnueabihf/8/../../../arm-linux-gnueabihf/libbonobo-activation.so
LOAD /usr/lib/gcc/arm-linux-gnueabihf/8/../../../arm-linux-gnueabihf/libORBit-2.so
LOAD /usr/lib/gcc/arm-linux-gnueabihf/8/../../../arm-linux-gnueabihf/libgnomecanvas-2.so
LOAD /usr/lib/gcc/arm-linux-gnueabihf/8/../../../arm-linux-gnueabihf/libart_lgpl_2.so
LOAD /usr/lib/gcc/arm-linux-gnueabihf/8/../../../arm-linux-gnueabihf/libgnomevfs-2.so
LOAD /usr/lib/gcc/arm-linux-gnueabihf/8/../../../arm-linux-gnueabihf/libgconf-2.so
LOAD /usr/lib/gcc/arm-linux-gnueabihf/8/../../../arm-linux-gnueabihf/libgthread-2.0.so
LOAD /usr/lib/gcc/arm-linux-gnueabihf/8/../../../arm-linux-gnueabihf/libgmodule-2.0.so
LOAD /usr/lib/gcc/arm-linux-gnueabihf/8/../../../arm-linux-gnueabihf/libgtk-x11-2.0.so
LOAD /usr/lib/gcc/arm-linux-gnueabihf/8/../../../arm-linux-gnueabihf/libgdk-x11-2.0.so
LOAD /usr/lib/gcc/arm-linux-gnueabihf/8/../../../arm-linux-gnueabihf/libpangocairo-1.0.so
LOAD /usr/lib/gcc/arm-linux-gnueabihf/8/../../../arm-linux-gnueabihf/libatk-1.0.so
LOAD /usr/lib/gcc/arm-linux-gnueabihf/8/../../../arm-linux-gnueabihf/libcairo.so
LOAD /usr/lib/gcc/arm-linux-gnueabihf/8/../../../arm-linux-gnueabihf/libgdk_pixbuf-2.0.so
LOAD /usr/lib/gcc/arm-linux-gnueabihf/8/../../../arm-linux-gnueabihf/libgio-2.0.so
LOAD /usr/lib/gcc/arm-linux-gnueabihf/8/../../../arm-linux-gnueabihf/libpangoft2-1.0.so
LOAD /usr/lib/gcc/arm-linux-gnueabihf/8/../../../arm-linux-gnueabihf/libpango-1.0.so
LOAD /usr/lib/gcc/arm-linux-gnueabihf/8/../../../arm-linux-gnueabihf/libgobject-2.0.so
LOAD /usr/lib/gcc/arm-linux-gnueabihf/8/../../../arm-linux-gnueabihf/libglib-2.0.so
LOAD /usr/lib/gcc/arm-linux-gnueabihf/8/../../../arm-linux-gnueabihf/libfontconfig.so
LOAD /usr/lib/gcc/arm-linux-gnueabihf/8/../../../arm-linux-gnueabihf/libfreetype.so
LOAD /usr/lib/gcc/arm-linux-gnueabihf/8/../../../arm-linux-gnueabihf/libdl.so
LOAD /usr/lib/gcc/arm-linux-gnueabihf/8/../../../arm-linux-gnueabihf/libncursesw.so
LOAD /lib/arm-linux-gnueabihf/libncursesw.so.6
LOAD /usr/lib/gcc/arm-linux-gnueabihf/8/../../../arm-linux-gnueabihf/libtinfo.so
LOAD /usr/lib/gcc/arm-linux-gnueabihf/8/../../../arm-linux-gnueabihf/libcups.so
LOAD /usr/lib/gcc/arm-linux-gnueabihf/8/libgcc.a
LOAD /usr/lib/gcc/arm-linux-gnueabihf/8/libgcc_s.so
START GROUP
LOAD /usr/lib/gcc/arm-linux-gnueabihf/8/libgcc_s.so.1
LOAD /usr/lib/gcc/arm-linux-gnueabihf/8/libgcc.a
END GROUP
LOAD /usr/lib/gcc/arm-linux-gnueabihf/8/../../../arm-linux-gnueabihf/libpthread.so
LOAD /usr/lib/gcc/arm-linux-gnueabihf/8/../../../arm-linux-gnueabihf/libc.so
START GROUP
LOAD //lib/arm-linux-gnueabihf/libc.so.6
LOAD //usr/lib/arm-linux-gnueabihf/libc_nonshared.a
LOAD //lib/arm-linux-gnueabihf/ld-linux-armhf.so.3
END GROUP
LOAD /usr/lib/gcc/arm-linux-gnueabihf/8/libgcc.a
LOAD /usr/lib/gcc/arm-linux-gnueabihf/8/libgcc_s.so
START GROUP
LOAD /usr/lib/gcc/arm-linux-gnueabihf/8/libgcc_s.so.1
LOAD /usr/lib/gcc/arm-linux-gnueabihf/8/libgcc.a
END GROUP
LOAD /usr/lib/gcc/arm-linux-gnueabihf/8/crtend.o
LOAD /usr/lib/gcc/arm-linux-gnueabihf/8/../../../arm-linux-gnueabihf/crtn.o
                [!provide]                PROVIDE (__executable_start = SEGMENT_START ("text-segment", 0x10000))
                0x00010154                . = (SEGMENT_START ("text-segment", 0x10000) + SIZEOF_HEADERS)

.interp         0x00010154       0x19
 *(.interp)
 .interp        0x00010154       0x19 /usr/lib/gcc/arm-linux-gnueabihf/8/../../../arm-linux-gnueabihf/crt1.o

.note.ABI-tag   0x00010170       0x20
 .note.ABI-tag  0x00010170       0x20 /usr/lib/gcc/arm-linux-gnueabihf/8/../../../arm-linux-gnueabihf/crt1.o

.note.gnu.build-id
                0x00010190       0x24
 *(.note.gnu.build-id)
 .note.gnu.build-id
                0x00010190       0x24 linker stubs

.hash
 *(.hash)

.gnu.hash       0x000101b4      0x738
 *(.gnu.hash)
 .gnu.hash      0x000101b4      0x738 /usr/lib/gcc/arm-linux-gnueabihf/8/../../../arm-linux-gnueabihf/crt1.o

.dynsym         0x000108ec      0xc90
 *(.dynsym)
 .dynsym        0x000108ec      0xc90 /usr/lib/gcc/arm-linux-gnueabihf/8/../../../arm-linux-gnueabihf/crt1.o

.dynstr         0x0001157c      0x9b5
 *(.dynstr)
 .dynstr        0x0001157c      0x9b5 /usr/lib/gcc/arm-linux-gnueabihf/8/../../../arm-linux-gnueabihf/crt1.o

.gnu.version    0x00011f32      0x192
 *(.gnu.version)
 .gnu.version   0x00011f32      0x192 /usr/lib/gcc/arm-linux-gnueabihf/8/../../../arm-linux-gnueabihf/crt1.o

.gnu.version_d  0x000120c4        0x0
 *(.gnu.version_d)
 .gnu.version_d
                0x000120c4        0x0 /usr/lib/gcc/arm-linux-gnueabihf/8/../../../arm-linux-gnueabihf/crt1.o

.gnu.version_r  0x000120c4       0xc0
 *(.gnu.version_r)
 .gnu.version_r
                0x000120c4       0xc0 /usr/lib/gcc/arm-linux-gnueabihf/8/../../../arm-linux-gnueabihf/crt1.o

.rel.dyn        0x00012184       0x60
 *(.rel.init)
 *(.rel.text .rel.text.* .rel.gnu.linkonce.t.*)
 *(.rel.fini)
 *(.rel.rodata .rel.rodata.* .rel.gnu.linkonce.r.*)
 *(.rel.data.rel.ro .rel.data.rel.ro.* .rel.gnu.linkonce.d.rel.ro.*)
 .rel.data.rel.ro
                0x00012184        0x0 /usr/lib/gcc/arm-linux-gnueabihf/8/../../../arm-linux-gnueabihf/crt1.o
 *(.rel.data .rel.data.* .rel.gnu.linkonce.d.*)
 *(.rel.tdata .rel.tdata.* .rel.gnu.linkonce.td.*)
 *(.rel.tbss .rel.tbss.* .rel.gnu.linkonce.tb.*)
 *(.rel.ctors)
 *(.rel.dtors)
 *(.rel.got)
 .rel.got       0x00012184        0x8 /usr/lib/gcc/arm-linux-gnueabihf/8/../../../arm-linux-gnueabihf/crt1.o
 *(.rel.bss .rel.bss.* .rel.gnu.linkonce.b.*)
 .rel.bss       0x0001218c       0x58 /usr/lib/gcc/arm-linux-gnueabihf/8/../../../arm-linux-gnueabihf/crt1.o
                [!provide]                PROVIDE (__rel_iplt_start = .)
 *(.rel.iplt)
 .rel.iplt      0x000121e4        0x0 /usr/lib/gcc/arm-linux-gnueabihf/8/../../../arm-linux-gnueabihf/crt1.o
                [!provide]                PROVIDE (__rel_iplt_end = .)

.rela.dyn       0x000121e4        0x0
 *(.rela.init)
 *(.rela.text .rela.text.* .rela.gnu.linkonce.t.*)
 *(.rela.fini)
 *(.rela.rodata .rela.rodata.* .rela.gnu.linkonce.r.*)
 *(.rela.data .rela.data.* .rela.gnu.linkonce.d.*)
 *(.rela.tdata .rela.tdata.* .rela.gnu.linkonce.td.*)
 *(.rela.tbss .rela.tbss.* .rela.gnu.linkonce.tb.*)
 *(.rela.ctors)
 *(.rela.dtors)
 *(.rela.got)
 *(.rela.bss .rela.bss.* .rela.gnu.linkonce.b.*)
                [!provide]                PROVIDE (__rela_iplt_start = .)
 *(.rela.iplt)
                [!provide]                PROVIDE (__rela_iplt_end = .)

.rel.plt        0x000121e4      0x5a0
 *(.rel.plt)
 .rel.plt       0x000121e4      0x5a0 /usr/lib/gcc/arm-linux-gnueabihf/8/../../../arm-linux-gnueabihf/crt1.o

.rela.plt
 *(.rela.plt)

.init           0x00012784        0xc
 *(SORT_NONE(.init))
 .init          0x00012784        0x8 /usr/lib/gcc/arm-linux-gnueabihf/8/../../../arm-linux-gnueabihf/crti.o
                0x00012784                _init
 .init          0x0001278c        0x4 /usr/lib/gcc/arm-linux-gnueabihf/8/../../../arm-linux-gnueabihf/crtn.o

.plt            0x00012790      0x884
 *(.plt)
 .plt           0x00012790      0x884 /usr/lib/gcc/arm-linux-gnueabihf/8/../../../arm-linux-gnueabihf/crt1.o
                0x000127a4                gethostname@@GLIBC_2.4
                0x000127b0                getuid@@GLIBC_2.4
                0x000127bc                fopen64@@GLIBC_2.4
                0x000127c8                endwin@@NCURSESW6_5.1.20000708
                0x000127d4                fwrite@@GLIBC_2.4
                0x000127e0                mbrtowc@@GLIBC_2.4
                0x000127ec                toupper@@GLIBC_2.4
                0x000127f8                __isoc99_sscanf@@GLIBC_2.7
                0x00012804                fprintf@@GLIBC_2.4
                0x00012810                waddnstr@@NCURSESW6_5.1.20000708
                0x0001281c                strstr@@GLIBC_2.4
                0x00012828                isatty@@GLIBC_2.4
                0x00012834                getppid@@GLIBC_2.4
                0x00012840                wbkgdset@@NCURSESW6_5.1.20000708
                0x0001284c                execvp@@GLIBC_2.4
                0x00012858                write@@GLIBC_2.4
                0x00012864                wctomb@@GLIBC_2.4
                0x00012870                can_change_color@@NCURSESW6_5.1.20000708
                0x0001287c                opendir@@GLIBC_2.4
                0x00012888                printf@@GLIBC_2.4
                0x00012894                gnome_vfs_mime_get_default_application
                0x000128a0                bsearch@@GLIBC_2.4
                0x000128ac                fclose@@GLIBC_2.4
                0x000128b8                atoll@@GLIBC_2.4
                0x000128c4                qsort@@GLIBC_2.4
                0x000128d0                getgid@@GLIBC_2.4
                0x000128dc                wclear@@NCURSESW6_5.1.20000708
                0x000128e8                __ctype_b_loc@@GLIBC_2.4
                0x000128f4                strnlen@@GLIBC_2.4
                0x00012900                nonl@@NCURSESW6_5.1.20000708
                0x0001290c                getmntent@@GLIBC_2.4
                0x00012918                iconv@@GLIBC_2.4
                0x00012924                fputc@@GLIBC_2.4
                0x00012930                dlclose@@GLIBC_2.4
                0x0001293c                beep@@NCURSESW6_5.1.20000708
                0x00012948                __xstat64@@GLIBC_2.4
                0x00012954                chown@@GLIBC_2.4
                0x00012960                strpbrk@@GLIBC_2.4
                0x0001296c                fseek@@GLIBC_2.4
                0x00012978                strerror@@GLIBC_2.4
                0x00012984                color_content@@NCURSESW6_5.1.20000708
                0x00012990                tolower@@GLIBC_2.4
                0x0001299c                putchar@@GLIBC_2.4
                0x000129a8                has_colors@@NCURSESW6_5.1.20000708
                0x000129b4                puts@@GLIBC_2.4
                0x000129c0                init_pair@@NCURSESW6_5.1.20000708
                0x000129cc                __libc_start_main@@GLIBC_2.4
                0x000129e4                setupterm@@NCURSES6_TINFO_5.0.19991023
                0x000129f0                strchr@@GLIBC_2.4
                0x000129fc                __errno_location@@GLIBC_2.4
                0x00012a08                keypad@@NCURSES6_TINFO_5.0.19991023
                0x00012a14                lutimes@@GLIBC_2.4
                0x00012a20                atol@@GLIBC_2.4
                0x00012a2c                ftello64@@GLIBC_2.4
                0x00012a38                tcsetattr@@GLIBC_2.4
                0x00012a44                curs_set@@NCURSES6_TINFO_5.0.19991023
                0x00012a50                symlink@@GLIBC_2.4
                0x00012a5c                setenv@@GLIBC_2.4
                0x00012a68                mkdir@@GLIBC_2.4
                0x00012a74                pthread_mutex_lock@@GLIBC_2.4
                0x00012a80                pipe@@GLIBC_2.4
                0x00012a8c                noecho@@NCURSESW6_5.1.20000708
                0x00012a98                gnome_vfs_get_mime_type
                0x00012aa4                waddchnstr@@NCURSESW6_5.1.20000708
                0x00012ab0                pthread_cond_wait@@GLIBC_2.4
                0x00012abc                free@@GLIBC_2.4
                0x00012ac8                iconv_close@@GLIBC_2.4
                0x00012ad4                wcwidth@@GLIBC_2.4
                0x00012ae0                close@@GLIBC_2.4
                0x00012aec                clearok@@NCURSESW6_5.1.20000708
                0x00012af8                memcpy@@GLIBC_2.4
                0x00012b04                wcstombs@@GLIBC_2.4
                0x00012b10                iconv_open@@GLIBC_2.4
                0x00012b1c                memmove@@GLIBC_2.4
                0x00012b28                strncpy@@GLIBC_2.4
                0x00012b34                winchnstr@@NCURSESW6_5.1.20000708
                0x00012b40                win_wchnstr@@NCURSESW6_5.3.20021019
                0x00012b4c                access@@GLIBC_2.4
                0x00012b58                unlink@@GLIBC_2.4
                0x00012b64                ferror@@GLIBC_2.4
                0x00012b70                strcpy@@GLIBC_2.4
                0x00012b7c                execv@@GLIBC_2.4
                0x00012b88                raise@@GLIBC_2.4
                0x00012b94                getgrgid@@GLIBC_2.4
                0x00012ba0                start_color@@NCURSESW6_5.1.20000708
                0x00012bac                atoi@@GLIBC_2.4
                0x00012bb8                dlsym@@GLIBC_2.4
                0x00012bc4                ftime@@GLIBC_2.4
                0x00012bd0                fork@@GLIBC_2.4
                0x00012bdc                signal@@GLIBC_2.4
                0x00012be8                gettimeofday@@GLIBC_2.4
                0x00012bf4                getpwuid@@GLIBC_2.4
                0x00012c00                system@@GLIBC_2.4
                0x00012c0c                malloc@@GLIBC_2.4
                0x00012c18                localtime@@GLIBC_2.4
                0x00012c24                getcwd@@GLIBC_2.4
                0x00012c30                tcgetattr@@GLIBC_2.4
                0x00012c3c                pthread_cond_init@@GLIBC_2.4
                0x00012c48                kill@@GLIBC_2.4
                0x00012c54                strdup@@GLIBC_2.4
                0x00012c60                strlen@@GLIBC_2.4
                0x00012c6c                pthread_mutex_destroy@@GLIBC_2.4
                0x00012c78                chdir@@GLIBC_2.4
                0x00012c84                chmod@@GLIBC_2.4
                0x00012c90                mktime@@GLIBC_2.4
                0x00012c9c                wadd_wchnstr@@NCURSESW6_5.3.20021019
                0x00012ca8                closedir@@GLIBC_2.4
                0x00012cb4                getpid@@GLIBC_2.4
                0x00012cc0                winnstr@@NCURSESW6_5.1.20000708
                0x00012ccc                __lxstat64@@GLIBC_2.4
                0x00012cd8                select@@GLIBC_2.4
                0x00012ce4                readlink@@GLIBC_2.4
                0x00012cf0                iswalpha@@GLIBC_2.4
                0x00012cfc                fseeko64@@GLIBC_2.4
                0x00012d08                dup@@GLIBC_2.4
                0x00012d14                sprintf@@GLIBC_2.4
                0x00012d20                snprintf@@GLIBC_2.4
                0x00012d2c                fflush@@GLIBC_2.4
                0x00012d38                mbtowc@@GLIBC_2.4
                0x00012d44                curses_version@@NCURSES6_TINFO_5.0.19991023
                0x00012d50                perror@@GLIBC_2.4
                0x00012d5c                setlocale@@GLIBC_2.4
                0x00012d68                vfprintf@@GLIBC_2.4
                0x00012d74                mousemask@@NCURSESW6_5.1.20000708
                0x00012d80                gnome_vfs_mime_application_free
                0x00012d8c                strcmp@@GLIBC_2.4
                0x00012d98                initscr@@NCURSESW6_5.1.20000708
                0x00012da4                memcmp@@GLIBC_2.4
                0x00012db0                memset@@GLIBC_2.4
                0x00012dbc                wrefresh@@NCURSESW6_5.1.20000708
                0x00012dc8                getenv@@GLIBC_2.4
                0x00012dd4                rename@@GLIBC_2.4
                0x00012de0                flock@@GLIBC_2.4
                0x00012dec                mkfifo@@GLIBC_2.4
                0x00012df8                time@@GLIBC_2.4
                0x00012e04                meta@@NCURSES6_TINFO_5.0.19991023
                0x00012e10                wait@@GLIBC_2.4
                0x00012e1c                statfs64@@GLIBC_2.4
                0x00012e28                pthread_cond_broadcast@@GLIBC_2.4
                0x00012e34                fread@@GLIBC_2.4
                0x00012e40                gnome_vfs_init
                0x00012e4c                pthread_create@@GLIBC_2.4
                0x00012e58                strcat@@GLIBC_2.4
                0x00012e64                abort@@GLIBC_2.4
                0x00012e70                init_color@@NCURSESW6_5.1.20000708
                0x00012e7c                gnome_vfs_get_uri_from_local_path
                0x00012e88                waitpid@@GLIBC_2.4
                0x00012e94                gnome_vfs_get_file_info
                0x00012ea0                pthread_cond_timedwait@@GLIBC_2.4
                0x00012eac                exit@@GLIBC_2.4
                0x00012eb8                calloc@@GLIBC_2.4
                0x00012ec4                setmntent@@GLIBC_2.4
                0x00012ed0                rmdir@@GLIBC_2.4
                0x00012edc                strrchr@@GLIBC_2.4
                0x00012ee8                wmove@@NCURSESW6_5.1.20000708
                0x00012ef4                dup2@@GLIBC_2.4
                0x00012f00                getmntent_r@@GLIBC_2.4
                0x00012f0c                fgets@@GLIBC_2.4
                0x00012f18                raw@@NCURSES6_TINFO_5.0.19991023
                0x00012f24                utimes@@GLIBC_2.4
                0x00012f30                endmntent@@GLIBC_2.4
                0x00012f3c                memchr@@GLIBC_2.4
                0x00012f48                read@@GLIBC_2.4
                0x00012f54                readdir64@@GLIBC_2.4
                0x00012f60                pthread_mutex_unlock@@GLIBC_2.4
                0x00012f6c                wcrtomb@@GLIBC_2.4
                0x00012f78                nl_langinfo@@GLIBC_2.4
                0x00012f84                pthread_mutex_init@@GLIBC_2.4
                0x00012f90                fileno@@GLIBC_2.4
                0x00012f9c                mkstemp64@@GLIBC_2.4
                0x00012fa8                strspn@@GLIBC_2.4
                0x00012fb4                open64@@GLIBC_2.4
                0x00012fc0                ioctl@@GLIBC_2.4
                0x00012fcc                fputs@@GLIBC_2.4
                0x00012fd8                nanosleep@@GLIBC_2.4
                0x00012fe4                iswprint@@GLIBC_2.4
                0x00012ff0                putenv@@GLIBC_2.4
                0x00012ffc                ttyname@@GLIBC_2.4
                0x00013008                dlopen@@GLIBC_2.4

.iplt           0x00013014        0x0
 *(.iplt)
 .iplt          0x00013014        0x0 /usr/lib/gcc/arm-linux-gnueabihf/8/../../../arm-linux-gnueabihf/crt1.o

.text           0x00013018    0xaa3a8
 *(.text.unlikely .text.*_unlikely .text.unlikely.*)
 *(.text.exit .text.exit.*)
 *(.text.startup .text.startup.*)
 *(.text.hot .text.hot.*)
 *(.text .stub .text.* .gnu.linkonce.t.*)
 .text          0x00013018       0x3c /usr/lib/gcc/arm-linux-gnueabihf/8/../../../arm-linux-gnueabihf/crt1.o
                0x00013018                _start
 .text          0x00013054       0x24 /usr/lib/gcc/arm-linux-gnueabihf/8/../../../arm-linux-gnueabihf/crti.o
 .text          0x00013078       0x90 /usr/lib/gcc/arm-linux-gnueabihf/8/crtbegin.o
 .text          0x00013108      0x838 xutf8.o
                0x00013108                main
                0x00013308                parmchk
                0x00013788                optionerr
                0x000137c4                help
 .text          0x00013940     0x4f64 ../ulib/libuserxe.a(libuserxe_a-ucvucs.o)
                0x00013940                ucp932init
                0x00013ec8                ucp932term
                0x00013f70                ucp932sjis2ucs
                0x00014040                ucp932ucs2sjis
                0x000141c4                uccvsjis2ucs
                0x000142f8                uccvucs2sjis
                0x00014328                uccvucs2utf
                0x0001455c                uccvutf2ucs
                0x00014900                uccvucss2utf
                0x000149e4                uccvutf2ucss
                0x00014bb0                uccvsjis2ucss
                0x00014c30                uccvucss2sjis
                0x00014c74                uccvsjis2utf
                0x00014d58                uccvutf2sjis
                0x00014e24                ucvsucs2utf
                0x000151c8                ucvsescucs2utf
                0x0001558c                ucvssjis2utf
                0x00015958                ucvsmb2utf
                0x00015cb8                ucvsutf2ucs
                0x0001601c                ucvsutf2sjis
                0x000164b8                ucvsutf2mb
                0x00016898                ucvssjis2ucs
                0x00016bbc                ucvsucs2sjis
                0x00016f5c                ucvsescucs2sjis
                0x000172e0                ucvfsjis2ucs
                0x00017500                ucvfucs2sjis
                0x00017704                ucvfutf2ucs
                0x000179a0                ucvfucs2utf
                0x00017c0c                ucvfsjis2utf
                0x00017e78                ucvfutf2sjis
                0x00018114                ucvbomchk
                0x000182bc                ucvbomset
                0x00018418                ucvsetucss
                0x00018648                ucvgetucss
                0x00018784                ucverrutf
                0x000187e4                ucverrucs
                0x00018844                ucverrsjis
 .text          0x000188a4       0x38 ../ulib/libuserxe.a(libuserxe_a-ucvucst.o)
                0x000188a4                ugetcp932tbl
 .text          0x000188dc     0x3084 ../ulib/libuserxe.a(libuserxe_a-udbcschk.o)
                0x000188dc                udbcschk_wcinit
                0x00018c7c                udbcschk_getbaseconverter
                0x00018d24                udbcschk_setunprintable
                0x00018ebc                udbcschk_wclocaleinit
                0x00019028                udbcschk_wclocalereset
                0x0001943c                udbcschk_chklocale
                0x000194fc                udbcschk_getlinuxleadbyte
                0x00019664                udbcschk
                0x000197f0                udbcschk_hk
                0x000198dc                udbcschk_getmblen
                0x00019b9c                udbcschk_mblen
                0x00019c6c                udbcschk_mb2nd
                0x00019df4                udbcschk_isvalidmbchar
                0x00019ed8                udbcschk_locale_topbyte
                0x00019fdc                udbcschk_getdbcs1st
                0x0001a0d0                udbcschk_ismbdbcs1st
                0x0001a130                udbcschk_locale1
                0x0001a41c                udbcschk_mb2ucs1
                0x0001a588                udbcschk_ucs2mb1
                0x0001a6b4                udbcschk_forceenglish
                0x0001a720                udbcschkcp
                0x0001a88c                ugetcp
                0x0001a970                udbcsenv
                0x0001a9b0                udosquerydbcsenv
                0x0001ab24                udbcschk2
                0x0001abe8                udbcschk_pos2offs
                0x0001adc4                usetdbcstbl
                0x0001b128                usetdbcstblmb
                0x0001b598                udbcschk_setlocale
                0x0001b7e8                udbcschk_setdbcstype
                0x0001b900                udbcschk_icugetlocalconverter
 .text          0x0001b960     0x2e38 ../ulib/libuserxe.a(libuserxe_a-udbcsck2.o)
                0x0001b960                ujischkx208
                0x0001ba30                usjischkx208
                0x0001bb10                usjis2jis
                0x0001bc18                ujis2sjis
                0x0001bd08                ustrjis2sjis
                0x0001c220                ustrsjis2jis
                0x0001c728                ushift2euc
                0x0001cc60                ushift2euc1
                0x0001ce3c                ushift2euccount
                0x0001d07c                usjischk
                0x0001d330                ueuc2shift1SS3
                0x0001d360                ueuc2shift
                0x0001daec                ueucchk
                0x0001df28                ueuc2shift1
                0x0001e19c                ueuc2shift1c
                0x0001e350                uhan2zen
                0x0001e614                udbcschktty
                0x0001e698                udbcschk_srchSS2
 .text          0x0001e798     0x3fe8 ../ulib/libuserxe.a(libuserxe_a-uedit.o)
                0x0001e798                uedit
                0x0001e7b0                unumedit
                0x0001eae8                utimeedit
                0x0001f660                uitoa10
                0x0001f694                ucmdparmedit
                0x0001fdbc                ueditenv
                0x000201e8                uwordrep
                0x00020894                ugethex
                0x000209f4                ugethexdump
                0x00020bd4                ux2FILESZ
                0x00020c04                ux2l
                0x00020d98                ux2ll
                0x00020e80                ua2ll
                0x00020eb0                ux2s
                0x0002100c                ugetnumrange3
                0x00021184                ugetnumrange2
                0x00021280                ugetnumrange2XFILESZ
                0x00021354                ugetnumrange
                0x00021560                ugetxnumrange
                0x00021984                ugetxnumrangeLL
                0x00021db0                unumlen
                0x00021ff0                uatoin
                0x00022070                getKMGTB
                0x000221f8                ueditFILESZ
                0x0002246c                ueditLONGHANDLE
                0x00022674                ueditKMG
 .text          0x00022780     0x29f8 ../ulib/libuserxe.a(libuserxe_a-uerr.o)
                0x00022780                uerr
                0x00022798                ubell_init
                0x000227d8                ubell_init2
                0x00022808                ubell
                0x00022920                uerrexit_init
                0x000229e8                uerrexit_optinit
                0x00022a18                uerrsetopt2
                0x00022a7c                uerrexit
                0x00022c74                uerrmsg_init
                0x00022e54                uerrmsg
                0x00023064                uerrmsg2
                0x000231e4                uerrmsgcat
                0x000232f0                uerrsprintf
                0x000233dc                uerrfprintfutf
                0x00023848                uerrhelpmsg
                0x00023d34                uerrscrheight
                0x00023de4                useterrmsg
                0x00023e58                ugeterrmsg
                0x00023ea4                ugeterrmsg2
                0x00023ee4                uerrmsgedit
                0x00024878                uconfirmmsg
                0x00024b90                uerrornomsg
                0x00024bb8                ugeterrdescription
                0x00024c3c                uerrapi1
                0x00024c84                uerrapi1x
                0x00024cc8                uerrapi0
                0x00024d04                uerrapi0x
                0x00024d3c                uerrapi1t
                0x00024dac                uerrapi1nt
                0x00024e00                uerrapi1tx
                0x00024e6c                uerrapi0t
                0x00024ed4                uerrapi0tx
                0x00024f38                uerrnotsupported
                0x00024f7c                uerrmsg_initstart
                0x00025040                uerrmsg_initstack
                0x000250a4                uerrmsg_initcomp
 .text          0x00025178     0x4588 ../ulib/libuserxe.a(libuserxe_a-ufile2.o)
                0x00025178                ufile2
                0x00025190                uxddpchk
                0x000255e0                uxddsub
                0x00025e30                uxdelete
                0x00026bb0                ufilewildxdel
                0x00026de4                uxdelsub
                0x0002778c                uremovenomsg
                0x000277e0                uremove
                0x00027a40                urenamenomsg
                0x00027a98                urename2
                0x00027af0                urename
                0x000281f4                ufilewildrename
                0x0002822c                uwildfunc
                0x00028628                ufilecdirchk
                0x000289c0                ufilespfnchk
                0x000289e8                wildchk
                0x00028b80                ufilechkwildmemb
                0x00028cb0                ufilechkwildname
                0x00028e44                ufileopenexclusivewrite
                0x00028f00                ufiledelifnotopened
                0x00028fdc                ufile2quietmsg
                0x0002910c                ugetmoveavailablepath
                0x000295f8                uwildfunc_LongName
 .text          0x00029700     0x47cc ../ulib/libuserxe.a(libuserxe_a-ufile2f.o)
                0x00029700                uftpmkdir
                0x00029cf8                uftprmdir
                0x0002a104                uftpremove
                0x0002a548                uftprename
                0x0002a8f4                uftprenamesub
                0x0002acc8                uftpwildrename
                0x0002ad18                uftpattrib
                0x0002b024                uftpattrxon
                0x0002b06c                uftpattrxchk
                0x0002b244                uftpgetftime
                0x0002b398                uftpgetftime_1sec
                0x0002b510                uftpsetftime
                0x0002b588                uftpsetftime2
                0x0002b600                uftpcopypathinfo
                0x0002b728                uftpsetown
                0x0002b7a0                uftpsetmod
                0x0002bc80                uftpwildfunc
                0x0002beac                uftpwildfunc2
                0x0002c224                uftpmultidel
                0x0002c33c                uftpmultirename
                0x0002c454                uftpwildxdel
                0x0002c790                uftpmultidelsub
                0x0002c91c                uftpmultirenamesub
                0x0002cb5c                uftpbypassreason
                0x0002cbe8                uftpxdelrchk
                0x0002cff4                uftpmultidelrchk
                0x0002d290                uftpmultirenamerchk
                0x0002d538                ufile2putstmt
                0x0002d678                uftpnotsupported
                0x0002d6d0                uftpnotsupportedforlocal
                0x0002d728                uftpdelsubdir
                0x0002d9a8                ufile3xdeleteinit
                0x0002da34                uxdelsubftp
                0x0002de84                errtoolongname
 .text          0x0002decc     0x19d8 ../ulib/libuserxe.a(libuserxe_a-ufile2l.o)
                0x0002decc                umkdir
                0x0002df38                umkdirmode
                0x0002e26c                urmdir
                0x0002e710                uattrib
                0x0002ea5c                uattrxon
                0x0002ead4                uattrxchk
                0x0002ecb4                ugetftime
                0x0002edec                ugetftime_1sec
                0x0002ef6c                usetftime
                0x0002f0e8                usetftime_1sec
                0x0002f144                usetftime2
                0x0002f2a0                ucopypathinfo
                0x0002f6ac                ufilesetown
                0x0002f7a4                ufilesetmod
 .text          0x0002f8a4      0xbc8 ../ulib/libuserxe.a(libuserxe_a-ufile2l2.o)
                0x0002f8a4                umkdir_mdos
                0x0002f970                urmdir_mdos
                0x0002fa84                uattrib_mdos
                0x0002fc88                uremove_mdos
                0x0002fd9c                urename_mdos
                0x0002fe34                ucopy_mdos
                0x000300c8                uappend_mdos
                0x00030410                ufilemdoscopyerr
 .text          0x0003046c     0x4dd0 ../ulib/libuserxe.a(libuserxe_a-ufile3.o)
                0x0003046c                ufile3
                0x00030484                invalidtargetfilename
                0x000304bc                uxcopy
                0x000313ac                ufilecreateparmproc
                0x00031b18                ufilecpymvflags
                0x00031de4                ufilewildcopy
                0x00032084                ucopysub_slinktarget
                0x00032224                ucopysub_slink
                0x0003251c                ucopysub
                0x00032c40                udoscopy
                0x00032ff8                uxmove
                0x00033a10                ufilewildmove
                0x00033ba0                umovesub_slink
                0x000342dc                umovesub
                0x00034a0c                ufilecopytschk
                0x00034b24                ufilechkslinkpath
                0x00034d6c                ufilegetslinkfinaltarget
                0x00034ef4                ufilesymlink
                0x00034f78                ufilesymlink_copyfiletime
                0x00035070                ufilesymlink_copy
                0x0003511c                ufileerrdirandfile
                0x0003515c                ufileerrslinktarget
                0x000351a0                ufileerrslinkappend
                0x000351e0                ufileerrnotargetslink
 .text          0x0003523c     0x539c ../ulib/libuserxe.a(libuserxe_a-ufile3f.o)
                0x0003523c                uftpxmove
                0x00035404                uftpxcopy
                0x000356fc                uftpxcopyr2r
                0x00035980                uftpupload
                0x00036020                uftpdownload
                0x00036670                uftptargetflag
                0x000369f8                uftpsourceflag
                0x00036db0                uftps2tchk
                0x000373a4                uftpcreateparmproc
                0x000377e8                uftpmoveparmproc
                0x00037a9c                uftpupdownctl
                0x000383a0                uftpgetdirlist
                0x00038474                uftpexistchk1
                0x000386d0                uftpexistchkm
                0x00038c30                uftpcopycallback
                0x00039454                uftpcopyrchk
                0x00039be8                uftpputstmt
                0x00039d2c                uftpputstmt2
                0x00039ecc                uftpcopyftime
                0x0003a218                ufileftpcopytschk
                0x0003a454                uftpmktdir
                0x0003a4b4                uftperrsourceisroot
                0x0003a4dc                uftperrtargetisnotdir
                0x0003a510                uftperrdir2file
                0x0003a550                uftpfileanddir
                0x0003a59c                uftpappenddir2dir
 .text          0x0003a5d8     0x2acc ../ulib/libuserxe.a(libuserxe_a-ufile4.o)
                0x0003a5d8                ufile4
                0x0003a5f0                utempnam
                0x0003a8d0                utempnamd
                0x0003a928                ufgetpos
                0x0003a958                udirwalk
                0x0003b090                udirwalksub
                0x0003c140                ufileslinkoutoflinkchk
                0x0003c5e0                ufileslinkloopchk
                0x0003ca84                ufileslinkloopchk2
                0x0003cb94                ugetdiskfree
                0x0003cd28                ufileisvfat
                0x0003cd5c                ufileisntfs
                0x0003cd80                ufileisvfatMounted
                0x0003ce00                ufileisntfsMounted
                0x0003ce80                ufileisMSMounted
                0x0003cf2c                ufsetlock
                0x0003cf94                uflock
 .text          0x0003d0a4     0x4e20 ../ulib/libuserxe.a(libuserxe_a-ufile5.o)
                0x0003d0a4                ufile5
                0x0003d0bc                ufgetsinit
                0x0003d4d8                ufgetscurpos
                0x0003d500                ufgets_setcurpos
                0x0003d584                ufgets
                0x0003d948                ufgetssub
                0x0003df30                ufgetsbinchk_utf8
                0x0003e208                ufgetsbinchk_ebc
                0x0003e428                ufgetsbinchk
                0x0003e8e0                isSameU8c
                0x0003eb28                udoseditname
                0x0003f3ec                ufileeditname
                0x0003f8b4                ufilewildcomp
                0x0003fc34                ufilewildcompsub
                0x0003fe04                ufilecomp
                0x000402dc                ufilecomptextmode
                0x00040684                ufilecomptextmodefixed
                0x00040910                ufilecomptextmodesub
                0x00040a54                ufreads
                0x00040d34                ufgetsVHeader
                0x00040fbc                ufgetsVRecord
                0x000412b4                ufgetsV
                0x00041534                ufile5chkvfmt
                0x00041694                ufile5getVfmtstr
                0x00041758                ufseek
                0x00041794                uftell
                0x000417c4                fileeditname_copypath
                0x00041de0                fileeditname_copypath_err
                0x00041e44                filetouch
 .text          0x00041ec4     0x4f50 ../ulib/libuserxe.a(libuserxe_a-uftp.o)
                0x00041ec4                uftpfstatroot
                0x00041f6c                uftplshome
                0x000420d4                uftpfstatudl
                0x00042418                uftpisexist
                0x00042534                uftpopendir
                0x00042b0c                uftpreaddir
                0x00042c70                uftpattrselect
                0x00042e38                uftpgetslinkattr
                0x00043218                uftpdirlistslink
                0x00043808                uftpsortslink
                0x00043860                uftpslinkcomp
                0x000438e4                uftpslinklscmd
                0x00043c1c                uftplsoutchk
                0x00043f90                uftpmodtimerchk
                0x0004446c                uftpmodtimeerr
                0x000444c0                uftplsoutchkslinkerrskip
                0x000445ec                uftplsoutchkslink
                0x000446ec                uftpsavehdir
                0x00044834                uftpsrchhdir
                0x000448e0                uftpclosehdir
                0x00044944                uftpmode2attr
                0x00044ac0                uftpudl2ffb3
                0x00044c70                uftpgetpathname
                0x00044d38                uftpnodesrch
                0x00044de8                uftpnodeadd
                0x00044ea0                uftpnodedel
                0x00044efc                uftpnodeclear
                0x00044f18                uftpgethostqhaddr
                0x00044f38                uftphoststbinit
                0x00045258                uftpgethostsdata
                0x000462c4                uftgetstringopd
                0x00046544                uftpipachk
                0x00046764                uftpgetportno
                0x000467f0                uftpisremote
                0x0004697c                uftpisrootdir
                0x00046a00                uftphostscrypt
                0x00046cdc                uftptempnam
                0x00046d38                uftp_mempswd
                0x00046dd0                uftp_udirlist_setname
 .text          0x00046e14     0x2c2c ../ulib/libuserxe.a(libuserxe_a-uftp2.o)
                0x00046e14                uftpinit
                0x00046f64                uftpterm
                0x00046fac                uftplog
                0x00047380                uftpnodeinit
                0x00047568                uftpcmd
                0x00047ca0                uftpcmdrespchk
                0x00047dac                uftpcmdresphdrchk
                0x00047ed4                uftpcmdsrchrespid
                0x00048134                uftpsimplerespchk
                0x0004820c                uftpnextstdo
                0x000482dc                uftpsrchfname
                0x000484a4                uftpsrchfnameslink
                0x0004872c                uftpgetdl
                0x00048a4c                uftpgetdl1
                0x00049154                uftpgetmode
                0x0004949c                uftpgetdlftime
                0x00049640                uftpgetmonth
                0x000496bc                uftpgetwday
                0x00049734                uftpajustjst
                0x00049990                uftpmktempwd
                0x000499dc                uftpdeltempwd
 .text          0x00049a40     0x5ab0 ../ulib/libuserxe.a(libuserxe_a-uftp3.o)
                0x00049a40                uftp3setssh
                0x00049d00                uftp3editpsftpcmd
                0x00049e40                uftp3cmdrespchk
                0x00049f5c                uftp3cmdresphdrchk
                0x0004a0b0                uftp3srchcmdecho
                0x0004a204                uftp3gethomesub
                0x0004a364                uftp3simplerespchk
                0x0004a4d0                uftp3simplerespchkOK
                0x0004a66c                uftp3simplerespchkCHNG
                0x0004a7fc                uftp3lchdirrespchk
                0x0004a868                uftp3getputrespchk
                0x0004a984                uftp3cdrespchk
                0x0004aac0                uftp3setsmb
                0x0004ab7c                uftp3smb_setcmd
                0x0004affc                uftp3smb_editcmdline
                0x0004b2b4                uftp3smb_nodeinit
                0x0004b360                uftp3smbcmd
                0x0004b3e4                uftp3smb_cmd
                0x0004b8ec                uftp3smb_chkstatuserr
                0x0004bb34                uftp3smb_srchresp
                0x0004bd5c                uftp3smb_stderrlog
                0x0004bdd4                uftp3smb_getdltime
                0x0004bf78                uftp3smb_getdltimestat
                0x0004c0c8                uftp3smb_setdltime
                0x0004c1f8                uftp3smb_getmode
                0x0004c428                uftp3smb_getdirlistctr
                0x0004c470                uftp3smb_getdl1
                0x0004c6e4                uftp3smb_fstatudl
                0x0004c9f4                uftp3smb_fstatudl_byls
                0x0004cc24                uftp3smb_fstatudl_byls_root
                0x0004cec0                uftp3smb_lsoutchk
                0x0004d044                uftp3smb_getdlattr
                0x0004d13c                uftp3smb_fstatdircallback
                0x0004d3dc                uftp3smb_fstatdirrchk
                0x0004d824                uftp3smb_fstatoutchk
                0x0004dd28                uftp3smb_putstmt
                0x0004e2d0                uftp3smb_respchk_srchnext
                0x0004e608                uftp3smb_respchk
                0x0004ea30                uftp3smb_lchdirrespchk
                0x0004ea80                uftp3smb_strfname
                0x0004ed30                uftp3smb_enclosefnm
                0x0004ee70                uftp3smb_editcmdparm
                0x0004f010                uftp3smb_dirnameforlist
                0x0004f0e0                uftp3smb_mode2attr_winsub
                0x0004f170                uftp3smb_mode2attr_win
                0x0004f1c0                uftp3smb_strattr
                0x0004f2a8                uftp3smb_setmod_win
 .text          0x0004f4f0      0x4b0 ../ulib/libuserxe.a(libuserxe_a-ugcclib.o)
                0x0004f4f0                strupr
                0x0004f558                strlwr
                0x0004f5c0                memicmp
                0x0004f68c                stricmp
                0x0004f71c                itoa
                0x0004f7b0                kbhit
                0x0004f7c8                getch_nc
                0x0004f7e8                getche
                0x0004f808                spawnvp
                0x0004f860                spawnv
 .text          0x0004f9a0     0x1d30 ../ulib/libuserxe.a(libuserxe_a-ukbdl.o)
                0x0004f9a0                ukbdpeek
                0x0004f9cc                ukbdcharin
                0x0004fb74                ukbdl_init
                0x0004fc60                ukbdl_term
                0x0004fc78                ukbdl_setkbmode
                0x0004fd00                ukbdl_shellmode
                0x0004fe0c                ukbdl_setgetchmode
                0x0004fecc                ukbdl_tcgetattr
                0x0004ff6c                ukbdl_tcsetattr
                0x00050010                ukbdl_getch_init
                0x00050064                ukbdl_getche_init
                0x000500b8                ukbdl_getch_term
                0x00050104                ukbdl_getche_term
                0x00050150                ukbdl_kbhit
                0x000501a0                ukbdl_getch
                0x00050240                ukbdl_getche
                0x000502e0                ukbdl_gettermid
                0x00050424                ukbdl_gettermsim
                0x0005095c                ukbdl_editstring
                0x00050a24                ukbdsetstatus
                0x00050adc                ukbdl_wcinit
                0x00050bdc                ukbdl_readutf8
                0x000511d0                ukbdl_readdbcs
                0x000514d8                ukbd_simutf8_f2l
 .text          0x000516d0     0x8020 ../ulib/libuserxe.a(libuserxe_a-ukbdlnxc.o)
                0x000516d0                ukbdlnxc_gettbl
                0x0005176c                ukbdlnxc_init
                0x0005191c                ukbdlnxc_term
                0x00051998                ukbdlnxc_getnext
                0x00051a20                ukbdlnxc_read
                0x00051bd4                ukbdlnxc_readkbd
                0x00052a68                ukbdlnxc_optproc
                0x00052be4                ukbdlnxc_setupckt
                0x000532a8                ukbdlnxc_setupcktsub
                0x00053514                ukbdlnxc_setupcktx
                0x00055bd0                cktovferr
                0x00055c4c                ukbdlnxc_addstrtbl
                0x00055f24                ukbdlnxc_dupstrchk
                0x00056280                ukbdlnxc_cleanup
                0x00056308                ukbdlnxc_termexit
                0x0005633c                ukbdlnxc_getplainsym
                0x00056610                ukbdlnxc_chkothersym
                0x0005667c                ukbdlnxc_xbsdel
                0x00056780                ukbdlnxc_delopt
                0x00056864                ukbdlnxc_setfunckey
                0x00056a48                ukbdlnxc_setfuncstr
                0x00056e2c                ukbdlnxc_setcompose
                0x00056ec4                ukbdlnxc_getkeysym
                0x00056fa4                ukbdlnxc_setkeysym
                0x00057084                ukbdlnxc_getstring
                0x00057154                ukbdlnxc_setstring
                0x0005724c                ukbdlnxc_getdiacr
                0x000572f8                ukbdlnxc_setdiacr
                0x000573a4                ukbdlnxc_setmetamode
                0x000575b0                ukbdlnxc_getconsole
                0x00057734                ukbdlnxc_getptty
                0x00057870                ukbdlnxc_open
                0x000578f8                ukbdlnxc_chkconsole
                0x00057920                ukbdlnxc_save1st
                0x00057cbc                ukbdlnxc_restorelast
                0x00058278                ukbdlnxc_lockfwrite
                0x000582fc                ukbdlnxc_lockfread
                0x00058380                ukbdlnxc_pidsetlock
                0x0005846c                ukbdlnxc_pidresetlock
                0x0005850c                ukbdlnxc_pidchklock
                0x000585c4                ukbdlnxc_chngttkey
                0x00059190                ukbdlnxc_setrctl
                0x000592c4                ukbdlnxc_setrctlstr
                0x000596c8                uttyname
 .text          0x000596f0      0x848 ../ulib/libuserxe.a(libuserxe_a-ukbdlnxm.o)
                0x000596f0                ukbdlnxm_mouseopt
                0x00059800                ukbdlnxm_mouseinit
                0x00059868                ukbdlnxm_mouseterm
                0x000598c8                ukbdlnxm_getmouse
                0x00059d20                clickchk
 .text          0x00059f38     0x22e0 ../ulib/libuserxe.a(libuserxe_a-uparse.o)
                0x00059f38                uparsein
                0x0005a1e0                uparseindir
                0x0005a354                uparsev
                0x0005a51c                uparse2
                0x0005a658                uparse
                0x0005b360                uparsefname
                0x0005b4ec                uparsecmd
                0x0005bc5c                uparsecmdin
                0x0005beb4                uparsegetopt
 .text          0x0005c218     0x3754 ../ulib/libuserxe.a(libuserxe_a-uproc.o)
                0x0005c218                usystem2
                0x0005c354                usystem
                0x0005c468                uspawnl
                0x0005c594                uspawnlp
                0x0005c6c0                uspawnvp
                0x0005c7bc                uprocopt
                0x0005c888                uspawnrc
                0x0005cab0                uprocerrmem
                0x0005caec                uprocerrnotf
                0x0005cb28                uexecchk
                0x0005cf30                uextdirsrch
                0x0005cf70                ucmdnmcomp
                0x0005d0ec                ugetexepath
                0x0005d110                uproc_getpsinfo
                0x0005d668                uproc_srchpsinfo
                0x0005d7f8                uproc_freepsinfo
                0x0005d868                usystem_redirect
                0x0005db50                uspawn_redirect
                0x0005df28                uproc_redirectoutchk
                0x0005e8a4                uspawnvp_pipe
                0x0005ecf8                uspawnvp_pipeclose
                0x0005edc4                usystem_cmdserverinit
                0x0005ee68                usystem_cmdserverterm
                0x0005efa4                usystem_cmdserversetup
                0x0005f414                usystem_cmdtocmdserver
                0x0005f4a0                usystem_cmdserverreq
                0x0005f8ac                usystem_cmdserverreqwithoutbuff
                0x0005f940                usystem_pidalivechk
 .text          0x0005f96c     0x142c ../ulib/libuserxe.a(libuserxe_a-uproc2.o)
                0x0005f96c                uprocparseredirect
                0x0005fd74                uproc_rsh
                0x00060494                uproc_redirectrewrite
                0x000605bc                uproc_rshlog
                0x0006068c                ugetpid
                0x000606d8                uprocredirectchk
                0x00060728                uproc_loaddllpath
                0x00060990                uproc_loaddll
                0x00060b40                uproc_getdllproc
                0x00060c2c                uproc_freedll
                0x00060c88                uproc_getprocaddr
 .text          0x00060d98     0x11dc ../ulib/libuserxe.a(libuserxe_a-uproc4.o)
                0x00060d98                uproc_shcmd
                0x00060ea0                uproc_shserverinit
                0x00060f44                uproc_shserverterm
                0x0006101c                uproc_shserversetup
                0x000614dc                uproc_shserverreq
                0x00061920                uproc_srchprocessw
                0x000619e4                uproc_srchprocess
                0x00061ac8                uproc_select
                0x00061e8c                uproc4_fdset
                0x00061efc                uproc4_fdisset
 .text          0x00061f74      0x9d4 ../ulib/libuserxe.a(libuserxe_a-uque.o)
                0x00061f74                uque
                0x00061f8c                uenq
                0x00062260                udeq
                0x0006253c                uqscan
                0x00062660                uqfree
                0x000626b8                uqufree
                0x00062710                uenqchain
                0x00062828                uenqent
                0x000628c8                uqhmove
 .text          0x00062948      0x274 ../ulib/libuserxe.a(libuserxe_a-ustrcpy.o)
                0x00062948                ustring_memcpy
                0x00062a04                ustring_strncpy
                0x00062b24                ustring_strcpy
 .text          0x00062bbc     0x2778 ../ulib/libuserxe.a(libuserxe_a-ustring.o)
                0x00062bbc                ustring
                0x00062bd4                ustrnchr
                0x00062c5c                ustrnpbrk
                0x00062d38                ustrnspn
                0x00062e34                ustrrspn
                0x00062ed4                ustrnrspn
                0x00062f84                umemrspn
                0x0006303c                umemspnc
                0x000630c8                umemspn_spacetab
                0x00063158                umemrspnc
                0x000631e8                ustrnstr
                0x000632f0                ustrrstr
                0x00063380                ustrnrstr
                0x0006346c                ustrstri
                0x000635c4                ustrnstri
                0x000636b8                ustrrstri
                0x00063748                ustrnrstri
                0x00063834                ustrnrchr
                0x00063928                umemchr_utf
                0x00063ac4                ustrchr2
                0x00063c0c                ustrnchr2
                0x00063c58                umemchr2
                0x00063d98                ustrrchr2
                0x00063ed8                ustrnrchr2
                0x00063f24                umemrchr2
                0x00064038                umemrchr
                0x000640b8                umempbrk
                0x00064184                umemrpbrk
                0x00064254                ustrnlen
                0x000642a8                umemstr
                0x000642ec                umemstri
                0x00064330                umemrstr
                0x00064374                umemrstri
                0x000643b8                umemmem
                0x000644a8                umemmemi
                0x000646a8                umemrmem
                0x000647a0                umemrmemi
                0x00064984                ustrncpyz
                0x00064a28                uispunct
                0x00064af0                uispunctdbcs
                0x00064cfc                ustrdup
                0x00064dc8                umemtrim
                0x00065014                umemicmpdbcs
                0x00065110                umemstridbcs
                0x00065230                umemrstridbcs
 .text          0x00065334       0x70 ../ulib/libuserxe.a(libuserxe_a-utf.o)
                0x00065334                utf_init
 .text          0x000653a4     0x5ba0 ../ulib/libuserxe.a(libuserxe_a-utf2.o)
                0x000653a4                umbtowc
                0x00065460                utfpos2offs
                0x000656f0                utfctr2offs
                0x00065a08                utfstrchkmbr2wc
                0x00065e88                utfcvf2u
                0x00066390                utfcvl2fmix
                0x00066668                utfcvl2f
                0x00066d34                utfcvl2ftab
                0x00066ef0                utfsetdbcstbl
                0x000671f4                utfisvalidutf8
                0x000672f8                utfgetstrwidth
                0x000673c0                utfisvalidutf8char
                0x00067550                utfstrvalidate
                0x000676bc                utfgetutf8strlen
                0x00067834                utfsplitchk
                0x00067a58                utfcvl2fany
                0x000682e0                utfcvf2l1
                0x000684c8                utfcvf2l
                0x00068964                utfcvf2lany
                0x00068f00                utfcvl2fany1
                0x00069164                utfcvl2fany1mb
                0x000692c8                utfcvl2uany1mb
                0x0006946c                utfcvf2lany1
                0x0006987c                utfcvf2lany1mb
                0x00069a00                utfcvu2lany1mb
                0x00069b64                utfcvlocaleinit
                0x00069d90                utfcvsetdefaultlocale
                0x00069f00                utfcvsetparmlocale
                0x0006a05c                utfgetcharset_std
                0x0006a388                utfgetcharset
                0x0006a5ac                utflocalechk
                0x0006a62c                utfcvlocaleopen
                0x0006a744                utfcvlocaleclose
                0x0006a770                utfcvlocaletclose
                0x0006a7b0                utfcviconvdbcschk_topbyte
                0x0006a8ec                utfcviconvdbcschk1
                0x0006aa58                utfcvlocaleinitICU
                0x0006aac0                utfcvf2lany1ICU
                0x0006ac3c                utfcvl2fany1ICU
                0x0006ade0                utfcvsetdefaultlocaleICU
                0x0006ae24                utflocalechkICU
                0x0006ae8c                utfgetstrlenHK
 .text          0x0006af44     0x7bb0 ../ulib/libuserxe.a(libuserxe_a-utf22.o)
                0x0006af44                utfwwapichk
                0x0006b1ac                utfddflag2sbcsid
                0x0006b244                utfddgetlenflag
                0x0006b504                utf22_mapwidth0_rounddown
                0x0006b640                utf22_mapwidth0
                0x0006b858                utfucsmapinit
                0x0006bd68                utf22setworkdir
                0x0006bf00                utf22versionchk
                0x0006c0f8                utfucsloadmap
                0x0006c2f0                utfucssavemap
                0x0006c484                utfucsmapinit_remap
                0x0006c814                utfucsmapmodify
                0x0006c98c                utfmapucs2dd
                0x0006ca44                utfmapdd2ucs
                0x0006cac8                utfddsetsbcs
                0x0006cb90                utfddgetsbcs
                0x0006cbf4                utfgetwcw
                0x0006cd34                utfcvu2dd1w
                0x0006d000                utfcvu2dd1
                0x0006d0fc                utfcvf2dd
                0x0006d3e8                utfdd2u1
                0x0006d454                utfdd2u1vio
                0x0006d530                utfdd2u1chsz
                0x0006d724                utfdd2u
                0x0006dc50                utfucs42utf16
                0x0006de1c                utfddgetucsctr
                0x0006df98                utfu2dd
                0x0006e1ac                utfddcmp
                0x0006eaa8                utfddicmp
                0x0006ebec                utfcvdd2f
                0x0006f280                utfchkdd
                0x0006f368                utfddisasciistr
                0x0006f4dc                utfddissbcsstr
                0x0006f594                utfddasciilen
                0x0006f5dc                utfddpos2offs
                0x0006f814                utfddoffs2pos
                0x0006fb48                utfddispunct
                0x0006fd40                utfddmemspnc
                0x0006fe44                utfddmemrspnc
                0x0006ff64                utfddstrnlen
                0x0007004c                utfddstrlen
                0x000700fc                utfddstrnspn
                0x00070184                utfddmemspn
                0x000702b8                utfddmemrspn
                0x000703f0                utfddmemchr
                0x00070520                utfddmemchr_nonascii
                0x00070614                utfddmemrchr
                0x000706fc                utfddmemrchr_nonascii
                0x000707ac                utfddmempbrk
                0x0007088c                utfddmempbrk_nonascii
                0x00070990                utfddmemrpbrk
                0x00070a8c                utfddmemrpbrk_nonascii
                0x00070bac                utfddcmpdbcstab
                0x00070cbc                utfddmemmem
                0x00070f40                utfddmemrmem
                0x0007102c                utfddnumlen
                0x000712f0                utfddgetdbcslr
                0x00071430                utfddgetcsrposbca
                0x000717c4                utfgetvisiblealtch
                0x00071b88                utfgetvisiblealtchprint
                0x00071c24                utf_setsubchar_dbcs
                0x00071e28                utf_subcharcmp
                0x00071fa4                utfmemrchrDD
                0x00072060                utfmemchrDD
                0x0007213c                isASCIIstr
                0x000721a4                isPrintableASCIIstr
                0x0007221c                isPrintableASCIImem
                0x000722a8                utf22_setunpucsvio
                0x000723e4                utf22_setdbcsspacealt
                0x000724a0                utfsetvisiblealtch
                0x000725f8                utf22_iswidth0Ovf
                0x000726ec                utf22_iswidth0DBCS
                0x000727c4                utf_iswidth0
                0x00072904                utf_iscombinable
                0x00072a40                utf_iscombining
 .text          0x00072af4     0x178c ../ulib/libuserxe.a(libuserxe_a-utf3.o)
                0x00072af4                utfmb2wc
                0x00072d50                utfwcwidth
                0x00072fdc                utfwcwidthNoMap
                0x0007317c                utfwcwidthsub
                0x000733bc                utfwcwidthsubNoMap
                0x000735e8                utfiswide
                0x00073620                utfisprint
                0x00073824                utfgetwc
                0x000738c0                utftbinit
                0x00073e38                utftbfhelp
                0x00073e58                utftbterm
                0x00073eac                utftbsrch
                0x00074028                utftbsrch_jeuc
                0x00074094                utftbsrch_cjk
                0x000741dc                utf3_wcwidthXXE
 .text          0x00074280      0xad0 ../ulib/libuserxe.a(libuserxe_a-utf4.o)
                0x00074384                mk_wcwidth_combining
                0x000743d0                mk_wcwidth
                0x00074694                mk_wcwidth_cjk
                0x000747d0                mk_wcswidth_cjk
                0x00074868                mk_wcwidth_adjsbcs
                0x00074a68                utf4_isSpacingCombiningMark
                0x00074b24                utf4_isAmbiguous
                0x00074c30                utf4_isAmbiguous_XXE
                0x00074cb0                utf4_isFormat
                0x00074d04                mk_wcwidth_combining2SCM
 .text          0x00074d50     0x1754 ../ulib/libuserxe.a(libuserxe_a-utrace.o)
                0x00074d50                utrace_initmt
                0x00074dac                utrace_init
                0x00075010                utracepop
                0x0007517c                utracepopf
                0x00075330                utracepnop
                0x00075350                utrace_ebc
                0x00075448                utrace
                0x0007582c                utracectime
                0x00075a50                utraceopen_force
                0x00075c20                utraceocmsg_force
                0x000763c4                utrace_term
 .text          0x000764a4      0x5b8 ../ulib/libuserxe.a(libuserxe_a-uunxsub.o)
                0x000764a4                ugetugid
                0x00076548                ugetusername
                0x000765e0                ugetgroupname
                0x00076678                usrchugname
                0x000766e4                uaddugname
                0x000767d8                unc_setupterm
                0x0007684c                unx_fsetlock
                0x00076910                unx_fresetlock
                0x0007696c                unx_fchklock
                0x00076a28                ugethostname
 .text          0x00076a5c     0x65fc ../ulib/libuserxe.a(libuserxe_a-uviom.o)
                0x00076a5c                uviom_init
                0x00076cf4                uviom_setopt2
                0x00076ff0                uviom_notify
                0x000770b8                uvio_wcinit
                0x00077118                uviom_savecell
                0x000771c0                uviom_readcell
                0x00077268                uvio_mvaddchnstrF
                0x00077914                uviom_mvaddwchnstr
                0x00077984                uvio_mvaddchnstrW_ligature
                0x00077cd8                uvio_mvaddchnstrW_combine
                0x000782d8                uvio_mvaddchnstrW
                0x0007859c                uviom_cht2cchar
                0x00079598                uviom_setcchar_itself
                0x00079620                uviom_setcchar_shadow
                0x000796f8                uviom_setcombine1
                0x00079b58                uviom_setcombine
                0x0007a370                uviom_setcombineSCM
                0x0007a590                uvio_ddcht2cchar
                0x0007b2bc                uvio_ddcht2cchar_ligature
                0x0007c050                uvio_getcombinectr
                0x0007c1b4                uviom_escrep
                0x0007c3a0                uviom_set_padattr
                0x0007c404                uviom_fillattrspace
                0x0007c520                uviom_setunpucs
                0x0007c8f0                uviom_attr_itself
                0x0007c994                uviom_ISUCSWIDTH0
                0x0007cb14                uviom_iscombining
                0x0007ccfc                uviom_spaceclear
                0x0007cd54                uviom_clearscr
                0x0007cdf4                uviom_getcombaltchUcs
                0x0007ce7c                uviom_getcombaltchU8
 .text          0x0007d058     0x3914 ../ulib/libuserxe.a(libuserxe_a-uviol.o)
                0x0007d058                uviol_cell2attr
                0x0007d198                uviol_attr2cell
                0x0007d274                uviol_repfg
                0x0007d2f4                uviol_altcharset
                0x0007d43c                uvio_initparm
                0x0007d494                uviogetmode
                0x0007d628                uviol_init
                0x0007db64                uviol_acssetup
                0x0007dcb4                uviol_init2
                0x0007dce4                uviol_konchk
                0x0007ddd8                uviol_konchk2
                0x0007de48                uviol_colorinit
                0x0007e060                uviol_termexit
                0x0007e090                uviol_cleanup
                0x0007e1a0                uviol_term
                0x0007e224                uviol_beep
                0x0007e260                uviosetmode
                0x0007e298                uvioreadcellstr
                0x0007e42c                uviowrtcellstr
                0x0007e658                uvioreadcharstr
                0x0007e774                uviowrtcharstr
                0x0007e87c                uviowrtcharstratt
                0x0007ea78                uviowrtnattr
                0x0007ec88                uviowrtncell
                0x0007ede4                uviowrtnchar
                0x0007ef44                uviogetcurpos
                0x0007f030                uviosetcurpos
                0x0007f18c                uviogetcurtype
                0x0007f23c                uviosetcurtype
                0x0007f370                uviowrttty
                0x0007f3b0                uviol_rgb2colorno
                0x0007f5c8                uviol_colorno2rgb
                0x0007f720                uviogetstate
                0x0007f9d4                uviosetstate
                0x0007fbb4                uvioscrolldn
                0x0007fee0                uvioscrollup
                0x0008020c                uviol_clear
                0x00080244                uviol_clearok
                0x00080290                uviol_refresh
                0x000802b8                uviol_mvaddchnstr
                0x00080454                uviol_attrupdate
                0x000808ec                uviol_set_padattrsub
 .text          0x0008096c     0x3778 ../ulib/libuserxe.a(libuserxe_a-u3270.o)
                0x0008096c                u3270init
                0x000809d4                u3270fstat
                0x00080fc8                u3270findfile
                0x000811fc                u3270fullpathistso
                0x00081288                u3270getcwd
                0x00081310                u3270chdir
                0x000813ac                u3270fullpath
                0x00081688                u3270fullpathwildexp
                0x00081ba4                u3270getmembname
                0x00081d48                u3270chkmembname
                0x00081e90                u3270getlastname
                0x00081f68                u3270getnthname
                0x00082070                u3270concatfilename
                0x00082358                u3270editname
                0x00082700                u3270parsedsn
                0x0008279c                u3270parentdsn
                0x0008293c                u3270getsetdsnwild
                0x00082c5c                u3270pathlen
                0x00082dac                u3270sethostuser
                0x00082e60                u3270cmdrequest
                0x000830d8                u3270editrespmsg
                0x000831f0                u3270dirlistsub
                0x000834ac                u3270setdirlist
                0x0008396c                u3270srchdirlist
                0x00083a38                u3270setdirlistdsn
                0x00083d04                u3270setattr
                0x00083e20                u3270getattrstr
                0x000840ac                u3270errdsnpath
 .text          0x000840e4     0x152c ../ulib/libuserxe.a(libuserxe_a-u32702.o)
                0x000840e4                u3270mkdir
                0x0008411c                u3270rmdir
                0x0008414c                u3270xddsub
                0x000842cc                u3270xdelete
                0x000844dc                u3270wildxdel
                0x00084514                u3270xdelsub
                0x0008461c                u3270remove
                0x00084780                u3270rename
                0x000849d0                u3270renamesub
                0x00084aa4                u3270wildrename
                0x00084af4                u3270spfupdate
                0x00084cc4                u3270spfsetparm
                0x00085200                u3270attrib
                0x00085238                u3270attrxchk
                0x0008526c                u3270getftime
                0x000852a4                u3270setftime
                0x000852dc                u3270setftime2
                0x00085314                u3270copypathinfo
                0x0008534c                u3270setown
                0x00085384                u3270setmod
                0x000853b8                u3270wildfunc
                0x000855c0                u3270errnotsupported
 .text          0x00085610     0x3ab0 ../ulib/libuserxe.a(libuserxe_a-u32703.o)
                0x00085610                u3270xmove
                0x00085780                u3270xcopyr2r
                0x00085a48                u3270xcopy
                0x00085c10                u3270xcopyget
                0x000866cc                u3270xcopyput
                0x00087180                u3270filecreateparmproc
                0x00087424                u3270filecpymvflags
                0x00087978                u3270filewildcopyget
                0x00087bc0                u3270filewildcopyput
                0x00087f00                u3270copysubget
                0x0008815c                u3270copysubput
                0x000885e8                u3270transfer
                0x00088b4c                u3270srcdupchk
                0x00088d90                u3270copyspfupdate
                0x00089034                u3270setftpparm
 .text          0x000890c0       0x40 ../ulib/libuserxe.a(libuserxe_a-uabend.o)
                0x000890c0                uabend
 .text          0x00089100      0xe50 ../ulib/libuserxe.a(libuserxe_a-uallocl.o)
                0x00089100                ualloc_init
                0x00089354                ugetallocdata
                0x0008948c                ualloc_chk
                0x00089654                umalloc
                0x00089898                ucalloc
                0x00089b08                ufree
                0x00089d38                uallocsz
                0x00089d84                ufreesz
                0x00089dd4                uallocmapset
                0x00089ee8                ufreesizeerr
                0x00089f1c                umallocsizeerr
 .text          0x00089f50     0x417c ../ulib/libuserxe.a(libuserxe_a-ucalc2.o)
                0x00089f50                bc_getxdw
                0x0008a0a4                bc_getld
                0x0008a2f4                bc_dwbinop
                0x0008a8ac                bc_twbinop
                0x0008adcc                bc_edittod
                0x0008af40                bc_dweditnum64
                0x0008afa8                bc_dweditnum
                0x0008b2c4                bc_dwupeditnum
                0x0008b48c                ucalc_dwmult
                0x0008b6e0                ucalc_twmult
                0x0008bba8                ucalc_dwdiv
                0x0008be88                ucalc_dwdiv2
                0x0008c1c0                ucalc_twdiv
                0x0008c348                ucalc_twdivbyup
                0x0008c48c                ucalc_twshiftup
                0x0008c5a8                ucalc_dwshiftdown
                0x0008c6d8                ucalc_ltime
                0x0008caf8                ucalc_getdate
                0x0008cce4                ucalc_nextday
                0x0008cf94                ucalc_ld2dw
                0x0008d52c                ucalc_dw2ld
                0x0008d638                ucalc_nsadd
                0x0008d8a0                ucalc_ldedit
                0x0008d9e0                ucalc_dwupinit
                0x0008da40                ucalc_dwupset
                0x0008db70                bc_numfmt2dw
                0x0008dc20                bc_dw2numfmt
                0x0008dcf8                ucalc_dwup2dwandup
                0x0008de9c                bc_dword2word
                0x0008df98                ucalc_dw2err
                0x0008dfd0                ucalc_dw2errresidual
                0x0008e044                ucalc_dwuperr
                0x0008e06c                ucalc_dwmaxerr
                0x0008e0a4                ucalcerrdwordovf
 .text          0x0008e0cc     0x1ad0 ../ulib/libuserxe.a(libuserxe_a-ucvebc.o)
                0x0008e0cc                ucvebcinite2uJ
                0x0008e220                ucvebc
                0x0008e238                ucvebc_gettrte2a
                0x0008e258                ucvebc2asc_handle
                0x0008e2f8                ucvasc2ebc_handle
                0x0008e398                ucvebc2asc
                0x0008e7b0                ucvebc2asc1sbcsJ
                0x0008e930                ucvebc2ucs1sbcsJ
                0x0008eac4                ucvasc2ebc
                0x0008f06c                ucvebc_defaultremap
                0x0008f34c                ucvebcinita2e
                0x0008f4b8                ucvkandl
                0x0008f6a8                ucvebcinitkandl
                0x0008f7cc                ucvebc2_chkprintsbcs
                0x0008faa8                ucvebc_chkeolopt
 .text          0x0008fb9c     0x1718 ../ulib/libuserxe.a(libuserxe_a-ucvebc2.o)
                0x0008fb9c                ucvebc2
                0x0008fbb4                ucvebc2_init
                0x0008fc24                ucvebc2_codecomp
                0x0008fc6c                ucvebc2_s2e
                0x0008fd08                ucvebc2_e2s
                0x0008fda0                ucvebc2_chkprint
                0x00090068                ucvebc2_chkprintnewold
                0x000902e0                ucvebc2_chkprintdup
                0x0009048c                ucvebc2_e2ssub
                0x000906cc                ucvebc2_s2esub
                0x00090784                ucvebc2_stre2s
                0x00090a34                ucvebc2_ebc2asc1dbcsJ
                0x00090ad0                ucvebc2_strs2e
                0x00091084                ucvebc2_setsi
                0x000911a8                ucvebc2_setso
 .text          0x000912b4       0xa8 ../ulib/libuserxe.a(libuserxe_a-ucvebct.o)
                0x000912b4                ucvebc2gettbl
 .text          0x0009135c     0x6c18 ../ulib/libuserxe.a(libuserxe_a-ucvext.o)
                0x0009135c                ucvext_cfglineerr
                0x00091398                ucvext_cfgdupoption
                0x000913d4                ucvext_ux2s
                0x000914bc                ucvext_cfgmap
                0x00091634                ucvext_getcfg
                0x00092428                ucvext_setdefaultlocalcv
                0x0009256c                ucvext_getarmso1
                0x000927cc                ucvext_getarmso
                0x00092a58                ucvext_getarmdata1
                0x00092bc8                ucvext_getarmdata
                0x00092d78                chkapiver
                0x00092f34                ucvext_icuinit_env
                0x000931d0                setdatadir
                0x0009329c                ucvext_mapinit
                0x00093c80                ucvext_setupsubch
                0x00094254                ucvext_loaddll_icudata
                0x000944e8                ucvext_loaddll
                0x00094598                ucvext_icuinit
                0x00094cbc                ucvext_icuenumcvname
                0x0009508c                ucvext_icuuerrname
                0x000950fc                ucvext_icugetdefaultconvertername2
                0x00095218                ucvext_getstdcharset
                0x000955f0                ucvext_icugetdefaultconvertername
                0x00095730                ucvext_icugetconvertertype
                0x00095954                ucvext_icugetsubchars
                0x00095ad8                ucvext_icusetsubchars
                0x00095bcc                ucvext_icugetstarter
                0x00095d58                ucvext_icugetconverter
                0x00096368                ucvext_getparmconverter
                0x000965ec                ucvext_openparmconverter
                0x0009676c                ucvext_getcvoption
                0x00096ad8                set_internal_CP037
                0x00096bc0                ucvext_mapinitsetdefault
                0x00096dfc                ucvext_setlocalconverter
                0x00096ef8                ucvext_icusubcharchk
                0x000972ac                ucvext_isdbcs1st
                0x00097330                chk_converter_is_ebcdic
                0x00097424                ucvext_handle0init
                0x00097668                ucvext_icuclose
                0x000976d0                ucvext_icureset
                0x00097738                ucvext_icugetmbconverter
                0x00097818                ucvext_icumbinit12
                0x00097878                ucvext_icumbinit
                0x00097b44                ucvext_setdefaultlocale
                0x00097c34                chkicuversion
                0x00097ec0                ucvext_getConverterCfg
 .text          0x00097f74     0x49f4 ../ulib/libuserxe.a(libuserxe_a-ucvext12.o)
                0x00097f74                ucvext12_init
                0x000980d8                ucvext_icuebc2ucs1
                0x00098394                ucvext_iculocal2ucs1
                0x00098688                ucvext_icuucs2ebc1
                0x000989a0                ucvext_icuucs2local1
                0x00098c6c                ucvext_icuebc2mb1
                0x000990cc                ucvext_icumb2ebc1
                0x0009958c                ucvext_icuebc2mbs_handle
                0x0009960c                ucvext_icuebc2mbs
                0x00099914                ucvext_icumb2ebcdbcs
                0x00099ed4                ucvext_icumb2ebcs_handle
                0x00099f54                ucvext_icumb2ebcs
                0x0009a454                ucvext_icuebc2mbf
                0x0009a93c                ucvext_icumb2ebcf
                0x0009b0d8                ucvext_icumb2ucs1
                0x0009b2e4                ucvext_icuucs2mb1
                0x0009b50c                ucvext_icuutf2mb1
                0x0009b6b8                ucvext_icumb2utf1
                0x0009b8b4                ucvext_icumb2utf
                0x0009bb5c                ucvext_icuisprint
                0x0009bbfc                ucvext_locale1ICU
                0x0009bce0                ucvext_getparmconvertermbICU
                0x0009c118                ucvext_icua2ainit
                0x0009c1dc                ucvext_icua2aterm
                0x0009c254                ucvext_icua2as
                0x0009c914                ucvext_icusubcharchk_handle
 .text          0x0009c968     0x1ec0 ../ulib/libuserxe.a(libuserxe_a-ucvext2.o)
                0x0009c968                ucvext_iconvmapinit
                0x0009c9b4                ucvext_iconvgetstarter
                0x0009cb18                ucvext_iconvgetconvertertype
                0x0009cb94                ucvext_iconvgetconverter
                0x0009ccd8                ucvext_iconvgetparmconverter
                0x0009cee0                ucvext_iconvebc2ucs1
                0x0009d050                ucvext_iconvlocal2ucs1
                0x0009d310                ucvext_iconvucs2ebc1
                0x0009d484                ucvext_iconvucs2local1
                0x0009d5ec                ucvext_iconva2as
                0x0009dc00                ucvext_iconvb2bs
                0x0009ddac                ucvext_iconva2af
                0x0009e4bc                ucvext_iconva2ainit
                0x0009e5dc                ucvext_iconva2acont
 .text          0x0009e828      0x3dc ../ulib/libuserxe.a(libuserxe_a-udos2.o)
                0x0009e828                udos2
                0x0009e840                ugetdriveidlist
                0x0009e934                ugetdrivelist
                0x0009e9d4                ugetdrivetype
                0x0009eafc                udos_setenv
 .text          0x0009ec04     0x2890 ../ulib/libuserxe.a(libuserxe_a-uedit2.o)
                0x0009ec04                uedit2
                0x0009ec1c                uasciidump
                0x0009ee38                uasciidump_utf
                0x0009f0f0                uucsdump
                0x0009f43c                ub2x
                0x0009f56c                ueditfattr
                0x0009f944                ueditfattrspf
                0x0009fa18                ueditfattr_mdos
                0x0009fb98                uxdumpline
                0x000a0598                xdlputs
                0x000a0644                ugetdtparm
                0x000a0740                ugetdateparm
                0x000a07b4                ugettimeparm
                0x000a0828                ueditgetftnum
                0x000a0af8                ueditsetfdateUSHORT
                0x000a0b8c                ueditsetfdate
                0x000a0c6c                ueditsetftimeUSHORT
                0x000a0d00                ueditsetftime
                0x000a0df8                uxdumpstr
                0x000a1020                ueditNowFileTime
                0x000a1150                ueditescrep
 .text          0x000a1494      0x354 ../ulib/libuserxe.a(libuserxe_a-uehl.o)
                0x000a1494                useteh
                0x000a1560                uehl_setsh
                0x000a15b4                ureseteh
                0x000a167c                uehl_resetsh
                0x000a16b8                usighandler
 .text          0x000a17e8      0xec0 ../ulib/libuserxe.a(libuserxe_a-ufemsg.o)
                0x000a17e8                ufemsg
                0x000a1800                ufilenotfound
                0x000a183c                ufilenotfoundotherexist
                0x000a1878                ufilepatherr
                0x000a18b4                ufileapierr
                0x000a18fc                ufileapierr_str
                0x000a1954                ufiledelpath
                0x000a1990                ufilereadonly
                0x000a19cc                ufilereadonly2
                0x000a1a0c                ufiledeleted
                0x000a1b3c                ufileshare
                0x000a1b78                ufileexist
                0x000a1bb4                ufileexistcopy
                0x000a1bf0                ufileexist2
                0x000a1c34                ufileexistdir
                0x000a1c70                ufilenotdir
                0x000a1cac                ufilediskfull
                0x000a1cf0                ufilewildtarget
                0x000a1d24                ufilewildcarderr
                0x000a1d58                ufilewildpatherr
                0x000a1d8c                ufileroot
                0x000a1dc8                ufileapierr2
                0x000a1e1c                ufiledirna
                0x000a1e68                ufileerrdir
                0x000a1ea4                ufilenotvfat
                0x000a1ecc                ufilenopermission
                0x000a1f10                ufileslinkloop
                0x000a1f68                ufileerrspecialfile
                0x000a1fa4                ufileerrnotnormal
                0x000a1fe0                ufileerrdir2file
                0x000a2010                ufileerrnoentry
                0x000a2048                ufileerrnofileentry
                0x000a2080                ufileTooLongFullpathName
                0x000a20d8                ufileTooLongFullpathName2
                0x000a2238                ufileeditsz
                0x000a25d0                ufileslinktargeterr
                0x000a2614                ufileopenerrInvalidargument
                0x000a2670                ufileErrInvalidName
 .text          0x000a26a8     0x3508 ../ulib/libuserxe.a(libuserxe_a-ufile.o)
                0x000a26a8                ufile
                0x000a26c0                ufullpathwildexp
                0x000a2d74                ufullpathresolvespecialdirid
                0x000a2f30                ufilegetpathdir
                0x000a311c                udirlistnomsg
                0x000a317c                udirlist
                0x000a3330                udirlistsub
                0x000a3824                udirlist_set_slinkname
                0x000a3978                ufile_udirlist_copy
                0x000a3bd4                ufile_udirlist_swap
                0x000a3db8                ufile_udirlist_alloc1
                0x000a3e4c                ufile_udirlist_free
                0x000a3f48                udircompare_pointer
                0x000a3fb8                udirlistsort
                0x000a417c                udircomp
                0x000a41c0                udircompare
                0x000a4c40                udircompsub
                0x000a4d68                uredirect
                0x000a51b0                uredirectrestore
                0x000a52cc                ufdateedit
                0x000a560c                uftimeedit
                0x000a5844                uftimeedit_1sec
                0x000a58a0                udirlist_chk_max_entry
                0x000a5908                udirlist_setname
                0x000a5ae4                udirlist_setname_cat
 .text          0x000a5bb0     0x1b00 ../ulib/libuserxe.a(libuserxe_a-ufile1f.o)
                0x000a5bb0                uftpfstat
                0x000a5ed0                uftpwinchk
                0x000a5ffc                uftpfullpathnorid
                0x000a605c                uftpfullpath
                0x000a6724                uftppathlen
                0x000a6774                uftpgetcwd
                0x000a6874                uftpgethome
                0x000a68f4                uftpgethomesub
                0x000a6ac8                uftpchdir
                0x000a6c94                uftpchdirsub
                0x000a6e64                uftplchdirrespchk
                0x000a7070                uftpdirlistsub
                0x000a7450                uftpfindfirst
                0x000a75a0                uftpfindfirstfile
                0x000a7628                uftpfindnext
 .text          0x000a76b0     0x4344 ../ulib/libuserxe.a(libuserxe_a-ufile1l.o)
                0x000a76b0                ufstat
                0x000a7f20                ufilechkwildmultiple
                0x000a81bc                ufstat_wild
                0x000a824c                ufilefscomp
                0x000a82c4                ufilegetfsid
                0x000a83a4                ufilegetftime
                0x000a84b4                ufullpath
                0x000a8ebc                upathlen
                0x000a8f0c                ugetcwd
                0x000a8f38                uchdir
                0x000a9064                udosfindfirstnomsg
                0x000a90d4                udosfindfirst
                0x000a9850                udosfindnext
                0x000a98c0                udosfindnextmsg
                0x000a9cc4                ufilelnxwildselect
                0x000a9d30                ufilelnxattrselect
                0x000a9f08                ufilelnxgetmembfstat
                0x000aa134                ufilelnxsavehdir
                0x000aa264                ufilelnxsrchhdir
                0x000aa36c                ufilelnxclosehdir
                0x000aa4ac                ufilemode2attr
                0x000aa658                ufilemktime
                0x000aa710                ufilerepwildname
                0x000aa810                errwildname
                0x000aaa18                filesrchmountpoint
                0x000aabf0                filegetdevt
                0x000aae74                filegetdevicename
                0x000ab020                filegetdevicemntent
                0x000ab140                filegetmntent
                0x000ab314                filegetmntoption
                0x000ab478                ufilegetiocharset
                0x000ab57c                ufilefnmcvcs
                0x000ab7c0                ufullpathCP
 .text          0x000ab9f4     0x1f08 ../ulib/libuserxe.a(libuserxe_a-ufile1l2.o)
                0x000ab9f4                mtoolsinit
                0x000aba20                ufstat_mdos
                0x000abf6c                ufilegetmdosattr
                0x000ac070                uopendir_mdos
                0x000ac36c                ureaddir_mdos
                0x000ac5b0                ufilegetmdosdl
                0x000acb10                ufilegetmdosattrlist
                0x000acd08                ugetcwd_mdos
                0x000ace84                uchdir_mdos
                0x000acf20                ustatfs_mdos
                0x000ad160                uminfo
                0x000ad43c                ufilegetnum
                0x000ad540                ufilemdoscmd
                0x000ad798                ufilemdoserrchk
 .text          0x000ad8fc      0xd74 ../ulib/libuserxe.a(libuserxe_a-uproc22.o)
                0x000ad8fc                ukillpid
                0x000ad998                uthread
                0x000ada10                uevent
                0x000adc7c                uevent_wait1
                0x000ade48                uevent_post1
                0x000adf4c                uevent_waitm
                0x000ae130                uevent_postm
                0x000ae270                uevent_reset1
                0x000ae304                uevent_setuplist
                0x000ae498                uevent_resetlist
                0x000ae548                ucriticalsection
 .text          0x000ae670     0x19c4 ../ulib/libuserxe.a(libuserxe_a-uproc3.o)
                0x000ae670                uproc_gvfsinit
                0x000ae6d4                ushellexec
                0x000aeb88                ushellexecsub
                0x000aee5c                ulnxlgettermpgmopt
                0x000aefe0                ulnxlgetshellpgm
                0x000af0ac                ulnxxgettermpgmopt
                0x000af3c0                uproc3pgmchk
                0x000af464                usystemlnxterm
                0x000af540                usleepms
                0x000af5e4                uprocconnect
                0x000af8a0                uprocdisconnect
                0x000af94c                uprocpipeio
                0x000afb58                startserver
                0x000afbd4                uprocpiperead
                0x000afc68                uprocpiperecevmsg
                0x000afde4                uprocpipeiodata
 .text          0x000b0034     0x5de8 ../ulib/libuserxe.a(libuserxe_a-ucalc.o)
                0x000b0034                ucalc_bcmain
                0x000b0eb4                bc_opdchk
                0x000b1d98                getvarname
                0x000b1e78                ucalc_chkvrparm
                0x000b2004                bc_getvalue
                0x000b26f8                ucalc_vrajust
                0x000b2a1c                ucalc_o2l
                0x000b2b04                ucalc_gettimevalue
                0x000b2f2c                ucalc_getunderpointdata
                0x000b3090                bc_opdcopy
                0x000b3350                bc_putwordordword
                0x000b3428                bc_expand2dword
                0x000b34c4                ucalc_binop
                0x000b3a60                ucalc_binopsub
                0x000b4514                ucalc_underpoint
                0x000b47fc                ucalc_editnum
                0x000b49c4                ucalc_editevenhex
                0x000b4a50                ucalc_dwtime
                0x000b4c38                ucalc_time
                0x000b5130                ucalc_timeedit
                0x000b54c0                ucalc_shiftdown
                0x000b560c                ucalc_shiftup
                0x000b574c                bc_getbase
                0x000b5790                calcuperr1
                0x000b57b8                calcuperr2
                0x000b57e0                calcuperr3
                0x000b5808                calcerrinvalid
                0x000b5840                calcerrinvalid_dw
                0x000b5878                calcerrformat
                0x000b58a0                calcerrunderflow
                0x000b58cc                calcerrwordovf
                0x000b5910                calcerrminus
                0x000b5938                calcerr0div
                0x000b5960                calcerrtimeop
                0x000b5988                bc_getvalue3
                0x000b5c3c                bc_setconvtype3
 .text          0x000b5e1c     0x54c8 ../ulib/libuserxe.a(libuserxe_a-ucvebc3.o)
                0x000b5e1c                ucvebc3_getcfgparmconverter
                0x000b6020                ucvebc3_init_xcv
                0x000b6060                ucvebc3_getconvertersubchar
                0x000b60d4                ucvebc3_setletter
                0x000b6a08                ucvebc3_init
                0x000b6c7c                ucvebc3_cfgerr
                0x000b6ca4                ucvebc3_b2uSbcs1
                0x000b6f8c                ucvebc3_b2ddSbcs1
                0x000b717c                ucvebc3_b2ddSbcs
                0x000b763c                ucvebc3_b2uDbcs1
                0x000b7858                ucvebc3_b2ddDbcs1
                0x000b7a78                ucvebc3_b2ddDbcsstr
                0x000b7c78                ucvebc3_b2ddDbcs
                0x000b83a4                ucvebc3_b2dd
                0x000b8498                ucvebc3_u2b1map
                0x000b85d8                ucvebc3_u2b1
                0x000b897c                ucvebc3_m2b1Sbcs1
                0x000b8b38                ucvebc3_m2b1
                0x000b8e70                ucvebc3_m2b
                0x000b9380                ucvebc3_f2b
                0x000b9a18                ucvebc3_dd2b
                0x000ba0e8                ucvebc3_b2mSbcs
                0x000ba7b4                ucvebc3_b2mDbcsstr
                0x000baa54                ucvebc3_b2m
                0x000baf2c                ucvebc3_setdbcstbl
                0x000bb0cc                ucvebc3_getebc3opt
                0x000bb1bc                ucvebc3_b2f
                0x000bb258                ucvebc3_f2bcmd
 .text          0x000bb2e4     0x1c0c ../ulib/libuserxe.a(libuserxe_a-ucvebc4.o)
                0x000bb2e4                ucvebc4_init
                0x000bb370                ucvebc4_compbyname
                0x000bb3c8                ucvebc4_compbyhandle
                0x000bb418                ucvebc4_srchcveh
                0x000bb56c                ucvebc4_gethandle
                0x000bb65c                ucvebc4_getpucveh
                0x000bb6dc                ucvebc4_getcvname
                0x000bb740                ucvebc4_getcvtype
                0x000bb8c4                ucvebc4_createhandle
                0x000bba00                ucvebc4_getparmconverter
                0x000bbb30                ucvebc4_chkdbcsconverter
                0x000bbc48                ucvebc4_setuphandle
                0x000bbd58                ucvebc4_setletter
                0x000bc4b4                ucvebc4_b2uSbcs1
                0x000bc5d0                ucvebc4_b2mSbcs
                0x000bc9fc                ucvebc4_setupsubch
 .text          0x000bcef0      0x240 /usr/lib/gcc/arm-linux-gnueabihf/8/libgcc.a(_divsi3.o)
                0x000bcef0                __divsi3
                0x000bcef0                __aeabi_idiv
                0x000bd110                __aeabi_idivmod
 .text          0x000bd130       0xd4 /usr/lib/gcc/arm-linux-gnueabihf/8/libgcc.a(_aeabi_ldivmod.o)
                0x000bd130                __aeabi_ldivmod
 .text          0x000bd204       0x10 /usr/lib/gcc/arm-linux-gnueabihf/8/libgcc.a(_dvmd_lnx.o)
                0x000bd204                __aeabi_idiv0
                0x000bd204                __aeabi_ldiv0
 .text          0x000bd214      0x128 /usr/lib/gcc/arm-linux-gnueabihf/8/libgcc.a(_udivmoddi4.o)
                0x000bd214                __udivmoddi4
 .text          0x000bd33c       0x64 //usr/lib/arm-linux-gnueabihf/libc_nonshared.a(elf-init.oS)
                0x000bd33c                __libc_csu_init
                0x000bd39c                __libc_csu_fini
 .text          0x000bd3a0       0x10 //usr/lib/arm-linux-gnueabihf/libc_nonshared.a(stat64.oS)
                0x000bd3a0                stat64
 .text          0x000bd3b0       0x10 //usr/lib/arm-linux-gnueabihf/libc_nonshared.a(lstat64.oS)
                0x000bd3b0                lstat64
 .text          0x000bd3c0        0x0 /usr/lib/gcc/arm-linux-gnueabihf/8/crtend.o
 .text          0x000bd3c0        0x0 /usr/lib/gcc/arm-linux-gnueabihf/8/../../../arm-linux-gnueabihf/crtn.o
 *(.gnu.warning)
 *(.glue_7t)
 .glue_7t       0x000bd3c0        0x0 linker stubs
 *(.glue_7)
 .glue_7        0x000bd3c0        0x0 linker stubs
 *(.vfp11_veneer)
 .vfp11_veneer  0x000bd3c0        0x0 linker stubs
 *(.v4_bx)
 .v4_bx         0x000bd3c0        0x0 linker stubs

.fini           0x000bd3c0        0x8
 *(SORT_NONE(.fini))
 .fini          0x000bd3c0        0x4 /usr/lib/gcc/arm-linux-gnueabihf/8/../../../arm-linux-gnueabihf/crti.o
                0x000bd3c0                _fini
 .fini          0x000bd3c4        0x4 /usr/lib/gcc/arm-linux-gnueabihf/8/../../../arm-linux-gnueabihf/crtn.o
                [!provide]                PROVIDE (__etext = .)
                [!provide]                PROVIDE (_etext = .)
                [!provide]                PROVIDE (etext = .)

.rodata         0x000bd3c8     0xbc98
 *(.rodata .rodata.* .gnu.linkonce.r.*)
 .rodata.cst4   0x000bd3c8        0x4 /usr/lib/gcc/arm-linux-gnueabihf/8/../../../arm-linux-gnueabihf/crt1.o
                0x000bd3c8                _IO_stdin_used
 .rodata        0x000bd3cc      0x42c xutf8.o
 .rodata        0x000bd7f8       0xa2 ../ulib/libuserxe.a(libuserxe_a-ucvucs.o)
 *fill*         0x000bd89a        0x2 
 .rodata        0x000bd89c      0x10c ../ulib/libuserxe.a(libuserxe_a-udbcschk.o)
 .rodata        0x000bd9a8        0xc ../ulib/libuserxe.a(libuserxe_a-udbcsck2.o)
 .rodata        0x000bd9b4       0xed ../ulib/libuserxe.a(libuserxe_a-uedit.o)
 *fill*         0x000bdaa1        0x3 
 .rodata        0x000bdaa4      0x30d ../ulib/libuserxe.a(libuserxe_a-uerr.o)
 *fill*         0x000bddb1        0x3 
 .rodata        0x000bddb4      0x7e4 ../ulib/libuserxe.a(libuserxe_a-ufile2.o)
 .rodata        0x000be598      0x357 ../ulib/libuserxe.a(libuserxe_a-ufile2f.o)
 *fill*         0x000be8ef        0x1 
 .rodata        0x000be8f0       0xf6 ../ulib/libuserxe.a(libuserxe_a-ufile2l.o)
 *fill*         0x000be9e6        0x2 
 .rodata        0x000be9e8       0xfc ../ulib/libuserxe.a(libuserxe_a-ufile2l2.o)
 .rodata        0x000beae4      0x4da ../ulib/libuserxe.a(libuserxe_a-ufile3.o)
 *fill*         0x000befbe        0x2 
 .rodata        0x000befc0      0x476 ../ulib/libuserxe.a(libuserxe_a-ufile3f.o)
 *fill*         0x000bf436        0x2 
 .rodata        0x000bf438      0x234 ../ulib/libuserxe.a(libuserxe_a-ufile4.o)
 .rodata        0x000bf66c      0x1a6 ../ulib/libuserxe.a(libuserxe_a-ufile5.o)
 *fill*         0x000bf812        0x2 
 .rodata        0x000bf814      0x619 ../ulib/libuserxe.a(libuserxe_a-uftp.o)
 *fill*         0x000bfe2d        0x3 
 .rodata        0x000bfe30      0x45c ../ulib/libuserxe.a(libuserxe_a-uftp2.o)
 .rodata        0x000c028c      0x512 ../ulib/libuserxe.a(libuserxe_a-uftp3.o)
 *fill*         0x000c079e        0x2 
 .rodata        0x000c07a0        0xb ../ulib/libuserxe.a(libuserxe_a-ugcclib.o)
 *fill*         0x000c07ab        0x1 
 .rodata        0x000c07ac       0xef ../ulib/libuserxe.a(libuserxe_a-ukbdl.o)
 *fill*         0x000c089b        0x1 
 .rodata        0x000c089c      0xf2a ../ulib/libuserxe.a(libuserxe_a-ukbdlnxc.o)
 *fill*         0x000c17c6        0x2 
 .rodata        0x000c17c8       0x2d ../ulib/libuserxe.a(libuserxe_a-uparse.o)
 *fill*         0x000c17f5        0x3 
 .rodata        0x000c17f8      0x4fd ../ulib/libuserxe.a(libuserxe_a-uproc.o)
 *fill*         0x000c1cf5        0x3 
 .rodata        0x000c1cf8      0x168 ../ulib/libuserxe.a(libuserxe_a-uproc2.o)
 .rodata        0x000c1e60      0x341 ../ulib/libuserxe.a(libuserxe_a-uproc4.o)
 *fill*         0x000c21a1        0x3 
 .rodata        0x000c21a4      0x384 ../ulib/libuserxe.a(libuserxe_a-uque.o)
 .rodata        0x000c2528       0x7e ../ulib/libuserxe.a(libuserxe_a-ustrcpy.o)
 *fill*         0x000c25a6        0x2 
 .rodata        0x000c25a8        0x4 ../ulib/libuserxe.a(libuserxe_a-ustring.o)
 .rodata        0x000c25ac      0x1cc ../ulib/libuserxe.a(libuserxe_a-utf2.o)
 .rodata        0x000c2778      0x325 ../ulib/libuserxe.a(libuserxe_a-utf22.o)
 *fill*         0x000c2a9d        0x3 
 .rodata        0x000c2aa0      0x133 ../ulib/libuserxe.a(libuserxe_a-utf3.o)
 *fill*         0x000c2bd3        0x1 
 .rodata        0x000c2bd4     0x19d0 ../ulib/libuserxe.a(libuserxe_a-utf4.o)
 .rodata        0x000c45a4      0x161 ../ulib/libuserxe.a(libuserxe_a-utrace.o)
 *fill*         0x000c4705        0x3 
 .rodata        0x000c4708       0x98 ../ulib/libuserxe.a(libuserxe_a-uunxsub.o)
 .rodata        0x000c47a0        0x2 ../ulib/libuserxe.a(libuserxe_a-uviom.o)
 *fill*         0x000c47a2        0x2 
 .rodata        0x000c47a4       0x7a ../ulib/libuserxe.a(libuserxe_a-uviol.o)
 *fill*         0x000c481e        0x2 
 .rodata        0x000c4820      0x161 ../ulib/libuserxe.a(libuserxe_a-u3270.o)
 *fill*         0x000c4981        0x3 
 .rodata        0x000c4984      0x1ad ../ulib/libuserxe.a(libuserxe_a-u32702.o)
 *fill*         0x000c4b31        0x3 
 .rodata        0x000c4b34      0x395 ../ulib/libuserxe.a(libuserxe_a-u32703.o)
 *fill*         0x000c4ec9        0x3 
 .rodata        0x000c4ecc       0x30 ../ulib/libuserxe.a(libuserxe_a-uabend.o)
 .rodata        0x000c4efc      0x571 ../ulib/libuserxe.a(libuserxe_a-uallocl.o)
 *fill*         0x000c546d        0x3 
 .rodata        0x000c5470      0x7c3 ../ulib/libuserxe.a(libuserxe_a-ucalc2.o)
 *fill*         0x000c5c33        0x1 
 .rodata        0x000c5c34      0x88e ../ulib/libuserxe.a(libuserxe_a-ucvebc.o)
 *fill*         0x000c64c2        0x2 
 .rodata        0x000c64c4      0x221 ../ulib/libuserxe.a(libuserxe_a-ucvebc2.o)
 *fill*         0x000c66e5        0x3 
 .rodata        0x000c66e8      0x8e8 ../ulib/libuserxe.a(libuserxe_a-ucvext.o)
 .rodata        0x000c6fd0       0xca ../ulib/libuserxe.a(libuserxe_a-ucvext12.o)
 *fill*         0x000c709a        0x2 
 .rodata        0x000c709c      0x172 ../ulib/libuserxe.a(libuserxe_a-ucvext2.o)
 *fill*         0x000c720e        0x2 
 .rodata        0x000c7210       0x47 ../ulib/libuserxe.a(libuserxe_a-udos2.o)
 *fill*         0x000c7257        0x1 
 .rodata        0x000c7258       0xbd ../ulib/libuserxe.a(libuserxe_a-uedit2.o)
 *fill*         0x000c7315        0x3 
 .rodata        0x000c7318       0x33 ../ulib/libuserxe.a(libuserxe_a-uehl.o)
 *fill*         0x000c734b        0x1 
 .rodata        0x000c734c      0x8b9 ../ulib/libuserxe.a(libuserxe_a-ufemsg.o)
 *fill*         0x000c7c05        0x3 
 .rodata        0x000c7c08      0x113 ../ulib/libuserxe.a(libuserxe_a-ufile.o)
 *fill*         0x000c7d1b        0x1 
 .rodata        0x000c7d1c      0x12b ../ulib/libuserxe.a(libuserxe_a-ufile1f.o)
 *fill*         0x000c7e47        0x1 
 .rodata        0x000c7e48      0x6a3 ../ulib/libuserxe.a(libuserxe_a-ufile1l.o)
 *fill*         0x000c84eb        0x1 
 .rodata        0x000c84ec      0x10f ../ulib/libuserxe.a(libuserxe_a-ufile1l2.o)
 *fill*         0x000c85fb        0x1 
 .rodata        0x000c85fc       0x66 ../ulib/libuserxe.a(libuserxe_a-uproc22.o)
 *fill*         0x000c8662        0x2 
 .rodata        0x000c8664      0x410 ../ulib/libuserxe.a(libuserxe_a-uproc3.o)
 .rodata        0x000c8a74      0x4ad ../ulib/libuserxe.a(libuserxe_a-ucalc.o)
 *fill*         0x000c8f21        0x3 
 .rodata        0x000c8f24       0x8f ../ulib/libuserxe.a(libuserxe_a-ucvebc3.o)
 *fill*         0x000c8fb3        0x1 
 .rodata        0x000c8fb4       0xac ../ulib/libuserxe.a(libuserxe_a-ucvebc4.o)

.rodata1
 *(.rodata1)

.ARM.extab      0x000c9060        0x0
 *(.ARM.extab* .gnu.linkonce.armextab.*)
 .ARM.extab     0x000c9060        0x0 /usr/lib/gcc/arm-linux-gnueabihf/8/../../../arm-linux-gnueabihf/crt1.o
 .ARM.extab     0x000c9060        0x0 /usr/lib/gcc/arm-linux-gnueabihf/8/libgcc.a(_udivmoddi4.o)
                [!provide]                PROVIDE (__exidx_start = .)

.ARM.exidx      0x000c9060        0x8
 *(.ARM.exidx* .gnu.linkonce.armexidx.*)
 .ARM.exidx     0x000c9060        0x8 /usr/lib/gcc/arm-linux-gnueabihf/8/../../../arm-linux-gnueabihf/crt1.o
 .ARM.exidx     0x000c9068        0x0 /usr/lib/gcc/arm-linux-gnueabihf/8/libgcc.a(_udivmoddi4.o)
                                  0x8 (size before relaxing)
                [!provide]                PROVIDE (__exidx_end = .)

.eh_frame_hdr
 *(.eh_frame_hdr)
 *(.eh_frame_entry .eh_frame_entry.*)

.eh_frame       0x000c9068        0x4
 *(.eh_frame)
 .eh_frame      0x000c9068        0x4 /usr/lib/gcc/arm-linux-gnueabihf/8/crtend.o
 *(.eh_frame.*)

.gcc_except_table
 *(.gcc_except_table .gcc_except_table.*)

.gnu_extab
 *(.gnu_extab*)

.exception_ranges
 *(.exception_ranges .exception_ranges*)
                0x000d9e08                . = DATA_SEGMENT_ALIGN (CONSTANT (MAXPAGESIZE), CONSTANT (COMMONPAGESIZE))

.eh_frame
 *(.eh_frame)
 *(.eh_frame.*)

.gnu_extab
 *(.gnu_extab)

.gcc_except_table
 *(.gcc_except_table .gcc_except_table.*)

.exception_ranges
 *(.exception_ranges .exception_ranges*)

.tdata          0x000d9e08        0x0
                [!provide]                PROVIDE (__tdata_start = .)
 *(.tdata .tdata.* .gnu.linkonce.td.*)

.tbss
 *(.tbss .tbss.* .gnu.linkonce.tb.*)
 *(.tcommon)

.preinit_array  0x000d9e08        0x0
                [!provide]                PROVIDE (__preinit_array_start = .)
 *(.preinit_array)
                [!provide]                PROVIDE (__preinit_array_end = .)

.init_array     0x000d9e08        0x4
                0x000d9e08                PROVIDE (__init_array_start = .)
 *(SORT_BY_INIT_PRIORITY(.init_array.*) SORT_BY_INIT_PRIORITY(.ctors.*))
 *(.init_array EXCLUDE_FILE(*crtend?.o *crtend.o *crtbegin?.o *crtbegin.o) .ctors)
 .init_array    0x000d9e08        0x4 /usr/lib/gcc/arm-linux-gnueabihf/8/crtbegin.o
                0x000d9e0c                PROVIDE (__init_array_end = .)

.fini_array     0x000d9e0c        0x4
                [!provide]                PROVIDE (__fini_array_start = .)
 *(SORT_BY_INIT_PRIORITY(.fini_array.*) SORT_BY_INIT_PRIORITY(.dtors.*))
 *(.fini_array EXCLUDE_FILE(*crtend?.o *crtend.o *crtbegin?.o *crtbegin.o) .dtors)
 .fini_array    0x000d9e0c        0x4 /usr/lib/gcc/arm-linux-gnueabihf/8/crtbegin.o
                [!provide]                PROVIDE (__fini_array_end = .)

.ctors
 *crtbegin.o(.ctors)
 *crtbegin?.o(.ctors)
 *(EXCLUDE_FILE(*crtend?.o *crtend.o) .ctors)
 *(SORT_BY_NAME(.ctors.*))
 *(.ctors)

.dtors
 *crtbegin.o(.dtors)
 *crtbegin?.o(.dtors)
 *(EXCLUDE_FILE(*crtend?.o *crtend.o) .dtors)
 *(SORT_BY_NAME(.dtors.*))
 *(.dtors)

.jcr
 *(.jcr)

.data.rel.ro    0x000d9e10        0x0
 *(.data.rel.ro.local* .gnu.linkonce.d.rel.ro.local.*)
 *(.data.rel.ro .data.rel.ro.* .gnu.linkonce.d.rel.ro.*)
 .data.rel.ro   0x000d9e10        0x0 /usr/lib/gcc/arm-linux-gnueabihf/8/../../../arm-linux-gnueabihf/crt1.o

.dynamic        0x000d9e10      0x1f0
 *(.dynamic)
 .dynamic       0x000d9e10      0x1f0 /usr/lib/gcc/arm-linux-gnueabihf/8/../../../arm-linux-gnueabihf/crt1.o
                0x000d9e10                _DYNAMIC
                0x000da000                . = DATA_SEGMENT_RELRO_END (., 0x0)

.got            0x000da000      0x2e0
 *(.got.plt)
 .got.plt       0x000da000      0x2dc /usr/lib/gcc/arm-linux-gnueabihf/8/../../../arm-linux-gnueabihf/crt1.o
                0x000da000                _GLOBAL_OFFSET_TABLE_
 *(.igot.plt)
 .igot.plt      0x000da2dc        0x0 /usr/lib/gcc/arm-linux-gnueabihf/8/../../../arm-linux-gnueabihf/crt1.o
 *(.got)
 .got           0x000da2dc        0x4 /usr/lib/gcc/arm-linux-gnueabihf/8/../../../arm-linux-gnueabihf/crt1.o
 *(.igot)

.data           0x000da2e0    0x27644
                [!provide]                PROVIDE (__data_start = .)
 *(.data .data.* .gnu.linkonce.d.*)
 .data          0x000da2e0        0x4 /usr/lib/gcc/arm-linux-gnueabihf/8/../../../arm-linux-gnueabihf/crt1.o
                0x000da2e0                __data_start
                0x000da2e0                data_start
 .data          0x000da2e4        0x0 /usr/lib/gcc/arm-linux-gnueabihf/8/../../../arm-linux-gnueabihf/crti.o
 .data          0x000da2e4        0x4 /usr/lib/gcc/arm-linux-gnueabihf/8/crtbegin.o
                0x000da2e4                __dso_handle
 .data          0x000da2e8        0x8 xutf8.o
 .data          0x000da2f0       0x28 ../ulib/libuserxe.a(libuserxe_a-ucvucs.o)
 .data          0x000da318     0x7cb0 ../ulib/libuserxe.a(libuserxe_a-ucvucst.o)
                0x000da318                Scp932tb
 .data          0x000e1fc8        0x8 ../ulib/libuserxe.a(libuserxe_a-udbcschk.o)
                0x000e1fc8                Gpdbcstbl
 .data          0x000e1fd0     0x1148 ../ulib/libuserxe.a(libuserxe_a-udbcsck2.o)
 .data          0x000e3118        0x0 ../ulib/libuserxe.a(libuserxe_a-uedit.o)
 .data          0x000e3118        0xd ../ulib/libuserxe.a(libuserxe_a-uerr.o)
 .data          0x000e3125        0x0 ../ulib/libuserxe.a(libuserxe_a-ufile2.o)
 .data          0x000e3125        0x0 ../ulib/libuserxe.a(libuserxe_a-ufile2f.o)
 .data          0x000e3125        0x0 ../ulib/libuserxe.a(libuserxe_a-ufile2l.o)
 .data          0x000e3125        0x0 ../ulib/libuserxe.a(libuserxe_a-ufile2l2.o)
 .data          0x000e3125        0x0 ../ulib/libuserxe.a(libuserxe_a-ufile3.o)
 .data          0x000e3125        0x0 ../ulib/libuserxe.a(libuserxe_a-ufile3f.o)
 .data          0x000e3125        0x0 ../ulib/libuserxe.a(libuserxe_a-ufile4.o)
 .data          0x000e3125        0x0 ../ulib/libuserxe.a(libuserxe_a-ufile5.o)
 *fill*         0x000e3125        0x3 
 .data          0x000e3128       0x10 ../ulib/libuserxe.a(libuserxe_a-uftp.o)
 .data          0x000e3138       0x50 ../ulib/libuserxe.a(libuserxe_a-uftp2.o)
 .data          0x000e3188        0x4 ../ulib/libuserxe.a(libuserxe_a-uftp3.o)
 .data          0x000e318c        0x0 ../ulib/libuserxe.a(libuserxe_a-ugcclib.o)
 .data          0x000e318c        0x0 ../ulib/libuserxe.a(libuserxe_a-ukbdl.o)
 .data          0x000e318c     0xb6bc ../ulib/libuserxe.a(libuserxe_a-ukbdlnxc.o)
 .data          0x000ee848       0x10 ../ulib/libuserxe.a(libuserxe_a-ukbdlnxm.o)
 .data          0x000ee858        0x0 ../ulib/libuserxe.a(libuserxe_a-uparse.o)
 .data          0x000ee858       0x20 ../ulib/libuserxe.a(libuserxe_a-uproc.o)
 .data          0x000ee878        0x0 ../ulib/libuserxe.a(libuserxe_a-uproc2.o)
 .data          0x000ee878        0x0 ../ulib/libuserxe.a(libuserxe_a-uproc4.o)
 .data          0x000ee878        0x0 ../ulib/libuserxe.a(libuserxe_a-uque.o)
 .data          0x000ee878        0x0 ../ulib/libuserxe.a(libuserxe_a-ustrcpy.o)
 .data          0x000ee878       0xfb ../ulib/libuserxe.a(libuserxe_a-ustring.o)
 .data          0x000ee973        0x0 ../ulib/libuserxe.a(libuserxe_a-utf.o)
 .data          0x000ee973        0x0 ../ulib/libuserxe.a(libuserxe_a-utf2.o)
 *fill*         0x000ee973        0x1 
 .data          0x000ee974      0x164 ../ulib/libuserxe.a(libuserxe_a-utf22.o)
 .data          0x000eead8      0xe98 ../ulib/libuserxe.a(libuserxe_a-utf3.o)
 .data          0x000ef970        0x0 ../ulib/libuserxe.a(libuserxe_a-utf4.o)
 .data          0x000ef970     0x1928 ../ulib/libuserxe.a(libuserxe_a-utrace.o)
 .data          0x000f1298        0x0 ../ulib/libuserxe.a(libuserxe_a-uunxsub.o)
 .data          0x000f1298        0x4 ../ulib/libuserxe.a(libuserxe_a-uviom.o)
                0x000f1298                Guviomdbcspad
 .data          0x000f129c        0xc ../ulib/libuserxe.a(libuserxe_a-uviol.o)
 .data          0x000f12a8        0x4 ../ulib/libuserxe.a(libuserxe_a-u3270.o)
 .data          0x000f12ac        0x0 ../ulib/libuserxe.a(libuserxe_a-u32702.o)
 .data          0x000f12ac        0x0 ../ulib/libuserxe.a(libuserxe_a-u32703.o)
 .data          0x000f12ac        0x0 ../ulib/libuserxe.a(libuserxe_a-uabend.o)
 .data          0x000f12ac     0x1000 ../ulib/libuserxe.a(libuserxe_a-uallocl.o)
 .data          0x000f22ac      0x24c ../ulib/libuserxe.a(libuserxe_a-ucalc2.o)
 .data          0x000f24f8      0x248 ../ulib/libuserxe.a(libuserxe_a-ucvebc.o)
 .data          0x000f2740        0x0 ../ulib/libuserxe.a(libuserxe_a-ucvebc2.o)
 .data          0x000f2740     0xed30 ../ulib/libuserxe.a(libuserxe_a-ucvebct.o)
 .data          0x00101470      0x316 ../ulib/libuserxe.a(libuserxe_a-ucvext.o)
 .data          0x00101786        0x6 ../ulib/libuserxe.a(libuserxe_a-ucvext12.o)
 .data          0x0010178c        0x0 ../ulib/libuserxe.a(libuserxe_a-ucvext2.o)
 .data          0x0010178c        0x0 ../ulib/libuserxe.a(libuserxe_a-udos2.o)
 .data          0x0010178c       0x78 ../ulib/libuserxe.a(libuserxe_a-uedit2.o)
 .data          0x00101804       0x38 ../ulib/libuserxe.a(libuserxe_a-uehl.o)
 .data          0x0010183c        0x0 ../ulib/libuserxe.a(libuserxe_a-ufemsg.o)
 .data          0x0010183c        0xc ../ulib/libuserxe.a(libuserxe_a-ufile.o)
 .data          0x00101848        0x0 ../ulib/libuserxe.a(libuserxe_a-ufile1f.o)
 .data          0x00101848        0x0 ../ulib/libuserxe.a(libuserxe_a-ufile1l.o)
 .data          0x00101848       0x2c ../ulib/libuserxe.a(libuserxe_a-ufile1l2.o)
 .data          0x00101874        0x0 ../ulib/libuserxe.a(libuserxe_a-uproc22.o)
 .data          0x00101874       0x54 ../ulib/libuserxe.a(libuserxe_a-uproc3.o)
 .data          0x001018c8       0x54 ../ulib/libuserxe.a(libuserxe_a-ucalc.o)
 .data          0x0010191c        0x8 ../ulib/libuserxe.a(libuserxe_a-ucvebc3.o)
 .data          0x00101924        0x0 ../ulib/libuserxe.a(libuserxe_a-ucvebc4.o)
 .data          0x00101924        0x0 /usr/lib/gcc/arm-linux-gnueabihf/8/libgcc.a(_divsi3.o)
 .data          0x00101924        0x0 /usr/lib/gcc/arm-linux-gnueabihf/8/libgcc.a(_aeabi_ldivmod.o)
 .data          0x00101924        0x0 /usr/lib/gcc/arm-linux-gnueabihf/8/libgcc.a(_dvmd_lnx.o)
 .data          0x00101924        0x0 /usr/lib/gcc/arm-linux-gnueabihf/8/libgcc.a(_udivmoddi4.o)
 .data          0x00101924        0x0 //usr/lib/arm-linux-gnueabihf/libc_nonshared.a(elf-init.oS)
 .data          0x00101924        0x0 //usr/lib/arm-linux-gnueabihf/libc_nonshared.a(stat64.oS)
 .data          0x00101924        0x0 //usr/lib/arm-linux-gnueabihf/libc_nonshared.a(lstat64.oS)
 .data          0x00101924        0x0 /usr/lib/gcc/arm-linux-gnueabihf/8/crtend.o
 .data          0x00101924        0x0 /usr/lib/gcc/arm-linux-gnueabihf/8/../../../arm-linux-gnueabihf/crtn.o

.tm_clone_table
                0x00101924        0x0
 .tm_clone_table
                0x00101924        0x0 /usr/lib/gcc/arm-linux-gnueabihf/8/crtbegin.o
 .tm_clone_table
                0x00101924        0x0 /usr/lib/gcc/arm-linux-gnueabihf/8/crtend.o

.data1
 *(.data1)
                0x00101924                _edata = .
                [!provide]                PROVIDE (edata = .)
                0x00101924                . = .
                0x00101924                __bss_start = .
                0x00101924                __bss_start__ = .

.bss            0x00101928   0x144cdc
 *(.dynbss)
 .dynbss        0x00101928      0x230 /usr/lib/gcc/arm-linux-gnueabihf/8/../../../arm-linux-gnueabihf/crt1.o
                0x00101928                COLORS@@NCURSESW6_5.1.20000708
                0x0010192c                LINES@@NCURSES6_TINFO_5.0.19991023
                0x00101930                acs_map@@NCURSES6_TINFO_5.0.19991023
                0x00101b30                stdscr@@NCURSES6_TINFO_5.0.19991023
                0x00101b34                cur_term@@NCURSES6_TINFO_5.0.19991023
                0x00101b38                COLS@@NCURSES6_TINFO_5.0.19991023
                0x00101b3c                stdout@@GLIBC_2.4
                0x00101b40                COLOR_PAIRS@@NCURSESW6_5.1.20000708
                0x00101b48                stdin@@GLIBC_2.4
                0x00101b50                stderr@@GLIBC_2.4
                0x00101b54                newscr@@NCURSES6_TINFO_5.0.19991023
 *(.bss .bss.* .gnu.linkonce.b.*)
 .bss           0x00101b58        0x0 /usr/lib/gcc/arm-linux-gnueabihf/8/../../../arm-linux-gnueabihf/crt1.o
 .bss           0x00101b58        0x0 /usr/lib/gcc/arm-linux-gnueabihf/8/../../../arm-linux-gnueabihf/crti.o
 .bss           0x00101b58        0x1 /usr/lib/gcc/arm-linux-gnueabihf/8/crtbegin.o
 *fill*         0x00101b59        0x3 
 .bss           0x00101b5c      0x330 xutf8.o
 .bss           0x00101e8c        0xc ../ulib/libuserxe.a(libuserxe_a-ucvucs.o)
 .bss           0x00101e98        0x0 ../ulib/libuserxe.a(libuserxe_a-ucvucst.o)
 .bss           0x00101e98      0x2f9 ../ulib/libuserxe.a(libuserxe_a-udbcschk.o)
 .bss           0x00102191        0x0 ../ulib/libuserxe.a(libuserxe_a-udbcsck2.o)
 *fill*         0x00102191        0x3 
 .bss           0x00102194       0xd8 ../ulib/libuserxe.a(libuserxe_a-uedit.o)
 .bss           0x0010226c     0x40e4 ../ulib/libuserxe.a(libuserxe_a-uerr.o)
 .bss           0x00106350       0x34 ../ulib/libuserxe.a(libuserxe_a-ufile2.o)
 .bss           0x00106384       0x20 ../ulib/libuserxe.a(libuserxe_a-ufile2f.o)
 .bss           0x001063a4        0x4 ../ulib/libuserxe.a(libuserxe_a-ufile2l.o)
 .bss           0x001063a8        0x0 ../ulib/libuserxe.a(libuserxe_a-ufile2l2.o)
 .bss           0x001063a8        0x8 ../ulib/libuserxe.a(libuserxe_a-ufile3.o)
 .bss           0x001063b0     0x100d ../ulib/libuserxe.a(libuserxe_a-ufile3f.o)
 *fill*         0x001073bd        0x3 
 .bss           0x001073c0     0x1034 ../ulib/libuserxe.a(libuserxe_a-ufile4.o)
 *fill*         0x001083f4        0x4 
 .bss           0x001083f8       0x5d ../ulib/libuserxe.a(libuserxe_a-ufile5.o)
 *fill*         0x00108455        0x3 
 .bss           0x00108458    0x64d00 ../ulib/libuserxe.a(libuserxe_a-uftp.o)
 .bss           0x0016d158        0x8 ../ulib/libuserxe.a(libuserxe_a-uftp2.o)
 .bss           0x0016d160        0x0 ../ulib/libuserxe.a(libuserxe_a-uftp3.o)
 .bss           0x0016d160        0x4 ../ulib/libuserxe.a(libuserxe_a-ugcclib.o)
 .bss           0x0016d164       0xf4 ../ulib/libuserxe.a(libuserxe_a-ukbdl.o)
                0x0016d164                Swcstat
 .bss           0x0016d258     0x5808 ../ulib/libuserxe.a(libuserxe_a-ukbdlnxc.o)
 .bss           0x00172a60        0x8 ../ulib/libuserxe.a(libuserxe_a-ukbdlnxm.o)
 .bss           0x00172a68      0x205 ../ulib/libuserxe.a(libuserxe_a-uparse.o)
 *fill*         0x00172c6d        0x3 
 .bss           0x00172c70       0x1c ../ulib/libuserxe.a(libuserxe_a-uproc.o)
                0x00172c70                Sserverstat
                0x00172c74                Scmdservercallback
                0x00172c78                Scallbackparm
                0x00172c7c                Scmdserverchildpid
 .bss           0x00172c8c        0x4 ../ulib/libuserxe.a(libuserxe_a-uproc2.o)
 .bss           0x00172c90       0x1c ../ulib/libuserxe.a(libuserxe_a-uproc4.o)
 .bss           0x00172cac        0x0 ../ulib/libuserxe.a(libuserxe_a-uque.o)
 .bss           0x00172cac        0x0 ../ulib/libuserxe.a(libuserxe_a-ustrcpy.o)
 .bss           0x00172cac        0x0 ../ulib/libuserxe.a(libuserxe_a-ustring.o)
 .bss           0x00172cac        0x0 ../ulib/libuserxe.a(libuserxe_a-utf.o)
 .bss           0x00172cac       0x98 ../ulib/libuserxe.a(libuserxe_a-utf2.o)
 .bss           0x00172d44       0x14 ../ulib/libuserxe.a(libuserxe_a-utf22.o)
 .bss           0x00172d58        0x8 ../ulib/libuserxe.a(libuserxe_a-utf3.o)
 .bss           0x00172d60        0x4 ../ulib/libuserxe.a(libuserxe_a-utf4.o)
 .bss           0x00172d64     0x1170 ../ulib/libuserxe.a(libuserxe_a-utrace.o)
 .bss           0x00173ed4       0x20 ../ulib/libuserxe.a(libuserxe_a-uunxsub.o)
 .bss           0x00173ef4       0x58 ../ulib/libuserxe.a(libuserxe_a-uviom.o)
 .bss           0x00173f4c      0x508 ../ulib/libuserxe.a(libuserxe_a-uviol.o)
 .bss           0x00174454        0xc ../ulib/libuserxe.a(libuserxe_a-u3270.o)
 .bss           0x00174460       0x10 ../ulib/libuserxe.a(libuserxe_a-u32702.o)
 .bss           0x00174470     0x1208 ../ulib/libuserxe.a(libuserxe_a-u32703.o)
 .bss           0x00175678        0x0 ../ulib/libuserxe.a(libuserxe_a-uabend.o)
 .bss           0x00175678       0x84 ../ulib/libuserxe.a(libuserxe_a-uallocl.o)
 .bss           0x001756fc        0x0 ../ulib/libuserxe.a(libuserxe_a-ucalc2.o)
 .bss           0x001756fc      0x790 ../ulib/libuserxe.a(libuserxe_a-ucvebc.o)
 .bss           0x00175e8c       0x10 ../ulib/libuserxe.a(libuserxe_a-ucvebc2.o)
 .bss           0x00175e9c        0x0 ../ulib/libuserxe.a(libuserxe_a-ucvebct.o)
 .bss           0x00175e9c     0x1cd4 ../ulib/libuserxe.a(libuserxe_a-ucvext.o)
 .bss           0x00177b70       0x24 ../ulib/libuserxe.a(libuserxe_a-ucvext12.o)
 .bss           0x00177b94        0xc ../ulib/libuserxe.a(libuserxe_a-ucvext2.o)
 .bss           0x00177ba0        0x0 ../ulib/libuserxe.a(libuserxe_a-udos2.o)
 .bss           0x00177ba0      0x268 ../ulib/libuserxe.a(libuserxe_a-uedit2.o)
 .bss           0x00177e08       0x64 ../ulib/libuserxe.a(libuserxe_a-uehl.o)
 .bss           0x00177e6c       0x20 ../ulib/libuserxe.a(libuserxe_a-ufemsg.o)
 .bss           0x00177e8c       0x18 ../ulib/libuserxe.a(libuserxe_a-ufile.o)
 .bss           0x00177ea4        0x4 ../ulib/libuserxe.a(libuserxe_a-ufile1f.o)
 .bss           0x00177ea8    0x64658 ../ulib/libuserxe.a(libuserxe_a-ufile1l.o)
 .bss           0x001dc500        0x4 ../ulib/libuserxe.a(libuserxe_a-ufile1l2.o)
 .bss           0x001dc504       0x18 ../ulib/libuserxe.a(libuserxe_a-uproc22.o)
 .bss           0x001dc51c       0x10 ../ulib/libuserxe.a(libuserxe_a-uproc3.o)
 .bss           0x001dc52c      0x114 ../ulib/libuserxe.a(libuserxe_a-ucalc.o)
 .bss           0x001dc640       0x34 ../ulib/libuserxe.a(libuserxe_a-ucvebc3.o)
 .bss           0x001dc674        0x4 ../ulib/libuserxe.a(libuserxe_a-ucvebc4.o)
 .bss           0x001dc678        0x0 /usr/lib/gcc/arm-linux-gnueabihf/8/libgcc.a(_divsi3.o)
 .bss           0x001dc678        0x0 /usr/lib/gcc/arm-linux-gnueabihf/8/libgcc.a(_aeabi_ldivmod.o)
 .bss           0x001dc678        0x0 /usr/lib/gcc/arm-linux-gnueabihf/8/libgcc.a(_dvmd_lnx.o)
 .bss           0x001dc678        0x0 /usr/lib/gcc/arm-linux-gnueabihf/8/libgcc.a(_udivmoddi4.o)
 .bss           0x001dc678        0x0 //usr/lib/arm-linux-gnueabihf/libc_nonshared.a(elf-init.oS)
 .bss           0x001dc678        0x0 //usr/lib/arm-linux-gnueabihf/libc_nonshared.a(stat64.oS)
 .bss           0x001dc678        0x0 //usr/lib/arm-linux-gnueabihf/libc_nonshared.a(lstat64.oS)
 .bss           0x001dc678        0x0 /usr/lib/gcc/arm-linux-gnueabihf/8/crtend.o
 .bss           0x001dc678        0x0 /usr/lib/gcc/arm-linux-gnueabihf/8/../../../arm-linux-gnueabihf/crtn.o
 *(COMMON)
 COMMON         0x001dc678        0xc ../ulib/libuserxe.a(libuserxe_a-udbcschk.o)
                0x001dc678                Gudbcschk_flag
                0x001dc67c                Gudbcschk_width0top
                0x001dc680                Sdbcschk_hkopt
 COMMON         0x001dc684        0x5 ../ulib/libuserxe.a(libuserxe_a-uerr.o)
                0x001dc684                Guerropt2
                0x001dc688                Guerropt
 *fill*         0x001dc689        0x3 
 COMMON         0x001dc68c       0x88 ../ulib/libuserxe.a(libuserxe_a-uftp2.o)
                0x001dc68c                Gftperr
                0x001dc690                Gftpopt
                0x001dc694                Gftpclient
 COMMON         0x001dc714        0x8 ../ulib/libuserxe.a(libuserxe_a-ukbdl.o)
                0x001dc714                Sphiconv
                0x001dc718                Gukbdl_flag
 COMMON         0x001dc71c        0x8 ../ulib/libuserxe.a(libuserxe_a-uproc.o)
                0x001dc71c                Sfdpiper
                0x001dc720                Sfdpipew
 COMMON         0x001dc724        0xc ../ulib/libuserxe.a(libuserxe_a-utf.o)
                0x001dc724                Gulibutfmode
                0x001dc728                Gutfrc
                0x001dc72c                Gutfcombaltch
 COMMON         0x001dc730    0x60000 ../ulib/libuserxe.a(libuserxe_a-utf22.o)
                0x001dc730                Gucs2ddmap_i2u
                0x001fc730                Gucs2ddmap
 COMMON         0x0023c730      0x104 ../ulib/libuserxe.a(libuserxe_a-utrace.o)
                0x0023c730                Gtracehdr
                0x0023c830                Slockhandle
 COMMON         0x0023c834       0x24 ../ulib/libuserxe.a(libuserxe_a-uviom.o)
                0x0023c834                Guviombuffu
                0x0023c838                Guviomopt
                0x0023c83c                Guviomoptstr
                0x0023c840                Guviomopt2
                0x0023c844                Gw95buffopt
                0x0023c848                Guviomoptstrucs
 COMMON         0x0023c858        0x4 ../ulib/libuserxe.a(libuserxe_a-uviol.o)
                0x0023c858                Guviol_flag
 COMMON         0x0023c85c        0x8 ../ulib/libuserxe.a(libuserxe_a-uallocl.o)
                0x0023c85c                Gualloc_amount
                0x0023c860                Gualloc16_amount
 COMMON         0x0023c864     0x9c48 ../ulib/libuserxe.a(libuserxe_a-ucvebc.o)
                0x0023c864                Gucvebchctr
                0x0023c868                Gucvebch
                0x002464a8                Gucvebc_stat
 COMMON         0x002464ac       0x10 ../ulib/libuserxe.a(libuserxe_a-ucvebc2.o)
                0x002464ac                Snewoldctr
                0x002464b0                Se2stctr
                0x002464b4                Sduptctr
                0x002464b8                Ss2etctr
 COMMON         0x002464bc        0x8 ../ulib/libuserxe.a(libuserxe_a-ufile.o)
                0x002464bc                Gufile_opt
                0x002464c0                Gufile_nomsg
 COMMON         0x002464c4      0x140 ../ulib/libuserxe.a(libuserxe_a-ucalc.o)
                0x002464c4                Gucalc_result
                0x00246604                . = ALIGN ((. != 0x0)?0x4:0x1)
                0x00246604                _bss_end__ = .
                0x00246604                __bss_end__ = .
                0x00246604                . = ALIGN (0x4)
                0x00246604                . = SEGMENT_START ("ldata-segment", .)
                0x00246604                . = ALIGN (0x4)
                0x00246604                __end__ = .
                0x00246604                _end = .
                [!provide]                PROVIDE (end = .)
                0x00246604                . = DATA_SEGMENT_END (.)

.stab
 *(.stab)

.stabstr
 *(.stabstr)

.stab.excl
 *(.stab.excl)

.stab.exclstr
 *(.stab.exclstr)

.stab.index
 *(.stab.index)

.stab.indexstr
 *(.stab.indexstr)

.comment        0x00000000       0x23
 *(.comment)
 .comment       0x00000000       0x23 /usr/lib/gcc/arm-linux-gnueabihf/8/crtbegin.o
                                 0x24 (size before relaxing)
 .comment       0x00000023       0x24 xutf8.o
 .comment       0x00000023       0x24 ../ulib/libuserxe.a(libuserxe_a-ucvucs.o)
 .comment       0x00000023       0x24 ../ulib/libuserxe.a(libuserxe_a-ucvucst.o)
 .comment       0x00000023       0x24 ../ulib/libuserxe.a(libuserxe_a-udbcschk.o)
 .comment       0x00000023       0x24 ../ulib/libuserxe.a(libuserxe_a-udbcsck2.o)
 .comment       0x00000023       0x24 ../ulib/libuserxe.a(libuserxe_a-uedit.o)
 .comment       0x00000023       0x24 ../ulib/libuserxe.a(libuserxe_a-uerr.o)
 .comment       0x00000023       0x24 ../ulib/libuserxe.a(libuserxe_a-ufile2.o)
 .comment       0x00000023       0x24 ../ulib/libuserxe.a(libuserxe_a-ufile2f.o)
 .comment       0x00000023       0x24 ../ulib/libuserxe.a(libuserxe_a-ufile2l.o)
 .comment       0x00000023       0x24 ../ulib/libuserxe.a(libuserxe_a-ufile2l2.o)
 .comment       0x00000023       0x24 ../ulib/libuserxe.a(libuserxe_a-ufile3.o)
 .comment       0x00000023       0x24 ../ulib/libuserxe.a(libuserxe_a-ufile3f.o)
 .comment       0x00000023       0x24 ../ulib/libuserxe.a(libuserxe_a-ufile4.o)
 .comment       0x00000023       0x24 ../ulib/libuserxe.a(libuserxe_a-ufile5.o)
 .comment       0x00000023       0x24 ../ulib/libuserxe.a(libuserxe_a-uftp.o)
 .comment       0x00000023       0x24 ../ulib/libuserxe.a(libuserxe_a-uftp2.o)
 .comment       0x00000023       0x24 ../ulib/libuserxe.a(libuserxe_a-uftp3.o)
 .comment       0x00000023       0x24 ../ulib/libuserxe.a(libuserxe_a-ugcclib.o)
 .comment       0x00000023       0x24 ../ulib/libuserxe.a(libuserxe_a-ukbdl.o)
 .comment       0x00000023       0x24 ../ulib/libuserxe.a(libuserxe_a-ukbdlnxc.o)
 .comment       0x00000023       0x24 ../ulib/libuserxe.a(libuserxe_a-ukbdlnxm.o)
 .comment       0x00000023       0x24 ../ulib/libuserxe.a(libuserxe_a-uparse.o)
 .comment       0x00000023       0x24 ../ulib/libuserxe.a(libuserxe_a-uproc.o)
 .comment       0x00000023       0x24 ../ulib/libuserxe.a(libuserxe_a-uproc2.o)
 .comment       0x00000023       0x24 ../ulib/libuserxe.a(libuserxe_a-uproc4.o)
 .comment       0x00000023       0x24 ../ulib/libuserxe.a(libuserxe_a-uque.o)
 .comment       0x00000023       0x24 ../ulib/libuserxe.a(libuserxe_a-ustrcpy.o)
 .comment       0x00000023       0x24 ../ulib/libuserxe.a(libuserxe_a-ustring.o)
 .comment       0x00000023       0x24 ../ulib/libuserxe.a(libuserxe_a-utf.o)
 .comment       0x00000023       0x24 ../ulib/libuserxe.a(libuserxe_a-utf2.o)
 .comment       0x00000023       0x24 ../ulib/libuserxe.a(libuserxe_a-utf22.o)
 .comment       0x00000023       0x24 ../ulib/libuserxe.a(libuserxe_a-utf3.o)
 .comment       0x00000023       0x24 ../ulib/libuserxe.a(libuserxe_a-utf4.o)
 .comment       0x00000023       0x24 ../ulib/libuserxe.a(libuserxe_a-utrace.o)
 .comment       0x00000023       0x24 ../ulib/libuserxe.a(libuserxe_a-uunxsub.o)
 .comment       0x00000023       0x24 ../ulib/libuserxe.a(libuserxe_a-uviom.o)
 .comment       0x00000023       0x24 ../ulib/libuserxe.a(libuserxe_a-uviol.o)
 .comment       0x00000023       0x24 ../ulib/libuserxe.a(libuserxe_a-u3270.o)
 .comment       0x00000023       0x24 ../ulib/libuserxe.a(libuserxe_a-u32702.o)
 .comment       0x00000023       0x24 ../ulib/libuserxe.a(libuserxe_a-u32703.o)
 .comment       0x00000023       0x24 ../ulib/libuserxe.a(libuserxe_a-uabend.o)
 .comment       0x00000023       0x24 ../ulib/libuserxe.a(libuserxe_a-uallocl.o)
 .comment       0x00000023       0x24 ../ulib/libuserxe.a(libuserxe_a-ucalc2.o)
 .comment       0x00000023       0x24 ../ulib/libuserxe.a(libuserxe_a-ucvebc.o)
 .comment       0x00000023       0x24 ../ulib/libuserxe.a(libuserxe_a-ucvebc2.o)
 .comment       0x00000023       0x24 ../ulib/libuserxe.a(libuserxe_a-ucvebct.o)
 .comment       0x00000023       0x24 ../ulib/libuserxe.a(libuserxe_a-ucvext.o)
 .comment       0x00000023       0x24 ../ulib/libuserxe.a(libuserxe_a-ucvext12.o)
 .comment       0x00000023       0x24 ../ulib/libuserxe.a(libuserxe_a-ucvext2.o)
 .comment       0x00000023       0x24 ../ulib/libuserxe.a(libuserxe_a-udos2.o)
 .comment       0x00000023       0x24 ../ulib/libuserxe.a(libuserxe_a-uedit2.o)
 .comment       0x00000023       0x24 ../ulib/libuserxe.a(libuserxe_a-uehl.o)
 .comment       0x00000023       0x24 ../ulib/libuserxe.a(libuserxe_a-ufemsg.o)
 .comment       0x00000023       0x24 ../ulib/libuserxe.a(libuserxe_a-ufile.o)
 .comment       0x00000023       0x24 ../ulib/libuserxe.a(libuserxe_a-ufile1f.o)
 .comment       0x00000023       0x24 ../ulib/libuserxe.a(libuserxe_a-ufile1l.o)
 .comment       0x00000023       0x24 ../ulib/libuserxe.a(libuserxe_a-ufile1l2.o)
 .comment       0x00000023       0x24 ../ulib/libuserxe.a(libuserxe_a-uproc22.o)
 .comment       0x00000023       0x24 ../ulib/libuserxe.a(libuserxe_a-uproc3.o)
 .comment       0x00000023       0x24 ../ulib/libuserxe.a(libuserxe_a-ucalc.o)
 .comment       0x00000023       0x24 ../ulib/libuserxe.a(libuserxe_a-ucvebc3.o)
 .comment       0x00000023       0x24 ../ulib/libuserxe.a(libuserxe_a-ucvebc4.o)
 .comment       0x00000023       0x24 /usr/lib/gcc/arm-linux-gnueabihf/8/crtend.o

.ARM.attributes
                0x00000000       0x2f
 .ARM.attributes
                0x00000000       0x2f /usr/lib/gcc/arm-linux-gnueabihf/8/../../../arm-linux-gnueabihf/crt1.o
 .ARM.attributes
                0x0000002f       0x23 /usr/lib/gcc/arm-linux-gnueabihf/8/../../../arm-linux-gnueabihf/crti.o
 .ARM.attributes
                0x00000052       0x2f /usr/lib/gcc/arm-linux-gnueabihf/8/crtbegin.o
 .ARM.attributes
                0x00000081       0x2f xutf8.o
 .ARM.attributes
                0x000000b0       0x2f ../ulib/libuserxe.a(libuserxe_a-ucvucs.o)
 .ARM.attributes
                0x000000df       0x2f ../ulib/libuserxe.a(libuserxe_a-ucvucst.o)
 .ARM.attributes
                0x0000010e       0x2f ../ulib/libuserxe.a(libuserxe_a-udbcschk.o)
 .ARM.attributes
                0x0000013d       0x2f ../ulib/libuserxe.a(libuserxe_a-udbcsck2.o)
 .ARM.attributes
                0x0000016c       0x2f ../ulib/libuserxe.a(libuserxe_a-uedit.o)
 .ARM.attributes
                0x0000019b       0x2f ../ulib/libuserxe.a(libuserxe_a-uerr.o)
 .ARM.attributes
                0x000001ca       0x2f ../ulib/libuserxe.a(libuserxe_a-ufile2.o)
 .ARM.attributes
                0x000001f9       0x2f ../ulib/libuserxe.a(libuserxe_a-ufile2f.o)
 .ARM.attributes
                0x00000228       0x2f ../ulib/libuserxe.a(libuserxe_a-ufile2l.o)
 .ARM.attributes
                0x00000257       0x2f ../ulib/libuserxe.a(libuserxe_a-ufile2l2.o)
 .ARM.attributes
                0x00000286       0x2f ../ulib/libuserxe.a(libuserxe_a-ufile3.o)
 .ARM.attributes
                0x000002b5       0x2f ../ulib/libuserxe.a(libuserxe_a-ufile3f.o)
 .ARM.attributes
                0x000002e4       0x2f ../ulib/libuserxe.a(libuserxe_a-ufile4.o)
 .ARM.attributes
                0x00000313       0x2f ../ulib/libuserxe.a(libuserxe_a-ufile5.o)
 .ARM.attributes
                0x00000342       0x2f ../ulib/libuserxe.a(libuserxe_a-uftp.o)
 .ARM.attributes
                0x00000371       0x2f ../ulib/libuserxe.a(libuserxe_a-uftp2.o)
 .ARM.attributes
                0x000003a0       0x2f ../ulib/libuserxe.a(libuserxe_a-uftp3.o)
 .ARM.attributes
                0x000003cf       0x2f ../ulib/libuserxe.a(libuserxe_a-ugcclib.o)
 .ARM.attributes
                0x000003fe       0x2f ../ulib/libuserxe.a(libuserxe_a-ukbdl.o)
 .ARM.attributes
                0x0000042d       0x2f ../ulib/libuserxe.a(libuserxe_a-ukbdlnxc.o)
 .ARM.attributes
                0x0000045c       0x2f ../ulib/libuserxe.a(libuserxe_a-ukbdlnxm.o)
 .ARM.attributes
                0x0000048b       0x2f ../ulib/libuserxe.a(libuserxe_a-uparse.o)
 .ARM.attributes
                0x000004ba       0x2f ../ulib/libuserxe.a(libuserxe_a-uproc.o)
 .ARM.attributes
                0x000004e9       0x2f ../ulib/libuserxe.a(libuserxe_a-uproc2.o)
 .ARM.attributes
                0x00000518       0x2f ../ulib/libuserxe.a(libuserxe_a-uproc4.o)
 .ARM.attributes
                0x00000547       0x2f ../ulib/libuserxe.a(libuserxe_a-uque.o)
 .ARM.attributes
                0x00000576       0x2f ../ulib/libuserxe.a(libuserxe_a-ustrcpy.o)
 .ARM.attributes
                0x000005a5       0x2f ../ulib/libuserxe.a(libuserxe_a-ustring.o)
 .ARM.attributes
                0x000005d4       0x2f ../ulib/libuserxe.a(libuserxe_a-utf.o)
 .ARM.attributes
                0x00000603       0x2f ../ulib/libuserxe.a(libuserxe_a-utf2.o)
 .ARM.attributes
                0x00000632       0x2f ../ulib/libuserxe.a(libuserxe_a-utf22.o)
 .ARM.attributes
                0x00000661       0x2f ../ulib/libuserxe.a(libuserxe_a-utf3.o)
 .ARM.attributes
                0x00000690       0x2f ../ulib/libuserxe.a(libuserxe_a-utf4.o)
 .ARM.attributes
                0x000006bf       0x2f ../ulib/libuserxe.a(libuserxe_a-utrace.o)
 .ARM.attributes
                0x000006ee       0x2f ../ulib/libuserxe.a(libuserxe_a-uunxsub.o)
 .ARM.attributes
                0x0000071d       0x2f ../ulib/libuserxe.a(libuserxe_a-uviom.o)
 .ARM.attributes
                0x0000074c       0x2f ../ulib/libuserxe.a(libuserxe_a-uviol.o)
 .ARM.attributes
                0x0000077b       0x2f ../ulib/libuserxe.a(libuserxe_a-u3270.o)
 .ARM.attributes
                0x000007aa       0x2f ../ulib/libuserxe.a(libuserxe_a-u32702.o)
 .ARM.attributes
                0x000007d9       0x2f ../ulib/libuserxe.a(libuserxe_a-u32703.o)
 .ARM.attributes
                0x00000808       0x2f ../ulib/libuserxe.a(libuserxe_a-uabend.o)
 .ARM.attributes
                0x00000837       0x2f ../ulib/libuserxe.a(libuserxe_a-uallocl.o)
 .ARM.attributes
                0x00000866       0x2f ../ulib/libuserxe.a(libuserxe_a-ucalc2.o)
 .ARM.attributes
                0x00000895       0x2f ../ulib/libuserxe.a(libuserxe_a-ucvebc.o)
 .ARM.attributes
                0x000008c4       0x2f ../ulib/libuserxe.a(libuserxe_a-ucvebc2.o)
 .ARM.attributes
                0x000008f3       0x2f ../ulib/libuserxe.a(libuserxe_a-ucvebct.o)
 .ARM.attributes
                0x00000922       0x2f ../ulib/libuserxe.a(libuserxe_a-ucvext.o)
 .ARM.attributes
                0x00000951       0x2f ../ulib/libuserxe.a(libuserxe_a-ucvext12.o)
 .ARM.attributes
                0x00000980       0x2f ../ulib/libuserxe.a(libuserxe_a-ucvext2.o)
 .ARM.attributes
                0x000009af       0x2f ../ulib/libuserxe.a(libuserxe_a-udos2.o)
 .ARM.attributes
                0x000009de       0x2f ../ulib/libuserxe.a(libuserxe_a-uedit2.o)
 .ARM.attributes
                0x00000a0d       0x2f ../ulib/libuserxe.a(libuserxe_a-uehl.o)
 .ARM.attributes
                0x00000a3c       0x2f ../ulib/libuserxe.a(libuserxe_a-ufemsg.o)
 .ARM.attributes
                0x00000a6b       0x2f ../ulib/libuserxe.a(libuserxe_a-ufile.o)
 .ARM.attributes
                0x00000a9a       0x2f ../ulib/libuserxe.a(libuserxe_a-ufile1f.o)
 .ARM.attributes
                0x00000ac9       0x2f ../ulib/libuserxe.a(libuserxe_a-ufile1l.o)
 .ARM.attributes
                0x00000af8       0x2f ../ulib/libuserxe.a(libuserxe_a-ufile1l2.o)
 .ARM.attributes
                0x00000b27       0x2f ../ulib/libuserxe.a(libuserxe_a-uproc22.o)
 .ARM.attributes
                0x00000b56       0x2f ../ulib/libuserxe.a(libuserxe_a-uproc3.o)
 .ARM.attributes
                0x00000b85       0x2f ../ulib/libuserxe.a(libuserxe_a-ucalc.o)
 .ARM.attributes
                0x00000bb4       0x2f ../ulib/libuserxe.a(libuserxe_a-ucvebc3.o)
 .ARM.attributes
                0x00000be3       0x2f ../ulib/libuserxe.a(libuserxe_a-ucvebc4.o)
 .ARM.attributes
                0x00000c12       0x1d /usr/lib/gcc/arm-linux-gnueabihf/8/libgcc.a(_divsi3.o)
 .ARM.attributes
                0x00000c2f       0x1d /usr/lib/gcc/arm-linux-gnueabihf/8/libgcc.a(_aeabi_ldivmod.o)
 .ARM.attributes
                0x00000c4c       0x1d /usr/lib/gcc/arm-linux-gnueabihf/8/libgcc.a(_dvmd_lnx.o)
 .ARM.attributes
                0x00000c69       0x2f /usr/lib/gcc/arm-linux-gnueabihf/8/libgcc.a(_udivmoddi4.o)
 .ARM.attributes
                0x00000c98       0x31 //usr/lib/arm-linux-gnueabihf/libc_nonshared.a(elf-init.oS)
 .ARM.attributes
                0x00000cc9       0x31 //usr/lib/arm-linux-gnueabihf/libc_nonshared.a(stat64.oS)
 .ARM.attributes
                0x00000cfa       0x31 //usr/lib/arm-linux-gnueabihf/libc_nonshared.a(lstat64.oS)
 .ARM.attributes
                0x00000d2b       0x2f /usr/lib/gcc/arm-linux-gnueabihf/8/crtend.o
 .ARM.attributes
                0x00000d5a       0x23 /usr/lib/gcc/arm-linux-gnueabihf/8/../../../arm-linux-gnueabihf/crtn.o

.debug
 *(.debug)

.line
 *(.line)

.debug_srcinfo
 *(.debug_srcinfo)

.debug_sfnames
 *(.debug_sfnames)

.debug_aranges
 *(.debug_aranges)

.debug_pubnames
 *(.debug_pubnames)

.debug_info
 *(.debug_info .gnu.linkonce.wi.*)

.debug_abbrev
 *(.debug_abbrev)

.debug_line
 *(.debug_line .debug_line.* .debug_line_end)

.debug_frame
 *(.debug_frame)

.debug_str
 *(.debug_str)

.debug_loc
 *(.debug_loc)

.debug_macinfo
 *(.debug_macinfo)

.debug_weaknames
 *(.debug_weaknames)

.debug_funcnames
 *(.debug_funcnames)

.debug_typenames
 *(.debug_typenames)

.debug_varnames
 *(.debug_varnames)

.debug_pubtypes
 *(.debug_pubtypes)

.debug_ranges
 *(.debug_ranges)

.debug_macro
 *(.debug_macro)

.debug_addr
 *(.debug_addr)

.gnu.attributes
 *(.gnu.attributes)

.note.gnu.arm.ident
 *(.note.gnu.arm.ident)

/DISCARD/
 *(.note.GNU-stack)
 *(.gnu_debuglink)
 *(.gnu.lto_*)
OUTPUT(xutf8 elf32-littlearm)
