Archive member included to satisfy reference by file (symbol)

./xe/libxxe.a(libxxe_a-xe.o)  gxe-xxekbd.o (Gopt)
./xe/libxxe.a(libxxe_a-xecap.o)
                              gxe-xxexei2.o (capreset)
./xe/libxxe.a(libxxe_a-xecap2.o)
                              ./xe/libxxe.a(libxxe_a-xecap.o) (capcutregion)
./xe/libxxe.a(libxxe_a-xechar.o)
                              ./xe/libxxe.a(libxxe_a-xecap.o) (charfldedit)
./xe/libxxe.a(libxxe_a-xechar12.o)
                              ./xe/libxxe.a(libxxe_a-xechar.o) (charfieldfullerr)
./xe/libxxe.a(libxxe_a-xechar13.o)
                              ./xe/libxxe.a(libxxe_a-xechar.o) (charfldeditebc)
./xe/libxxe.a(libxxe_a-xechar2.o)
                              ./xe/libxxe.a(libxxe_a-xecap2.o) (charlcmdsplit)
./xe/libxxe.a(libxxe_a-xecsr.o)
                              gxe-xxexei3.o (csrhomepos)
./xe/libxxe.a(libxxe_a-xedcmd.o)
                              ./xe/libxxe.a(libxxe_a-xe.o) (dcmdinit)
./xe/libxxe.a(libxxe_a-xedcmd2.o)
                              ./xe/libxxe.a(libxxe_a-xedcmd.o) (dcmd_wxp)
./xe/libxxe.a(libxxe_a-xedcmd3.o)
                              ./xe/libxxe.a(libxxe_a-xedcmd.o) (dcmd_rlogin)
./xe/libxxe.a(libxxe_a-xedcmd4.o)
                              ./xe/libxxe.a(libxxe_a-xedcmd2.o) (Gdcmdtempf)
./xe/libxxe.a(libxxe_a-xedir2.o)
                              ./xe/libxxe.a(libxxe_a-xedcmd.o) (dirattrbit)
./xe/libxxe.a(libxxe_a-xedir3.o)
                              ./xe/libxxe.a(libxxe_a-xedir2.o) (Gdir3status)
./xe/libxxe.a(libxxe_a-xedir4.o)
                              ./xe/libxxe.a(libxxe_a-xedir2.o) (dirgetdesc)
./xe/libxxe.a(libxxe_a-xedlcmd.o)
                              ./xe/libxxe.a(libxxe_a-xedir3.o) (dlcmdmain)
./xe/libxxe.a(libxxe_a-xedlcmd2.o)
                              ./xe/libxxe.a(libxxe_a-xedlcmd.o) (dlcmdselect)
./xe/libxxe.a(libxxe_a-xedlcmd3.o)
                              ./xe/libxxe.a(libxxe_a-xedlcmd.o) (dlcmddeleter)
./xe/libxxe.a(libxxe_a-xedlcmd4.o)
                              ./xe/libxxe.a(libxxe_a-xe.o) (dlcmdundelinit)
./xe/libxxe.a(libxxe_a-xedlcmd5.o)
                              ./xe/libxxe.a(libxxe_a-xedlcmd2.o) (dlcmdeditenq)
./xe/libxxe.a(libxxe_a-xedlcmd6.o)
                              ./xe/libxxe.a(libxxe_a-xedlcmd.o) (dlcmdaclist)
./xe/libxxe.a(libxxe_a-xeebc.o)
                              ./xe/libxxe.a(libxxe_a-xedcmd2.o) (Gebcstat)
./xe/libxxe.a(libxxe_a-xeerr.o)
                              ./xe/libxxe.a(libxxe_a-xeebc.o) (xeerrmsg)
./xe/libxxe.a(libxxe_a-xefcmd.o)
                              ./xe/libxxe.a(libxxe_a-xecap.o) (fcmdfileout)
./xe/libxxe.a(libxxe_a-xefcmd22.o)
                              ./xe/libxxe.a(libxxe_a-xedcmd2.o) (fcmdlabelerr)
./xe/libxxe.a(libxxe_a-xefcmd23.o)
                              ./xe/libxxe.a(libxxe_a-xeerr.o) (fcmdsearchoncmdbuff)
./xe/libxxe.a(libxxe_a-xefcmd25.o)
                              ./xe/libxxe.a(libxxe_a-xefcmd22.o) (fcmdrfind)
./xe/libxxe.a(libxxe_a-xefcmd26.o)
                              ./xe/libxxe.a(libxxe_a-xefcmd25.o) (linesrchstring)
./xe/libxxe.a(libxxe_a-xefcmd27.o)
                              ./xe/libxxe.a(libxxe_a-xefcmd25.o) (fcmdgrepcomp)
./xe/libxxe.a(libxxe_a-xefcmd3.o)
                              ./xe/libxxe.a(libxxe_a-xecap.o) (fcmdisrtline)
./xe/libxxe.a(libxxe_a-xefcmd4.o)
                              ./xe/libxxe.a(libxxe_a-xecap.o) (fcmdgetlabparm)
./xe/libxxe.a(libxxe_a-xefcmd42.o)
                              ./xe/libxxe.a(libxxe_a-xechar2.o) (fcmdsplit)
./xe/libxxe.a(libxxe_a-xefcmd43.o)
                              ./xe/libxxe.a(libxxe_a-xefcmd42.o) (Gswebcfile_fc43)
./xe/libxxe.a(libxxe_a-xefcmd5.o)
                              ./xe/libxxe.a(libxxe_a-xefcmd26.o) (fcmdallocmfwt)
./xe/libxxe.a(libxxe_a-xefcmd6.o)
                              ./xe/libxxe.a(libxxe_a-xefcmd4.o) (fcmdgetabrange)
./xe/libxxe.a(libxxe_a-xefcmd7.o)
                              ./xe/libxxe.a(libxxe_a-xe.o) (funcsp_init)
./xe/libxxe.a(libxxe_a-xefile.o)
                              ./xe/libxxe.a(libxxe_a-xe.o) (fileinit)
./xe/libxxe.a(libxxe_a-xefile12.o)
                              ./xe/libxxe.a(libxxe_a-xedcmd2.o) (filesave)
./xe/libxxe.a(libxxe_a-xefile13.o)
                              ./xe/libxxe.a(libxxe_a-xefile.o) (fileclosefree2)
./xe/libxxe.a(libxxe_a-xefile14.o)
                              ./xe/libxxe.a(libxxe_a-xefcmd.o) (setufgetsoptVparm2)
./xe/libxxe.a(libxxe_a-xefile15.o)
                              ./xe/libxxe.a(libxxe_a-xefcmd3.o) (filerenum)
./xe/libxxe.a(libxxe_a-xefile2.o)
                              ./xe/libxxe.a(libxxe_a-xefile.o) (filepopup)
./xe/libxxe.a(libxxe_a-xefile22.o)
                              ./xe/libxxe.a(libxxe_a-xefile12.o) (filehexprint)
./xe/libxxe.a(libxxe_a-xefile3.o)
                              ./xe/libxxe.a(libxxe_a-xedir3.o) (filescrollchk)
./xe/libxxe.a(libxxe_a-xefile4.o)
                              ./xe/libxxe.a(libxxe_a-xefile.o) (filecidterm)
./xe/libxxe.a(libxxe_a-xefile42.o)
                              ./xe/libxxe.a(libxxe_a-xefile4.o) (filetoplinelrecl)
./xe/libxxe.a(libxxe_a-xefile43.o)
                              ./xe/libxxe.a(libxxe_a-xefcmd3.o) (filecidclear)
./xe/libxxe.a(libxxe_a-xefile5.o)
                              ./xe/libxxe.a(libxxe_a-xefile12.o) (filetempname)
./xe/libxxe.a(libxxe_a-xefile6.o)
                              gxe-xxexei2.o (filechktabdbcs)
./xe/libxxe.a(libxxe_a-xefile7.o)
                              ./xe/libxxe.a(libxxe_a-xefcmd3.o) (filedrop)
./xe/libxxe.a(libxxe_a-xefsub.o)
                              ./xe/libxxe.a(libxxe_a-xefile12.o) (filebkupreopen)
./xe/libxxe.a(libxxe_a-xeftp.o)
                              ./xe/libxxe.a(libxxe_a-xefile14.o) (Gxehostsfnm)
./xe/libxxe.a(libxxe_a-xefunc.o)
                              ./xe/libxxe.a(libxxe_a-xe.o) (funcinit)
./xe/libxxe.a(libxxe_a-xefunc2.o)
                              ./xe/libxxe.a(libxxe_a-xefunc.o) (func_char)
./xe/libxxe.a(libxxe_a-xefunct.o)
                              gxe-xxexei.o (Gstrinputlen)
./xe/libxxe.a(libxxe_a-xefunct2.o)
                              ./xe/libxxe.a(libxxe_a-xefunct.o) (funct2init)
./xe/libxxe.a(libxxe_a-xegbl.o)
                              ./xe/libxxe.a(libxxe_a-xedlcmd4.o) (Guserid)
./xe/libxxe.a(libxxe_a-xeini.o)
                              ./xe/libxxe.a(libxxe_a-xe.o) (func_ini)
./xe/libxxe.a(libxxe_a-xeini2.o)
                              ./xe/libxxe.a(libxxe_a-xegbl.o) (ini2term)
./xe/libxxe.a(libxxe_a-xeini3.o)
                              ./xe/libxxe.a(libxxe_a-xe.o) (inisaveopt)
./xe/libxxe.a(libxxe_a-xekbd.o)
                              ./xe/libxxe.a(libxxe_a-xefile7.o) (Gkbdsckt)
./xe/libxxe.a(libxxe_a-xelcmd.o)
                              ./xe/libxxe.a(libxxe_a-xecap.o) (filelinecmd)
./xe/libxxe.a(libxxe_a-xelcmd2.o)
                              ./xe/libxxe.a(libxxe_a-xelcmd.o) (lcmdsingle)
./xe/libxxe.a(libxxe_a-xelcmd3.o)
                              ./xe/libxxe.a(libxxe_a-xelcmd.o) (lcmdpair)
./xe/libxxe.a(libxxe_a-xelcmd4.o)
                              ./xe/libxxe.a(libxxe_a-xelcmd2.o) (lcmdshiftbs)
./xe/libxxe.a(libxxe_a-xelcmd5.o)
                              ./xe/libxxe.a(libxxe_a-xelcmd.o) (lcmdpairs)
./xe/libxxe.a(libxxe_a-xemousel.o)
                              gxe-xxexei.o (Gwxescrollctr)
./xe/libxxe.a(libxxe_a-xeopt.o)
                              gxe-xxexei2.o (Goptopt)
./xe/libxxe.a(libxxe_a-xeopt2.o)
                              ./xe/libxxe.a(libxxe_a-xeini3.o) (xeopt2init)
./xe/libxxe.a(libxxe_a-xepan.o)
                              ./xe/libxxe.a(libxxe_a-xe.o) (paninit)
./xe/libxxe.a(libxxe_a-xepan2.o)
                              ./xe/libxxe.a(libxxe_a-xefunc2.o) (func_end_pan)
./xe/libxxe.a(libxxe_a-xepan22.o)
                              ./xe/libxxe.a(libxxe_a-xepan.o) (pan300init)
./xe/libxxe.a(libxxe_a-xepan23.o)
                              ./xe/libxxe.a(libxxe_a-xeini3.o) (panutiliniput)
./xe/libxxe.a(libxxe_a-xepan24.o)
                              ./xe/libxxe.a(libxxe_a-xepan22.o) (panfnlsetuppfh)
./xe/libxxe.a(libxxe_a-xepan3.o)
                              ./xe/libxxe.a(libxxe_a-xedir3.o) (func_linetop_pan)
./xe/libxxe.a(libxxe_a-xescr.o)
                              ./xe/libxxe.a(libxxe_a-xepan.o) (Gscrbuffheight)
./xe/libxxe.a(libxxe_a-xescr2.o)
                              ./xe/libxxe.a(libxxe_a-xedcmd.o) (scrconfirmchk)
./xe/libxxe.a(libxxe_a-xesub.o)
                              ./xe/libxxe.a(libxxe_a-xedcmd.o) (Gsubgblopt)
./xe/libxxe.a(libxxe_a-xesub2.o)
                              gxe-xxescr.o (xesub_cleardbcssplit)
./xe/libxxe.a(libxxe_a-xesyn.o)
                              gxe-xxexei.o (Gsynstyletbl)
./xe/libxxe.a(libxxe_a-xesyn2.o)
                              gxe-xxexei.o (Gsyncfg)
./xe/libxxe.a(libxxe_a-xetso.o)
                              ./xe/libxxe.a(libxxe_a-xeftp.o) (xetsoinit)
./xe/libxxe.a(libxxe_a-xetso2.o)
                              ./xe/libxxe.a(libxxe_a-xetso.o) (xetsotsocmdlogon)
./xe/libxxe.a(libxxe_a-xeundo.o)
                              ./xe/libxxe.a(libxxe_a-xechar.o) (undoupdate)
./xe/libxxe.a(libxxe_a-xeutf.o)
                              ./xe/libxxe.a(libxxe_a-xecap.o) (Gutfmode)
./xe/libxxe.a(libxxe_a-xeutf2.o)
                              gxe-xxexei2.o (xeutf_cvf2dd)
./xe/libxxe.a(libxxe_a-xecalc.o)
                              ./xe/libxxe.a(libxxe_a-xefunct.o) (func_bc)
./xe/libxxe.a(libxxe_a-xecalc2.o)
                              ./xe/libxxe.a(libxxe_a-xecap.o) (tc_blocksave)
./xe/libxxe.a(libxxe_a-xecalc21.o)
                              ./xe/libxxe.a(libxxe_a-xecalc2.o) (tc_ft1)
./xe/libxxe.a(libxxe_a-xecalc22.o)
                              ./xe/libxxe.a(libxxe_a-xecalc2.o) (tc_ft2)
./xe/libxxe.a(libxxe_a-xecalc3.o)
                              ./xe/libxxe.a(libxxe_a-xecalc2.o) (tc_format)
./xe/libxxe.a(libxxe_a-xedir.o)
                              ./xe/libxxe.a(libxxe_a-xedlcmd2.o) (func_end_dir)
./xe/libxxe.a(libxxe_a-xefcmd2.o)
                              ./xe/libxxe.a(libxxe_a-xefcmd25.o) (Sulsrchid)
./xe/libxxe.a(libxxe_a-xefcmd24.o)
                              ./xe/libxxe.a(libxxe_a-xefcmd26.o) (fcmdsamesrch)
./xe/libxxe.a(libxxe_a-xefile23.o)
                              ./xe/libxxe.a(libxxe_a-xefunc.o) (func_draw_file)
./ulib/libuserxxe.a(libuserxxe_a-u3270.o)
                              ./xe/libxxe.a(libxxe_a-xetso.o) (u3270init)
./ulib/libuserxxe.a(libuserxxe_a-u32702.o)
                              ./xe/libxxe.a(libxxe_a-xedlcmd3.o) (u3270spfupdate)
./ulib/libuserxxe.a(libuserxxe_a-u32703.o)
                              ./xe/libxxe.a(libxxe_a-xetso.o) (u3270xcopy)
./ulib/libuserxxe.a(libuserxxe_a-uabend.o)
                              ./xe/libxxe.a(libxxe_a-xe.o) (uabend)
./ulib/libuserxxe.a(libuserxxe_a-uallocl.o)
                              ./xe/libxxe.a(libxxe_a-xe.o) (ualloc_init)
./ulib/libuserxxe.a(libuserxxe_a-ucalc.o)
                              ./xe/libxxe.a(libxxe_a-xecalc.o) (Gucalc_result)
./ulib/libuserxxe.a(libuserxxe_a-ucalc2.o)
                              ./xe/libxxe.a(libxxe_a-xecalc22.o) (bc_getxdw)
./ulib/libuserxxe.a(libuserxxe_a-ucvebc.o)
                              gxe-xxexei2.o (Gucvebch)
./ulib/libuserxxe.a(libuserxxe_a-ucvebc2.o)
                              ./ulib/libuserxxe.a(libuserxxe_a-ucvebc.o) (ucvebc2_stre2s)
./ulib/libuserxxe.a(libuserxxe_a-ucvebc3.o)
                              ./xe/libxxe.a(libxxe_a-xeebc.o) (ucvebc3_init)
./ulib/libuserxxe.a(libuserxxe_a-ucvebc32.o)
                              ./xe/libxxe.a(libxxe_a-xechar2.o) (ucvebc_umemspnc)
./ulib/libuserxxe.a(libuserxxe_a-ucvebc4.o)
                              ./xe/libxxe.a(libxxe_a-xeebc.o) (ucvebc4_createhandle)
./ulib/libuserxxe.a(libuserxxe_a-ucvebct.o)
                              ./ulib/libuserxxe.a(libuserxxe_a-ucvebc2.o) (ucvebc2gettbl)
./ulib/libuserxxe.a(libuserxxe_a-ucvext.o)
                              ./ulib/libuserxxe.a(libuserxxe_a-ucvebc3.o) (ucvext_mapinit)
./ulib/libuserxxe.a(libuserxxe_a-ucvext12.o)
                              ./ulib/libuserxxe.a(libuserxxe_a-ucvext.o) (ucvext12_init)
./ulib/libuserxxe.a(libuserxxe_a-ucvext2.o)
                              ./ulib/libuserxxe.a(libuserxxe_a-ucvext.o) (ucvext_iconvmapinit)
./ulib/libuserxxe.a(libuserxxe_a-ucvucs.o)
                              ./xe/libxxe.a(libxxe_a-xefcmd5.o) (ucp932init)
./ulib/libuserxxe.a(libuserxxe_a-ucvucst.o)
                              ./ulib/libuserxxe.a(libuserxxe_a-ucvucs.o) (ugetcp932tbl)
./ulib/libuserxxe.a(libuserxxe_a-udbcschk.o)
                              gxe-xxecsub.o (Gudbcschk_flag)
./ulib/libuserxxe.a(libuserxxe_a-udbcsck2.o)
                              ./xe/libxxe.a(libxxe_a-xefcmd5.o) (ustrjis2sjis)
./ulib/libuserxxe.a(libuserxxe_a-udos2.o)
                              ./xe/libxxe.a(libxxe_a-xe.o) (ugetdriveidlist)
./ulib/libuserxxe.a(libuserxxe_a-udosl.o)
                              gxe-xxexei2.o (udosiswinnt)
./ulib/libuserxxe.a(libuserxxe_a-uedit.o)
                              gxe-xxexei2.o (unumedit)
./ulib/libuserxxe.a(libuserxxe_a-uedit2.o)
                              gxe-xxexei2.o (ub2x)
./ulib/libuserxxe.a(libuserxxe_a-uehl.o)
                              ./xe/libxxe.a(libxxe_a-xe.o) (useteh)
./ulib/libuserxxe.a(libuserxxe_a-uerr.o)
                              gxe-xxexei3.o (Guerropt)
./ulib/libuserxxe.a(libuserxxe_a-ufemsg.o)
                              ./xe/libxxe.a(libxxe_a-xedcmd.o) (ufilenotfound)
./ulib/libuserxxe.a(libuserxxe_a-ufile.o)
                              ./ulib/libuserxxe.a(libuserxxe_a-u32702.o) (Gufile_nomsg)
./ulib/libuserxxe.a(libuserxxe_a-ufile12.o)
                              ./xe/libxxe.a(libxxe_a-xedlcmd6.o) (ufilegetlastname)
./ulib/libuserxxe.a(libuserxxe_a-ufile1f.o)
                              ./xe/libxxe.a(libxxe_a-xedcmd2.o) (uftpfstat)
./ulib/libuserxxe.a(libuserxxe_a-ufile1l.o)
                              gxe-xxecsub.o (ufstat)
./ulib/libuserxxe.a(libuserxxe_a-ufile1l2.o)
                              ./ulib/libuserxxe.a(libuserxxe_a-ufile1l.o) (ufstat_mdos)
./ulib/libuserxxe.a(libuserxxe_a-ufile2.o)
                              ./xe/libxxe.a(libxxe_a-xedcmd.o) (uxddpchk)
./ulib/libuserxxe.a(libuserxxe_a-ufile2f.o)
                              ./ulib/libuserxxe.a(libuserxxe_a-ufile2.o) (uftpremove)
./ulib/libuserxxe.a(libuserxxe_a-ufile2l.o)
                              gxe-xxecsub.o (umkdir)
./ulib/libuserxxe.a(libuserxxe_a-ufile2l2.o)
                              ./ulib/libuserxxe.a(libuserxxe_a-ufile2l.o) (umkdir_mdos)
./ulib/libuserxxe.a(libuserxxe_a-ufile3.o)
                              ./xe/libxxe.a(libxxe_a-xedcmd.o) (uxcopy)
./ulib/libuserxxe.a(libuserxxe_a-ufile3f.o)
                              ./ulib/libuserxxe.a(libuserxxe_a-ufile3.o) (uftpxmove)
./ulib/libuserxxe.a(libuserxxe_a-ufile4.o)
                              gxe-xxecsub.o (utempnam)
./ulib/libuserxxe.a(libuserxxe_a-ufile5.o)
                              ./xe/libxxe.a(libxxe_a-xefcmd.o) (ufgetsinit)
./ulib/libuserxxe.a(libuserxxe_a-uftp.o)
                              ./ulib/libuserxxe.a(libuserxxe_a-ufile1f.o) (uftpfstatudl)
./ulib/libuserxxe.a(libuserxxe_a-uftp2.o)
                              ./xe/libxxe.a(libxxe_a-xeftp.o) (Gftpopt)
./ulib/libuserxxe.a(libuserxxe_a-uftp3.o)
                              ./ulib/libuserxxe.a(libuserxxe_a-uftp.o) (uftp3setssh)
./ulib/libuserxxe.a(libuserxxe_a-ugcclib.o)
                              ./xe/libxxe.a(libxxe_a-xecsr.o) (strupr)
./ulib/libuserxxe.a(libuserxxe_a-ukbdl.o)
                              ./xe/libxxe.a(libxxe_a-xekbd.o) (ukbdpeek)
./ulib/libuserxxe.a(libuserxxe_a-ukbdlnxc.o)
                              ./ulib/libuserxxe.a(libuserxxe_a-ukbdl.o) (ukbdlnxc_init)
./ulib/libuserxxe.a(libuserxxe_a-ukbdlnxm.o)
                              ./ulib/libuserxxe.a(libuserxxe_a-ukbdlnxc.o) (ukbdlnxm_mouseinit)
./ulib/libuserxxe.a(libuserxxe_a-uparse.o)
                              gxe-xxexei3.o (uparsein)
./ulib/libuserxxe.a(libuserxxe_a-uproc.o)
                              ./xe/libxxe.a(libxxe_a-xesyn2.o) (usystem2)
./ulib/libuserxxe.a(libuserxxe_a-uproc2.o)
                              ./xe/libxxe.a(libxxe_a-xedcmd2.o) (uprocparseredirect)
./ulib/libuserxxe.a(libuserxxe_a-uproc3.o)
                              gxe-xxexei3.o (ushellexec)
./ulib/libuserxxe.a(libuserxxe_a-uproc4.o)
                              ./xe/libxxe.a(libxxe_a-xesyn2.o) (uproc_shcmd)
./ulib/libuserxxe.a(libuserxxe_a-uque.o)
                              ./xe/libxxe.a(libxxe_a-xedlcmd.o) (uenq)
./ulib/libuserxxe.a(libuserxxe_a-ustrcpy.o)
                              gxe-gxeview.o (ustring_memcpy)
./ulib/libuserxxe.a(libuserxxe_a-ustring.o)
                              gxe-xxexei2.o (ustrnlen)
./ulib/libuserxxe.a(libuserxxe_a-utf.o)
                              gxe-xxescr.o (Gutfcombaltch)
./ulib/libuserxxe.a(libuserxxe_a-utf2.o)
                              ./xe/libxxe.a(libxxe_a-xechar12.o) (utfpos2offs)
./ulib/libuserxxe.a(libuserxxe_a-utf22.o)
                              ./ulib/libuserxxe.a(libuserxxe_a-udbcschk.o) (utfucsmapinit)
./ulib/libuserxxe.a(libuserxxe_a-utf3.o)
                              gxe-xxescr.o (utfmb2wc)
./ulib/libuserxxe.a(libuserxxe_a-utf4.o)
                              ./ulib/libuserxxe.a(libuserxxe_a-utf3.o) (mk_wcwidth)
./ulib/libuserxxe.a(libuserxxe_a-utrace.o)
                              ./ulib/libuserxxe.a(libuserxxe_a-uftp2.o) (Gtracehdr)
./ulib/libuserxxe.a(libuserxxe_a-uunxsub.o)
                              ./xe/libxxe.a(libxxe_a-xe.o) (ugetugid)
./ulib/libuserxxe.a(libuserxxe_a-uviom.o)
                              gxe-xxescr.o (Guviomoptstr)
./ulib/libuserxxe.a(libuserxxe_a-uviolx.o)
                              ./xe/libxxe.a(libxxe_a-xescr.o) (uviol_init2)
./ulib/libuserxxe.a(libuserxxe_a-uproc22.o)
                              ./ulib/libuserxxe.a(libuserxxe_a-utrace.o) (ucriticalsection)
/usr/lib/gcc/arm-linux-gnueabihf/8/libgcc.a(_udivsi3.o)
                              ./xe/libxxe.a(libxxe_a-xescr.o) (__aeabi_uidiv)
/usr/lib/gcc/arm-linux-gnueabihf/8/libgcc.a(_divsi3.o)
                              gxe-xxecsub.o (__aeabi_idiv)
/usr/lib/gcc/arm-linux-gnueabihf/8/libgcc.a(_aeabi_ldivmod.o)
                              ./xe/libxxe.a(libxxe_a-xetso.o) (__aeabi_ldivmod)
/usr/lib/gcc/arm-linux-gnueabihf/8/libgcc.a(_dvmd_lnx.o)
                              /usr/lib/gcc/arm-linux-gnueabihf/8/libgcc.a(_aeabi_ldivmod.o) (__aeabi_ldiv0)
/usr/lib/gcc/arm-linux-gnueabihf/8/libgcc.a(_udivmoddi4.o)
                              /usr/lib/gcc/arm-linux-gnueabihf/8/libgcc.a(_aeabi_ldivmod.o) (__udivmoddi4)
//usr/lib/arm-linux-gnueabihf/libc_nonshared.a(elf-init.oS)
                              /usr/lib/gcc/arm-linux-gnueabihf/8/../../../arm-linux-gnueabihf/crt1.o (__libc_csu_init)
//usr/lib/arm-linux-gnueabihf/libc_nonshared.a(stat64.oS)
                              ./ulib/libuserxxe.a(libuserxxe_a-ufile1l.o) (stat64)
//usr/lib/arm-linux-gnueabihf/libc_nonshared.a(lstat64.oS)
                              ./ulib/libuserxxe.a(libuserxxe_a-ufile1l.o) (lstat64)

Allocating common symbols
Common symbol       size              file

Msvpcellszh         0x4               gxe-gxepage.o
Mprtcurpage         0x4               gxe-xxemain.o
Mprtrow             0x4               gxe-xxemain.o
Sescsrchchar2       0xf0              ./xe/libxxe.a(libxxe_a-xefcmd2.o)
Gucs2ddmap_i2u      0x20000           ./ulib/libuserxxe.a(libuserxxe_a-utf22.o)
Gdcmd2wxeshellcmd   0x4               ./xe/libxxe.a(libxxe_a-xe.o)
Guviombuffu         0x4               ./ulib/libuserxxe.a(libuserxxe_a-uviom.o)
Gopteol             0x1               ./xe/libxxe.a(libxxe_a-xeopt.o)
Scolorfoffs         0x4               ./xe/libxxe.a(libxxe_a-xesyn2.o)
Gcappcw             0x4               ./xe/libxxe.a(libxxe_a-xe.o)
Gdcmdtempf          0x4               ./xe/libxxe.a(libxxe_a-xedcmd4.o)
Gfontdata           0x10              gxe-gxe.o
Sphasesw            0x1               ./xe/libxxe.a(libxxe_a-xefcmd2.o)
Grepwordebcdbcs     0xf0              ./xe/libxxe.a(libxxe_a-xefcmd2.o)
Menablepaste        0x4               gxe-gxemfrm.o
Mlinenodigit        0x4               gxe-gxepage.o
Mprtdatamaxrow      0x4               gxe-xxemain.o
Mcmaxlrecl          0x4               gxe-gxepage.o
MsvmarginshiftT     0x4               gxe-gxepage.o
Gppixmappreview     0x4               gxe-gxe.o
Scolorfsz           0x4               ./xe/libxxe.a(libxxe_a-xesyn2.o)
Gcapplh2            0x4               ./xe/libxxe.a(libxxe_a-xe.o)
Gsrchebcdata2       0xf0              ./xe/libxxe.a(libxxe_a-xefcmd2.o)
Gopt2_fc43          0x4               ./xe/libxxe.a(libxxe_a-xefcmd43.o)
Msvchkpfontsz       0x4               gxe-gxepage.o
Ggrepcmd            0x4               ./xe/libxxe.a(libxxe_a-xegbl.o)
Mprt2pcol           0x4               gxe-xxemain.o
Mmaxlrecl           0x4               gxe-gxepage.o
Mrulerkey           0x4               gxe-xxemain.o
Gpview              0x4               gxe-gxe.o
Gpgtkpo             0x4               gxe-gxe.o
Slinerangesw        0x4               ./xe/libxxe.a(libxxe_a-xefcmd2.o)
Mmarginshift        0x4               gxe-xxemain.o
Gppangocontext      0x4               gxe-gxe.o
Mpcellszhmax        0x4               gxe-xxemain.o
Srepwordlen         0x4               ./xe/libxxe.a(libxxe_a-xefcmd2.o)
Menablecopy         0x4               gxe-gxemfrm.o
Gufile_opt          0x4               ./ulib/libuserxxe.a(libuserxxe_a-ufile.o)
Mtypematicinterval  0x4               gxe-xxemain.o
Gunpdispchartble    0x4               ./xe/libxxe.a(libxxe_a-xe.o)
Gcmdbuffsz_row      0x4               ./xe/libxxe.a(libxxe_a-xedcmd2.o)
Gopteol2            0x1               ./xe/libxxe.a(libxxe_a-xeopt.o)
Stabsrchsw2         0x1               ./xe/libxxe.a(libxxe_a-xefcmd2.o)
Gvalidchartbl       0x4               ./xe/libxxe.a(libxxe_a-xe.o)
Ggeometrybasex      0x4               gxe-xxexei.o
Sphiconv            0x4               ./ulib/libuserxxe.a(libuserxxe_a-ukbdl.o)
Stabsrchsw          0x1               ./xe/libxxe.a(libxxe_a-xefcmd2.o)
Snewoldctr          0x4               ./ulib/libuserxxe.a(libuserxxe_a-ucvebc2.o)
Gftperr             0x4               ./ulib/libuserxxe.a(libuserxxe_a-uftp2.o)
Gplayout            0x4               gxe-gxe.o
Gfiletabdisp1       0x1               ./xe/libxxe.a(libxxe_a-xe.o)
Sescreplen          0x1               ./xe/libxxe.a(libxxe_a-xefcmd2.o)
Ghelpdir            0x1000            ./xe/libxxe.a(libxxe_a-xe.o)
Gscrheight          0x4               ./xe/libxxe.a(libxxe_a-xe.o)
Musemk              0x4               gxe-xxemain.o
Mcpoldpos           0x8               gxe-xxemain.o
Mcellw              0x4               gxe-xxemain.o
Msvpcellszhmax      0x4               gxe-gxepage.o
Gcmdstack           0x10              ./xe/libxxe.a(libxxe_a-xe.o)
Giniopt             0x1               ./xe/libxxe.a(libxxe_a-xe.o)
Mdragacceptsw       0x4               gxe-xxemain.o
Sutilcolstart       0x4               ./xe/libxxe.a(libxxe_a-xepan23.o)
Mcharinpup          0x40              gxe-xxemain.o
Gnxsw               0x4               ./xe/libxxe.a(libxxe_a-xefcmd2.o)
Gscrconfreqid       0x4               ./xe/libxxe.a(libxxe_a-xe.o)
Gcalcplh2           0x4               ./xe/libxxe.a(libxxe_a-xe.o)
Gulibutfmode        0x4               ./ulib/libuserxxe.a(libuserxxe_a-utf.o)
Mwwscrprt           0x4               gxe-xxemain.o
Gpgc                0x4               gxe-gxe.o
Gopt4               0x1               ./xe/libxxe.a(libxxe_a-xe.o)
Spwxei              0x4               gxe-xxexei.o
Se2stctr            0x4               ./ulib/libuserxxe.a(libuserxxe_a-ucvebc2.o)
Gcmdbuffdbcs        0x13c2            ./xe/libxxe.a(libxxe_a-xe.o)
Gpxxedbcstbl        0x4               gxe-xxexei.o
Gtracehdr           0x100             ./ulib/libuserxxe.a(libuserxxe_a-utrace.o)
Mchkpfontsz         0x4               gxe-xxemain.o
Mheader             0x4               gxe-xxemain.o
Mrulercol           0x4               gxe-xxemain.o
GfindcmdSplit       0xc               ./xe/libxxe.a(libxxe_a-xefcmd2.o)
Ggroupid            0x4               ./xe/libxxe.a(libxxe_a-xegbl.o)
Mpcellszw           0x4               gxe-xxemain.o
Mbgcolor            0x6               gxe-xxemain.o
Gebcstat            0x4               ./xe/libxxe.a(libxxe_a-xeebc.o)
Sfdpiper            0x4               ./ulib/libuserxxe.a(libuserxxe_a-uproc.o)
Guserid             0x4               ./xe/libxxe.a(libxxe_a-xegbl.o)
Mprinter            0x2c              gxe-xxemain.o
Mpfontszh           0x4               gxe-xxemain.o
Gutfrc              0x4               ./ulib/libuserxxe.a(libuserxxe_a-utf.o)
Sdirsrchlen         0x4               ./xe/libxxe.a(libxxe_a-xefcmd26.o)
Sexcludesw          0x1               ./xe/libxxe.a(libxxe_a-xefcmd2.o)
Gscrdbcstbl         0x4               ./xe/libxxe.a(libxxe_a-xe.o)
Mmonospace          0x4               gxe-xxemain.o
Mscrolltimer        0x4               gxe-xxemain.o
Gsynfontdesc        0x10              gxe-support.o
Mcmaxcol            0x4               gxe-gxepage.o
Mlinenosz           0x4               gxe-gxepage.o
Mdragplhs           0x4               gxe-xxemain.o
Gfhwidthtxt         0x2               ./xe/libxxe.a(libxxe_a-xe.o)
Srepword            0xf0              ./xe/libxxe.a(libxxe_a-xefcmd2.o)
Gcapplh1            0x4               ./xe/libxxe.a(libxxe_a-xe.o)
Gcmdbuffct          0x13c2            ./xe/libxxe.a(libxxe_a-xe.o)
Sescsrchlen2        0x1               ./xe/libxxe.a(libxxe_a-xefcmd2.o)
Msvsystime          0x4               gxe-gxepage.o
Gualloc_amount      0x4               ./ulib/libuserxxe.a(libuserxxe_a-uallocl.o)
Ssrchword           0xf0              ./xe/libxxe.a(libxxe_a-xefcmd2.o)
Guviomopt           0x4               ./ulib/libuserxxe.a(libuserxxe_a-uviom.o)
Gpclipboardp        0x4               gxe-gxe.o
Slockhandle         0x4               ./ulib/libuserxxe.a(libuserxxe_a-utrace.o)
Supctrsw            0x1               ./xe/libxxe.a(libxxe_a-xefcmd2.o)
Gcmdbuff            0x13c2            ./xe/libxxe.a(libxxe_a-xe.o)
Mprtmaxpage         0x4               gxe-xxemain.o
Gpgcim              0x4               gxe-gxe.o
Sindexfsz           0x4               ./xe/libxxe.a(libxxe_a-xesyn2.o)
Gucvebchctr         0x4               ./ulib/libuserxxe.a(libuserxxe_a-ucvebc.o)
Gfilebuff2          0x4               ./xe/libxxe.a(libxxe_a-xe.o)
Gudbcschk_flag      0x4               ./ulib/libuserxxe.a(libuserxxe_a-udbcschk.o)
Guerropt2           0x4               ./ulib/libuserxxe.a(libuserxxe_a-uerr.o)
Mtypematicintervalwait
                    0x4               gxe-xxemain.o
Sduptctr            0x4               ./ulib/libuserxxe.a(libuserxxe_a-ucvebc2.o)
Mtotlineno          0x4               gxe-gxepage.o
Mbeep               0x4               gxe-xxemain.o
Mmonospacepreviewfile
                    0x4               gxe-xxemain.o
Mdroprc             0x4               gxe-xxemain.o
Gversion            0x4               ./xe/libxxe.a(libxxe_a-xe.o)
Gpallassigntbl      0x16              ./xe/libxxe.a(libxxe_a-xe.o)
Gopt2               0x1               ./xe/libxxe.a(libxxe_a-xe.o)
Ssetlabel           0x8               ./xe/libxxe.a(libxxe_a-xefcmd2.o)
Mxeinitsw           0x4               gxe-xxemain.o
Mcpcopysw           0x4               gxe-xxemain.o
Gukbdl_flag         0x4               ./ulib/libuserxxe.a(libuserxxe_a-ukbdl.o)
Gpprtgc             0x4               gxe-gxe.o
Ghostname2          0x20              ./xe/libxxe.a(libxxe_a-xegbl.o)
Gkbdsckt            0x258             ./xe/libxxe.a(libxxe_a-xekbd.o)
Mlbposid            0x4               gxe-xxemain.o
Ginifiletabskip     0x4               ./xe/libxxe.a(libxxe_a-xe.o)
GppixmapGtkPrint    0x4               gxe-gxe.o
Gfhxwidth           0x2               ./xe/libxxe.a(libxxe_a-xe.o)
Menablecut          0x4               gxe-gxemfrm.o
Gxdconfindex        0x4               ./xe/libxxe.a(libxxe_a-xe.o)
Goptopt3            0x1               ./xe/libxxe.a(libxxe_a-xeopt.o)
Gmaxcolor           0x4               ./xe/libxxe.a(libxxe_a-xegbl.o)
Msvpcellszw         0x4               gxe-gxepage.o
Srangeplhe2         0x4               ./xe/libxxe.a(libxxe_a-xefcmd2.o)
Gxprintcmd          0x4               ./xe/libxxe.a(libxxe_a-xe.o)
Mlinenumber         0x4               gxe-xxemain.o
Mtypematicdelay     0x4               gxe-xxemain.o
Ss2etctr            0x4               ./ulib/libuserxxe.a(libuserxxe_a-ucvebc2.o)
MsvprintLigature    0x4               gxe-gxepage.o
Mprinter_cupsdefault
                    0x2c              gxe-xxemain.o
MmarginshiftL       0x4               gxe-xxemain.o
M2p                 0x4               gxe-xxemain.o
Mdragedpcw          0x4               gxe-xxemain.o
Gpcolormap          0x4               gxe-gxe.o
Gcompctr            0x4               ./xe/libxxe.a(libxxe_a-xedlcmd.o)
Gprintcmd           0x4               ./xe/libxxe.a(libxxe_a-xe.o)
Gscrsplitv          0x4               ./xe/libxxe.a(libxxe_a-xe.o)
Gattrtbl            0x18              ./xe/libxxe.a(libxxe_a-xe.o)
Scasesensesw        0x4               ./xe/libxxe.a(libxxe_a-xefcmd2.o)
MprintLigature      0x4               gxe-xxemain.o
Mscrollctr          0x4               gxe-xxemain.o
Gpwxei              0x4               gxe-xxexei.o
Mligature           0x4               gxe-xxemain.o
Mdraglist           0x4               gxe-xxemain.o
GplayoutGtkPrint    0x4               gxe-gxe.o
Grepworddbcs        0xf0              ./xe/libxxe.a(libxxe_a-xefcmd2.o)
Msvmarginb          0x4               gxe-gxepage.o
Msvmarginr          0x4               gxe-gxepage.o
Gpframe             0x4               gxe-gxe.o
Mprtlnotype         0x4               gxe-xxemain.o
Gfhwidthtxtedit     0x2               ./xe/libxxe.a(libxxe_a-xe.o)
Mimageprtscr        0x4               gxe-xxemain.o
Mwxeintf            0x1f4             gxe-xxemain.o
Gswutf8file_fc43    0x4               ./xe/libxxe.a(libxxe_a-xefcmd43.o)
Gdir3status         0x4               ./xe/libxxe.a(libxxe_a-xedir3.o)
Mxxemaininitsw      0x4               gxe-xxemain.o
Gsynstyletbl        0x4               ./xe/libxxe.a(libxxe_a-xesyn.o)
Mtypematicchkinterval
                    0x4               gxe-xxemain.o
Gunpdispchartble_wxe
                    0x4               ./xe/libxxe.a(libxxe_a-xe.o)
Gcmdbufflclen       0x4               ./xe/libxxe.a(libxxe_a-xe.o)
Gebccfgfnm          0x4               ./xe/libxxe.a(libxxe_a-xeebc.o)
Mcellcopy2          0x8               gxe-xxemain.o
Msv2p               0x4               gxe-gxepage.o
Gxxepalette         0xc00             gxe-gxe.o
Menablepastev       0x4               gxe-gxemfrm.o
MsvmarginshiftB     0x4               gxe-gxepage.o
MsvmarginshiftR     0x4               gxe-gxepage.o
Mprtcol             0x4               gxe-xxemain.o
Gppangolang         0x4               gxe-gxe.o
Gcalcpcw            0x4               ./xe/libxxe.a(libxxe_a-xe.o)
Mpreviewscaley      0x8               gxe-xxemain.o
Gcapcbpfh           0x4               ./xe/libxxe.a(libxxe_a-xe.o)
Mcharinpdn          0x40              gxe-xxemain.o
Mlandscape          0x4               gxe-xxemain.o
Mcpblockmode        0x4               gxe-xxemain.o
Glocalhostsw        0x4               ./xe/libxxe.a(libxxe_a-xegbl.o)
Mprtfontascendant   0x4               gxe-xxemain.o
Morgprttype         0x4               gxe-gxepage.o
Msvprtfontstyle     0x80              gxe-gxepage.o
Mcharwp             0x40              gxe-xxemain.o
Mprtmaxlrecl        0x4               gxe-xxemain.o
Gwxecapebchandle    0x4               gxe-xxexei.o
Mwxeinidata         0x370             gxe-gxemfrm.o
Gunxflag            0x4               ./xe/libxxe.a(libxxe_a-xegbl.o)
Mmarginl            0x4               gxe-xxemain.o
Mscrolllockmsec     0x4               gxe-xxemain.o
Mhcopysw            0x4               gxe-xxemain.o
Ghexctl             0xc               ./xe/libxxe.a(libxxe_a-xe.o)
Gwxecapdatalen      0x4               gxe-xxexei.o
Gswebcfile_fc43     0x4               ./xe/libxxe.a(libxxe_a-xefcmd43.o)
Gsrchwordforini     0x80              ./xe/libxxe.a(libxxe_a-xefcmd2.o)
Mcellcopy1          0x8               gxe-xxemain.o
Gunpdispchar        0x4               ./xe/libxxe.a(libxxe_a-xe.o)
Gsrchebcdbcs        0xf0              ./xe/libxxe.a(libxxe_a-xefcmd2.o)
MlandscapeR         0x4               gxe-xxemain.o
Gpclipboard         0x4               gxe-gxe.o
Gfhwidth            0x2               ./xe/libxxe.a(libxxe_a-xe.o)
Msvfiletime         0x4               gxe-gxepage.o
Mfulldrawsw         0x4               gxe-xxemain.o
Mrulermode          0x4               gxe-xxemain.o
Mpreviewscalex      0x8               gxe-xxemain.o
Mcppastesw          0x4               gxe-xxemain.o
Gcmdbufflc          0x13c2            ./xe/libxxe.a(libxxe_a-xe.o)
Mscrcmaxcol         0x4               gxe-xxemain.o
Msvmargint          0x4               gxe-gxepage.o
Msvprtcol           0x4               gxe-gxepage.o
Mswkillfocus        0x4               gxe-xxemain.o
Gppangoattrlist     0x4               gxe-gxe.o
Mprtfontstyle       0x80              gxe-xxemain.o
Gsrchdd             0xf0              ./xe/libxxe.a(libxxe_a-xefcmd2.o)
Gucvebch            0x9c40            ./ulib/libuserxxe.a(libuserxxe_a-ucvebc.o)
Mcellw0             0x4               gxe-xxemain.o
Gxprintcmd0         0x4               ./xe/libxxe.a(libxxe_a-xe.o)
Mprtfnm             0x1000            gxe-gxepage.o
Mdragpcw            0x4               gxe-xxemain.o
Gcolordata          0x10              gxe-gxe.o
Mprttype            0x4               gxe-gxepage.o
Msvfullpage         0x4               gxe-gxepage.o
Gsyncfg             0xb4              ./xe/libxxe.a(libxxe_a-xesyn2.o)
Mfooter             0x4               gxe-xxemain.o
Mdrawcellh          0x4               gxe-xxemain.o
Mpagerange          0x50              gxe-xxemain.o
Gopt                0x1               ./xe/libxxe.a(libxxe_a-xe.o)
Gscrcurclient       0x4               ./xe/libxxe.a(libxxe_a-xe.o)
Snoprinter          0x4               gxe-gxepage.o
Sescsrchlen         0x1               ./xe/libxxe.a(libxxe_a-xefcmd2.o)
MsvmarginshiftL     0x4               gxe-gxepage.o
Mformtype           0x2c              gxe-xxemain.o
Mprevieworgy        0x8               gxe-xxemain.o
Gplayoutpreview     0x4               gxe-gxe.o
Gsrchebcdata        0xf0              ./xe/libxxe.a(libxxe_a-xefcmd2.o)
Mtoolbar            0x4               gxe-gxemfrm.o
Mttfont             0x4               gxe-xxemain.o
Gfiletabdisp2       0x1               ./xe/libxxe.a(libxxe_a-xe.o)
Ssrch2              0xf0              ./xe/libxxe.a(libxxe_a-xefcmd2.o)
Gworkdir            0x1000            ./xe/libxxe.a(libxxe_a-xe.o)
Gucalc_result       0x140             ./ulib/libuserxxe.a(libuserxxe_a-ucalc.o)
Mdblclicktimer      0x4               gxe-xxemain.o
Gcsrposy            0x4               ./xe/libxxe.a(libxxe_a-xe.o)
Msvformtype         0x2c              gxe-gxepage.o
Msvwwscrprt         0x4               gxe-gxepage.o
Mmarginb            0x4               gxe-xxemain.o
Mmarginr            0x4               gxe-xxemain.o
Mdragtimeout        0x4               gxe-xxemain.o
Gpgccsr             0x4               gxe-gxe.o
Mrulercolor         0x6               gxe-xxemain.o
Gfunctbl            0x4               ./xe/libxxe.a(libxxe_a-xe.o)
Mcpcopypansw        0x4               gxe-xxemain.o
Gshellicmd0         0x4               ./xe/libxxe.a(libxxe_a-xe.o)
Ghostname           0x20              ./xe/libxxe.a(libxxe_a-xegbl.o)
Guviomoptstr        0x4               ./ulib/libuserxxe.a(libuserxxe_a-uviom.o)
Gopt5               0x1               ./xe/libxxe.a(libxxe_a-xe.o)
Museact             0x4               gxe-xxemain.o
Gcomparecmdd        0x4               ./xe/libxxe.a(libxxe_a-xegbl.o)
Grepwordebcdata     0xf0              ./xe/libxxe.a(libxxe_a-xefcmd2.o)
Gverdate            0x4               ./xe/libxxe.a(libxxe_a-xe.o)
Mportlate           0x4               gxe-xxemain.o
Gshellicmd          0x4               ./xe/libxxe.a(libxxe_a-xe.o)
Gcmdbuffsz_col      0x4               ./xe/libxxe.a(libxxe_a-xedcmd2.o)
Mprevieworgx        0x8               gxe-xxemain.o
Grulerfg            0xc               gxe-gxe.o
Mfontoffsy          0x4               gxe-xxemain.o
Mscrolltimereventctr
                    0x4               gxe-xxemain.o
Msvfooter           0x4               gxe-gxepage.o
Gppopupmenu         0x4               gxe-gxe.o
Gftpopt             0x4               ./ulib/libuserxxe.a(libuserxxe_a-uftp2.o)
Mpcellszh           0x4               gxe-xxemain.o
Mprtcmaxcol         0x4               gxe-xxemain.o
Stabrepsw           0x1               ./xe/libxxe.a(libxxe_a-xefcmd2.o)
Ssrch               0xf0              ./xe/libxxe.a(libxxe_a-xefcmd2.o)
Gcsrposx            0x4               ./xe/libxxe.a(libxxe_a-xe.o)
Gutfmode            0x4               ./xe/libxxe.a(libxxe_a-xeutf.o)
Gopteolcont2        0x1               ./xe/libxxe.a(libxxe_a-xeopt.o)
Gcmdbuffu8          0x13c2            ./xe/libxxe.a(libxxe_a-xe.o)
Gdefpallette        0x10              ./xe/libxxe.a(libxxe_a-xe.o)
Mfontwidth          0x4               gxe-xxemain.o
Mwinextw            0x4               gxe-xxemain.o
Msvheader           0x4               gxe-gxepage.o
Gppixmapprtscr      0x4               gxe-gxe.o
Mfiletime           0x4               gxe-xxemain.o
Gscrstatus          0x1               ./xe/libxxe.a(libxxe_a-xe.o)
Mscrheight          0x4               gxe-xxemain.o
Gscrconfactid       0x4               ./xe/libxxe.a(libxxe_a-xe.o)
Mrctl               0x4               gxe-xxemain.o
Msvlinenumber       0x4               gxe-gxepage.o
Gfileselectiondir   0x4               gxe-main.o
Srangeplhe          0x4               ./xe/libxxe.a(libxxe_a-xefcmd2.o)
Mfontoffsx          0x4               gxe-xxemain.o
Gkeyshiftname       0x4               ./xe/libxxe.a(libxxe_a-xe.o)
Msetfocustime       0x4               gxe-xxemain.o
Gchspace_fc43       0x4               ./xe/libxxe.a(libxxe_a-xefcmd43.o)
Mswgetinifail       0x4               gxe-gxemfrm.o
Glastsono           0x1               ./xe/libxxe.a(libxxe_a-xe.o)
Mcmaxrow            0x4               gxe-gxepage.o
Gpsourcedragcontext
                    0x4               gxe-gxe.o
Gcharset            0x40              gxe-xxexei.o
Msvprinter          0x2c              gxe-gxepage.o
Mwinexth            0x4               gxe-xxemain.o
Gsubgblopt          0x4               ./xe/libxxe.a(libxxe_a-xesub.o)
Gufile_nomsg        0x4               ./ulib/libuserxxe.a(libuserxxe_a-ufile.o)
Mscrcmaxrow         0x4               gxe-xxemain.o
Msvprt2pcol         0x4               gxe-gxepage.o
Mfontheight         0x4               gxe-xxemain.o
Gualloc16_amount    0x4               ./ulib/libuserxxe.a(libuserxxe_a-uallocl.o)
Mdrawcellw          0x4               gxe-xxemain.o
Gopt3               0x1               ./xe/libxxe.a(libxxe_a-xe.o)
Gcomparecmdf        0x4               ./xe/libxxe.a(libxxe_a-xegbl.o)
Mmaxpage            0x4               gxe-gxepage.o
Gcapcbpcw           0x4               ./xe/libxxe.a(libxxe_a-xe.o)
Gscrsplith          0x4               ./xe/libxxe.a(libxxe_a-xe.o)
Gotherstatus        0x4               ./xe/libxxe.a(libxxe_a-xe.o)
Gwxecpposx          0x4               gxe-xxexei.o
Gudbcschk_width0top
                    0x4               ./ulib/libuserxxe.a(libuserxxe_a-udbcschk.o)
Gucvebc_stat        0x4               ./ulib/libuserxxe.a(libuserxxe_a-ucvebc.o)
Mfloatmenusw        0x4               gxe-xxemain.o
Gftpclient          0x80              ./ulib/libuserxxe.a(libuserxxe_a-uftp2.o)
Msystime            0x4               gxe-xxemain.o
Ssrchwordlen        0x4               ./xe/libxxe.a(libxxe_a-xefcmd2.o)
Mpagerangeno        0x4               gxe-xxemain.o
Sescrepchar         0xf0              ./xe/libxxe.a(libxxe_a-xefcmd2.o)
Mscrolllocksw       0x4               gxe-xxemain.o
Gwxestat            0x4               gxe-xxexei.o
Mprtdatamaxcol      0x4               gxe-xxemain.o
Gunpdispchartblj    0x4               ./xe/libxxe.a(libxxe_a-xe.o)
Gkbdinpctr          0x4               ./xe/libxxe.a(libxxe_a-xe.o)
Mscrolllocktime     0x4               gxe-xxemain.o
Msvprtrow           0x4               gxe-gxepage.o
Gunpdispchartblj_wxe
                    0x4               ./xe/libxxe.a(libxxe_a-xe.o)
Gfixcidid           0x10              ./xe/libxxe.a(libxxe_a-xe.o)
Guviomopt2          0x4               ./ulib/libuserxxe.a(libuserxxe_a-uviom.o)
Mlbdblclicksw       0x4               gxe-xxemain.o
Ginitscroll         0x14              ./xe/libxxe.a(libxxe_a-xe.o)
Gdefaultlocalecode  0x40              ./xe/libxxe.a(libxxe_a-xeopt.o)
Gstrinputdbcs       0x64              ./xe/libxxe.a(libxxe_a-xefunct.o)
Glocalecode         0x40              ./xe/libxxe.a(libxxe_a-xeopt.o)
GpgcGtkPrint        0x4               gxe-gxe.o
Gstrinputlen        0x4               ./xe/libxxe.a(libxxe_a-xefunct.o)
Gotheropt_fc43      0x4               ./xe/libxxe.a(libxxe_a-xefcmd43.o)
Gpgtkps             0x4               gxe-gxe.o
Gxxestat            0x4               gxe-xxexei.o
Mcurpage            0x4               gxe-callbacks.o
Gwxecapdbcs         0x4               gxe-xxexei.o
Gpgcruler           0x4               gxe-gxe.o
GppopupmenuCHL      0x4               gxe-gxe.o
Gsrchebcdbcs2       0xf0              ./xe/libxxe.a(libxxe_a-xefcmd2.o)
Mpreviewmode        0x4               gxe-xxemain.o
Gotheropt           0x4               ./xe/libxxe.a(libxxe_a-xe.o)
Gwxecapbuff         0x4               gxe-xxexei.o
Sdbcschk_hkopt      0x4               ./ulib/libuserxxe.a(libuserxxe_a-udbcschk.o)
MmarginshiftT       0x4               gxe-xxemain.o
Mtotrow             0x4               gxe-gxepage.o
Mprtcmaxrow         0x4               gxe-xxemain.o
Gpodelmt            0x4               ./xe/libxxe.a(libxxe_a-xe.o)
Gxehostsfnm         0x4               ./xe/libxxe.a(libxxe_a-xeftp.o)
Sescsrchchar        0xf0              ./xe/libxxe.a(libxxe_a-xefcmd2.o)
Glinenosze          0x1               ./xe/libxxe.a(libxxe_a-xe.o)
Gsrchdd2            0xf0              ./xe/libxxe.a(libxxe_a-xefcmd2.o)
Gstrinput           0x64              ./xe/libxxe.a(libxxe_a-xefunct.o)
Gproclastpft        0x4               ./xe/libxxe.a(libxxe_a-xe.o)
Gpgcpreview         0x4               gxe-gxe.o
Gpanfindopt         0x4               ./xe/libxxe.a(libxxe_a-xefcmd2.o)
Gxxesynpalette      0xc0              gxe-gxe.o
Gwxecapdataoffs     0x4               gxe-xxexei.o
Gutfmode2           0x4               ./xe/libxxe.a(libxxe_a-xeutf.o)
Gfilebuff           0x4               ./xe/libxxe.a(libxxe_a-xe.o)
Gunpdispchartbl     0x4               ./xe/libxxe.a(libxxe_a-xe.o)
Ggrepctr            0x4               ./xe/libxxe.a(libxxe_a-xedlcmd.o)
Gsynopt             0x4               ./xe/libxxe.a(libxxe_a-xesyn.o)
Gsrchdbcs           0xf0              ./xe/libxxe.a(libxxe_a-xefcmd2.o)
Mpfontszw           0x4               gxe-xxemain.o
Gutfcombaltch       0x4               ./ulib/libuserxxe.a(libuserxxe_a-utf.o)
Gucs2ddmap          0x40000           ./ulib/libuserxxe.a(libuserxxe_a-utf22.o)
Gscrwidth           0x4               ./xe/libxxe.a(libxxe_a-xe.o)
Gppixmap            0x4               gxe-gxe.o
Gprocstatus         0x1               ./xe/libxxe.a(libxxe_a-xe.o)
Gppangoattrlistscreen
                    0x4               gxe-gxe.o
Mprtcmaxlrecl       0x4               gxe-xxemain.o
Gw95buffopt         0x4               ./ulib/libuserxxe.a(libuserxxe_a-uviom.o)
Gpimcontext         0x4               gxe-gxe.o
Menableselectall    0x4               gxe-gxemfrm.o
Msvlandscape        0x4               gxe-gxepage.o
Gopttabaltch        0xc               ./xe/libxxe.a(libxxe_a-xe.o)
Glinenoszb          0x1               ./xe/libxxe.a(libxxe_a-xe.o)
Guerropt            0x1               ./ulib/libuserxxe.a(libuserxxe_a-uerr.o)
Gtabdispchar        0x4               ./xe/libxxe.a(libxxe_a-xe.o)
Mfontstyle          0x50              gxe-xxemain.o
Swrapsw             0x1               ./xe/libxxe.a(libxxe_a-xefcmd2.o)
Scmdbyspawn         0x4               ./xe/libxxe.a(libxxe_a-xedcmd2.o)
Grepworddd          0xf0              ./xe/libxxe.a(libxxe_a-xefcmd2.o)
Mcellh              0x4               gxe-xxemain.o
Guviomoptstrucs     0x10              ./ulib/libuserxxe.a(libuserxxe_a-uviom.o)
Gkbdopt             0x4               ./xe/libxxe.a(libxxe_a-xe.o)
Giniopt2            0x1               ./xe/libxxe.a(libxxe_a-xe.o)
Mmargint            0x4               gxe-xxemain.o
Gcalcplh1           0x4               ./xe/libxxe.a(libxxe_a-xe.o)
Mcellh0             0x4               gxe-xxemain.o
MmarginshiftB       0x4               gxe-xxemain.o
MmarginshiftR       0x4               gxe-xxemain.o
Gopteolcont         0x1               ./xe/libxxe.a(libxxe_a-xeopt.o)
Mrulerrow           0x4               gxe-xxemain.o
Gkeytbl             0x4               ./xe/libxxe.a(libxxe_a-xe.o)
Gpgtkprtctxt        0x4               gxe-gxe.o
Gxxeopt             0x4               gxe-gxe.o
Glinenoszc          0x1               ./xe/libxxe.a(libxxe_a-xe.o)
GppangoattrlistGtkPrint
                    0x4               gxe-gxe.o
Gparmlocalecode     0x40              ./xe/libxxe.a(libxxe_a-xeopt.o)
Mscrwidth           0x4               gxe-xxemain.o
GplayoutGtkPrintScr
                    0x4               gxe-gxe.o
Msetfocusmsec       0x4               gxe-xxemain.o
Gunpdispchar3_after_inigetopt
                    0x1               ./xe/libxxe.a(libxxe_a-xe.o)
Mligaturereverse    0x4               gxe-xxemain.o
Gsrchdbcs2          0xf0              ./xe/libxxe.a(libxxe_a-xefcmd2.o)
Msvmarginl          0x4               gxe-gxepage.o
Mrulermodeo         0x4               gxe-xxemain.o
Gpallette           0x10              ./xe/libxxe.a(libxxe_a-xe.o)
Gconverters         0x4               gxe-xxexei.o
Mfullpage           0x4               gxe-xxemain.o
Sfdpipew            0x4               ./ulib/libuserxxe.a(libuserxxe_a-uproc.o)
Mfreecsr            0x4               gxe-xxemain.o
Mcpstart            0x8               gxe-xxemain.o

Discarded input sections

 .note.GNU-stack
                0x00000000        0x0 /usr/lib/gcc/arm-linux-gnueabihf/8/../../../arm-linux-gnueabihf/crt1.o
 .note.GNU-stack
                0x00000000        0x0 /usr/lib/gcc/arm-linux-gnueabihf/8/../../../arm-linux-gnueabihf/crti.o
 .note.GNU-stack
                0x00000000        0x0 /usr/lib/gcc/arm-linux-gnueabihf/8/crtbegin.o
 .note.GNU-stack
                0x00000000        0x0 gxe-support.o
 .note.GNU-stack
                0x00000000        0x0 gxe-main.o
 .note.GNU-stack
                0x00000000        0x0 gxe-interface.o
 .note.GNU-stack
                0x00000000        0x0 gxe-callbacks.o
 .note.GNU-stack
                0x00000000        0x0 gxe-gxeview.o
 .note.GNU-stack
                0x00000000        0x0 gxe-gxedlg.o
 .note.GNU-stack
                0x00000000        0x0 gxe-gxe.o
 .note.GNU-stack
                0x00000000        0x0 gxe-xxemain.o
 .note.GNU-stack
                0x00000000        0x0 gxe-gxemfrm.o
 .note.GNU-stack
                0x00000000        0x0 gxe-xxecsub.o
 .note.GNU-stack
                0x00000000        0x0 gxe-xxexei.o
 .note.GNU-stack
                0x00000000        0x0 gxe-xxekbd.o
 .note.GNU-stack
                0x00000000        0x0 gxe-xxescr.o
 .note.GNU-stack
                0x00000000        0x0 gxe-xxexei3.o
 .note.GNU-stack
                0x00000000        0x0 gxe-xxemouse.o
 .note.GNU-stack
                0x00000000        0x0 gxe-xxexei2.o
 .note.GNU-stack
                0x00000000        0x0 gxe-xxecsub2.o
 .note.GNU-stack
                0x00000000        0x0 gxe-xxefile.o
 .note.GNU-stack
                0x00000000        0x0 gxe-gxepage.o
 .note.GNU-stack
                0x00000000        0x0 gxe-xxeprt.o
 .note.GNU-stack
                0x00000000        0x0 ./xe/libxxe.a(libxxe_a-xe.o)
 .note.GNU-stack
                0x00000000        0x0 ./xe/libxxe.a(libxxe_a-xecap.o)
 .note.GNU-stack
                0x00000000        0x0 ./xe/libxxe.a(libxxe_a-xecap2.o)
 .note.GNU-stack
                0x00000000        0x0 ./xe/libxxe.a(libxxe_a-xechar.o)
 .note.GNU-stack
                0x00000000        0x0 ./xe/libxxe.a(libxxe_a-xechar12.o)
 .note.GNU-stack
                0x00000000        0x0 ./xe/libxxe.a(libxxe_a-xechar13.o)
 .note.GNU-stack
                0x00000000        0x0 ./xe/libxxe.a(libxxe_a-xechar2.o)
 .note.GNU-stack
                0x00000000        0x0 ./xe/libxxe.a(libxxe_a-xecsr.o)
 .note.GNU-stack
                0x00000000        0x0 ./xe/libxxe.a(libxxe_a-xedcmd.o)
 .note.GNU-stack
                0x00000000        0x0 ./xe/libxxe.a(libxxe_a-xedcmd2.o)
 .note.GNU-stack
                0x00000000        0x0 ./xe/libxxe.a(libxxe_a-xedcmd3.o)
 .note.GNU-stack
                0x00000000        0x0 ./xe/libxxe.a(libxxe_a-xedcmd4.o)
 .note.GNU-stack
                0x00000000        0x0 ./xe/libxxe.a(libxxe_a-xedir2.o)
 .note.GNU-stack
                0x00000000        0x0 ./xe/libxxe.a(libxxe_a-xedir3.o)
 .note.GNU-stack
                0x00000000        0x0 ./xe/libxxe.a(libxxe_a-xedir4.o)
 .note.GNU-stack
                0x00000000        0x0 ./xe/libxxe.a(libxxe_a-xedlcmd.o)
 .note.GNU-stack
                0x00000000        0x0 ./xe/libxxe.a(libxxe_a-xedlcmd2.o)
 .note.GNU-stack
                0x00000000        0x0 ./xe/libxxe.a(libxxe_a-xedlcmd3.o)
 .note.GNU-stack
                0x00000000        0x0 ./xe/libxxe.a(libxxe_a-xedlcmd4.o)
 .note.GNU-stack
                0x00000000        0x0 ./xe/libxxe.a(libxxe_a-xedlcmd5.o)
 .note.GNU-stack
                0x00000000        0x0 ./xe/libxxe.a(libxxe_a-xedlcmd6.o)
 .note.GNU-stack
                0x00000000        0x0 ./xe/libxxe.a(libxxe_a-xeebc.o)
 .note.GNU-stack
                0x00000000        0x0 ./xe/libxxe.a(libxxe_a-xeerr.o)
 .note.GNU-stack
                0x00000000        0x0 ./xe/libxxe.a(libxxe_a-xefcmd.o)
 .note.GNU-stack
                0x00000000        0x0 ./xe/libxxe.a(libxxe_a-xefcmd22.o)
 .note.GNU-stack
                0x00000000        0x0 ./xe/libxxe.a(libxxe_a-xefcmd23.o)
 .note.GNU-stack
                0x00000000        0x0 ./xe/libxxe.a(libxxe_a-xefcmd25.o)
 .note.GNU-stack
                0x00000000        0x0 ./xe/libxxe.a(libxxe_a-xefcmd26.o)
 .note.GNU-stack
                0x00000000        0x0 ./xe/libxxe.a(libxxe_a-xefcmd27.o)
 .note.GNU-stack
                0x00000000        0x0 ./xe/libxxe.a(libxxe_a-xefcmd3.o)
 .note.GNU-stack
                0x00000000        0x0 ./xe/libxxe.a(libxxe_a-xefcmd4.o)
 .note.GNU-stack
                0x00000000        0x0 ./xe/libxxe.a(libxxe_a-xefcmd42.o)
 .note.GNU-stack
                0x00000000        0x0 ./xe/libxxe.a(libxxe_a-xefcmd43.o)
 .note.GNU-stack
                0x00000000        0x0 ./xe/libxxe.a(libxxe_a-xefcmd5.o)
 .note.GNU-stack
                0x00000000        0x0 ./xe/libxxe.a(libxxe_a-xefcmd6.o)
 .note.GNU-stack
                0x00000000        0x0 ./xe/libxxe.a(libxxe_a-xefcmd7.o)
 .note.GNU-stack
                0x00000000        0x0 ./xe/libxxe.a(libxxe_a-xefile.o)
 .note.GNU-stack
                0x00000000        0x0 ./xe/libxxe.a(libxxe_a-xefile12.o)
 .note.GNU-stack
                0x00000000        0x0 ./xe/libxxe.a(libxxe_a-xefile13.o)
 .note.GNU-stack
                0x00000000        0x0 ./xe/libxxe.a(libxxe_a-xefile14.o)
 .note.GNU-stack
                0x00000000        0x0 ./xe/libxxe.a(libxxe_a-xefile15.o)
 .note.GNU-stack
                0x00000000        0x0 ./xe/libxxe.a(libxxe_a-xefile2.o)
 .note.GNU-stack
                0x00000000        0x0 ./xe/libxxe.a(libxxe_a-xefile22.o)
 .note.GNU-stack
                0x00000000        0x0 ./xe/libxxe.a(libxxe_a-xefile3.o)
 .note.GNU-stack
                0x00000000        0x0 ./xe/libxxe.a(libxxe_a-xefile4.o)
 .note.GNU-stack
                0x00000000        0x0 ./xe/libxxe.a(libxxe_a-xefile42.o)
 .note.GNU-stack
                0x00000000        0x0 ./xe/libxxe.a(libxxe_a-xefile43.o)
 .note.GNU-stack
                0x00000000        0x0 ./xe/libxxe.a(libxxe_a-xefile5.o)
 .note.GNU-stack
                0x00000000        0x0 ./xe/libxxe.a(libxxe_a-xefile6.o)
 .note.GNU-stack
                0x00000000        0x0 ./xe/libxxe.a(libxxe_a-xefile7.o)
 .note.GNU-stack
                0x00000000        0x0 ./xe/libxxe.a(libxxe_a-xefsub.o)
 .note.GNU-stack
                0x00000000        0x0 ./xe/libxxe.a(libxxe_a-xeftp.o)
 .note.GNU-stack
                0x00000000        0x0 ./xe/libxxe.a(libxxe_a-xefunc.o)
 .note.GNU-stack
                0x00000000        0x0 ./xe/libxxe.a(libxxe_a-xefunc2.o)
 .note.GNU-stack
                0x00000000        0x0 ./xe/libxxe.a(libxxe_a-xefunct.o)
 .note.GNU-stack
                0x00000000        0x0 ./xe/libxxe.a(libxxe_a-xefunct2.o)
 .note.GNU-stack
                0x00000000        0x0 ./xe/libxxe.a(libxxe_a-xegbl.o)
 .note.GNU-stack
                0x00000000        0x0 ./xe/libxxe.a(libxxe_a-xeini.o)
 .note.GNU-stack
                0x00000000        0x0 ./xe/libxxe.a(libxxe_a-xeini2.o)
 .note.GNU-stack
                0x00000000        0x0 ./xe/libxxe.a(libxxe_a-xeini3.o)
 .note.GNU-stack
                0x00000000        0x0 ./xe/libxxe.a(libxxe_a-xekbd.o)
 .note.GNU-stack
                0x00000000        0x0 ./xe/libxxe.a(libxxe_a-xelcmd.o)
 .note.GNU-stack
                0x00000000        0x0 ./xe/libxxe.a(libxxe_a-xelcmd2.o)
 .note.GNU-stack
                0x00000000        0x0 ./xe/libxxe.a(libxxe_a-xelcmd3.o)
 .note.GNU-stack
                0x00000000        0x0 ./xe/libxxe.a(libxxe_a-xelcmd4.o)
 .note.GNU-stack
                0x00000000        0x0 ./xe/libxxe.a(libxxe_a-xelcmd5.o)
 .note.GNU-stack
                0x00000000        0x0 ./xe/libxxe.a(libxxe_a-xemousel.o)
 .note.GNU-stack
                0x00000000        0x0 ./xe/libxxe.a(libxxe_a-xeopt.o)
 .note.GNU-stack
                0x00000000        0x0 ./xe/libxxe.a(libxxe_a-xeopt2.o)
 .note.GNU-stack
                0x00000000        0x0 ./xe/libxxe.a(libxxe_a-xepan.o)
 .note.GNU-stack
                0x00000000        0x0 ./xe/libxxe.a(libxxe_a-xepan2.o)
 .note.GNU-stack
                0x00000000        0x0 ./xe/libxxe.a(libxxe_a-xepan22.o)
 .note.GNU-stack
                0x00000000        0x0 ./xe/libxxe.a(libxxe_a-xepan23.o)
 .note.GNU-stack
                0x00000000        0x0 ./xe/libxxe.a(libxxe_a-xepan24.o)
 .note.GNU-stack
                0x00000000        0x0 ./xe/libxxe.a(libxxe_a-xepan3.o)
 .note.GNU-stack
                0x00000000        0x0 ./xe/libxxe.a(libxxe_a-xescr.o)
 .note.GNU-stack
                0x00000000        0x0 ./xe/libxxe.a(libxxe_a-xescr2.o)
 .note.GNU-stack
                0x00000000        0x0 ./xe/libxxe.a(libxxe_a-xesub.o)
 .note.GNU-stack
                0x00000000        0x0 ./xe/libxxe.a(libxxe_a-xesub2.o)
 .note.GNU-stack
                0x00000000        0x0 ./xe/libxxe.a(libxxe_a-xesyn.o)
 .note.GNU-stack
                0x00000000        0x0 ./xe/libxxe.a(libxxe_a-xesyn2.o)
 .note.GNU-stack
                0x00000000        0x0 ./xe/libxxe.a(libxxe_a-xetso.o)
 .note.GNU-stack
                0x00000000        0x0 ./xe/libxxe.a(libxxe_a-xetso2.o)
 .note.GNU-stack
                0x00000000        0x0 ./xe/libxxe.a(libxxe_a-xeundo.o)
 .note.GNU-stack
                0x00000000        0x0 ./xe/libxxe.a(libxxe_a-xeutf.o)
 .note.GNU-stack
                0x00000000        0x0 ./xe/libxxe.a(libxxe_a-xeutf2.o)
 .note.GNU-stack
                0x00000000        0x0 ./xe/libxxe.a(libxxe_a-xecalc.o)
 .note.GNU-stack
                0x00000000        0x0 ./xe/libxxe.a(libxxe_a-xecalc2.o)
 .note.GNU-stack
                0x00000000        0x0 ./xe/libxxe.a(libxxe_a-xecalc21.o)
 .note.GNU-stack
                0x00000000        0x0 ./xe/libxxe.a(libxxe_a-xecalc22.o)
 .note.GNU-stack
                0x00000000        0x0 ./xe/libxxe.a(libxxe_a-xecalc3.o)
 .note.GNU-stack
                0x00000000        0x0 ./xe/libxxe.a(libxxe_a-xedir.o)
 .note.GNU-stack
                0x00000000        0x0 ./xe/libxxe.a(libxxe_a-xefcmd2.o)
 .note.GNU-stack
                0x00000000        0x0 ./xe/libxxe.a(libxxe_a-xefcmd24.o)
 .note.GNU-stack
                0x00000000        0x0 ./xe/libxxe.a(libxxe_a-xefile23.o)
 .note.GNU-stack
                0x00000000        0x0 ./ulib/libuserxxe.a(libuserxxe_a-u3270.o)
 .note.GNU-stack
                0x00000000        0x0 ./ulib/libuserxxe.a(libuserxxe_a-u32702.o)
 .note.GNU-stack
                0x00000000        0x0 ./ulib/libuserxxe.a(libuserxxe_a-u32703.o)
 .note.GNU-stack
                0x00000000        0x0 ./ulib/libuserxxe.a(libuserxxe_a-uabend.o)
 .note.GNU-stack
                0x00000000        0x0 ./ulib/libuserxxe.a(libuserxxe_a-uallocl.o)
 .note.GNU-stack
                0x00000000        0x0 ./ulib/libuserxxe.a(libuserxxe_a-ucalc.o)
 .note.GNU-stack
                0x00000000        0x0 ./ulib/libuserxxe.a(libuserxxe_a-ucalc2.o)
 .note.GNU-stack
                0x00000000        0x0 ./ulib/libuserxxe.a(libuserxxe_a-ucvebc.o)
 .note.GNU-stack
                0x00000000        0x0 ./ulib/libuserxxe.a(libuserxxe_a-ucvebc2.o)
 .note.GNU-stack
                0x00000000        0x0 ./ulib/libuserxxe.a(libuserxxe_a-ucvebc3.o)
 .note.GNU-stack
                0x00000000        0x0 ./ulib/libuserxxe.a(libuserxxe_a-ucvebc32.o)
 .note.GNU-stack
                0x00000000        0x0 ./ulib/libuserxxe.a(libuserxxe_a-ucvebc4.o)
 .note.GNU-stack
                0x00000000        0x0 ./ulib/libuserxxe.a(libuserxxe_a-ucvebct.o)
 .note.GNU-stack
                0x00000000        0x0 ./ulib/libuserxxe.a(libuserxxe_a-ucvext.o)
 .note.GNU-stack
                0x00000000        0x0 ./ulib/libuserxxe.a(libuserxxe_a-ucvext12.o)
 .note.GNU-stack
                0x00000000        0x0 ./ulib/libuserxxe.a(libuserxxe_a-ucvext2.o)
 .note.GNU-stack
                0x00000000        0x0 ./ulib/libuserxxe.a(libuserxxe_a-ucvucs.o)
 .note.GNU-stack
                0x00000000        0x0 ./ulib/libuserxxe.a(libuserxxe_a-ucvucst.o)
 .note.GNU-stack
                0x00000000        0x0 ./ulib/libuserxxe.a(libuserxxe_a-udbcschk.o)
 .note.GNU-stack
                0x00000000        0x0 ./ulib/libuserxxe.a(libuserxxe_a-udbcsck2.o)
 .note.GNU-stack
                0x00000000        0x0 ./ulib/libuserxxe.a(libuserxxe_a-udos2.o)
 .note.GNU-stack
                0x00000000        0x0 ./ulib/libuserxxe.a(libuserxxe_a-udosl.o)
 .note.GNU-stack
                0x00000000        0x0 ./ulib/libuserxxe.a(libuserxxe_a-uedit.o)
 .note.GNU-stack
                0x00000000        0x0 ./ulib/libuserxxe.a(libuserxxe_a-uedit2.o)
 .note.GNU-stack
                0x00000000        0x0 ./ulib/libuserxxe.a(libuserxxe_a-uehl.o)
 .note.GNU-stack
                0x00000000        0x0 ./ulib/libuserxxe.a(libuserxxe_a-uerr.o)
 .note.GNU-stack
                0x00000000        0x0 ./ulib/libuserxxe.a(libuserxxe_a-ufemsg.o)
 .note.GNU-stack
                0x00000000        0x0 ./ulib/libuserxxe.a(libuserxxe_a-ufile.o)
 .note.GNU-stack
                0x00000000        0x0 ./ulib/libuserxxe.a(libuserxxe_a-ufile12.o)
 .note.GNU-stack
                0x00000000        0x0 ./ulib/libuserxxe.a(libuserxxe_a-ufile1f.o)
 .note.GNU-stack
                0x00000000        0x0 ./ulib/libuserxxe.a(libuserxxe_a-ufile1l.o)
 .note.GNU-stack
                0x00000000        0x0 ./ulib/libuserxxe.a(libuserxxe_a-ufile1l2.o)
 .note.GNU-stack
                0x00000000        0x0 ./ulib/libuserxxe.a(libuserxxe_a-ufile2.o)
 .note.GNU-stack
                0x00000000        0x0 ./ulib/libuserxxe.a(libuserxxe_a-ufile2f.o)
 .note.GNU-stack
                0x00000000        0x0 ./ulib/libuserxxe.a(libuserxxe_a-ufile2l.o)
 .note.GNU-stack
                0x00000000        0x0 ./ulib/libuserxxe.a(libuserxxe_a-ufile2l2.o)
 .note.GNU-stack
                0x00000000        0x0 ./ulib/libuserxxe.a(libuserxxe_a-ufile3.o)
 .note.GNU-stack
                0x00000000        0x0 ./ulib/libuserxxe.a(libuserxxe_a-ufile3f.o)
 .note.GNU-stack
                0x00000000        0x0 ./ulib/libuserxxe.a(libuserxxe_a-ufile4.o)
 .note.GNU-stack
                0x00000000        0x0 ./ulib/libuserxxe.a(libuserxxe_a-ufile5.o)
 .note.GNU-stack
                0x00000000        0x0 ./ulib/libuserxxe.a(libuserxxe_a-uftp.o)
 .note.GNU-stack
                0x00000000        0x0 ./ulib/libuserxxe.a(libuserxxe_a-uftp2.o)
 .note.GNU-stack
                0x00000000        0x0 ./ulib/libuserxxe.a(libuserxxe_a-uftp3.o)
 .note.GNU-stack
                0x00000000        0x0 ./ulib/libuserxxe.a(libuserxxe_a-ugcclib.o)
 .note.GNU-stack
                0x00000000        0x0 ./ulib/libuserxxe.a(libuserxxe_a-ukbdl.o)
 .note.GNU-stack
                0x00000000        0x0 ./ulib/libuserxxe.a(libuserxxe_a-ukbdlnxc.o)
 .note.GNU-stack
                0x00000000        0x0 ./ulib/libuserxxe.a(libuserxxe_a-ukbdlnxm.o)
 .note.GNU-stack
                0x00000000        0x0 ./ulib/libuserxxe.a(libuserxxe_a-uparse.o)
 .note.GNU-stack
                0x00000000        0x0 ./ulib/libuserxxe.a(libuserxxe_a-uproc.o)
 .note.GNU-stack
                0x00000000        0x0 ./ulib/libuserxxe.a(libuserxxe_a-uproc2.o)
 .note.GNU-stack
                0x00000000        0x0 ./ulib/libuserxxe.a(libuserxxe_a-uproc3.o)
 .note.GNU-stack
                0x00000000        0x0 ./ulib/libuserxxe.a(libuserxxe_a-uproc4.o)
 .note.GNU-stack
                0x00000000        0x0 ./ulib/libuserxxe.a(libuserxxe_a-uque.o)
 .note.GNU-stack
                0x00000000        0x0 ./ulib/libuserxxe.a(libuserxxe_a-ustrcpy.o)
 .note.GNU-stack
                0x00000000        0x0 ./ulib/libuserxxe.a(libuserxxe_a-ustring.o)
 .note.GNU-stack
                0x00000000        0x0 ./ulib/libuserxxe.a(libuserxxe_a-utf.o)
 .note.GNU-stack
                0x00000000        0x0 ./ulib/libuserxxe.a(libuserxxe_a-utf2.o)
 .note.GNU-stack
                0x00000000        0x0 ./ulib/libuserxxe.a(libuserxxe_a-utf22.o)
 .note.GNU-stack
                0x00000000        0x0 ./ulib/libuserxxe.a(libuserxxe_a-utf3.o)
 .note.GNU-stack
                0x00000000        0x0 ./ulib/libuserxxe.a(libuserxxe_a-utf4.o)
 .note.GNU-stack
                0x00000000        0x0 ./ulib/libuserxxe.a(libuserxxe_a-utrace.o)
 .note.GNU-stack
                0x00000000        0x0 ./ulib/libuserxxe.a(libuserxxe_a-uunxsub.o)
 .note.GNU-stack
                0x00000000        0x0 ./ulib/libuserxxe.a(libuserxxe_a-uviom.o)
 .note.GNU-stack
                0x00000000        0x0 ./ulib/libuserxxe.a(libuserxxe_a-uviolx.o)
 .note.GNU-stack
                0x00000000        0x0 ./ulib/libuserxxe.a(libuserxxe_a-uproc22.o)
 .note.GNU-stack
                0x00000000        0x0 /usr/lib/gcc/arm-linux-gnueabihf/8/libgcc.a(_udivsi3.o)
 .note.GNU-stack
                0x00000000        0x0 /usr/lib/gcc/arm-linux-gnueabihf/8/libgcc.a(_divsi3.o)
 .note.GNU-stack
                0x00000000        0x0 /usr/lib/gcc/arm-linux-gnueabihf/8/libgcc.a(_aeabi_ldivmod.o)
 .note.GNU-stack
                0x00000000        0x0 /usr/lib/gcc/arm-linux-gnueabihf/8/libgcc.a(_dvmd_lnx.o)
 .note.GNU-stack
                0x00000000        0x0 /usr/lib/gcc/arm-linux-gnueabihf/8/libgcc.a(_udivmoddi4.o)
 .note.GNU-stack
                0x00000000        0x0 //usr/lib/arm-linux-gnueabihf/libc_nonshared.a(elf-init.oS)
 .note.GNU-stack
                0x00000000        0x0 //usr/lib/arm-linux-gnueabihf/libc_nonshared.a(stat64.oS)
 .note.GNU-stack
                0x00000000        0x0 //usr/lib/arm-linux-gnueabihf/libc_nonshared.a(lstat64.oS)
 .note.GNU-stack
                0x00000000        0x0 /usr/lib/gcc/arm-linux-gnueabihf/8/crtend.o
 .note.GNU-stack
                0x00000000        0x0 /usr/lib/gcc/arm-linux-gnueabihf/8/../../../arm-linux-gnueabihf/crtn.o

Memory Configuration

Name             Origin             Length             Attributes
*default*        0x00000000         0xffffffff

Linker script and memory map

LOAD /usr/lib/gcc/arm-linux-gnueabihf/8/../../../arm-linux-gnueabihf/crt1.o
LOAD /usr/lib/gcc/arm-linux-gnueabihf/8/../../../arm-linux-gnueabihf/crti.o
LOAD /usr/lib/gcc/arm-linux-gnueabihf/8/crtbegin.o
LOAD gxe-support.o
LOAD gxe-main.o
LOAD gxe-interface.o
LOAD gxe-callbacks.o
LOAD gxe-gxeview.o
LOAD gxe-gxedlg.o
LOAD gxe-gxe.o
LOAD gxe-xxemain.o
LOAD gxe-gxemfrm.o
LOAD gxe-xxecsub.o
LOAD gxe-xxexei.o
LOAD gxe-xxekbd.o
LOAD gxe-xxescr.o
LOAD gxe-xxexei3.o
LOAD gxe-xxemouse.o
LOAD gxe-xxexei2.o
LOAD gxe-xxecsub2.o
LOAD gxe-xxefile.o
LOAD gxe-gxepage.o
LOAD gxe-xxeprt.o
LOAD ./xe/libxxe.a
LOAD ./ulib/libuserxxe.a
LOAD /usr/lib/gcc/arm-linux-gnueabihf/8/../../../arm-linux-gnueabihf/libgnomeui-2.so
LOAD /usr/lib/gcc/arm-linux-gnueabihf/8/../../../arm-linux-gnueabihf/libSM.so
LOAD /usr/lib/gcc/arm-linux-gnueabihf/8/../../../arm-linux-gnueabihf/libICE.so
LOAD /usr/lib/gcc/arm-linux-gnueabihf/8/../../../arm-linux-gnueabihf/libbonoboui-2.so
LOAD /usr/lib/gcc/arm-linux-gnueabihf/8/../../../arm-linux-gnueabihf/libgnome-2.so
LOAD /usr/lib/gcc/arm-linux-gnueabihf/8/../../../arm-linux-gnueabihf/libpopt.so
LOAD /usr/lib/gcc/arm-linux-gnueabihf/8/../../../arm-linux-gnueabihf/libbonobo-2.so
LOAD /usr/lib/gcc/arm-linux-gnueabihf/8/../../../arm-linux-gnueabihf/libbonobo-activation.so
LOAD /usr/lib/gcc/arm-linux-gnueabihf/8/../../../arm-linux-gnueabihf/libORBit-2.so
LOAD /usr/lib/gcc/arm-linux-gnueabihf/8/../../../arm-linux-gnueabihf/libgnomecanvas-2.so
LOAD /usr/lib/gcc/arm-linux-gnueabihf/8/../../../arm-linux-gnueabihf/libart_lgpl_2.so
LOAD /usr/lib/gcc/arm-linux-gnueabihf/8/../../../arm-linux-gnueabihf/libgnomevfs-2.so
LOAD /usr/lib/gcc/arm-linux-gnueabihf/8/../../../arm-linux-gnueabihf/libgconf-2.so
LOAD /usr/lib/gcc/arm-linux-gnueabihf/8/../../../arm-linux-gnueabihf/libgthread-2.0.so
LOAD /usr/lib/gcc/arm-linux-gnueabihf/8/../../../arm-linux-gnueabihf/libgmodule-2.0.so
LOAD /usr/lib/gcc/arm-linux-gnueabihf/8/../../../arm-linux-gnueabihf/libgtk-x11-2.0.so
LOAD /usr/lib/gcc/arm-linux-gnueabihf/8/../../../arm-linux-gnueabihf/libgdk-x11-2.0.so
LOAD /usr/lib/gcc/arm-linux-gnueabihf/8/../../../arm-linux-gnueabihf/libpangocairo-1.0.so
LOAD /usr/lib/gcc/arm-linux-gnueabihf/8/../../../arm-linux-gnueabihf/libatk-1.0.so
LOAD /usr/lib/gcc/arm-linux-gnueabihf/8/../../../arm-linux-gnueabihf/libcairo.so
LOAD /usr/lib/gcc/arm-linux-gnueabihf/8/../../../arm-linux-gnueabihf/libgdk_pixbuf-2.0.so
LOAD /usr/lib/gcc/arm-linux-gnueabihf/8/../../../arm-linux-gnueabihf/libgio-2.0.so
LOAD /usr/lib/gcc/arm-linux-gnueabihf/8/../../../arm-linux-gnueabihf/libpangoft2-1.0.so
LOAD /usr/lib/gcc/arm-linux-gnueabihf/8/../../../arm-linux-gnueabihf/libpango-1.0.so
LOAD /usr/lib/gcc/arm-linux-gnueabihf/8/../../../arm-linux-gnueabihf/libgobject-2.0.so
LOAD /usr/lib/gcc/arm-linux-gnueabihf/8/../../../arm-linux-gnueabihf/libglib-2.0.so
LOAD /usr/lib/gcc/arm-linux-gnueabihf/8/../../../arm-linux-gnueabihf/libfontconfig.so
LOAD /usr/lib/gcc/arm-linux-gnueabihf/8/../../../arm-linux-gnueabihf/libfreetype.so
LOAD /usr/lib/gcc/arm-linux-gnueabihf/8/../../../arm-linux-gnueabihf/libncursesw.so
LOAD /lib/arm-linux-gnueabihf/libncursesw.so.6
LOAD /usr/lib/gcc/arm-linux-gnueabihf/8/../../../arm-linux-gnueabihf/libtinfo.so
LOAD /usr/lib/gcc/arm-linux-gnueabihf/8/../../../arm-linux-gnueabihf/libtinfo.so
LOAD /usr/lib/gcc/arm-linux-gnueabihf/8/../../../arm-linux-gnueabihf/libcups.so
LOAD /usr/lib/gcc/arm-linux-gnueabihf/8/../../../arm-linux-gnueabihf/libX11.so
LOAD /usr/lib/gcc/arm-linux-gnueabihf/8/../../../arm-linux-gnueabihf/libdl.so
LOAD /usr/lib/gcc/arm-linux-gnueabihf/8/../../../arm-linux-gnueabihf/libdl.so
LOAD /usr/lib/gcc/arm-linux-gnueabihf/8/../../../arm-linux-gnueabihf/libncursesw.so
LOAD /lib/arm-linux-gnueabihf/libncursesw.so.6
LOAD /usr/lib/gcc/arm-linux-gnueabihf/8/../../../arm-linux-gnueabihf/libtinfo.so
LOAD /usr/lib/gcc/arm-linux-gnueabihf/8/../../../arm-linux-gnueabihf/libtinfo.so
LOAD /usr/lib/gcc/arm-linux-gnueabihf/8/../../../arm-linux-gnueabihf/libcups.so
LOAD /usr/lib/gcc/arm-linux-gnueabihf/8/../../../arm-linux-gnueabihf/libX11.so
LOAD /usr/lib/gcc/arm-linux-gnueabihf/8/../../../arm-linux-gnueabihf/libncursesw.so
LOAD /lib/arm-linux-gnueabihf/libncursesw.so.6
LOAD /usr/lib/gcc/arm-linux-gnueabihf/8/../../../arm-linux-gnueabihf/libtinfo.so
LOAD /usr/lib/gcc/arm-linux-gnueabihf/8/../../../arm-linux-gnueabihf/libcups.so
LOAD /usr/lib/gcc/arm-linux-gnueabihf/8/libgcc.a
LOAD /usr/lib/gcc/arm-linux-gnueabihf/8/libgcc_s.so
START GROUP
LOAD /usr/lib/gcc/arm-linux-gnueabihf/8/libgcc_s.so.1
LOAD /usr/lib/gcc/arm-linux-gnueabihf/8/libgcc.a
END GROUP
LOAD /usr/lib/gcc/arm-linux-gnueabihf/8/../../../arm-linux-gnueabihf/libpthread.so
LOAD /usr/lib/gcc/arm-linux-gnueabihf/8/../../../arm-linux-gnueabihf/libc.so
START GROUP
LOAD //lib/arm-linux-gnueabihf/libc.so.6
LOAD //usr/lib/arm-linux-gnueabihf/libc_nonshared.a
LOAD //lib/arm-linux-gnueabihf/ld-linux-armhf.so.3
END GROUP
LOAD /usr/lib/gcc/arm-linux-gnueabihf/8/libgcc.a
LOAD /usr/lib/gcc/arm-linux-gnueabihf/8/libgcc_s.so
START GROUP
LOAD /usr/lib/gcc/arm-linux-gnueabihf/8/libgcc_s.so.1
LOAD /usr/lib/gcc/arm-linux-gnueabihf/8/libgcc.a
END GROUP
LOAD /usr/lib/gcc/arm-linux-gnueabihf/8/crtend.o
LOAD /usr/lib/gcc/arm-linux-gnueabihf/8/../../../arm-linux-gnueabihf/crtn.o
                [!provide]                PROVIDE (__executable_start = SEGMENT_START ("text-segment", 0x10000))
                0x00010154                . = (SEGMENT_START ("text-segment", 0x10000) + SIZEOF_HEADERS)

.interp         0x00010154       0x19
 *(.interp)
 .interp        0x00010154       0x19 /usr/lib/gcc/arm-linux-gnueabihf/8/../../../arm-linux-gnueabihf/crt1.o

.note.ABI-tag   0x00010170       0x20
 .note.ABI-tag  0x00010170       0x20 /usr/lib/gcc/arm-linux-gnueabihf/8/../../../arm-linux-gnueabihf/crt1.o

.note.gnu.build-id
                0x00010190       0x24
 *(.note.gnu.build-id)
 .note.gnu.build-id
                0x00010190       0x24 linker stubs

.hash
 *(.hash)

.gnu.hash       0x000101b4      0xe40
 *(.gnu.hash)
 .gnu.hash      0x000101b4      0xe40 /usr/lib/gcc/arm-linux-gnueabihf/8/../../../arm-linux-gnueabihf/crt1.o

.dynsym         0x00010ff4     0x2090
 *(.dynsym)
 .dynsym        0x00010ff4     0x2090 /usr/lib/gcc/arm-linux-gnueabihf/8/../../../arm-linux-gnueabihf/crt1.o

.dynstr         0x00013084     0x27b7
 *(.dynstr)
 .dynstr        0x00013084     0x27b7 /usr/lib/gcc/arm-linux-gnueabihf/8/../../../arm-linux-gnueabihf/crt1.o

.gnu.version    0x0001583c      0x412
 *(.gnu.version)
 .gnu.version   0x0001583c      0x412 /usr/lib/gcc/arm-linux-gnueabihf/8/../../../arm-linux-gnueabihf/crt1.o

.gnu.version_d  0x00015c50        0x0
 *(.gnu.version_d)
 .gnu.version_d
                0x00015c50        0x0 /usr/lib/gcc/arm-linux-gnueabihf/8/../../../arm-linux-gnueabihf/crt1.o

.gnu.version_r  0x00015c50       0xb0
 *(.gnu.version_r)
 .gnu.version_r
                0x00015c50       0xb0 /usr/lib/gcc/arm-linux-gnueabihf/8/../../../arm-linux-gnueabihf/crt1.o

.rel.dyn        0x00015d00       0x40
 *(.rel.init)
 *(.rel.text .rel.text.* .rel.gnu.linkonce.t.*)
 *(.rel.fini)
 *(.rel.rodata .rel.rodata.* .rel.gnu.linkonce.r.*)
 *(.rel.data.rel.ro .rel.data.rel.ro.* .rel.gnu.linkonce.d.rel.ro.*)
 .rel.data.rel.ro
                0x00015d00        0x8 /usr/lib/gcc/arm-linux-gnueabihf/8/../../../arm-linux-gnueabihf/crt1.o
 *(.rel.data .rel.data.* .rel.gnu.linkonce.d.*)
 *(.rel.tdata .rel.tdata.* .rel.gnu.linkonce.td.*)
 *(.rel.tbss .rel.tbss.* .rel.gnu.linkonce.tb.*)
 *(.rel.ctors)
 *(.rel.dtors)
 *(.rel.got)
 .rel.got       0x00015d08        0x8 /usr/lib/gcc/arm-linux-gnueabihf/8/../../../arm-linux-gnueabihf/crt1.o
 *(.rel.bss .rel.bss.* .rel.gnu.linkonce.b.*)
 .rel.bss       0x00015d10       0x30 /usr/lib/gcc/arm-linux-gnueabihf/8/../../../arm-linux-gnueabihf/crt1.o
                [!provide]                PROVIDE (__rel_iplt_start = .)
 *(.rel.iplt)
 .rel.iplt      0x00015d40        0x0 /usr/lib/gcc/arm-linux-gnueabihf/8/../../../arm-linux-gnueabihf/crt1.o
                [!provide]                PROVIDE (__rel_iplt_end = .)

.rela.dyn       0x00015d40        0x0
 *(.rela.init)
 *(.rela.text .rela.text.* .rela.gnu.linkonce.t.*)
 *(.rela.fini)
 *(.rela.rodata .rela.rodata.* .rela.gnu.linkonce.r.*)
 *(.rela.data .rela.data.* .rela.gnu.linkonce.d.*)
 *(.rela.tdata .rela.tdata.* .rela.gnu.linkonce.td.*)
 *(.rela.tbss .rela.tbss.* .rela.gnu.linkonce.tb.*)
 *(.rela.ctors)
 *(.rela.dtors)
 *(.rela.got)
 *(.rela.bss .rela.bss.* .rela.gnu.linkonce.b.*)
                [!provide]                PROVIDE (__rela_iplt_start = .)
 *(.rela.iplt)
                [!provide]                PROVIDE (__rela_iplt_end = .)

.rel.plt        0x00015d40      0xfc0
 *(.rel.plt)
 .rel.plt       0x00015d40      0xfc0 /usr/lib/gcc/arm-linux-gnueabihf/8/../../../arm-linux-gnueabihf/crt1.o

.rela.plt
 *(.rela.plt)

.init           0x00016d00        0xc
 *(SORT_NONE(.init))
 .init          0x00016d00        0x8 /usr/lib/gcc/arm-linux-gnueabihf/8/../../../arm-linux-gnueabihf/crti.o
                0x00016d00                _init
 .init          0x00016d08        0x4 /usr/lib/gcc/arm-linux-gnueabihf/8/../../../arm-linux-gnueabihf/crtn.o

.plt            0x00016d0c     0x17b4
 *(.plt)
 .plt           0x00016d0c     0x17b4 /usr/lib/gcc/arm-linux-gnueabihf/8/../../../arm-linux-gnueabihf/crt1.o
                0x00016d20                pango_attr_foreground_new
                0x00016d2c                gethostname@@GLIBC_2.4
                0x00016d38                pango_layout_set_text
                0x00016d44                textdomain@@GLIBC_2.4
                0x00016d50                getuid@@GLIBC_2.4
                0x00016d5c                fopen64@@GLIBC_2.4
                0x00016d68                gnome_canvas_rect_get_type
                0x00016d74                fwrite@@GLIBC_2.4
                0x00016d80                mbrtowc@@GLIBC_2.4
                0x00016d8c                XKeysymToString
                0x00016d98                toupper@@GLIBC_2.4
                0x00016da4                pango_context_get_matrix
                0x00016db0                gdk_gc_new_with_values
                0x00016dbc                gdk_gc_unref
                0x00016dc8                gnome_app_add_toolbar
                0x00016dd4                gtk_label_set_text
                0x00016de0                gtk_selection_data_get_target
                0x00016dec                gtk_file_chooser_set_current_name
                0x00016df8                __isoc99_sscanf@@GLIBC_2.7
                0x00016e04                gtk_accel_map_add_entry
                0x00016e10                pango_font_description_from_string
                0x00016e1c                g_type_check_instance_cast
                0x00016e28                gtk_tree_model_get_iter_first
                0x00016e34                fprintf@@GLIBC_2.4
                0x00016e40                gtk_tooltips_new
                0x00016e4c                gtk_tool_item_get_type
                0x00016e58                gtk_tree_model_get_path
                0x00016e64                gtk_font_selection_get_type
                0x00016e70                gtk_color_selection_dialog_new
                0x00016e7c                gdk_draw_drawable
                0x00016e88                gdk_event_put
                0x00016e94                strstr@@GLIBC_2.4
                0x00016ea0                isatty@@GLIBC_2.4
                0x00016eac                getppid@@GLIBC_2.4
                0x00016eb8                gtk_widget_destroy
                0x00016ec4                pango_font_family_get_name
                0x00016ed0                gnome_canvas_root
                0x00016edc                gtk_widget_hide
                0x00016ee8                gtk_print_operation_get_error
                0x00016ef4                gtk_paper_size_get_width
                0x00016f00                execvp@@GLIBC_2.4
                0x00016f0c                XkbGetAutoRepeatRate
                0x00016f18                write@@GLIBC_2.4
                0x00016f24                wctomb@@GLIBC_2.4
                0x00016f30                gtk_menu_item_set_accel_path
                0x00016f3c                gtk_settings_get_default
                0x00016f48                gtk_box_pack_end
                0x00016f54                pango_font_face_get_face_name
                0x00016f60                pango_context_get_metrics
                0x00016f6c                gtk_combo_set_popdown_strings
                0x00016f78                opendir@@GLIBC_2.4
                0x00016f84                printf@@GLIBC_2.4
                0x00016f90                gtk_check_button_new_with_mnemonic
                0x00016f9c                gnome_vfs_mime_get_default_application
                0x00016fa8                bsearch@@GLIBC_2.4
                0x00016fb4                gtk_widget_ref
                0x00016fc0                gtk_main_level
                0x00016fcc                gtk_box_pack_start
                0x00016fd8                gtk_entry_set_has_frame
                0x00016fe4                gtk_spin_button_set_value
                0x00016ff0                fclose@@GLIBC_2.4
                0x00016ffc                cairo_translate
                0x00017008                gdk_draw_rectangle
                0x00017014                atoll@@GLIBC_2.4
                0x00017020                gtk_menu_shell_get_type
                0x0001702c                gtk_entry_new
                0x00017038                g_signal_connect_data
                0x00017044                qsort@@GLIBC_2.4
                0x00017050                gtk_drawing_area_new
                0x0001705c                gtk_selection_data_set
                0x00017068                getgid@@GLIBC_2.4
                0x00017074                gtk_main
                0x00017080                __ctype_b_loc@@GLIBC_2.4
                0x0001708c                gtk_window_set_title
                0x00017098                strnlen@@GLIBC_2.4
                0x000170a4                pango_context_get_font_description
                0x000170b0                g_free
                0x000170bc                gtk_menu_item_activate
                0x000170c8                gtk_clipboard_wait_for_contents
                0x000170d4                gtk_menu_item_get_accel_path
                0x000170e0                getmntent@@GLIBC_2.4
                0x000170ec                gtk_dialog_run
                0x000170f8                gtk_paper_size_get_height
                0x00017104                gtk_print_settings_set_paper_size
                0x00017110                gtk_settings_set_string_property
                0x0001711c                gtk_font_selection_dialog_get_type
                0x00017128                gtk_menu_item_get_type
                0x00017134                gtk_signal_emit_by_name
                0x00017140                gdk_pixbuf_new_from_file
                0x0001714c                XOpenDisplay
                0x00017158                gtk_menu_item_set_label
                0x00017164                iconv@@GLIBC_2.4
                0x00017170                fputc@@GLIBC_2.4
                0x0001717c                dlclose@@GLIBC_2.4
                0x00017188                gtk_printer_is_default
                0x00017194                __xstat64@@GLIBC_2.4
                0x000171a0                gtk_scrolled_window_set_policy
                0x000171ac                gtk_widget_unref
                0x000171b8                gtk_im_multicontext_new
                0x000171c4                gtk_paper_size_set_size
                0x000171d0                gtk_clipboard_set_with_data
                0x000171dc                chown@@GLIBC_2.4
                0x000171e8                gdk_draw_line
                0x000171f4                gtk_color_selection_set_has_opacity_control
                0x00017200                gtk_toggle_button_get_active
                0x0001720c                gtk_print_settings_set_printer
                0x00017218                strpbrk@@GLIBC_2.4
                0x00017224                gtk_widget_get_sensitive
                0x00017230                g_malloc_n
                0x0001723c                gtk_window_present
                0x00017248                gtk_tree_path_free
                0x00017254                fseek@@GLIBC_2.4
                0x00017260                gtk_im_context_focus_out
                0x0001726c                cupsGetPPD
                0x00017278                regfree@@GLIBC_2.4
                0x00017284                pango_context_get_language
                0x00017290                gtk_alignment_new
                0x0001729c                strerror@@GLIBC_2.4
                0x000172a8                gtk_tree_view_set_cursor
                0x000172b4                gtk_print_settings_get_paper_height
                0x000172c0                g_get_charset
                0x000172cc                pango_layout_set_font_description
                0x000172d8                gtk_main_quit
                0x000172e4                pango_font_description_get_family
                0x000172f0                atk_action_get_name
                0x000172fc                gtk_image_new_from_file
                0x00017308                tolower@@GLIBC_2.4
                0x00017314                gtk_button_box_set_layout
                0x00017320                gtk_drag_dest_set
                0x0001732c                gnome_app_create_menus
                0x00017338                gtk_accel_map_lookup_entry
                0x00017344                g_iconv_open
                0x00017350                gtk_widget_set_events
                0x0001735c                gtk_file_chooser_set_current_folder
                0x00017368                ppdOpenFile
                0x00017374                pango_layout_set_attributes
                0x00017380                gtk_label_set_justify
                0x0001738c                putchar@@GLIBC_2.4
                0x00017398                gtk_im_context_get_preedit_string
                0x000173a4                gtk_enumerate_printers
                0x000173b0                gtk_entry_get_type
                0x000173bc                gtk_get_current_event_time
                0x000173c8                gtk_tree_view_get_model
                0x000173d4                puts@@GLIBC_2.4
                0x000173e0                gtk_table_attach
                0x000173ec                gtk_font_selection_dialog_set_font_name
                0x000173f8                pango_font_description_get_style
                0x00017404                __libc_start_main@@GLIBC_2.4
                0x0001741c                setupterm@@NCURSES6_TINFO_5.0.19991023
                0x00017428                strchr@@GLIBC_2.4
                0x00017434                gtk_window_set_modal
                0x00017440                gnome_canvas_new
                0x0001744c                g_error_free
                0x00017458                gnome_app_get_type
                0x00017464                cairo_line_to
                0x00017470                __errno_location@@GLIBC_2.4
                0x0001747c                gtk_image_new
                0x00017488                gdk_window_get_pointer
                0x00017494                cupsGetDefault
                0x000174a0                feof@@GLIBC_2.4
                0x000174ac                lutimes@@GLIBC_2.4
                0x000174b8                atol@@GLIBC_2.4
                0x000174c4                gnome_canvas_item_new
                0x000174d0                ftello64@@GLIBC_2.4
                0x000174dc                tcsetattr@@GLIBC_2.4
                0x000174e8                gtk_paper_size_get_display_name
                0x000174f4                gtk_misc_get_type
                0x00017500                symlink@@GLIBC_2.4
                0x0001750c                gtk_print_operation_set_use_full_page
                0x00017518                setenv@@GLIBC_2.4
                0x00017524                mkdir@@GLIBC_2.4
                0x00017530                gdk_gc_new
                0x0001753c                pthread_mutex_lock@@GLIBC_2.4
                0x00017548                pipe@@GLIBC_2.4
                0x00017554                gtk_spin_button_get_type
                0x00017560                gnome_app_set_contents
                0x0001756c                gtk_adjustment_get_type
                0x00017578                gtk_selection_data_get_length
                0x00017584                gdk_colormap_get_system
                0x00017590                gnome_app_set_statusbar
                0x0001759c                gnome_vfs_get_mime_type
                0x000175a8                gtk_toolbar_get_type
                0x000175b4                gtk_label_set_label
                0x000175c0                gettext@@GLIBC_2.4
                0x000175cc                pthread_cond_wait@@GLIBC_2.4
                0x000175d8                pango_font_metrics_get_ascent
                0x000175e4                free@@GLIBC_2.4
                0x000175f0                gdk_draw_layout
                0x000175fc                iconv_close@@GLIBC_2.4
                0x00017608                ppdClose
                0x00017614                gtk_window_set_geometry_hints
                0x00017620                gtk_window_set_resizable
                0x0001762c                wcwidth@@GLIBC_2.4
                0x00017638                gtk_menu_item_get_label
                0x00017644                close@@GLIBC_2.4
                0x00017650                gdk_draw_lines
                0x0001765c                g_list_free
                0x00017668                g_object_set_data_full
                0x00017674                re_search@@GLIBC_2.4
                0x00017680                g_utf8_strlen
                0x0001768c                memcpy@@GLIBC_2.4
                0x00017698                gnome_canvas_item_i2c_affine
                0x000176a4                gtk_selection_data_get_data
                0x000176b0                wcstombs@@GLIBC_2.4
                0x000176bc                iconv_open@@GLIBC_2.4
                0x000176c8                memmove@@GLIBC_2.4
                0x000176d4                strncpy@@GLIBC_2.4
                0x000176e0                g_object_set_data
                0x000176ec                gnome_canvas_item_affine_absolute
                0x000176f8                gtk_button_new_with_mnemonic
                0x00017704                gtk_tree_model_iter_next
                0x00017710                gtk_toolbar_new
                0x0001771c                gtk_target_list_new
                0x00017728                gtk_menu_get_attach_widget
                0x00017734                gtk_spin_button_get_value_as_int
                0x00017740                access@@GLIBC_2.4
                0x0001774c                gtk_font_selection_dialog_get_font_name
                0x00017758                gtk_paper_size_free
                0x00017764                cairo_set_line_width
                0x00017770                gtk_accel_map_change_entry
                0x0001777c                gdk_colormap_alloc_color
                0x00017788                gtk_window_set_position
                0x00017794                gnome_canvas_set_scroll_region
                0x000177a0                g_object_get
                0x000177ac                unlink@@GLIBC_2.4
                0x000177b8                gtk_clipboard_set_text
                0x000177c4                ferror@@GLIBC_2.4
                0x000177d0                gtk_print_settings_new
                0x000177dc                gtk_menu_new
                0x000177e8                gtk_paper_size_new_custom
                0x000177f4                gdk_atom_intern
                0x00017800                XGetKeyboardMapping
                0x0001780c                re_set_syntax@@GLIBC_2.4
                0x00017818                cairo_stroke
                0x00017824                strcpy@@GLIBC_2.4
                0x00017830                execv@@GLIBC_2.4
                0x0001783c                cupsFreeDests
                0x00017848                raise@@GLIBC_2.4
                0x00017854                getgrgid@@GLIBC_2.4
                0x00017860                gtk_image_new_from_stock
                0x0001786c                g_object_get_data
                0x00017878                gdk_window_get_geometry
                0x00017884                atoi@@GLIBC_2.4
                0x00017890                pango_matrix_copy
                0x0001789c                gtk_print_operation_set_n_pages
                0x000178a8                dlsym@@GLIBC_2.4
                0x000178b4                gtk_menu_item_deselect
                0x000178c0                gtk_label_new
                0x000178cc                gtk_color_selection_get_type
                0x000178d8                gtk_clipboard_get
                0x000178e4                gtk_tree_model_get
                0x000178f0                gtk_dialog_get_type
                0x000178fc                ftime@@GLIBC_2.4
                0x00017908                gtk_menu_popup
                0x00017914                fork@@GLIBC_2.4
                0x00017920                gdk_screen_get_height
                0x0001792c                gtk_button_box_get_type
                0x00017938                signal@@GLIBC_2.4
                0x00017944                cairo_move_to
                0x00017950                g_log
                0x0001795c                gettimeofday@@GLIBC_2.4
                0x00017968                getpwuid@@GLIBC_2.4
                0x00017974                system@@GLIBC_2.4
                0x00017980                gtk_object_get_type
                0x0001798c                XGetModifierMapping
                0x00017998                malloc@@GLIBC_2.4
                0x000179a4                localtime@@GLIBC_2.4
                0x000179b0                getcwd@@GLIBC_2.4
                0x000179bc                gtk_box_get_type
                0x000179c8                libgnomeui_module_info_get
                0x000179d4                tcgetattr@@GLIBC_2.4
                0x000179e0                pthread_cond_init@@GLIBC_2.4
                0x000179ec                gdk_gc_set_foreground
                0x000179f8                gtk_entry_set_max_length
                0x00017a04                gnome_program_init
                0x00017a10                gtk_scrolled_window_new
                0x00017a1c                kill@@GLIBC_2.4
                0x00017a28                cupsServer
                0x00017a34                gtk_menu_get_type
                0x00017a40                strdup@@GLIBC_2.4
                0x00017a4c                re_compile_pattern@@GLIBC_2.4
                0x00017a58                strlen@@GLIBC_2.4
                0x00017a64                gtk_print_operation_set_print_settings
                0x00017a70                pthread_mutex_destroy@@GLIBC_2.4
                0x00017a7c                chdir@@GLIBC_2.4
                0x00017a88                chmod@@GLIBC_2.4
                0x00017a94                atk_action_set_description
                0x00017aa0                g_convert_with_iconv
                0x00017aac                gtk_dialog_add_action_widget
                0x00017ab8                gtk_file_chooser_get_type
                0x00017ac4                pango_cairo_show_layout
                0x00017ad0                gtk_container_get_type
                0x00017adc                gnome_program_locate_file
                0x00017ae8                gtk_toolbar_set_style
                0x00017af4                mktime@@GLIBC_2.4
                0x00017b00                closedir@@GLIBC_2.4
                0x00017b0c                gtk_tooltips_set_tip
                0x00017b18                getpid@@GLIBC_2.4
                0x00017b24                g_list_append
                0x00017b30                __lxstat64@@GLIBC_2.4
                0x00017b3c                select@@GLIBC_2.4
                0x00017b48                gtk_file_chooser_get_filename
                0x00017b54                gtk_widget_queue_draw_area
                0x00017b60                gtk_font_selection_dialog_new
                0x00017b6c                gtk_printer_request_details
                0x00017b78                gtk_tool_item_set_tooltip
                0x00017b84                readlink@@GLIBC_2.4
                0x00017b90                pango_layout_get_iter
                0x00017b9c                g_object_ref
                0x00017ba8                gdk_beep
                0x00017bb4                gtk_widget_get_pango_context
                0x00017bc0                gtk_dialog_new
                0x00017bcc                gtk_printer_is_virtual
                0x00017bd8                gtk_event_box_new
                0x00017be4                iswalpha@@GLIBC_2.4
                0x00017bf0                fseeko64@@GLIBC_2.4
                0x00017bfc                gtk_bin_get_type
                0x00017c08                dup@@GLIBC_2.4
                0x00017c14                gtk_combo_new
                0x00017c20                gdk_pointer_ungrab
                0x00017c2c                gtk_tool_button_new
                0x00017c38                gtk_timeout_add
                0x00017c44                sprintf@@GLIBC_2.4
                0x00017c50                snprintf@@GLIBC_2.4
                0x00017c5c                gtk_object_set_user_data
                0x00017c68                fflush@@GLIBC_2.4
                0x00017c74                gtk_editable_set_editable
                0x00017c80                XFree
                0x00017c8c                mbtowc@@GLIBC_2.4
                0x00017c98                gtk_message_dialog_new
                0x00017ca4                gtk_printer_has_details
                0x00017cb0                cairo_scale
                0x00017cbc                perror@@GLIBC_2.4
                0x00017cc8                gtk_font_selection_dialog_set_preview_text
                0x00017cd4                gtk_bin_get_child
                0x00017ce0                gtk_window_set_transient_for
                0x00017cec                gtk_im_context_set_client_window
                0x00017cf8                gnome_app_fill_menu
                0x00017d04                gdk_gc_set_line_attributes
                0x00017d10                gtk_drag_finish
                0x00017d1c                gdk_pixbuf_get_from_drawable
                0x00017d28                setlocale@@GLIBC_2.4
                0x00017d34                gtk_entry_set_text
                0x00017d40                vfprintf@@GLIBC_2.4
                0x00017d4c                gtk_selection_data_get_format
                0x00017d58                gtk_clipboard_wait_for_text
                0x00017d64                cupsGetDests
                0x00017d70                cairo_set_source_rgb
                0x00017d7c                gtk_vbox_new
                0x00017d88                gtk_printer_list_papers
                0x00017d94                mousemask@@NCURSESW6_5.1.20000708
                0x00017da0                gnome_vfs_mime_application_free
                0x00017dac                gtk_frame_new
                0x00017db8                gnome_app_new
                0x00017dc4                gtk_button_new_from_stock
                0x00017dd0                strcmp@@GLIBC_2.4
                0x00017ddc                gtk_hseparator_new
                0x00017de8                gtk_frame_get_type
                0x00017df4                pango_layout_iter_free
                0x00017e00                memcmp@@GLIBC_2.4
                0x00017e0c                gtk_print_operation_new
                0x00017e18                gtk_paper_size_new
                0x00017e24                gtk_widget_show_all
                0x00017e30                gtk_color_selection_get_current_color
                0x00017e3c                memset@@GLIBC_2.4
                0x00017e48                gtk_table_get_type
                0x00017e54                gtk_timeout_remove
                0x00017e60                atk_action_get_n_actions
                0x00017e6c                gnome_appbar_new
                0x00017e78                syscall@@GLIBC_2.4
                0x00017e84                getenv@@GLIBC_2.4
                0x00017e90                gtk_object_get_user_data
                0x00017e9c                gtk_label_set_text_with_mnemonic
                0x00017ea8                gtk_adjustment_new
                0x00017eb4                gtk_paper_size_get_paper_sizes
                0x00017ec0                gtk_printer_get_name
                0x00017ecc                gdk_atom_name
                0x00017ed8                rename@@GLIBC_2.4
                0x00017ee4                flock@@GLIBC_2.4
                0x00017ef0                gtk_combo_get_type
                0x00017efc                mkfifo@@GLIBC_2.4
                0x00017f08                time@@GLIBC_2.4
                0x00017f14                bind_textdomain_codeset@@GLIBC_2.4
                0x00017f20                gtk_editable_get_type
                0x00017f2c                gtk_print_settings_set_orientation
                0x00017f38                gdk_gc_set_function
                0x00017f44                g_utf8_get_char
                0x00017f50                gtk_color_selection_dialog_get_type
                0x00017f5c                gtk_hbox_new
                0x00017f68                wait@@GLIBC_2.4
                0x00017f74                statfs64@@GLIBC_2.4
                0x00017f80                g_object_unref
                0x00017f8c                gdk_keyboard_ungrab
                0x00017f98                pthread_cond_broadcast@@GLIBC_2.4
                0x00017fa4                gnome_canvas_get_type
                0x00017fb0                g_type_check_instance_is_a
                0x00017fbc                pango_attr_list_unref
                0x00017fc8                gtk_frame_set_label_widget
                0x00017fd4                fread@@GLIBC_2.4
                0x00017fe0                gnome_vfs_init
                0x00017fec                gtk_misc_set_alignment
                0x00017ff8                pthread_create@@GLIBC_2.4
                0x00018004                pango_font_metrics_get_descent
                0x00018010                strcat@@GLIBC_2.4
                0x0001801c                gtk_paper_size_get_name
                0x00018028                gtk_print_settings_get_paper_width
                0x00018034                abort@@GLIBC_2.4
                0x00018040                gtk_window_set_destroy_with_parent
                0x0001804c                gdk_gc_set_background
                0x00018058                pango_layout_iter_get_line
                0x00018064                gtk_window_set_default_size
                0x00018070                gtk_table_new
                0x0001807c                gtk_dialog_add_button
                0x00018088                gnome_vfs_get_uri_from_local_path
                0x00018094                pango_attr_background_new
                0x000180a0                gtk_label_get_type
                0x000180ac                gtk_spin_button_set_numeric
                0x000180b8                waitpid@@GLIBC_2.4
                0x000180c4                gtk_tree_view_get_type
                0x000180d0                gdk_pointer_is_grabbed
                0x000180dc                pango_font_description_get_size
                0x000180e8                gnome_app_install_menu_hints
                0x000180f4                gdk_pixmap_new
                0x00018100                pango_attr_list_new
                0x0001810c                gdk_screen_get_default
                0x00018118                bindtextdomain@@GLIBC_2.4
                0x00018124                gtk_print_operation_get_status_string
                0x00018130                gnome_vfs_get_file_info
                0x0001813c                pthread_cond_timedwait@@GLIBC_2.4
                0x00018148                gtk_spin_button_new
                0x00018154                exit@@GLIBC_2.4
                0x00018160                gtk_widget_get_allocation
                0x0001816c                gtk_widget_show
                0x00018178                gtk_drag_begin
                0x00018184                gtk_file_chooser_dialog_new
                0x00018190                gtk_window_set_type_hint
                0x0001819c                gtk_color_selection_set_current_color
                0x000181a8                pango_layout_get_extents
                0x000181b4                pango_layout_get_pixel_extents
                0x000181c0                gnome_canvas_pixbuf_get_type
                0x000181cc                gtk_selection_data_free
                0x000181d8                calloc@@GLIBC_2.4
                0x000181e4                gtk_window_set_icon
                0x000181f0                pango_attr_list_insert
                0x000181fc                gtk_im_context_filter_keypress
                0x00018208                gtk_print_operation_run
                0x00018214                gtk_widget_get_child_requisition
                0x00018220                setmntent@@GLIBC_2.4
                0x0001822c                g_strdup
                0x00018238                rmdir@@GLIBC_2.4
                0x00018244                gtk_container_add
                0x00018250                strrchr@@GLIBC_2.4
                0x0001825c                dup2@@GLIBC_2.4
                0x00018268                getmntent_r@@GLIBC_2.4
                0x00018274                fgets@@GLIBC_2.4
                0x00018280                gtk_toggle_button_get_type
                0x0001828c                gtk_widget_create_pango_layout
                0x00018298                utimes@@GLIBC_2.4
                0x000182a4                gtk_paper_size_is_custom
                0x000182b0                gdk_draw_layout_with_colors
                0x000182bc                endmntent@@GLIBC_2.4
                0x000182c8                XCloseDisplay
                0x000182d4                memchr@@GLIBC_2.4
                0x000182e0                gtk_selection_data_get_selection
                0x000182ec                pango_context_set_matrix
                0x000182f8                read@@GLIBC_2.4
                0x00018304                gtk_window_get_type
                0x00018310                readdir64@@GLIBC_2.4
                0x0001831c                XDisplayKeycodes
                0x00018328                gtk_clipboard_request_text
                0x00018334                pthread_mutex_unlock@@GLIBC_2.4
                0x00018340                gtk_scrolled_window_get_type
                0x0001834c                gtk_toolbar_get_icon_size
                0x00018358                gdk_screen_get_width
                0x00018364                wcrtomb@@GLIBC_2.4
                0x00018370                gtk_im_context_focus_in
                0x0001837c                nl_langinfo@@GLIBC_2.4
                0x00018388                gtk_print_context_get_cairo_context
                0x00018394                pthread_mutex_init@@GLIBC_2.4
                0x000183a0                gtk_widget_get_type
                0x000183ac                gtk_widget_set_sensitive
                0x000183b8                fileno@@GLIBC_2.4
                0x000183c4                ppdPageSize
                0x000183d0                mkstemp64@@GLIBC_2.4
                0x000183dc                gtk_container_set_border_width
                0x000183e8                strspn@@GLIBC_2.4
                0x000183f4                open64@@GLIBC_2.4
                0x00018400                ioctl@@GLIBC_2.4
                0x0001840c                pango_font_description_to_string
                0x00018418                pango_font_metrics_get_approximate_digit_width
                0x00018424                fputs@@GLIBC_2.4
                0x00018430                g_utf8_validate
                0x0001843c                gtk_widget_grab_focus
                0x00018448                pango_context_list_families
                0x00018454                nanosleep@@GLIBC_2.4
                0x00018460                iswprint@@GLIBC_2.4
                0x0001846c                gtk_widget_set_size_request
                0x00018478                putenv@@GLIBC_2.4
                0x00018484                gtk_selection_data_get_data_type
                0x00018490                ttyname@@GLIBC_2.4
                0x0001849c                dlopen@@GLIBC_2.4
                0x000184a8                gtk_entry_get_text
                0x000184b4                gtk_toggle_button_set_active

.iplt           0x000184c0        0x0
 *(.iplt)
 .iplt          0x000184c0        0x0 /usr/lib/gcc/arm-linux-gnueabihf/8/../../../arm-linux-gnueabihf/crt1.o

.text           0x000184c0   0x25efb0
 *(.text.unlikely .text.*_unlikely .text.unlikely.*)
 *(.text.exit .text.exit.*)
 *(.text.startup .text.startup.*)
 *(.text.hot .text.hot.*)
 *(.text .stub .text.* .gnu.linkonce.t.*)
 .text          0x000184c0       0x3c /usr/lib/gcc/arm-linux-gnueabihf/8/../../../arm-linux-gnueabihf/crt1.o
                0x000184c0                _start
 .text          0x000184fc       0x24 /usr/lib/gcc/arm-linux-gnueabihf/8/../../../arm-linux-gnueabihf/crti.o
 .text          0x00018520       0x90 /usr/lib/gcc/arm-linux-gnueabihf/8/crtbegin.o
 .text          0x000185b0      0x3d0 gxe-support.o
                0x000185b0                lookup_widget
                0x00018738                create_pixmap
                0x000187f0                create_pixbuf
                0x000188f0                glade_set_atk_action_description
 .text          0x00018980       0xb4 gxe-main.o
                0x00018980                main
 *fill*         0x00018a34        0x4 
 .text          0x00018a38     0x9118 gxe-interface.o
                0x00018a38                create_framewindow
                0x0001a428                create_fileselection
                0x0001a65c                create_colorselectiondialog
                0x0001a95c                create_fontselectiondialog
                0x0001ac84                create_aboutdlg
                0x0001b034                create_optiondlg
                0x0001d2a4                create_printdlg
                0x000218c8                set_menubar_dialog_open_signal
                0x000219a0                interface_getmenuitemlabel
 .text          0x00021b50     0x15bc gxe-callbacks.o
                0x00021b50                on_new_activate
                0x00021ba4                on_open_activate
                0x00021bd0                on_save_activate
                0x00021bf4                on_saveas_activate
                0x00021c20                on_print_activate
                0x00021c44                on_prtscr_activate
                0x00021c68                on_preview_activate
                0x00021ca0                on_preview2_activate
                0x00021cd8                on_home_activate
                0x00021cfc                on_terminal_activate
                0x00021d20                on_exit_activate
                0x00021d44                on_selectall_activate
                0x00021d68                on_cut_activate
                0x00021d8c                on_copy_activate
                0x00021db0                on_clear_activate
                0x00021dd4                on_paste_insert_activate
                0x00021df8                on_paste_replace_activate
                0x00021e1c                on_PasteV_activate
                0x00021e40                on_setup_activate
                0x00021e94                on_helpdoc_activate
                0x00021eb8                on_version_activate
                0x00021ee4                on_button_open_clicked
                0x00021f10                on_button_save_clicked
                0x00021f34                on_button_end_clicked
                0x00021f58                on_button_cancel_clicked
                0x00021f7c                on_button_print_clicked
                0x00021fa0                on_button_home_clicked
                0x00021fc4                on_button_terminal_clicked
                0x00021fe8                on_button_cut_clicked
                0x0002200c                on_button_copy_clicked
                0x00022030                on_button_clear_clicked
                0x00022054                on_button_pasteins_clicked
                0x00022078                on_button_pasterep_clicked
                0x0002209c                on_button_pasteV_clicked
                0x000220c0                on_file_button_ok_clicked
                0x000220e4                on_file_button_cancel_clicked
                0x00022108                on_font_button_ok_clicked
                0x00022134                on_font_button_cancel_clicked
                0x00022160                on_font_button_apply_clicked
                0x0002218c                on_color_button_ok_clicked
                0x000221b8                on_color_button_cancel_clicked
                0x000221e4                on_option_button_cancel_clicked
                0x00022210                on_option_button_ok_clicked
                0x0002223c                on_option_button_change_font_clicked
                0x00022268                on_option_button_color_change_clicked
                0x00022294                on_option_drawingarea_colorsample_configure_event
                0x000222e4                on_option_drawingarea_colorsample_expose_event
                0x00022318                on_about_button_close_clicked
                0x00022344                on_page_font_change_clicked
                0x00022368                on_page_button_preview_print_clicked
                0x0002238c                on_page_button_np_clicked
                0x000223b0                on_page_button_pp_clicked
                0x000223d4                on_page_button_preview_prtscr_clicked
                0x000223f8                on_page_button_print_clicked
                0x0002241c                on_page_button_prtscr_clicked
                0x00022440                on_page_button_save_clicked
                0x00022464                on_page_button_cancel_clicked
                0x00022488                on_page_chkbutton_bycellhw_toggled
                0x000224ac                on_page_chkbutton_2p_toggled
                0x000224d0                on_page_chkbutton_header_toggled
                0x000224f4                on_page_chkbutton_footer_toggled
                0x00022518                on_page_entry_pageno_editing_done
                0x0002253c                on_maindraw_configure_event
                0x00022570                on_maindraw_expose_event
                0x000225a4                on_maindraw_button_press_event
                0x000225d8                on_maindraw_button_release_event
                0x0002260c                on_maindraw_scroll_event
                0x00022640                on_maindraw_key_press_event
                0x00022674                on_maindraw_key_release_event
                0x000226a8                on_maindraw_leave_notify_event
                0x000226dc                on_maindraw_enter_notify_event
                0x00022710                on_maindraw_motion_notify_event
                0x00022744                on_maindraw_realize
                0x0002276c                on_maindraw_unrealize
                0x00022794                on_maindraw_focus_in_event
                0x000227c8                on_maindraw_focus_out_event
                0x000227fc                on_framewindow_realize
                0x00022824                on_framewindow_unrealize
                0x0002284c                on_framewindow_configure_event
                0x00022880                on_framewindow_delete_event
                0x000228b4                on_framewindow_destroy_event
                0x000228e8                on_framewindow_drag_data_received
                0x00022940                on_maindraw_drag_data_get
                0x00022988                on_maindraw_drag_begin
                0x000229c8                on_maindraw_drag_end
                0x00022a08                on_button_save_enter
                0x00022a3c                on_button_save_leave
                0x00022a70                on_button_end_enter
                0x00022aa4                on_button_end_leave
                0x00022ad8                on_button_cancel_enter
                0x00022b0c                on_button_cancel_leave
                0x00022b40                on_button_print_enter
                0x00022b74                on_button_print_leave
                0x00022ba8                on_button_home_enter
                0x00022bdc                on_button_home_leave
                0x00022c10                on_button_terminal_enter
                0x00022c44                on_button_terminal_leave
                0x00022c78                on_button_cut_enter
                0x00022cac                on_button_cut_leave
                0x00022ce0                on_button_copy_enter
                0x00022d14                on_button_copy_leave
                0x00022d48                on_button_clear_enter
                0x00022d7c                on_button_clear_leave
                0x00022db0                on_button_pasteins_enter
                0x00022de4                on_button_pasteins_leave
                0x00022e18                on_button_pasterep_enter
                0x00022e4c                on_button_pasterep_leave
                0x00022e80                on_button_pasteV_enter
                0x00022eb4                on_button_pasteV_leave
                0x00022ee8                on_button_open_enter
                0x00022f1c                on_button_open_leave
                0x00022f50                on_maindraw_client_event
                0x00022f88                on_option_button_rulercolor_change_clicked
                0x00022fb4                on_page_combo_printer_changed
                0x00022fe0                on_page_combo_form_changed
                0x0002300c                on_setup_button_press
                0x0002308c                on_preview_button_press
 .text          0x0002310c     0x2270 gxe-gxeview.o
                0x0002310c                gxeview_init
                0x0002327c                gxeview_realize
                0x000232ac                gxeview_unrealize
                0x00023300                gxeview_focus_in
                0x00023358                gxeview_focus_out
                0x000233b0                gxeview_configure
                0x00023470                gxeview_expose
                0x00023564                gxeview_showtop
                0x000235c4                gxeview_buttondown
                0x00023780                gxeview_buttonup
                0x00023918                gxeview_mousewheel
                0x00023a5c                gxeview_motion
                0x00023abc                gxeview_leave
                0x00023aec                gxeview_enter
                0x00023b1c                gwxeview_ondraw
                0x00023b34                gxeview_cb_beginprint
                0x00023b78                gxeview_cb_drawpage
                0x00023bb4                gxeview_cb_endprint
                0x00023be8                gxeview_cb_statuschanged
                0x00023c28                gxeview_cb_done
                0x00023cb4                gtkprint_initsettings
                0x00023dcc                gtkprint_initoperation
                0x00024040                OnPreparePrinting
                0x000240b0                OnBeginPrinting
                0x000240dc                OnEndPrinting
                0x000240fc                gxeview_OnKeyDown
                0x00024300                chkrulerkey
                0x000243d4                OnChar
                0x0002452c                impreedit
                0x000245fc                gxeview_OnKeyUp
                0x00024718                gxeview_OnOptions
                0x00024750                gxeview_OnOk
                0x00024768                gxeview_OnCommand
                0x00024784                gxeview_OnSize
                0x000247a0                gxeview_OnUpdateEditPaste
                0x000247e8                gxeview_OnUpdateEditPasteRep
                0x00024830                gxeview_OnUpdateEditPasteV
                0x00024878                gxeview_OnEditPasteIns
                0x0002489c                gxeview_OnEditPasteRep
                0x000248c0                gxeview_OnEditPasteV
                0x000248e4                gxeview_OnUpdateEditCopy
                0x0002492c                gxeview_OnEditCopy
                0x00024958                gxeview_OnUpdateEditCut
                0x000249a0                gxeview_OnUpdateEditClear
                0x000249e8                gxeview_OnEditSelectAll
                0x00024a10                gxeview_OnEditCut
                0x00024a3c                gxeview_OnEditClear
                0x00024a68                gxeview_OnLButtonDown
                0x00024a80                gxeview_OnLButtonUp
                0x00024a98                gxeview_OnMouseMove
                0x00024ab0                gxeview_OnRButtonDown
                0x00024ac8                gxeview_OnMouseWheel
                0x00024ae4                gxeview_OnDropFiles
                0x00024afc                gxeview_OnFilePrint
                0x00024b2c                gxeview_GtkBeginPrinting
                0x00024c48                gxeview_GtkDrawPrinting
                0x00024d90                gxeview_GtkEndPrinting
                0x00024de4                gxeview_OnFileScrprt
                0x00024e08                OnPrepareDC
                0x00024e3c                gxeview_OnPageSetup
                0x00024e74                gxeview_OnExit
                0x00024e98                gxeview_OnEditEnd
                0x00024eb8                gxeview_OnEditCancel
                0x00024ed8                gxeview_OnLButtonDblClk
                0x00024ef0                gxeview_OnTimer
                0x00024f08                gxeview_OnFileDos
                0x00024f34                gxeview_OnEditExplorer
                0x00024f64                gxeview_OnFileOpenwith
                0x00024f84                gxeview_OnUpdateFileOpenwith
                0x00024f9c                gxeview_dragbegin
                0x00024fe0                gxeview_dragdataget
                0x000251ac                gxeview_dragend
                0x00025248                gxeview_clientevent
 .text          0x0002537c     0x3010 gxe-gxedlg.o
                0x0002537c                gxedlg_construct
                0x000253c8                gxedlg_init
                0x00025528                gxedlg_setvalue
                0x00025bfc                gxedlg_option_OnOK
                0x00026154                gxedlg_option_OnCancel
                0x000261f0                gxedlg_option_create
                0x00026350                gxedlg_settext_fontname
                0x00026694                gxedlg_option_color_create
                0x00026810                gxedlg_option_rulercolor_create
                0x00026978                gxedlg_Color_OnOK
                0x00026a30                gxedlg_Color_OnCancel
                0x00026a70                gxedlg_getcolordata
                0x00026b28                gxedlg_getrulercolordata
                0x00026bd0                gxedlg_setcolor
                0x00026c78                gxedlg_setrulercolor
                0x00026d3c                gxedlg_setrulerkey
                0x00027170                set_cursor_to_iter
                0x000271c8                gxedlg_setfaceselection
                0x00027354                gxedlg_option_fontstyle
                0x00027398                gxedlg_font_create_sub
                0x00027758                gxedlg_Font_OnOK
                0x000277d8                gxedlg_Font_OnCancel
                0x00027818                gxedlg_Font_OnApply
                0x0002788c                gxedlg_getfontdata
                0x00027bb4                gxedlg_displaycolor
                0x00027bcc                gxedlg_option_draw_samplebox
                0x00027fbc                gxe_option_draw_sampletext
                0x00028054                gxedlg_option_drawingarea_configure
                0x000280ec                gxedlg_option_drawingarea_expose
                0x000281d8                gxedlg_OnChangeEditHeight
                0x000281f0                gxedlg_OnChangeEditWidth
                0x00028208                gxedlg_about_create
                0x0002834c                gxedlg_About_OnClose
 .text          0x0002838c      0x60c gxe-gxe.o
                0x0002838c                gxe_init
                0x000283e4                gxe_parmchk
                0x00028778                gxe_help
                0x00028914                gxe_appinit
                0x00028954                gxe_im_init
                0x00028978                dummyprintf
 .text          0x00028998     0x1180 gxe-xxemain.o
                0x00028998                xxemain_construct
                0x00028e9c                xxemain_init
                0x00028f34                xeinitcall
                0x00028fec                xeerrchk
                0x0002905c                xxemain_OnOk
                0x00029110                iniget
                0x0002950c                xxemain_iniput
                0x000298f0                exitmain
                0x00029934                xxemain_ontimeratcmd
 .text          0x00029b18     0x1fd8 gxe-gxemfrm.o
                0x00029b18                gxemfrm_construct
                0x00029b9c                gxemfrm_Loadact
                0x00029c08                getmenulabel
                0x00029cf8                actinit
                0x00029e58                gxemfrm_enablesubmenuitem
                0x00029f90                gxemfrm_enabletoolbar
                0x0002a1b4                updatemenu
                0x0002a3c4                gxemfrm_updatemainmenu
                0x0002a458                updatemainmenutext
                0x0002a4f4                updateMenuIcon
                0x0002a5fc                updatemainmenuFile
                0x0002a794                gxemfrm_updateFileMenu
                0x0002a7dc                on_mainmenu_enter_notify_edit
                0x0002a874                mainmenu_init
                0x0002ab1c                toolbar_init
                0x0002abd4                gxemfrm_OnHelp
                0x0002abf0                mainmenu_srchmenuitem
                0x0002ac80                popupmenu_initCHL
                0x0002adc0                popupmenu_init
                0x0002af04                popupmenu_deactivate_callback
                0x0002af40                popupmenu_activate_callback
                0x0002afd0                popupmenu_activate_callbackCHLCMD
                0x0002b110                popupmenu_activate_callbackCHL
                0x0002b1d0                popupmenu_activate_callback2
                0x0002b260                popupmenu_activate_callback2CHL
                0x0002b2fc                popupmenu_activate_openwith
                0x0002b330                popupmenu_srchidCHL
                0x0002b3b0                popupmenu_srchid
                0x0002b430                gxemfrm_popupmenu_getmenuitemCHL
                0x0002b494                gxemfrm_popupmenu_getmenuitem
                0x0002b520                gxemfrm_popupmenu_getmenuitemidCHL
                0x0002b584                gxemfrm_popupmenu_getmenuitemid
                0x0002b60c                gxemfrm_realize
                0x0002b6c4                gxemfrm_unrealize
                0x0002b6ec                gxemfrm_configure
                0x0002b7d0                gxemfrm_delete
                0x0002b7f8                gxemfrm_destroy
                0x0002b824                gxemfrm_setwindowsize
                0x0002b8c8                gxemfrm_onclose
                0x0002b92c                changemenuaccelkey
                0x0002b9c8                gxemfrm_chkDiabledMenuid
 .text          0x0002baf0     0x3264 gxe-xxecsub.o
                0x0002baf0                csubinit1
                0x0002bb24                csubutf8init
                0x0002bc24                csubacssetup
                0x0002bd1c                usetcaret
                0x0002be40                uredrawcaret
                0x0002be54                ushowcaret
                0x0002be8c                uhidecaret
                0x0002bec4                ugetcaretpos
                0x0002bf30                usetcaretpos
                0x0002bfb4                udrawcaret
                0x0002c1e8                umsgbox_modalinparent
                0x0002c23c                umsgbox
                0x0002c4b8                umsgbox2
                0x0002c6ac                uerrmsgbox
                0x0002c790                uerrmsgboxokcan
                0x0002c87c                umsgboxlocalemsg
                0x0002c8ec                uactivate_menuitem
                0x0002c988                uclick_toolbarbutton
                0x0002ca20                usetfocus
                0x0002ca68                upostmsg
                0x0002cb44                usettimer
                0x0002cbb0                ukilltimer
                0x0002cbd8                uinvalidate
                0x0002cd3c                ugetinidata
                0x0002ceb4                uputinidata
                0x0002d004                iniacrnmchk
                0x0002d0a4                iniacrnmput
                0x0002d100                ugetcpath
                0x0002d164                ugettempfname
                0x0002d1f8                usetupwdtemp
                0x0002d2b0                umemalloc
                0x0002d2dc                umemfree
                0x0002d300                wxemalloc
                0x0002d32c                wxefree
                0x0002d350                csubprintgerror
                0x0002d3cc                csublocale2utf8
                0x0002dba4                csublocale2utf8scr
                0x0002e664                usetresizehint
                0x0002e858                chkresizelimit
                0x0002e9c4                usetresizehint2
                0x0002ebac                csubchkdd
                0x0002ebe4                csubgetcsrposbf
                0x0002ec40                csub_get_widget_allocation_wh
                0x0002ec8c                csub_get_mouse_status
 .text          0x0002ed54     0x4174 gxe-xxexei.o
                0x0002ed54                wxe_preinit
                0x0002eeb4                wxe_parmchk
                0x0002ef58                wxe_kbdgetname
                0x0002eff8                wxe_xecall
                0x0002f340                xxexei_kbdinit
                0x0002f408                wxe_kbdmsg
                0x0002f978                wxe_funccall
                0x0002fb84                wxe_otherfunc
                0x0002fc0c                wxe_strcmd
                0x0002fc88                wxe_editcmd
                0x0002fd50                wxe_getmaxscrsize
                0x0002fddc                wxe_onsize
                0x0002fe88                wxe_getcurpos
                0x0002fedc                wxe_setcurpos
                0x0002fff0                wxe_getcurtype
                0x00030080                wxe_setcurtype
                0x0003019c                wxe_uviogetwork
                0x00030210                wxe_uviogetstate
                0x000303c0                wxe_uviosetstate
                0x000305e0                wxe_getsamplecolor
                0x00030660                wxe_readkbd
                0x00030d1c                wxe_uerrexitstdo
                0x00030d40                wxe_uerrexitmsgbox
                0x00030d64                wxe_movecsr
                0x00030db4                wxe_scroll
                0x00031004                wxe_scrollhbar
                0x000310fc                wxe_mouseedgechk
                0x000314a0                wxe_lineselect
                0x00031664                wxe_lineselect_topmenu
                0x000317e0                wxe_lineselect_fnamelist
                0x00031910                wxe_lineselect_driveid
                0x00031a38                wxe_lineselect_file
                0x00031be0                wxe_lineselect_dirlist
                0x00031cf0                wxe_belcmd
                0x00031e28                wxepathupdown
                0x00031ec8                xxe_beep
                0x00031ee0                xxe_scrdisp
                0x00031ef4                xxe_kbdwcinit
                0x0003200c                xxe_imeconv
                0x00032170                xxe_imef2lerr
                0x00032360                xxe_setdbcstbl
                0x00032398                xxe_chkcsrisfiledataline
                0x00032844                xxe_chkcsrpos
                0x00032980                xxe_getlinenosz
                0x00032a30                xxe_optligature
                0x00032c3c                wxe_getlineopt
                0x00032cc8                wxe_resethdrligature
                0x00032d08                wxe_isCHLLine
                0x00032e50                wxe_CHLcmd
 .text          0x00032ec8     0x19b8 gxe-xxekbd.o
                0x00032ec8                xxemain_kbdinit
                0x00033068                xxemain_onkeyup
                0x00033188                xxemain_onchar
                0x000333a8                xxemain_onkeydown
                0x000336a0                xxemain_ontimer_rctlkey
                0x000337c8                xxemain_kbdkeyin
                0x000338a8                xxemain_keysym2doskey
                0x00033b64                shiftstatus
                0x00033dc4                xekbchk_kbdproc
                0x00033e70                xekbchk_showkey
                0x00034050                getshiftid
                0x00034148                printline
                0x0003418c                getkeycode
                0x00034214                open_display
                0x00034268                close_display
                0x00034290                getkeycode_ctlr
                0x00034340                xxekey_getmodmask
                0x000345e0                getkeysymtbl
                0x0003476c                setkeysymmap
 .text          0x00034880     0x8f94 gxe-xxescr.o
                0x00034880                xxemain_scrinit
                0x00034bd8                xxemain_scronok
                0x00034ca0                xxemain_scrbgrect
                0x00034dd4                xxemain_OnSize
                0x00035028                xxemain_draw
                0x000350ec                xxemain_scrupdate
                0x00035378                scrruler
                0x000354f0                xxemain_scrsetruler
                0x000355b8                scrdrawline
                0x00035660                scrcsr
                0x00035738                lineput
                0x00035ee0                strput
                0x000361ec                setfgbgcolorfrompal
                0x000362a0                scrdrawbrush
                0x000363b8                drawtext
                0x0003660c                drawtextstr_chkrtl
                0x00036638                xxescr_chkligatureGtk
                0x00036700                xxescr_chkligature
                0x0003680c                xxescr_chkligatureu8
                0x0003694c                xxescr_scrprtGtk
                0x000369c4                drawtextstr_ligatureGtk
                0x00036d50                drawtextstr_ligature
                0x00037178                drawtextstr_ligatureu8Gtk
                0x000376dc                drawtextstr_ligatureu8
                0x00037c68                drawtextstrGtk
                0x000385d0                drawtextstr
                0x00039208                xxemain_createfont
                0x00039440                xxemain_setfont
                0x000394f4                xxemain_scrinvalidate
                0x000395a4                xxemain_onsetfocus
                0x000395f8                xxemain_onkillfocus
                0x00039624                xxemain_scrend
                0x00039648                xxemain_scrcancel
                0x0003966c                xxemain_scrcmd
                0x000396b8                xxemain_scrstrcmd
                0x00039704                xxemain_onfileopenwith
                0x0003973c                xxemain_scrpreedit
                0x00039b58                scrpreedittext
                0x00039e04                drawimcsr
                0x00039e9c                drawimtext
                0x00039f38                scrpreeditbrush
                0x0003a0b4                drawtextstr_ligatureu8_nocombine
                0x0003aa64                updateFileMenu
                0x0003aaac                xxescr_chkWidth0Ovf
                0x0003ac04                drawtextstr_NoLigatureu8_NoCombine
                0x0003b59c                drawtextstr_NoLigatureu8_NoSCM_NoCombine
                0x0003b840                drawtextstr_NoLigatureu8_SCM_chkcont
                0x0003ba7c                drawtextstr_NoLigatureu8_SCM
                0x0003c320                drawtextstr_NoLigatureu8_NoSCM
                0x0003c900                drawtextstr_NoLigatureu8_NoSCMSub
                0x0003cb18                drawtextstr_NoLigatureu8_NoSCM_Monospace
                0x0003cd04                drawtextstr_ligatureu8_SCM
                0x0003d2c0                drawtextstr_ligatureu8_chkcombinesplit
 .text          0x0003d814     0x26b0 gxe-xxexei3.o
                0x0003d814                wxe_getrctl
                0x0003d84c                wxe_setrctl
                0x0003d8f8                wxe_getfreecsr
                0x0003d930                wxe_setfreecsr
                0x0003d9dc                wxe_getbeep
                0x0003da14                wxe_setbeep
                0x0003dac0                wxe_chkendenable
                0x0003dc28                drawuerrmsg
                0x0003dc40                wxe_errmenuitemDisabled
                0x0003dc78                wxe_errmenuitemDisabled2
                0x0003dcb4                wxe_chkEnableFileSubmenu
                0x0003dda8                wxe_onfileopenwith
                0x0003de54                wxegetdbcsmode
                0x0003dee0                wxe_scrdraw
                0x0003defc                wxe_timerreset
                0x0003e24c                wxe_atcmdisrtalias
                0x0003e56c                wxe_atcmd
                0x0003e7f0                wxe_atcmdctl
                0x0003ea98                wxe_setsleeptime
                0x0003eb48                wxe_killsleeptime
                0x0003eb98                wxe_assoclcmd
                0x0003ebdc                wxe_dragselectchk
                0x0003ede8                wxe_isremotefile
                0x0003ee7c                wxe_dragreset
                0x0003ef5c                wxe_dragset
                0x0003eff4                wxe_dragdropfilelist
                0x0003f0d8                wxe_dndfilecopychk
                0x0003f4a0                wxe_dndutil
                0x0003f56c                wxe_dndcopyfile
                0x0003fb18                xxe_acssetup
                0x0003fb44                xxe_setsynpalettecolor
                0x0003fca4                xxe_setsynfontface
                0x0003fe74                wxe_chkUpdateFileMenu
 .text          0x0003fec4     0x3ad0 gxe-xxemouse.o
                0x0003fec4                xxemain_mouselbdown
                0x00040330                xxemain_mousemove
                0x00040938                xxemain_mousecpdrawpan
                0x00040a10                xxemain_mouselbup
                0x00041088                xxemain_mouserbdown
                0x000412ec                xxemain_cpcopy
                0x000416d8                cpcopypan
                0x00041b1c                xxemain_cppaste
                0x00041cf4                xxemain_mousembdown
                0x00041d34                xxemain_pastecb
                0x00041ea0                xxemain_cpupdatecopy
                0x00041f18                xxemain_cpupdatecut
                0x00041f9c                xxemain_cpupdatepaste
                0x00042038                xxemain_cpupdatepastev
                0x000420dc                cppastedropchk
                0x000421c0                xxemain_onmousewheel
                0x00042210                xxemain_mouselbdblclk
                0x00042508                xxemain_ontimer_mousepositionchk
                0x0004276c                xxemain_ontimer
                0x000429bc                mousescrollchk
                0x00042b78                mousedragfile
                0x00042cc8                mousedodrag
                0x00042e48                mousedragsetuplist
                0x00042f74                mousedragcopy
                0x00042fd8                mousedragcopychk
                0x0004303c                xxemain_setupdragfile
                0x00043160                xxemain_mousedragbegin
                0x000431b4                xxemain_mousedraggetdata
                0x00043358                xxemain_mousedragend
                0x000434c8                wxemouse_capi
                0x0004355c                mouse_csrmovedbykbd
                0x00043584                xxemain_cpselectall
                0x000435d0                xxemain_cpupdateselectall
                0x00043628                onfileCHL
                0x00043670                onfileCHLdblclick
                0x000436ac                chkCHLselect
                0x00043830                selectedCHL
 .text          0x00043994     0x7100 gxe-xxexei2.o
                0x00043994                wxe_iswinnt
                0x000439ac                wxe_reset
                0x000439d0                wxe_capreset
                0x00043a18                wxe_capblock
                0x00043b48                wxe_capselectall
                0x00043bb4                wxe_capcopy
                0x00044090                wxe_capcopy2
                0x00044bb8                wxe_capcopytowincb
                0x00044fcc                wxe_capcopytowincbfromxe
                0x00045370                wxe_cappaste
                0x000457f0                wxe_cappasteposchk
                0x00045964                wxe_cappastecallback
                0x000461c4                wxe_capchkprot
                0x00046368                wxe_capchkxestat
                0x00046404                wxe_capchkselectall
                0x000464b8                wxe_dbcstextcopy
                0x00046588                wxe_dbcstextcopyu
                0x00046770                wxe_capb2u
                0x000469f0                wxe_capu2ball
                0x00046b68                wxe_capu2b
                0x00046cac                wxe_dbcstextcopypan
                0x00047028                wxe_getpcw
                0x000470a4                wxe_getpcwsubtype
                0x00047134                wxe_prtgetfnm
                0x00047528                wxe_prtinit
                0x00047918                wxe_prtgetmaxpage
                0x00047c78                wxe_prtgetline
                0x0004904c                wxe_hexdisplay
                0x00049214                wxe_prtgetdatalen
                0x00049658                wxe_prtgetdatalenwkvhex
                0x00049b50                wxe_prtgetnextplh
                0x00049bd8                wxe_prtgetnextplhwkvhex
                0x00049e88                wxe_prtgetftime
                0x00049fd0                wxe_ddsetup
                0x0004a494                wxe_getddexpand
                0x0004a5a8                wxe_wxpsetupprtscr
                0x0004a848                wxe_wxpreq
                0x0004a95c                wxe_getorgfnm
                0x0004a9b0                wxe_helpcall
                0x0004a9e0                wxe_endprint
 *fill*         0x0004aa94        0x4 
 .text          0x0004aa98     0x5f60 gxe-xxecsub2.o
                0x0004aa98                usettitle
                0x0004aae4                usetpalettecolor
                0x0004ac0c                uclipboard_settext
                0x0004acc0                uclipboard_file_get_callback
                0x0004aec4                uclipboard_file_clear_callback
                0x0004aef4                uclipboard_setcopyfile
                0x0004af80                uclipboard_getfileselection
                0x0004afdc                uclipboard_getcopyfilesub
                0x0004b678                uclipboard_gettext
                0x0004b7c8                uclipboard_memfree
                0x0004b7ec                uuridecode
                0x0004b908                usetupuri
                0x0004bb1c                udragbegin
                0x0004bbe8                udragend
                0x0004bc1c                udragdestset
                0x0004bc5c                upopupmenu_menuitem_enable
                0x0004bcb8                upopupmenu_popupCHL
                0x0004bd50                upopupmenu_popup
                0x0004be08                ufontgetstrwidth
                0x0004be94                ugetfontmetrics
                0x0004bfc4                ufontgetextentw
                0x0004c078                ufontismonospace
                0x0004c184                usrchfontfamily
                0x0004c250                uprtcreatefontGtkPrint
                0x0004c2f8                ugetdbcschktbl
                0x0004c394                uprtwcwidth
                0x0004c3e4                uprttextout_NoLigature
                0x0004c43c                uprttextout
                0x0004cb48                uprttextoutw
                0x0004cc08                uprttextoutwsub
                0x0004d06c                uprtscrtextout
                0x0004d23c                uprtlineout
                0x0004d420                upreviewsetfontscalePango160
                0x0004d5a4                upreviewresetfontscalePango160
                0x0004d5cc                upreviewsetfontscale
                0x0004d61c                utracelayout
                0x0004d714                csublyoutinfo
                0x0004d80c                usetmonospace
                0x0004dcd8                usetmonospaceCombineStr
                0x0004dedc                usetmonospace_ligature
                0x0004e5e8                csubgetdefaultprinter
                0x0004e724                cb_enumprinter
                0x0004e878                cb_enumprinter2
                0x0004e9f4                csubgetdefaultprinterGtk
                0x0004eab0                csubsrchprinterGtk
                0x0004ebb4                csubgetcupspagesz
                0x0004ef48                csubgetcupsform
                0x0004f17c                csubgetpapersizeGtk_fromPPD
                0x0004f4e4                csubgetcupspapername
                0x0004f598                csubgetcupspaperlistGtk
                0x0004f604                csubgetcupsformGtk
                0x0004f714                csubgetpaperShiftGtk
                0x0004f8a4                csubgetpapersizeGtk
                0x0004f974                csubsetpapersizeGtk
                0x0004fa00                csub_setcolorGtk
                0x0004fa38                ugconfgetkbdrate
                0x0004faa8                csub_repu8null
                0x0004fbb4                csub_utf8mem_strlen
                0x0004fc98                csubgetdestctr
                0x0004fce4                csubiscupsavail
                0x0004fd28                csublistprinter
                0x0004fdd0                csub_iswidth0
                0x0004ff78                csub_iscombining
                0x00050048                csub_isSpacingCombiningMark
                0x00050090                csub_setcombineLayout
                0x00050258                csub_GetCombineStrTbl
                0x0005088c                usetmonospace_SCM
 .text          0x000509f8      0xf14 gxe-xxefile.o
                0x000509f8                gxedoc_construct
                0x00050a10                gxedoc_init
                0x00050a28                gxedoc_destroy
                0x00050a40                gxedoc_Serialize
                0x00050a58                gxedoc_OnNewDocument
                0x00050a90                gxedoc_OnOpenDocument
                0x00050ae4                gxedoc_OnSaveDocument
                0x00050b0c                gxedoc_OnSaveAsDocument
                0x00050b44                gxedoc_OnCmdMsg
                0x00050b60                gxedoc_ondropfiles
                0x00050b7c                xxefile_dlgOnOK
                0x00050ce4                xxefile_dlgOnCancel
                0x00050d14                xxefile_filenew
                0x00050d4c                xxefile_fileopen
                0x00050d84                xxefile_filesave
                0x00050dbc                invalidate
                0x00050dd4                xxefile_ondropfiles
                0x0005115c                xxefile_ondropfilesub
                0x00051574                filepostcopybydndmsg
                0x000516b4                filecopybydnd
                0x00051868                dlgcreate
 *fill*         0x0005190c        0x4 
 .text          0x00051910     0x52fc gxe-gxepage.o
                0x00051910                gxepage_init
                0x000519a0                gxepage_init2
                0x00051a00                construct
                0x00051b04                gxepage_destroy
                0x00051b5c                freemems
                0x00051bcc                on_page_delete_event
                0x00051bf8                gxepage_create
                0x00051d0c                OnInitDialog
                0x00052fd4                gxepage_OnCancel
                0x00053004                gxepage_OnOk
                0x00053060                gxepage_OnPrint
                0x00053094                gxepage_OnPrtscr
                0x000530c8                gxepage_OnPreview
                0x00053168                gxepage_OnPreviewprevpage
                0x000531cc                gxepage_OnPreviewNextpage
                0x00053214                gxepage_OnPreviewprtscr
                0x00053254                gxepage_OnCheckHeader
                0x00053340                gxepage_OnCheckFooter
                0x0005342c                chkmarginshift
                0x00053678                gxepage_savemarginshift
                0x00053798                gxepage_papershift
                0x00053908                getparm
                0x00054310                gxepage_prtgetformsz
                0x00054434                putparm
                0x00054464                saverestparm
                0x00054a30                pagecount
                0x00054ebc                gxepage_updateformlist
                0x00055018                Initcombo
                0x00055238                Initcomboenumprinter
                0x00055374                Initcomboprinter
                0x000555ec                gxepage_OnCheck2p
                0x00055744                gxepage_OnCheckpfontsz
                0x000559f4                displaypageno
                0x00055ccc                displayform
                0x00056040                previewrectdraw
                0x0005619c                previewforminit
                0x00056304                previewformunref
                0x00056368                drawpreviewcanvas
                0x00056604                gxepage_OnChangeEditCurpage
                0x00056684                gxepage_fontstyle
                0x000566b8                chkpagerange
                0x000569e0                gxepage_OnChanged_ComboPrinter
                0x00056a38                gxepage_err_nocupsprinter
                0x00056a6c                displayHWMargin
                0x00056b2c                gxepage_OnChanged_ComboForm
 .text          0x00056c0c     0x3e40 gxe-xxeprt.o
                0x00056c0c                xxemain_prtinit
                0x00056ccc                xxemain_onprepareprinting
                0x000575b4                xxemain_prtgetscrdata
                0x00057740                xxemain_prtajustcolrow
                0x00057e00                xxemain_onendprinting
                0x00057e38                afterprint
                0x00057ef0                xxemain_prtpreparedc
                0x00057f20                xxemain_onprint
                0x00057f58                prtscr
                0x00057fdc                prtscrbgrect
                0x0005816c                prtviewporthcopyGtkPrint
                0x00058548                prtfile
                0x000599b4                prttextout
                0x00059a04                prttextout_NoLigature
                0x00059a54                prttextout2p
                0x00059de0                prttextoutw
                0x00059f88                prtlineout
                0x00059fe4                prtviewportfileGtkPrint
                0x0005a360                prtmarginrect
                0x0005a654                prtgetcupsorgt
                0x0005a7f8                xxemain_prtdefaultmarginrect
                0x0005a870                xxemain_prtpreview
                0x0005a904                prtcreatefont
 .text          0x0005aa4c     0x3a84 ./xe/libxxe.a(libxxe_a-xe.o)
                0x0005aa4c                xemain
                0x0005b29c                uexitfunc
                0x0005b334                uehexit
                0x0005b3e0                xecreateworkdir
                0x0005b654                xegetworkdir
                0x0005b95c                xecleartrcfile
                0x0005bc78                xetraceinit
                0x0005bf50                parmproc00
                0x0005c69c                parmproc0
                0x0005cbec                parmproc
                0x0005d8ac                numchk
                0x0005d924                titlemsg
                0x0005d9ac                help
 .text          0x0005e4d0     0x9d64 ./xe/libxxe.a(libxxe_a-xecap.o)
                0x0005e4d0                capreset
                0x0005e674                capresetcalc
                0x0005e6c0                capsavecsrpos
                0x0005e88c                caplinechk
                0x0005ea58                capblockchk
                0x0005eebc                func_copytocb_file
                0x0005ef40                func_lmark_file
                0x0005efec                func_stdcpregion_file
                0x0005f2cc                func_block_file
                0x0005f5f0                capselectallfile
                0x0005f760                capselectallfilecmdstd
                0x0005f934                capselectallfilecmdblocksub
                0x0005fb74                func_copyword
                0x000601a8                capfilesavelcctforerrmsg
                0x00060218                func_copywordcmd_file
                0x00060990                func_blockdel_file
                0x000609bc                func_blockclear_file
                0x000609e8                capdel
                0x00060dc0                func_blockcutmove_file
                0x00060dec                func_blockclearmove_file
                0x00060e18                capmove
                0x0006102c                capmovesub
                0x00061450                capmoveovchk
                0x00061844                func_blockrep_file
                0x00061870                func_blockrep_pan
                0x000618f0                func_blockins_file
                0x00061944                func_blockins_pan
                0x000619c4                func_stdcppaste_pan
                0x000619ec                func_stdcppaste_file
                0x00061b84                capcopy
                0x00061e88                captocmdline
                0x00061f1c                captopanfld
                0x00062110                captofld
                0x00062b18                capcopysub
                0x00062d70                capfcmdi
                0x00062fbc                capfcmdi2
                0x000630e0                capfcmdi3
                0x00063168                func_lineexclude_file
                0x000632e8                func_lineinclude_file
                0x000633c0                capgetdata
                0x00063504                capgetpfh
                0x000638c8                capsavedata
                0x000650e8                capsavedataword
                0x000654f4                xecapcvcb
                0x000656fc                capcut
                0x00065ba0                capclear
                0x00065e7c                capgetpoint
                0x00066038                capgetmouseword
                0x0006649c                capsavepoint
                0x00066920                capsavepointselectall
                0x00066b48                capsavepointselectallblock
                0x00066d58                capchkmergin
                0x00066e8c                capsortpoint
                0x00067110                capsortpointselectall
                0x00067244                capgetcsrplh
                0x000672c8                capchkboxwidth
                0x00067388                cap_savecalcinfo
                0x00067514                cap_calcrev
                0x000677ac                cap_getcalcprevinfo
                0x000678b0                cap_getcalccurinfo
                0x00067998                capcberr
                0x000679c0                capmsgsaved
                0x000679e4                capnoblockerr
                0x00067a0c                capchkcsrpos
                0x00067c84                capgetxestat
                0x00067cec                func_copywordcmd_dir
                0x00067f04                capselectallfilecmdhelp
                0x00067f34                capselectallfilecmdblock
                0x00068048                capselectallfilecmd
 .text          0x00068234     0x2018 ./xe/libxxe.a(libxxe_a-xecap2.o)
                0x00068234                capcutregion
                0x00068960                capclearregion
                0x00068c04                capstdpaste
                0x00069a64                capstdpasteblockline
                0x00069ed4                capcbstatr
                0x00069ffc                capcbstatw
                0x0006a224                caperrregionmode
 .text          0x0006a24c     0x6360 ./xe/libxxe.a(libxxe_a-xechar.o)
                0x0006a24c                func_char_pan
                0x0006a298                func_char_file
                0x0006a2e4                charpan
                0x0006acd0                charfile
                0x0006b5f0                charcaps
                0x0006b684                charjoinchk
                0x0006bbc4                charlcmdjoin
                0x0006be9c                charfldedit
                0x0006fb88                chartabexp
                0x0006fdb4                charjoinsetdbcstbl
                0x0006ff18                charmaxovererr
                0x0006ff80                charfixlenovererr
                0x0006ffb8                charmerginerr
                0x0006fff0                helpchlcmd
                0x00070020                charsetchlcmd
                0x00070218                charfldeditchl
 .text          0x000705ac     0x17bc ./xe/libxxe.a(libxxe_a-xechar12.o)
                0x000705ac                charfieldfullerr
                0x000705d4                chartabclear
                0x000707b4                charcleartabdbcs
                0x00070838                chargettablen
                0x000708b4                chargetkbdutf8
                0x00070afc                charfldeditu8
                0x00071c08                cmdlinepos2offs
 .text          0x00071d68     0x213c ./xe/libxxe.a(libxxe_a-xechar13.o)
                0x00071d68                charfldeditebc
 .text          0x00073ea4     0x6740 ./xe/libxxe.a(libxxe_a-xechar2.o)
                0x00073ea4                func_del_pan
                0x00073ed0                func_del_file
                0x00073efc                func_eraseeol_pan
                0x00073f28                func_eraseeol_file
                0x00073fcc                func_bs_pan
                0x00074060                func_bs_file
                0x00074364                funcbschk
                0x000743f0                func_erasetol_pan
                0x00074450                func_erasetol_file
                0x000745dc                func_cleartol_pan
                0x00074608                func_cleartol_file
                0x000746ac                func_splitline_file
                0x0007513c                charlcmdsplit
                0x0007576c                func_delline_file
                0x000758d8                func_insline_file
                0x00075a1c                func_repline_file
                0x00075b9c                func_nexttab_file
                0x00076830                char2tabstopchk
                0x00076afc                func_prevtab_file
                0x000775c0                charcap
                0x00078f5c                chartabrep
                0x00079038                charcaponundoprep
                0x000790e4                charcap2
                0x0007a32c                charcaprev
                0x0007a478                charsplitline
                0x0007a528                charconcatline
 .text          0x0007a5e4     0x32e4 ./xe/libxxe.a(libxxe_a-xecsr.o)
                0x0007a5e4                csrinit
                0x0007a748                csrterm
                0x0007a764                csrwrite
                0x0007a7dc                csrforcewritereq
                0x0007a818                csrsetdbcstbl
                0x0007a9e4                csrsetdbcstbl2
                0x0007aa80                csrresetobdbcs
                0x0007ab60                csrcleardbcstbl
                0x0007abc4                csrchangetype
                0x0007ac3c                csrsetwait
                0x0007acb0                csrhomepos
                0x0007ae4c                csrtopleft
                0x0007ae8c                csrlastpos
                0x0007afa4                csronthefld
                0x0007b0b8                csronthefldchk
                0x0007b1c0                csrfldchksub
                0x0007b29c                csrrestore
                0x0007b314                csrloctogbl
                0x0007b390                func_up
                0x0007b748                func_down
                0x0007bb70                csrchardown
                0x0007bbac                func_left
                0x0007bf80                func_right
                0x0007c320                csrcharright
                0x0007c35c                prevposchk
                0x0007ca20                func_home
                0x0007cad4                func_nextline
                0x0007cd60                func_prevline
                0x0007cf30                csrnexttaboftheline
                0x0007cf78                func_nexttab_pan
                0x0007d19c                func_prevtab_pan
                0x0007d30c                srchprevfld
                0x0007d460                func_csrstep
                0x0007d5f4                func_pos_pan
 .text          0x0007d8c8     0x5570 ./xe/libxxe.a(libxxe_a-xedcmd.o)
                0x0007d8c8                dcmdinit
                0x0007d8ec                dcmdrestoreconsolemode
                0x0007d918                func_dos
                0x0007dd04                dcmd_drive
                0x0007dd3c                dcmd_pwd
                0x0007dd84                dcmd_cd
                0x0007e630                dcmddrawcdir
                0x0007e768                dcmd_xdd
                0x0007e874                dcmd_xdelete
                0x0007ea9c                dcmddelxdd
                0x0007f18c                dcmdxdconf
                0x0007f234                dcmdxdelete
                0x0007f4b0                dcmd_rmdir
                0x0007f60c                dcmdrmdir
                0x0007f6e0                dcmd_mkdir
                0x0007f94c                dcmdmkdir
                0x0007fabc                dcmd_rename
                0x0007fc70                dcmdrename
                0x00080060                dcmd_xcopy
                0x00080838                dcmd_append
                0x0008089c                dcmdxcopy
                0x00080da8                dcmd_xmove
                0x00081654                dcmd_chmod
                0x000816a0                dcmd_attribute
                0x00081d74                dcmdattrchk
                0x00082060                dcmdwildattr
                0x00082104                dcmdattrchng
                0x00082450                dcmdattrchng_ftp
                0x00082494                dcmdattrchngunix
                0x00082684                dcmdfullpathwild
                0x00082758                dcmdfullpath
                0x00082b3c                dcmdexefullpath
                0x00082bd8                dcmddeleted
                0x00082c10                dcmdconfallmemb
                0x00082ca4                dcmdhelpcopy
                0x00082cc8                dcmdhelpmove
                0x00082cec                dcmdhelpappend
                0x00082d10                dcmdattribhelp
                0x00082d58                dcmdwildconf
 .text          0x00082e38     0x5438 ./xe/libxxe.a(libxxe_a-xedcmd2.o)
                0x00082e38                dcmd_wxp
                0x00083628                dcmd_xprint
                0x00083688                dcmd_xprintsub
                0x00083bfc                dcmd_print
                0x00083c9c                dcmdlongcmd
                0x00083f1c                dcmdsystemcall_intf
                0x00084048                dcmd_spawn
                0x00084188                dcmd_system
                0x00084550                dcmdsystemcall_spawn
                0x000845ac                dcmdsystemcall
                0x00084ecc                dcmdscrfnmedit
                0x000854b4                dcmdwkdiredit
                0x00085650                dcmdparseredirect
                0x00085838                dcmdeditredirect
                0x00085a38                dcmdxpsetebcparm
                0x00085d38                dcmdxpfnmchk
                0x000870b0                dcmdcpgetremotecopy
                0x00087468                dcmderrcurfile
                0x00087490                dcmdsolast
                0x00087628                dcmd_system2
                0x00087774                dcmdgetsofname
                0x000879a8                dcmdputcmdlog
                0x00087b08                dcmdgetsofname2
                0x00087c84                dcmdterm
                0x00087cd0                dcmdappendso
                0x00087f98                dcmdxxe1cmd
                0x00088184                dcmdfresetlock2
                0x000881c0                dcmdextnmerr
                0x000881f8                dcmdnowork
                0x00088220                dcmdxprlblerr
                0x00088248                dcmdredirectparmerr
 .text          0x00088270     0x341c ./xe/libxxe.a(libxxe_a-xedcmd3.o)
                0x00088270                func_submit
                0x000895c8                func_rsh
                0x0008a1e8                dcmdrshlocalfile
                0x0008a53c                dcmdrshgetuseridparm
                0x0008a64c                dcmdrshcreatetempshell
                0x0008a7c4                dcmdrloginsetup
                0x0008aa40                dcmd_rlogin
                0x0008ab60                dcmdrloginlog
                0x0008ad28                dcmd_rshhelp
                0x0008ad4c                dcmd_hostiderr
                0x0008ad88                dcmd_xenv
                0x0008afd0                dcmdxenvvar
                0x0008b21c                dcmdxenvfile
                0x0008b538                dcmdenvinit
                0x0008b644                dcmdxenvhelp
                0x0008b668                dcmdsubmithelp
 .text          0x0008b68c     0x1a34 ./xe/libxxe.a(libxxe_a-xedcmd4.o)
                0x0008b68c                dcmdstrchk
                0x0008b818                dcmd_grep
                0x0008c304                dcmd_grepdlcmd
                0x0008c434                dcmd_comparedlcmd
                0x0008c4fc                dcmdwritehdrline
                0x0008c654                dcmdgetgrepresult
                0x0008ca44                dcmdgrephighlight
                0x0008cd24                dcmdwdclear
 .text          0x0008d0c0     0x81c0 ./xe/libxxe.a(libxxe_a-xedir2.o)
                0x0008d0c0                dirregist
                0x0008d410                dirresize
                0x0008d5fc                dirwakeup
                0x0008d6c4                func_draw_dir
                0x0008e6d8                dirddsetup2
                0x0008e720                dirddsetup
                0x0009058c                dirlineattr
                0x0009114c                dirlineattrrenamefld
                0x0009139c                dirlineattrdescfld
                0x000915dc                dirgetfldpos
                0x00091768                dirgetflddata
                0x00091828                dirsetflddata
                0x000919a0                dirgetfldoffs
                0x00091a3c                dirsetflddataDDFMT
                0x00091c24                dirsetflddataDDFMT2
                0x00091e28                dirsetdescdata
                0x00091ecc                dirsavename
                0x0009201c                dirgetflddata_l2f
                0x0009220c                dirsetflddata_f2l
                0x00092424                dirsavename_byutf8
                0x00092594                dirsavename_byu8lc
                0x00092758                dirsavenameDDFMT2
                0x0009278c                dirsetflderr
                0x000927f0                dirattrbit
                0x000929d4                dirattrbit_mdos
                0x00092afc                dirugidedit
                0x00092e44                dirsetdbcssplit
                0x00093220                dirsetdbcstbl
                0x00093394                dirsetdbcstblDDFMT
                0x000939c0                dirgetnameslink
                0x00093e58                dirgetword
                0x00094234                dirvsplitshift
                0x0009489c                drawrenameDDFMT
                0x00094b08                drawrenameDDFMT2
                0x00094bfc                dirgetmixstropt
                0x00094c6c                dirsethdrhex
                0x00094d1c                dirgethexdata
                0x00094f30                dirdisplayhex
 .text          0x00095280     0x3bf0 ./xe/libxxe.a(libxxe_a-xedir3.o)
                0x00095280                func_exec_dir
                0x000953bc                func_dlcmdcut_dir
                0x000959b4                xedirsetuprenamedraw
                0x00095b50                func_dlcmdpaste_dir
                0x00095d0c                dirpasterenamefld
                0x00096344                func_dlcmdchngsz_dir
                0x000964dc                func_dlcmduidorsz_dir
                0x000966f4                func_dlcmdlfn_dir
                0x000967a4                dirddresetall
                0x00096954                dirddresetallsub
                0x00096a54                func_selecttext
                0x00096aa0                func_selectbin
                0x00096aec                func_selectspf
                0x00096b38                func_selectspfcob
                0x00096b84                func_selectspfcobnum
                0x00096bd0                func_selectspfcob2
                0x00096c1c                func_selectspfcob2num
                0x00096c68                func_selectf80
                0x00096cb4                func_selecthex_file
                0x00096d00                func_select
                0x000972bc                func_select_filefuncid
                0x00097440                dirfunccall
                0x000974bc                dirlocate
                0x00097730                func_locate_dir
                0x00097b50                dirlocateparmchk
                0x00097c34                func_pathup
                0x000981e4                func_pathdown
                0x00098638                dirpatherr
                0x00098670                func_linetop_dir
                0x000987f4                func_lineend_dir
                0x00098a00                func_sort_dir
                0x00098b90                getdefaultentry
                0x00098c64                getlinenumbername
 .text          0x00098e70     0x189c ./xe/libxxe.a(libxxe_a-xedir4.o)
                0x00098e70                func_desc_dir
                0x00098f9c                dirgetdesc
                0x0009947c                dirgetdescDDFMT
                0x000997a4                dirgetstream
                0x000997d0                dirgetdescfromfile
                0x00099a34                dirdescdbcschk
                0x00099b58                dirdescdbcschkDDFMT
                0x00099bd8                dirsetlocalename
                0x00099f84                dirgetfstatforpath
                0x0009a068                dirsetlocalenameforpath
                0x0009a20c                dircharcsr
                0x0009a2c4                dirsetddfmtname
                0x0009a588                dirsetddfmtname_renamesv
 .text          0x0009a70c     0x4a3c ./xe/libxxe.a(libxxe_a-xedlcmd.o)
                0x0009a70c                dlcmdmain
                0x0009aba0                dlcsaveviewpcw
                0x0009abc8                dlcsavepend
                0x0009b02c                dlcmdreset
                0x0009b1fc                dlcmdsetlcmd
                0x0009b46c                dlcmddndselect
                0x0009b498                dlcmddndset
                0x0009b5fc                dlcmddndreset
                0x0009b7e4                dlcmddndgetpendctr
                0x0009b8f0                dlcmddndsetuplist
                0x0009bca4                dlcmddndremotecopy
                0x0009c028                dlccleardeleted
                0x0009c168                dlcsrchplh
                0x0009c244                dlcclearplcdeleted
                0x0009c2e4                dlcotherclient
                0x0009c7b0                dlcproc
                0x0009d068                dlcsamechk
                0x0009d224                dlccallfunc
                0x0009d384                dlcresultset
                0x0009d448                dlcgetlinecmd
                0x0009d598                dlcsrchcmdtbl
                0x0009d618                dlclinenocomp
                0x0009d778                dlcmdfe
                0x0009de1c                dlcmdupctr
                0x0009e008                dlcprinted
                0x0009e0c0                dlcftpaddentry
                0x0009e288                dlcftpmultidel
                0x0009e824                dlcftpmultdelgetrc
                0x0009e964                dlcftpfree
                0x0009e9f4                dlcrooterr
                0x0009ea1c                dlcverberr
                0x0009ea74                dlcerrrecord
                0x0009eab4                dlcerrmixed
                0x0009eaf4                dlcfuncdescription
 .text          0x0009f148     0x4abc ./xe/libxxe.a(libxxe_a-xedlcmd2.o)
                0x0009f148                dlcmdselect
                0x0009f1a8                dlcmdselecttext
                0x0009f224                dlcmdopen
                0x0009f300                dlcmdbrowse
                0x0009f464                dlcmdbrowse2
                0x0009f49c                dlcmdedit2
                0x0009f4d4                dlcmdedit3
                0x0009f558                dlcmdbinbe3
                0x0009f5d4                dlcmdeditf80
                0x0009f650                dlcmdbinbe
                0x0009f9bc                dlcmdbinbefuncid
                0x0009fc60                dlcmdedit
                0x0009fdc0                dlcmdviewb
                0x0009ff20                dlcmdviewe
                0x000a0080                dlcmdhex
                0x000a00bc                dlcmdcobnum
                0x000a00f8                dlcmdcobspace
                0x000a0134                dlcmdspfcobnum
                0x000a0170                dlcmdspfcobspace
                0x000a01ac                dlcmdspf
                0x000a01e8                dlcmdbecmdid
                0x000a0278                dlcmdotherbecmd
                0x000a031c                dlcmdotherbecmdfuncid
                0x000a03e0                dlcmddeqpfc
                0x000a059c                dlcmdresetdata
                0x000a07d8                dlcmdfree
                0x000a0858                dlcmdfreesub
                0x000a0914                dlcmdcd
                0x000a0b2c                dlcmdexpandall
                0x000a0c24                func_dlcmdrefresh
                0x000a0eb8                dlcmdexpand
                0x000a1280                dlcmdexpandbysort
                0x000a16a4                dlcmdrefreshsub
                0x000a19e4                dlcmdexpand1
                0x000a215c                dlcmdgetexpopt
                0x000a23b0                dlcmdunexpand
                0x000a24d0                dlcmdpath
                0x000a27ec                dlcmdexclude
                0x000a29dc                dlcmdunexclude
                0x000a2acc                dlcmdsetszorlc
                0x000a2d38                dlcmdsetszorlcsub
                0x000a3058                dlcmdresetparentsz
                0x000a3288                dlcmdlvlclear
                0x000a34b8                dlcgetdirlistfname
                0x000a35f0                dlcgetfullname
                0x000a3920                dlcgetfullnameenclose
                0x000a3af8                dlcslinkerrmsg
                0x000a3b74                dlcgetfullnamefilejunctiontarget
 .text          0x000a3c04     0x3bc4 ./xe/libxxe.a(libxxe_a-xedlcmd3.o)
                0x000a3c04                dlcmddeleter
                0x000a3c48                dlcmddeletez
                0x000a3c8c                dlcmddeletezr
                0x000a3cd0                dlcmddelete
                0x000a4310                dlcmdresetwildmultiple
                0x000a4548                dlcmddelflag
                0x000a45a8                dlcmddelview
                0x000a460c                dlcmdrename
                0x000a4b18                dlcmdcopymove
                0x000a5810                dlcmdcopymoveeditrenamefld
                0x000a5a88                dlcmdmoveflag
                0x000a5afc                dlcmdattrib
                0x000a5f3c                dlcmdattribtso
                0x000a61d8                dlcmdprint
                0x000a64c4                dlcmdxpflist
                0x000a6aec                dlcmdappendwildcard
                0x000a6f70                dlcxpgettmpdir
                0x000a7058                dlcxpsetremotefname
                0x000a7524                dlcxpdelremotetemp
                0x000a75c4                dlcfsiupdate
                0x000a76a0                dlcmdnoattrerr
                0x000a76c8                dlcmdnodesterr
                0x000a76f0                erronsinglescreen
                0x000a7730                dlcloadchk
 .text          0x000a77c8     0x3c20 ./xe/libxxe.a(libxxe_a-xedlcmd4.o)
                0x000a77c8                dlcmdundelinit
                0x000a79cc                dlcmdtbitchk
                0x000a7abc                dlcmdundelterm
                0x000a7d50                dlcmdgetdirname
                0x000a7e18                dlcmdwildrenamemsg
                0x000a7e50                dlcmdundelete
                0x000a8550                dlcmdundelfromsave
                0x000a8c9c                dlcmdtsoundelfromsave
                0x000a92b4                dlcmdftpundelfromsave
                0x000a9688                dlcmdsrchindexf
                0x000a988c                dlcmdsrchundel
                0x000a9960                dlcmdundelprep
                0x000a9d38                dlcmdtsoundelprepdir
                0x000a9f38                dlcmdftpundelprepdir
                0x000aa090                dlcmdftpundelprechk
                0x000aa124                dlcmdftpundelnamechk
                0x000aa1e0                dlcmdftpundelname
                0x000aa2a0                dlcmdftpundelprep
                0x000aa3dc                dlcmdftpclearundelsave
                0x000aa69c                dlcftpmultidelterm
                0x000aa894                dlcmdgetunddir
                0x000aabac                dlcmdgetunddirsub
                0x000aac84                dlcmdgetindex
                0x000aadbc                dlcmdchngname
                0x000aaf18                getundeldate
                0x000aaf50                errnodata
                0x000aaf78                errinvaliddata
                0x000aafa0                dlcUndelPrepRenameLongname
                0x000ab218                dlcmdftpclearundelsaveDeleted
                0x000ab398                dlcmdftpclearundelsaveDeletedDir
 .text          0x000ab3e8     0x29b8 ./xe/libxxe.a(libxxe_a-xedlcmd5.o)
                0x000ab3e8                dlcmdeditenq
                0x000ab4cc                dlcmdeditenq2
                0x000ab678                dlcmdeditenq3
                0x000ab73c                dlcmdseteditlc
                0x000ab938                dlcpdhsrch
                0x000abd30                dlcpdhsrch2
                0x000ac178                dlcpdhsrchts
                0x000ac484                dlcisrtpdh
                0x000aca64                dlcmdviewscrswap1
                0x000acb80                dlcmdviewscrswap2
                0x000acc40                dlcunexsub
                0x000acd10                dlcchngfh
                0x000ad18c                dlclvlmerge
                0x000ad5a4                dlclvlmerge2
                0x000ad92c                dlcdelentry
                0x000adc3c                dlcfncomp
                0x000add78                errnotdir
 .text          0x000adda0     0x40a0 ./xe/libxxe.a(libxxe_a-xedlcmd6.o)
                0x000adda0                dlcmdaclist
                0x000ae088                dlcmdaclisttso
                0x000ae4a8                dlcmdgetcmdstr
                0x000ae7a0                dlcmdgetcmdstrtso
                0x000aeb14                dlcmdappcmdedit
                0x000af030                dlcmdsubrshcmdedit
                0x000af144                dlcmdappcmd
                0x000af5e8                dlcmdappasync
                0x000af8ac                dlcmdtsosub
                0x000afba4                dlcmdsubrshcmd
                0x000afbe0                dlcmdspawn
                0x000afd3c                dlcmdopenwith
                0x000afe10                dlcmdopenwithsub
                0x000afea4                dlcmdassocchk_fnamelist
                0x000aff70                dlcmdassocchk_dirlist
                0x000b0028                dlcmdgrep
                0x000b061c                dlcmdcompare
                0x000b10c4                dlccompchkfiletype
                0x000b1568                dlcmdgetcmdparm
                0x000b187c                func_sendins_dir
                0x000b18a8                func_sendrep_dir
                0x000b18d4                func_senddel_dir
                0x000b1900                func_sendup_dir
                0x000b192c                func_senddown_dir
                0x000b1958                funcsenddir
                0x000b1a58                dlcmdsend
                0x000b1ac8                dlcmdsendsub
                0x000b1c14                dlcmdsenddnd
 .text          0x000b1e40     0x61bc ./xe/libxxe.a(libxxe_a-xeebc.o)
                0x000b1e40                xeebc_init
                0x000b2144                xeebc_term
                0x000b2188                xeebc_ucs2ebc1
                0x000b2204                xeebc_m2b1
                0x000b2294                xeebc_ascii2b
                0x000b23c4                xeebc_m2ddebc
                0x000b25a8                xeebc_m2bsrchstr
                0x000b275c                xeebc_dropsosi
                0x000b28b8                xeebc_f2bsetdbcs
                0x000b2a1c                xeebc_m2bsetdbcs
                0x000b2d28                xeebc_b2ddtab
                0x000b3034                xeebc_b2mgetiblen
                0x000b325c                xeebc_b2mdbcschk
                0x000b3398                xeebc_b2mpsd
                0x000b3518                xeebc_b2msetdbcs
                0x000b3a00                xeebc_b2b
                0x000b3bf8                xeebc_b2fl
                0x000b3d9c                xeebc_b2f
                0x000b3e94                xeebc_f2b
                0x000b3f80                xeebc_linechk
                0x000b3ffc                xeebc_setdbcstblplh
                0x000b41a8                xeebc_b2syn
                0x000b4370                xeebc_setdbcstbl
                0x000b4448                xeebc_chargetkbd
                0x000b4840                xeebc_filesetsosi
                0x000b4f48                xeebc_getdbcssplitctr
                0x000b5270                xeebc_cvdatawb
                0x000b5488                xeebc_modechng
                0x000b56bc                xeebc_umemmem_bandl
                0x000b5790                xeebc_cvmemcmp
                0x000b5e64                xeebc_cvmemcmpb2b
                0x000b601c                xeebc_createhandle
                0x000b60ec                xeebc_filesetsosiplhupdate
                0x000b6310                xeebc_filesetsosiplh
                0x000b65c0                xeebc_filesetsosibnds
                0x000b6d84                xeebc_setdbcssplitsetsosiR
                0x000b7040                xeebc_setdbcssplitsetsosiL
                0x000b734c                xeebc_getdbcssplitctrL
                0x000b7570                xeebc_setdbcssplitsetsosi
                0x000b763c                xeebc_setdbcssplitsetsosiOB
                0x000b77c4                xeebc_dbcssplitlen
                0x000b7a14                xeebc_filesetsosistr
 .text          0x000b7ffc     0x1154 ./xe/libxxe.a(libxxe_a-xeerr.o)
                0x000b7ffc                xeerr_seterrmsgct
                0x000b83e8                xeerrmsg
                0x000b8b9c                errmissing
                0x000b8bc4                errtoomany
                0x000b8bec                errinvalid
                0x000b8ccc                errdbcsinput
                0x000b8cf4                errnotnumeric
                0x000b8d1c                errnotascii
                0x000b8d44                errtoolong
                0x000b8d6c                errlcmd
                0x000b8d94                erralready
                0x000b8dbc                errbrowsemode
                0x000b8de4                errcsrpos
                0x000b8e0c                errdir
                0x000b8e44                errformat
                0x000b8e7c                errovermax
                0x000b8ed4                errprotected
                0x000b8efc                errmarginboundary
                0x000b8f24                errconflict
                0x000b8f8c                errscrtype
                0x000b8fc4                errnotsupported
                0x000b9004                errscrnotsplited
                0x000b903c                err2ndscrisnotfile
                0x000b9074                errnotvalidhexchar
                0x000b909c                erroptionforbinfile
                0x000b90d8                errutf8andnonutf8
                0x000b9114                errwildnamemultiple
 .text          0x000b9150     0x4bc0 ./xe/libxxe.a(libxxe_a-xefcmd.o)
                0x000b9150                func_save_file
                0x000b9404                func_repl_file
                0x000b9430                func_cut_file
                0x000b945c                func_create_file
                0x000b9488                func_append_file
                0x000b94b4                fcmdfileout
                0x000b9c04                fcmdfilefind
                0x000b9ca0                fcmdfilefind2
                0x000b9d1c                fcmdoutfnmedit
                0x000b9e8c                fcmdcalllcmd
                0x000b9f50                fcmdoutrange
                0x000ba050                fcmdoutrangebs
                0x000ba13c                fcmddisptabaltch
                0x000ba2c8                fcmdgetaltchUCS
                0x000ba734                fcmdgettabaltch
                0x000bac60                func_tabctr_file
                0x000bb210                fcmdcopyoptchk
                0x000bb6e0                func_copy_file
                0x000bbb64                func_paste_file
                0x000bbcb4                addifline0
                0x000bbe10                fcmdaddslh
                0x000bbfcc                fcmdcvf2l
                0x000bc2a0                fcmdgetcopyline
                0x000bc75c                fcmdgetwincbdata
                0x000bcacc                func_locate_file
 .text          0x000bdd10     0x4eac ./xe/libxxe.a(libxxe_a-xefcmd22.o)
                0x000bdd10                fcmdgetfindoption
                0x000be60c                fcmdgetcsropt
                0x000be8e8                fcmdoperandrearange
                0x000bf420                fcmdsetrange
                0x000bf7b0                srchsubcmd
                0x000bf83c                fcmdchkucsopt
                0x000bf9a0                fcmdscrollpage
                0x000bfe58                fcmdscrollpagemid
                0x000bfea8                fcmdfindscroll
                0x000c00fc                fcmdfindscrollvhexline
                0x000c02c0                fcmdcountvhexline
                0x000c0400                fcmdtabsrch
                0x000c09d0                fcmdutf8echsrch
                0x000c0c14                fcmdchkescseq
                0x000c0dbc                fcmdsetabrange
                0x000c11dc                fcmdxall
                0x000c158c                fcmdsetfoundlinelabel
                0x000c1808                fcmdlabelerr
                0x000c1840                fcmdfindhelp
                0x000c1920                fcmdrestorePS
                0x000c19b8                fcmderrPSotheropd
                0x000c19f4                fcmderrPSNootheropd
                0x000c1a30                fcmderrPSnotsaved
                0x000c1abc                fcmddisplayPS
                0x000c1b6c                fcmddisplayPSall
                0x000c1ca8                fcmdexecutePS
                0x000c1d1c                fcmdrestorePScmdline
                0x000c1d5c                fcmdsetPSopdpos
                0x000c1e40                fcmdcreatepufc
                0x000c1eec                fcmdgetfindoptionPScmd
                0x000c20c4                fcmdgetfindoptionPS
                0x000c2374                fcmdgetfindoptionPSstd
                0x000c23c0                fcmd2term
                0x000c2428                fcmdrestoreforfindPS
                0x000c2454                fcmdrgetpufcPStype
                0x000c24f0                fcmdchkPS
                0x000c2528                fcmdcallrfind
                0x000c25b4                fcmdsrchPSPPSF
                0x000c2694                fcmdsrchPSP
                0x000c26d8                fcmdsrchPSF
                0x000c271c                fcmdsrchSTD
                0x000c27cc                fcmdPSinit
                0x000c2b84                finderr_notdirlist
 .text          0x000c2bbc     0x5e50 ./xe/libxxe.a(libxxe_a-xefcmd23.o)
                0x000c2bbc                fcmdsplitsrch
                0x000c3a40                fcmdtabcmp
                0x000c3b1c                fcmdnextofspan
                0x000c3cbc                fcmdsplitdisplay
                0x000c3e3c                fcmdsplitrep
                0x000c4060                fcmdgetstartplhoffs
                0x000c4348                fcmdbndstgettop
                0x000c4398                fcmdbndstsrch
                0x000c4784                fcmdbndstfree
                0x000c47dc                fcmdbndstupdate
                0x000c4ab4                fcmdbndstgetcol
                0x000c4bac                fcmdbndsset
                0x000c4ebc                func_bnds
                0x000c567c                fcmdgetbnds
                0x000c5814                fcmdddstrsrch
                0x000c6524                fcmdddstrcmp
                0x000c6740                fcmdsearchoncmdbuff
                0x000c6b28                fcmd_savelcctforerrmsg
                0x000c7188                fcmd_bitcodetype
                0x000c7394                fcmdcvl2fsrchstr
                0x000c75a8                fcmdsetupddsrch
                0x000c797c                fcmdisddsrch
                0x000c7c10                fcmdgetebcsrchstr
                0x000c803c                fcmdcvesc2dd
                0x000c8284                fcmdescsrchinit
                0x000c8380                fcmdddstrsrch_dir
 .text          0x000c8a0c     0x3d78 ./xe/libxxe.a(libxxe_a-xefcmd25.o)
                0x000c8a0c                fcmdrfind
                0x000c9a8c                fcmdfind
                0x000c9b30                fcmdfindsub
                0x000ca680                operandchk
                0x000cc058                fcmdesctabchk
                0x000cc220                fcmdgetescsrchword
                0x000cc4b4                fcmd_execfindcmd
 .text          0x000cc784     0x9b9c ./xe/libxxe.a(libxxe_a-xefcmd26.o)
                0x000cc784                fcmdstrnstri
                0x000cc930                linesrchstring
                0x000cd410                linesrchstringsub
                0x000d1bb0                fcmdsetfindhighlight
                0x000d2b28                fcmdallxchk
                0x000d2e00                fcmdspannedline
                0x000d32ac                fcmdaroundline
                0x000d392c                fcmdaroundlinesub
                0x000d3d40                wordrep_setsosi
                0x000d4344                wordrep
                0x000d5628                wordrepp
                0x000d5748                fcmdddstrsrch_dirfnm_ascii
                0x000d5860                fcmdddstrsrch_dirfnm
                0x000d5e34                fcmdfind_dirattr
                0x000d6194                fcmdfind_dirts
 .text          0x000d6320      0x7d4 ./xe/libxxe.a(libxxe_a-xefcmd27.o)
                0x000d6320                fcmdgrepcomp
                0x000d64dc                fcmdgrepplh
                0x000d6794                fcmdcvpicture
 .text          0x000d6af4     0x3300 ./xe/libxxe.a(libxxe_a-xefcmd3.o)
                0x000d6af4                func_cid
                0x000d795c                fcmdcidsettop
                0x000d7c80                fcmdchkcidtopfile
                0x000d7ea4                fcmdisrtline
                0x000d8220                fcmdisrtlinedbcs
                0x000d82e8                fcmdisrtlinedbcsebcsosi
                0x000d84b4                fcmdcidhelp
                0x000d8764                func_setscroll
                0x000d8848                func_renum
                0x000d88dc                func_number
                0x000d9338                fcmdgetrenumsetfld
                0x000d9490                fcmdnumajustlinenosz
                0x000d95b0                func_version
                0x000d9740                func_drop_file
                0x000d9a8c                fcmdgetlabelrange
                0x000d9d44                fcmdpostfixlenerr
                0x000d9d7c                fcmdinvalidfile
                0x000d9da4                fcmdinvalidbinfile
                0x000d9dcc                fcmdinvalidforspf
 .text          0x000d9df4     0x3880 ./xe/libxxe.a(libxxe_a-xefcmd4.o)
                0x000d9df4                func_sort
                0x000da01c                fcmdsortopdchk
                0x000da594                fcmdsortproc
                0x000db568                fcmdsortbndsupdate
                0x000dbcec                sortddcmp
                0x000dbe0c                sortlinecomp
                0x000dc2d0                func_col
                0x000dc6f0                fcmdcolfree
                0x000dc7a4                fcmdcolalloc
                0x000dd190                fcmdinitialcols
                0x000dd30c                fcmdgetlabparm
 .text          0x000dd674     0xd84c ./xe/libxxe.a(libxxe_a-xefcmd42.o)
                0x000dd674                fcmdtflowlcmd
                0x000ddb70                func_tflow
                0x000ddc24                fcmdsplit
                0x000dee10                fcmdsplitbydelm
                0x000dfde8                fcmdchangewidth
                0x000dff8c                fcmdchangewidthsub
                0x000e0318                fcmdsplitexp
                0x000e0744                fcmdsplitsplit
                0x000e0dc4                fcmdtflowsplit
                0x000e1498                fcmdtflowsplitlen
                0x000e1b60                fcmdgetparagendplh
                0x000e1dc8                fcmdtflowgetindent
                0x000e22dc                fcmdtflowindentshift
                0x000e27a4                fcmdsplitspace1
                0x000e2ce8                fcmdsplitjoin
                0x000e44ec                fcmdtflowjoin
                0x000e4d10                fcmdtflowjoinsub
                0x000e57f4                fcmdsplitlen
                0x000e74f4                fcmdsplitbydelmbndseach
                0x000e7694                fcmdsplitbydelmbnds
                0x000e8930                fcmdsplitbndsgetsrc
                0x000e9a38                fcmdsplitbndsjoinedsplit
                0x000e9bb8                fcmdsplitlenbnds
                0x000e9f1c                fcmdsplitbndsgetsrcplh
                0x000eaa88                fcmdsplitbndsupdate
 .text          0x000eaec0     0x3750 ./xe/libxxe.a(libxxe_a-xefcmd43.o)
                0x000eaec0                fcmdsplitcut
                0x000eb820                fcmdcutoff
                0x000eb9b4                fcmdsplitbin
                0x000ebf60                fcmdsplitsplitbin
                0x000ec1ec                fcmdsplitjoinbin
                0x000ecabc                fcmdsplitspace1data
                0x000ecd70                fcmdplhpadspace
                0x000ecf1c                fcmdresettemperr
                0x000ecfe4                fcmdsettemperr
                0x000ed044                func_join_file
                0x000ed5e4                fcmdjoinx
                0x000ed78c                fcmdjoinnx
                0x000ed9f0                fcmdebcsplitlen
                0x000edbf0                fcmdebcappendsoeol
                0x000eddac                fcmdebcchkdbcsconcat
                0x000edeb4                fcmdebcchkdbcsconcatbndsupdateL
                0x000edfb0                fcmdebcchkdbcsconcatbndsupdateR
                0x000ee0c0                fcmdebcchkdbcsconcatbndsupdate
                0x000ee25c                fcmdebcchkdbcsconcatbnds
 .text          0x000ee610     0x6488 ./xe/libxxe.a(libxxe_a-xefcmd5.o)
                0x000ee610                func_dbcsconv
                0x000f0184                fcmdgetopt
                0x000f028c                fcmdgethexparm
                0x000f04bc                fcmdxnotepchk
                0x000f05ac                fcmddbcsconv
                0x000f1908                fcmdhex2ascii
                0x000f1f68                fcmdhexconv
                0x000f21fc                fcmdmulthexconv
                0x000f2558                fcmdxnotehexconv
                0x000f2890                fcmdkandl
                0x000f2a84                fcmducsconv
                0x000f325c                fcmdcvgetdata
                0x000f34a8                fcmdcvsavedata
                0x000f39cc                fcmdcvfuncerr
                0x000f3be0                fcmdsetfound
                0x000f4390                fcmdcvundo
                0x000f4460                fcmdcvajusttab
                0x000f4554                fcmdcvajusttabsub
                0x000f4704                fcmdcvajusttabsub2
                0x000f4954                fcmdcvconflict
                0x000f497c                fcmdallocmfwt
 .text          0x000f4a98     0x8350 ./xe/libxxe.a(libxxe_a-xefcmd6.o)
                0x000f4a98                func_rotate
                0x000f4c00                fcmdrotateopdchk
                0x000f4fe4                fcmdgetabrange
                0x000f5100                fcmdrotatemain
                0x000f57f8                fcmdrotaterl
                0x000f650c                fcmdrotatey
                0x000f6d8c                fcmdajr
                0x000f7598                fcmdrotatex
                0x000f7e44                fcmdlineupdate
                0x000f80f8                func_openwith
                0x000f81f4                func_profile
                0x000f8370                fcmdprofhelp
                0x000f83a0                fcmdprofshowstat
                0x000f86f8                fcmdprofshowrecord
                0x000f8d40                fcmdprofcurstat
                0x000f944c                fcmdprofgetprofilebyfilename
                0x000f94e4                fcmdprofgetprofile
                0x000fa188                fcmdprofgetprofilerecord
                0x000fa4c4                fcmdprofmergerecord
                0x000fa810                fcmdprofupdaterecord
                0x000fb240                fcmdprofupdaterecordcmd
                0x000fbbe0                fcmdprofwriterecord
                0x000fbd94                fcmdprofgetfnm
                0x000fc378                fcmdprofreadrecord
                0x000fc4e4                fcmdprofinitrecord
                0x000fc52c                fcmdprof83wd
                0x000fc554                fcmdprof83io
                0x000fc9f0                fcmdprof83ioread
                0x000fcbac                fcmdprof83iosrch
                0x000fcc78                fcmdprof83q
                0x000fcdb0                fcmdproferrnoext
 .text          0x000fcde8      0xef4 ./xe/libxxe.a(libxxe_a-xefcmd7.o)
                0x000fcde8                funcsp_help
                0x000fce14                funcsp_errline
                0x000fce5c                func_shortpath
                0x000fd0c0                funcsp_getentry
                0x000fd2d4                funcsp_load
                0x000fd5fc                funcsp_init
                0x000fd628                funcsp_append
                0x000fd720                funcsp_term
                0x000fd748                funcsp_edit
                0x000fd7a8                funcsp_chkopen
                0x000fd8dc                funcsp_refresh
                0x000fd978                funcsp_add
                0x000fdc28                funcsp_fncomp
                0x000fdc80                funcsp_search
 .text          0x000fdcdc     0x39ac ./xe/libxxe.a(libxxe_a-xefile.o)
                0x000fdcdc                fileinit
                0x000fded0                fileterm
                0x000fdfe4                fileeditso
                0x000fe060                func_edit_file3
                0x000fe0d0                func_editbin_file
                0x000fe118                func_edittext_file
                0x000fe160                func_editspf_file
                0x000fe1a8                func_editspfcob_file
                0x000fe1f0                func_editspfcobnum_file
                0x000fe238                func_editspfcob2_file
                0x000fe280                func_editspfcob2num_file
                0x000fe2c8                func_editf80_file
                0x000fe310                func_edithex_file
                0x000fe358                func_edit_file2
                0x000fe4fc                func_edit_file
                0x000feb64                func_browsetext_file
                0x000febac                func_browsebin_file
                0x000febf4                func_browsespf_file
                0x000fec3c                func_browsespfcob_file
                0x000fec84                func_browsespfcobnum_file
                0x000feccc                func_browsespfcob2_file
                0x000fed14                func_browsespfcob2num_file
                0x000fed5c                func_browsef80_file
                0x000feda4                func_browsehex_file
                0x000fedec                func_browse_file2
                0x000fef58                func_browse_file
                0x000ff544                filemixmodechk
                0x000ff6f0                filesrchpfh
                0x000ff804                filefntransbyfnopt
                0x000ffaa0                filesrchpfh2
                0x000ffe54                filesrchpfhCP
                0x001000ec                filefreepfh
                0x001003d8                func_end_file
                0x00100570                func_cancel_file
                0x001007f8                filealloclh
                0x001009f0                fileexpandbuff
                0x00100d2c                filefreeplh
                0x00100f04                fileresetfindctr
                0x00100fdc                fileresettabctr
                0x00101478                fileerrmixmode
                0x001014b0                filebrowsechl
                0x00101630                func_cmdhistlc
                0x0010165c                func_cmdhistu8
 .text          0x00101688     0x4a0c ./xe/libxxe.a(libxxe_a-xefile12.o)
                0x00101688                filesave
                0x00105b6c                fileadjustfh4cut
                0x00105db4                filecloseerr
                0x00105e14                filepartialouterr
                0x00105e58                chkmfhheader
 .text          0x00106094     0x1340 ./xe/libxxe.a(libxxe_a-xefile13.o)
                0x00106094                fileplhfail
                0x001060c0                fileclosefree
                0x00106224                fileclosefree2
                0x0010649c                fncomp
                0x00106530                filefree
                0x0010658c                filefreealldataplh
                0x001068b0                fileresetundoable
                0x00106918                fileregist
                0x00106df4                filecalclinenosz
                0x001070f8                fileinitialleft
                0x00107228                filefnquate
                0x00107398                filelinemallocerr
 .text          0x001073d4     0x5bcc ./xe/libxxe.a(libxxe_a-xefile14.o)
                0x001073d4                setufgetsoptVparm
                0x0010744c                setufgetsoptVparm2
                0x00107498                fileload
                0x0010a008                filetailposproc
                0x0010a874                filesetfstat
                0x0010b02c                filefindopen
                0x0010b64c                fileopeninit
                0x0010b6cc                filembsplitchk
                0x0010b7cc                filegetline_copysrc
                0x0010b858                filegetline
                0x0010c3e4                filesplitmsg
                0x0010c424                seektostartpos
                0x0010c514                chklargefile
                0x0010c804                filegetcmdstack
                0x0010ca14                fileloadchl
 .text          0x0010cfa0     0x4a8c ./xe/libxxe.a(libxxe_a-xefile15.o)
                0x0010cfa0                filerenum
                0x0010f5e0                filespfchk
                0x0010fb70                fileisvalidspfline
                0x00110068                filespfloadnum
                0x001107b8                filesetspfnum
                0x001110a8                filespfnumedit
                0x001113a0                fileresetver
                0x0011167c                filesetvernum
                0x001117ec                filesetlineerr
                0x0011183c                filespfnumerr
                0x00111864                filespfcobnumerr
                0x0011188c                filespferrnotspace
                0x001118b4                filespflenerr
                0x001118ec                filespfseqerr
                0x00111914                filespfvermaxerr
                0x00111954                filespfpfeerr
                0x00111978                filenotspferr
                0x001119a0                filespfvererr
                0x001119cc                filespfver
                0x00111a04                filespfneedforce
 .text          0x00111a2c     0x4c1c ./xe/libxxe.a(libxxe_a-xefile2.o)
                0x00111a2c                filepopup
                0x00111ae0                adjustddfmthdr
                0x00112078                filewakeup
                0x00112eec                fileufldinit
                0x00112f90                fileeditlineno
                0x00113638                filecmdlinedisp
                0x0011382c                filecolsdisp
                0x00113f60                filecolsprint
                0x001140fc                vsplitshift
                0x00114998                filesetcsr
                0x00114ab8                filesetmultdraw
                0x00114c3c                filesetdrawstart
                0x00114ec0                filesetfulldraw
                0x00114f40                fileutf8resethdrattr
                0x0011500c                fileutf8setfilenamecodetype
                0x001157f4                fileutf8inithdrattr
                0x0011604c                filehdrlf2dd_full
                0x001162a8                fileutf8sethdrattrsub
                0x00116390                fileutf8sethdrattr
                0x001164a4                fileutf8vsplithdrattr
 .text          0x00116648     0x3578 ./xe/libxxe.a(libxxe_a-xefile22.o)
                0x00116648                fileupper
                0x001166c8                filehexprint
                0x00116890                filehexdisplay
                0x00116e14                filecharhexinput
                0x00117310                filegethposrange
                0x00117418                filegethexpos
                0x001174ac                filegetdatapos
                0x001175c0                filegetword
                0x00118e68                filegethexcsrdpos
                0x00119048                filevhexprint
                0x001194a8                filevhexdisplay
                0x001199cc                filecharhexinput_v
 .text          0x00119bc0     0x46f0 ./xe/libxxe.a(libxxe_a-xefile3.o)
                0x00119bc0                func_exec_file
                0x00119d3c                filepguphalf
                0x00119d84                func_pgup_file
                0x0011a0e8                func_pgdown_file
                0x0011a164                filepgdownhalf
                0x0011a19c                filepgdown
                0x0011a484                filepglefthalf
                0x0011a4cc                func_pgleft_file
                0x0011a7e8                func_pgright_file
                0x0011aaf8                filepgrighthalf
                0x0011ab30                filepgright
                0x0011afd8                func_linetop_file
                0x0011b15c                func_lineend_file
                0x0011bfd0                func_filetop_file
                0x0011c120                func_fileend_file
                0x0011c3a8                func_lineup_file
                0x0011c5a0                func_linedown_file
                0x0011c79c                filescrollchk
                0x0011c8a8                getscrollsz
                0x0011ce68                filechkscrollopd
                0x0011cfec                filesetscrollsz
                0x0011d2a0                filegetscrollid
                0x0011d2f8                filehalfhscrollsz
                0x0011d354                filehalfvscrollsz
                0x0011d430                filecharcsr
                0x0011d7dc                filevhexstepline
                0x0011d980                func_jumpcharhex_file
 .text          0x0011e2b0     0x4148 ./xe/libxxe.a(libxxe_a-xefile4.o)
                0x0011e2b0                filegetcidtbl
                0x0011e2d0                filecidterm
                0x0011e33c                filegetcid_ebcsub
                0x0011e398                filegetcid_ebc
                0x0011e44c                filegetcid
                0x0011e838                filecidbyext
                0x0011ebb0                filetoplinecid
                0x0011f990                filesetcid
                0x0012090c                filecidlrecl
                0x001219b4                filegetcidlen
                0x00121a80                filecidlrecl2
                0x00121aec                filegetcidlen2
                0x00121b54                filegetcidlenc
                0x00121bc0                filecidlrecl3
                0x00121c10                filecidtypechk
                0x00121cfc                filecidprefixchk
                0x00121d94                filegetcidtype
                0x00121e68                fileiscid
                0x00121fc4                fileiscid_ebc
                0x0012219c                filechkcid
 .text          0x001223f8     0x1f78 ./xe/libxxe.a(libxxe_a-xefile42.o)
                0x001223f8                filetoplinelrecl
                0x00123440                filedefaultspf
                0x0012355c                filemerginchk
                0x00123a84                filegetoomlen
                0x00123b40                fileoomshiftback
                0x00123e6c                filetoplineuctr
 .text          0x00124370      0xc44 ./xe/libxxe.a(libxxe_a-xefile43.o)
                0x00124370                filecidclear
 .text          0x00124fb4     0x80e0 ./xe/libxxe.a(libxxe_a-xefile5.o)
                0x00124fb4                fileerrebcdicoptopn
                0x00124fec                filetempname
                0x00125180                fileoptionprechk
                0x00125284                xefile5getparmlreclV
                0x0012535c                filegetparmlrecl
                0x00125510                fileoptionchkebcconverter
                0x001255c8                filesaveoptionchkcp
                0x00125e54                chknewmode
                0x00126084                filesaveoptionchk
                0x00126d9c                fileselectutf8optionchk
                0x00126f40                fileoptionchk
                0x0012bd4c                fileupdateprofilelrecl
                0x0012bfbc                fileupdateprofile
                0x0012c200                fileupdateprofilesave
                0x0012c478                fileupdateprofilesave_cut
                0x0012c57c                fileparmxrange
                0x0012c6c0                filepartialcopy
                0x0012cea8                fileedithelp
                0x0012cfc8                fileerrexclusiveopt
                0x0012cff0                fileerrchange2mfh
                0x0012d02c                fileerrlreclforV
                0x0012d060                fileerrvfmtforR
 .text          0x0012d094     0x5a84 ./xe/libxxe.a(libxxe_a-xefile6.o)
                0x0012d094                filechktabdbcs
                0x0012d654                filechktabdbcs2
                0x0012d6d8                filechkutf8encoding
                0x0012dab4                filecvf2lsetdbcs
                0x0012de30                filecvl2dd
                0x0012e06c                filecvaftercopy
                0x0012e530                filecvm2b
                0x0012e83c                filecvb2m
                0x0012eb0c                filecvb2b
                0x0012edbc                filecvebcplh
                0x0012f2a8                filetabexp
                0x0012fa44                fileimtabexp
                0x0012fb04                filegettabexplen
                0x0012ff20                filegettabexplenhex
                0x001302a4                filegettabexplenofmargined
                0x001309c4                getdbcsspace
                0x00130a34                tabdisplay
                0x00131950                tabdisplayforxprebcbyucs
                0x00131c90                tabdisplayforxpr
                0x00132008                tabdisplayforxprrecord
                0x00132110                tabdisplayforxpru8
                0x001322b0                filetabclear
                0x001323fc                filetabclearall
                0x00132648                filetabrestore
                0x001328d0                filetgettabexplensub
                0x00132a04                filepfhchktabdbcs
                0x00132aec                filetabexpanderr
 .text          0x00132b18     0x4554 ./xe/libxxe.a(libxxe_a-xefile7.o)
                0x00132b18                file7term
                0x00132b34                filedropinsertcmt
                0x00132d24                filedrop
                0x00133130                filefk
                0x00133808                filefkctline
                0x00133f90                filefkctlineshortcut
                0x00134260                filefksave
                0x00134b3c                filefksaveshortcut
                0x00134d94                filefkctlineft
                0x0013558c                filesetassign
                0x00135944                filefksaveft
                0x00135ff8                filekeyassign
                0x00136454                filecmdvassign
                0x001365cc                filefkctlinealias
                0x0013684c                filesetupalct
                0x00136a00                filesetupscktalias
                0x00136b64                filefksavealias
                0x00136e5c                filesrchalct
                0x00136f08                filekeynameerr
                0x00136f30                fileoptlreclerr
                0x00136f58                fileoptfuncnmerr
                0x00136f80                fileoptfixederr
                0x00136fa8                fileoptkeyoverflow
                0x00136fd4                fileoptcmdfmterr
                0x00136ffc                fileoptdupcmdv
                0x00137034                fileoptdupassign
 .text          0x0013706c     0x35d8 ./xe/libxxe.a(libxxe_a-xefsub.o)
                0x0013706c                filebkupreopen
                0x00137514                filereopen
                0x00137980                fileseek
                0x00137a54                fileread
                0x00137b78                filewrite
                0x00137c34                savefiledata
                0x00137d38                filewrite_recordmode
                0x00137ffc                fileeofwrite
                0x00138020                filewriteVRH
                0x00138318                filecvwrite
                0x00138a04                filecvwrite_ebcxpwk
                0x00138ab8                fileeofchk
                0x00138adc                getdisplayline
                0x00138c4c                getdisplayline2
                0x00138cd8                lineseqchk
                0x00138e38                ufilesetfhfilename
                0x00139128                fsubf2l
                0x001393e4                fsubseteolid
                0x00139568                fsubnextlineoversplit
                0x001396a0                filerepwordsetdbcstbl
                0x00139804                fsubgetmaxlen
                0x00139ac0                xefsubupdatechk
                0x00139d6c                xefsubwritepermissionchk
                0x0013a1e4                xefsubresetcsrplh
                0x0013a370                xefsubresetcsrplhsub
                0x0013a418                fsubresetebcdbcstbl
 .text          0x0013a644     0x1ce8 ./xe/libxxe.a(libxxe_a-xeftp.o)
                0x0013a644                xeftpinit
                0x0013a990                xeftpterm
                0x0013a9ec                xeftphostsget
                0x0013aeb4                xeftpget
                0x0013b158                xeftpsave
                0x0013b4cc                xeftpgetwdfname
                0x0013b788                xeftpgetwdfname2
                0x0013b9f0                xeftpgetdndwd
                0x0013bb1c                xeftpdelwd
                0x0013bb8c                xeftpgetremotecopy
                0x0013bd84                xeftplog
                0x0013c08c                xeftprename
                0x0013c120                func_node_help
                0x0013c150                func_node
 .text          0x0013c32c     0x4458 ./xe/libxxe.a(libxxe_a-xefunc.o)
                0x0013c32c                funcinit
                0x0013cc50                funcchngeenter
                0x0013cd64                funcgetwfth
                0x0013cf78                funcputwfth
                0x0013d0ac                funcsetft
                0x0013d190                funcduperr
                0x0013d4d8                funcdupktsrch
                0x0013d6f0                cmdduperr
                0x0013d7ac                functerm
                0x0013d810                funccall
                0x0013e31c                funcftsrch
                0x0013e498                funcsaveopdcodetype
                0x0013e698                funcsaveopd2codetype
                0x0013e830                funcuparse2_LC
                0x0013e9a4                funcgetOpdLCCT
                0x0013eae4                func_cmd
                0x0013faa0                callmenu
                0x0013fb6c                func_at
                0x0013fdfc                func_sleep
                0x0013ff08                funcsleepsettimeup
                0x0013ff3c                funcsetsleepblock
                0x0013ff9c                funcsleepreset
                0x00140028                funccmdprechk
                0x0014015c                funcopdpostp
                0x001401d8                funcaliasset
                0x0014047c                funcaliassetwxe
                0x0014051c                funcaliasreset
                0x00140538                funcaliasdeqpending
                0x001405bc                funccmderr0
                0x00140630                funccmderr
                0x001406c0                funccmderr2
                0x00140710                funcinvalidkey
                0x00140744                funcinhibitkey
 .text          0x00140784     0x6bfc ./xe/libxxe.a(libxxe_a-xefunc2.o)
                0x00140784                funcxkbdoddxdigit
                0x001408d0                funcxkbsetmbstr
                0x001409d8                funcpanxkbd
                0x0014112c                func_char
                0x00141e40                func_key
                0x00142034                func_quit
                0x001420b0                func_term
                0x0014212c                func_exit
                0x001421d4                func_reset
                0x00142480                func_reset2
                0x001428f4                func_help
                0x00142de4                funcparseredirect
                0x00142fc0                func_execmdfile
                0x00143bec                funcexefreeredirect
                0x00143c58                funcexelogopenclose
                0x00143efc                funcexeredirect
                0x00144190                funcexeredirect_select
                0x00144670                funcexeredirect_wildcard
                0x00144a60                funcexeredirect_parmfile
                0x00144e74                funcexeredirect_cmdcall
                0x00144f88                execmdsub
                0x001451ec                func_retrieveprev
                0x00145218                func_retrievenext
                0x00145244                func_retrieveprevscr
                0x001452dc                func_retrievenextscr
                0x00145374                funcretrieve
                0x00145648                funcretrievepsc
                0x00145738                funcrestorePSC
                0x00145830                func_cmdrepeat
                0x001458e8                funccmdrepeatpsc
                0x00145970                funccmdstack_utf8
                0x00145a0c                funccmdstack
                0x00145d00                funcrcmdstackmergeutf8
                0x00145ef0                funcrcmdstackFindStackRecovery
                0x00145f58                funcfreecmdstack
                0x00145fac                funcwcmdstack
                0x00146214                funcrcmdstack
                0x0014637c                funcsetlongcmdfromstack
                0x00146514                funcsetlongcmd_utf8
                0x001465e0                funcsetlongcmd
                0x0014675c                funcgetlongcmd
                0x00146794                funcgetlongcmd_byutf8
                0x001469a0                func_hexinput
                0x00146a6c                func_hex_file
                0x00146d20                funccmdlog
                0x00147098                pftchk
                0x001470b8                funcinhibitkey2
                0x001470f0                funchexerr
                0x00147118                funcerrexecmdinprog
                0x00147140                func_redo_file
                0x00147168                funcgetcmdstack
                0x001472c0                funcsrchpsc
 .text          0x00147380      0x520 ./xe/libxxe.a(libxxe_a-xefunct.o)
                0x00147380                func_nosupport
                0x001473c4                functinit
                0x00147404                functsjis2euc
                0x00147528                functgetcopy
                0x00147594                functterm
                0x001475a8                functreset
                0x001475fc                functblsrch
                0x001476ec                functblsrchbyname
                0x001477e0                functblsrchbycmd
 .text          0x001478a0     0x21f8 ./xe/libxxe.a(libxxe_a-xefunct2.o)
                0x001478a0                funct2init
                0x00147cf0                funct2getfnm
                0x00147e7c                funct2getacsch
                0x00147f54                funct2setuplinech
                0x001480a4                funct2lchgetucs
                0x00148308                funct2setuplinechsub
                0x00148780                funct2printu8data
                0x00148a00                funct2getlinechstr
                0x00148eb8                funct2getinputgc
                0x00149280                funct2getnextinputgc
                0x001494bc                funct2getnextinputgcUTF8
                0x00149788                funct2fmterr
                0x001497bc                funct2kbdsimutf8
                0x001499d8                funct2saveforerrmsg
 .text          0x00149a98      0x798 ./xe/libxxe.a(libxxe_a-xegbl.o)
                0x00149a98                gblinit
                0x0014a050                xesetkbdopt
                0x0014a080                gblkon
                0x0014a190                gblterm
 .text          0x0014a230     0x1824 ./xe/libxxe.a(libxxe_a-xeini.o)
                0x0014a230                func_ini
                0x0014a508                iniwkeytbl
                0x0014a6f0                iniwfunctbl
                0x0014accc                inigetparm
                0x0014b034                inilineproc
                0x0014b3c0                inirfunc
                0x0014ba10                inigetfname
 .text          0x0014ba54     0x3004 ./xe/libxxe.a(libxxe_a-xeini2.o)
                0x0014ba54                ini2term
                0x0014bc4c                iniwother
                0x0014cd50                iniwcid
                0x0014cfbc                inirother
                0x0014e0b4                inircid
                0x0014e3ac                inirfixcid
                0x0014e410                inirtranstbl
                0x0014e59c                inirtranschar
                0x0014e63c                inirtabdispchar
                0x0014e718                inirbnds
                0x0014e878                iniwbnds
                0x0014e9e0                inirctlstring
 .text          0x0014ea58     0x1da8 ./xe/libxxe.a(libxxe_a-xeini3.o)
                0x0014ea58                inisaveopt
                0x0014f51c                inisavecd
                0x0014f550                inisavelastfile
                0x0014f76c                inigetopt
                0x00150230                inigetlastfile
                0x0015064c                inirestcd
                0x001506d0                inisave
                0x00150730                iniacronymwrite
                0x00150780                iniacronymchk
 .text          0x00150800     0x33cc ./xe/libxxe.a(libxxe_a-xekbd.o)
                0x00150800                kbdinit
                0x0015093c                kbdinit101
                0x001509e8                kbdfkctmerge
                0x00150c00                kbdsetfkcmd
                0x00150cc4                kbdreinit
                0x00150ce4                kbdterm
                0x00150e30                kbdproc
                0x001515f8                kbdassignchng
                0x001516b4                kbdsetmacrocmdfilenameparm
                0x00151840                kbdfkcedit
                0x00151adc                kbdscedit
                0x00151ff8                kbdftsrch
                0x0015212c                kbdchk
                0x00152158                kbdsrchkt
                0x00152244                kbdsrchdupkt
                0x001522f0                kbdsrchktbyname
                0x00152518                kbdgetname
                0x00152650                kbdcvkeyname2euc
                0x00152744                kbdgetchartbl
                0x001527e4                kbdgetktgrp
                0x001528e0                kbdgetfkct
                0x00153028                kbdfkctsrch
                0x00153154                kbdwfkct
                0x001532d0                kbdrfkct
                0x0015350c                kbdwsckt
                0x00153664                kbdrsckt
                0x00153848                func_shortcut
                0x001538a8                func_shortcutquery
                0x00153908                kbderrscna
                0x0015392c                xekbdchkSAC
                0x00153a70                xekbdsetSAC
 .text          0x00153bcc     0x2a60 ./xe/libxxe.a(libxxe_a-xelcmd.o)
                0x00153bcc                filelinecmd
                0x00153eec                savependlcmd
                0x00154434                savependlcmd_other
                0x001546b0                lcmdreset
                0x00154938                otherclient
                0x00154e1c                lcmdclearlcmdplc
                0x00154ec8                lcmdproc
                0x00155320                callsingle
                0x0015537c                callpair
                0x001553c8                callpairs
                0x00155414                resultset
                0x0015552c                getlinecmd
                0x00155edc                lcmdlinenocomp
                0x0015603c                lcmdgetdummyplc
                0x001560ac                lcmdgetabplh
                0x001565a0                lcmderr
                0x001565e4                lcmdhelp
 .text          0x0015662c     0x6064 ./xe/libxxe.a(libxxe_a-xelcmd2.o)
                0x0015662c                lcmdsingle
                0x00156f5c                lcmdisrtwithlen
                0x001570c0                lcmdisrtcont
                0x00157350                lcmdisrt
                0x00157c3c                lcmdisrtbs
                0x00157dc0                lcmdisrtrange
                0x00157f84                lcmdrep
                0x0015815c                lcmdrepbs
                0x00158444                lcmddelbs
                0x001585f8                lcmddel
                0x00158f2c                lcmdresetx
                0x00159014                lcmdincall
                0x00159284                lcmdincf
                0x001594b4                lcmdincfbs
                0x00159794                lcmdincl
                0x001599e0                lcmdinclbs
                0x00159d40                lcmdincm
                0x00159f9c                lcmdexcbs
                0x0015a130                lcmdexcsame
                0x0015a18c                lcmdexcfromxall2
                0x0015a3dc                lcmdexc
                0x0015a9d0                alloclhx
                0x0015aa80                typeexclude
                0x0015ab64                lcmdrenumsuffix
                0x0015ba50                lcmdeditxline
                0x0015bc60                lcmddelxline
                0x0015bcbc                lcmddelresetcurtop
                0x0015c070                lcmdgetplhrange
                0x0015c1c4                lcmdgetplhrange2
                0x0015c31c                lcmdclearlcmd
                0x0015c4cc                lcmdexcludedmsg
 .text          0x0015c690     0x2f78 ./xe/libxxe.a(libxxe_a-xelcmd3.o)
                0x0015c690                lcmdpair
                0x0015cb08                lcmdmove
                0x0015cbfc                lcmdcopy
                0x0015eb0c                lcmdclearselected
                0x0015eb84                linecopy
                0x0015ec20                ulhcopy
                0x0015eff0                lcmdover
                0x0015f100                lcmdsetdbcstblbin
                0x0015f2d8                lcmdcvddandl
                0x0015f5e0                lcmdeolerr
 .text          0x0015f608     0x4c14 ./xe/libxxe.a(libxxe_a-xelcmd4.o)
                0x0015f608                lcmdshiftbs
                0x0015f72c                lcmdshift
                0x00161f38                lcmdbndsadjust_l
                0x001620b4                lcmdbndsadjust_r
                0x001621fc                lcmdcombs
                0x0016235c                lcmdcom
                0x00162804                lcmdgcom
                0x00162928                lcmdsplit
                0x00162de8                lcmdjoin
                0x00163338                lcmdjoinx
                0x00163498                lcmdresetxlineno
                0x0016359c                lcmddbcssplit
                0x00163728                lcmdshifterr
                0x00163864                lcmdresetshifterr
                0x00163a00                lcmdovfchk
                0x00163d90                lcmdrshift
                0x00163fdc                filecvlcmd
 .text          0x0016421c     0x36cc ./xe/libxxe.a(libxxe_a-xelcmd5.o)
                0x0016421c                lcmdpairs
                0x00164668                lcmdcomp
                0x00165b10                lcmdunmatch
                0x00166658                lcmdexec
                0x00166dfc                lcmdlower
                0x00166e6c                lcmdupper
                0x001673d8                lcmduppersub
 .text          0x001678e8     0x16b8 ./xe/libxxe.a(libxxe_a-xemousel.o)
                0x001678e8                mousel_btnproc
                0x00167968                mousel_funcsrch
                0x00167c1c                mousel_nop
                0x00167c40                mousel_lbclick
                0x00167ca8                mousel_lbdown
                0x00167d34                mousel_lbup
                0x00167e24                mousel_lbdblclick
                0x00167e7c                mousel_wheel
                0x0016801c                mousel_mbdown
                0x001680d0                mousel_lineselect
                0x0016828c                mousel_lineselect_topmenu
                0x001683cc                mousel_lineselect_fnamelist
                0x001686ac                mousel_lineselect_file
                0x00168900                mousel_lineselect_dirlist
                0x00168a20                mousel_linedrag_dirlist
                0x00168a94                mousel_dragselectchk
                0x00168b78                mousel_dragfile
                0x00168c28                mousel_cappaste
                0x00168c9c                mousel_movecsr
                0x00168ce4                mousel_strcmd
                0x00168d24                mousel_cmdline
                0x00168d8c                mousel_belcmd
                0x00168e90                mousel_charinput
                0x00168ef8                mouselpathupdown
 .text          0x00168fa0     0x2a3c ./xe/libxxe.a(libxxe_a-xeopt.o)
                0x00168fa0                func_opt
                0x001691d0                opt_undel
                0x00169414                opt_delz
                0x001695a4                opt_fat
                0x001695d0                opt_pfat
                0x001695fc                opt_7bit
                0x0016984c                opt_hex
                0x00169988                opt_fd
                0x00169b14                opt_rctl
                0x00169d94                opt_ccfunc
                0x00169f0c                opt_freecsr
                0x0016a080                opt_cbcopy
                0x0016a1f4                opt_beep
                0x0016a414                opt_cmdlog
                0x0016a5d0                opt_rettol
                0x0016a744                opt_contins
                0x0016a8c4                optoffonchk
                0x0016a9a8                opt_eol
                0x0016adac                opt_eolcont
                0x0016ae04                optsetdisplayeolid
                0x0016ae64                optsetdisplayeolcontid
                0x0016aee4                opterrwinonly
                0x0016af0c                func_capslock
                0x0016b804                opt_acs
                0x0016b8cc                opthelp
 .text          0x0016b9dc     0x26d4 ./xe/libxxe.a(libxxe_a-xeopt2.o)
                0x0016b9dc                xeopt2init
                0x0016bab8                optcombinehelpCP
                0x0016bb08                optcombinehelpsub
                0x0016bc60                optcombinehelp
                0x0016bcf0                opt_ligature
                0x0016bdd8                opt_combine
                0x0016c25c                func_optcombine
                0x0016c4d0                func_optligature
                0x0016c510                func_mode
                0x0016c944                func_ebc
                0x0016cae8                filegetencoding
                0x0016cc60                opt2getfnmode
                0x0016cd4c                filesetlocaleid_filename
                0x0016cf08                filesetlocaleid
                0x0016d3c0                opt2resethandle
                0x0016d6c4                opt2setebccvname
                0x0016d89c                dirsetlocaleid
                0x0016daf4                funcmodehelp
                0x0016db90                opt_modestatus
                0x0016dd6c                opt2sethdrligcomb
                0x0016df40                optresethdrligcomb
 .text          0x0016e0b0     0x369c ./xe/libxxe.a(libxxe_a-xepan.o)
                0x0016e0b0                paninit
                0x0016e314                pan000init
                0x0016e458                panterm
                0x0016e4cc                panppdfree
                0x0016e594                panregist
                0x0016e610                panpopup
                0x0016e650                pangetpc
                0x0016ea64                panfreepc
                0x0016ebe8                ppdinit
                0x0016f564                ppdinit_resize
                0x0016fda4                pandirfldresize
                0x0016feb4                panwakeup
                0x001703a4                pandrawxkbd
                0x00170478                func_draw_pan
                0x00170b98                panlinetopfld
                0x00170c24                panflderr
                0x00170e60                pandirprot
                0x00170fdc                pansetinputmode
                0x00171058                pancmdlf2dd
                0x00171388                pansetcmdcodeattr
                0x0017171c                pan000draw
 .text          0x0017174c     0x2dd0 ./xe/libxxe.a(libxxe_a-xepan2.o)
                0x0017174c                func_end_pan
                0x001717ec                func_cancel_pan
                0x0017188c                func_exec_pan
                0x00172034                panreset
                0x00172094                func_sendins_pan
                0x001720c0                func_sendrep_pan
                0x001720ec                func_find_pan
                0x00172118                func_ifind_pan
                0x00172144                func_rfind_pan
                0x00172170                func_revrfind_pan
                0x0017219c                panfind
                0x001722c0                panfiletol
                0x001723f4                panfieldevent
                0x00172520                panfunc000optchk
                0x001725b4                panfunc000
                0x0017298c                putexitcmd
                0x00172a54                pancallfname
                0x00172ad4                pandraw300
                0x00172c30                panfe300
                0x00172c7c                panexec300
                0x001735e4                panopt
                0x0017366c                panattr10
                0x00173d64                panexecolor
                0x00174138                getpalno
                0x0017422c                pangetrgbix
                0x001743e8                panixtorgb
                0x001744a0                panrgbtoix
 .text          0x0017451c     0x5714 ./xe/libxxe.a(libxxe_a-xepan22.o)
                0x0017451c                pan300init
                0x0017454c                ufreepsc
                0x00174590                pan300selectline
                0x001746c0                pan300updatelist
                0x00174b6c                pan300attr
                0x00174cb4                pan300fnmattr
                0x00174d1c                pansetfnmattr
                0x00175358                pan300getbecmd
                0x001754ec                pan300editcmd_utf8
                0x00175738                pan300lf2dd
                0x001757a4                pan300editcmd
                0x00175a74                pan300stackchkcmdbuff
                0x00175d38                pan300stacksetctfromcmdbuffsub
                0x00176184                pan300stacksetctfromcmdbuff
                0x0017641c                pan300stack
                0x00176790                pan300editfpath
                0x00176944                pan300chklcentry
                0x00176bdc                pan300addentry
                0x00177044                pan300editcmdf2l
                0x001772a8                pan300setflddata_utf8
                0x00177400                pan300fldupdate_utf8
                0x00177788                pan300delentry
                0x00177854                pan300freestack
                0x001778a8                pan300wstack
                0x00177b98                pan300rstack
                0x00177cc8                pan300execlist
                0x00177fc8                func_pgup_pan
                0x001780d0                func_pgdown_pan
                0x001781cc                func_pgtop_pan
                0x0017828c                func_pgend_pan
                0x00178368                pan300locatepage
                0x00178448                pan300getpsc
                0x001784bc                pan300getfnm
                0x00178564                pan300felcmd
                0x00178e20                pan300getlcmdfromfuncid
                0x0017920c                pan300csrreset
                0x0017924c                panbecmdcall
                0x001792b8                panbrowsecmdchk
                0x00179348                pan300getword
                0x001794a8                pan300getscrollsz
                0x001796f0                pan300scrollsetcsr
                0x001797c4                pan300lcmderr
                0x001797fc                pansetfld_f2l
                0x00179940                pan300wakeup1
                0x00179a98                setpscddname
 .text          0x00179c30     0x4bbc ./xe/libxxe.a(libxxe_a-xepan23.o)
                0x00179c30                panutiliniput
                0x00179dbc                panutiliniget
                0x00179f64                pancomp
                0x00179fa8                pangrep
                0x00179fec                pancompwakeup1
                0x0017a0c8                pangrepwakeup1
                0x0017a1a8                pancompdraw
                0x0017a534                panutillf2dd
                0x0017a778                pancompdraw2
                0x0017a8c8                pangrepdraw
                0x0017ac30                pangrepdraw2
                0x0017ada0                pancompexec
                0x0017b520                panchkposparm
                0x0017b620                pangrepexec
                0x0017bd50                panutilsetcdir
                0x0017bee4                panutildataproc
                0x0017bf90                panutilgetpupl
                0x0017c03c                pancompdataproc
                0x0017c924                pangrepdataproc
                0x0017d288                panutilfind
                0x0017d45c                panutilview
                0x0017d610                panutilviewswap
                0x0017d6f8                panutilreceive
                0x0017dc30                panutilreset
                0x0017dd88                panutilerrline
                0x0017ddb0                panutilerrlinefull
                0x0017ddd8                panutilsetfld_f2l
                0x0017df90                panutilfldupdate_utf8
                0x0017e380                pancompsetflddata_utf8
                0x0017e50c                pangrepsetflddata_utf8
                0x0017e660                pan23chkcpu8option
                0x0017e6ac                pan23ShowCmdResult
 .text          0x0017e7ec      0xf1c ./xe/libxxe.a(libxxe_a-xepan24.o)
                0x0017e7ec                panfnlsetuppfh
                0x0017e984                panfnlfreepfh
                0x0017ea18                panfnlsetupplh
                0x0017ebdc                panfnlalloclh
                0x0017ed94                panfnlupdatepfh
                0x0017eff0                panfnlfind
                0x0017f2dc                panfnlgetstartplhoffs
                0x0017f548                pansetflddata_utf8
                0x0017f5f0                pangetbuff_utf8
 .text          0x0017f708      0x454 ./xe/libxxe.a(libxxe_a-xepan3.o)
                0x0017f708                func_linetop_pan
                0x0017f770                func_lineend_pan
                0x0017f8dc                func_nextvalue_pan
                0x0017f908                func_prevvalue_pan
                0x0017f934                panfldvalue
                0x0017fb28                paninvalidfld
 .text          0x0017fb5c     0x3828 ./xe/libxxe.a(libxxe_a-xescr.o)
                0x0017fb5c                scrinit
                0x0018020c                scrsetunxflag
                0x00180248                scrsetpallette
                0x001803e0                scrsetattrtbl
                0x001806f4                scrterm
                0x001807ac                scrreset
                0x00180868                scrcls
                0x00180894                scrdisp
                0x00182090                scrcell2tocell
                0x00182134                xescrerrmsgbycell
                0x00182320                scrregist
                0x0018241c                scrpopup
                0x0018284c                scrgetcw
                0x001828ec                screnqcw
                0x001829a4                scrdeqcw
                0x00182a68                scrresize
                0x00182c2c                scrfulldraw
                0x00182c94                scrsrchcw
                0x00182d7c                scrsrchcwchl
                0x00182e44                scronsize
                0x00182f9c                scrsavemultilineerrmsg
                0x001830f0                scracssetup
                0x00183290                scrsetinsrepdbcs
                0x00183330                scrSetUpdateFileMenu
 .text          0x00183384      0xfe8 ./xe/libxxe.a(libxxe_a-xescr2.o)
                0x00183384                scrconfirmchk
                0x00183480                scrconfirmset
                0x001834bc                scrconfirmreset
                0x0018350c                scrclearmsg
                0x0018354c                scrclearconfirmmsg
                0x001835a8                func_splith
                0x001837dc                func_splitv
                0x00183a30                func_swap
                0x00183b5c                funcswap2
                0x00183bf8                func_nextpan
                0x00183c24                func_prevpan
                0x00183c50                scrpansw
                0x00183ce0                func_ins
                0x00183e74                scrcsrtyperestore
                0x00183eb0                scrcpgetpcw
                0x00183fa0                scrsetcsrpos
 .text          0x0018436c     0x6738 ./xe/libxxe.a(libxxe_a-xesub.o)
                0x0018436c                filefind
                0x001847fc                filedirchk
                0x00184908                fileopen
                0x00184ad0                fileopencreate
                0x00184c5c                fileopen_mdostemp
                0x00184d24                fileclose
                0x00184d88                fileclose_mdos
                0x00184e28                subgetfilelc
                0x00184fec                filefullpatha
                0x00185400                isShortpath
                0x001855c8                filefullpathsp
                0x00185608                filefullpath
                0x00185d30                filefullpath2ndedit
                0x001865c0                filefullpath2
                0x00186a48                subeditscrfnm
                0x001870a8                setdbcstbl
                0x00187308                filesetdbcstblplh
                0x0018759c                filesetdbcstblplh_handle
                0x00187724                filesetdbcstbl
                0x00187864                setdbcstbltabid
                0x0018797c                getnextcmd
                0x001879fc                getcmdstr
                0x00187b1c                getfldinput_utf8
                0x00187b90                getfldinput
                0x00187d34                setflddata
                0x00187eb0                setflddatadd
                0x00187ff8                setflddatadbcs
                0x001883f4                getfldpos
                0x001886d8                getfldstrlen
                0x001887c0                fldprotchk
                0x00188a18                getuflde
                0x00188a94                gethomepos
                0x00188ad0                setdbcssplit
                0x00188b9c                setdbcssplit2
                0x00188e58                setobtabdbcs
                0x001891ac                setobtabclear
                0x001892e4                updatedbcstblhex
                0x001895b4                sub_restoretabdroppad
                0x001897bc                delobtabpad
                0x001898b4                btabclear
                0x001899dc                setobdbcserr
                0x00189ae4                setibdbcserr
                0x00189c04                setsplitdbcserr
                0x00189d24                wordtblisrch
                0x00189db8                getpathlen
                0x0018a094                setflddatacmd
                0x0018a34c                setflddatadbcscmd_byutf8
                0x0018a868                getfldutf8
                0x0018a924                subsavetempfnm
                0x0018a9f8                subdeletetempfile
 .text          0x0018aaa4     0x1d94 ./xe/libxxe.a(libxxe_a-xesub2.o)
                0x0018aaa4                xesub_cleardbcssplit
                0x0018af1c                xesub_cleardbcs1
                0x0018b324                xesub_adjustspan
                0x0018b578                xesub_imupdate
                0x0018bc10                xesubddmemcmp
                0x0018be30                xesubebcmemcmp
                0x0018c140                xesub_setdbcssplitib
                0x0018c214                xesub_setdbcssplit
                0x0018c610                xesub_memcmpbin
 .text          0x0018c838     0x3b4c ./xe/libxxe.a(libxxe_a-xesyn.o)
                0x0018c838                xesyninit
                0x0018c8c0                xesynterm
                0x0018c8fc                func_syntax
                0x0018cca4                synhelp
                0x0018ce70                synsetenter
                0x0018d2c0                synseton
                0x0018d3a0                synsetoff
                0x0018d508                synupdate
                0x0018d700                synall
                0x0018d9e4                synexecsh
                0x0018db84                synwriteplh
                0x0018e624                syngetstartplh
                0x0018e6f4                synupdateplh
                0x0018e990                synsetvalid
                0x0018eab8                syngetplhcolordata
                0x0018efa0                xesynsetlineattr
                0x0018f33c                xesynundoprep
                0x0018f584                xesynundo
                0x0018f7ec                xesynchkopen
                0x0018fe04                synchkfiletype
                0x0018feec                xesynexecenter
                0x00190020                xesyngetbgreverse
                0x00190074                xesynsetgblstyletbl
                0x0019018c                xesyn_fwrite
 .text          0x00190384     0x41b0 ./xe/libxxe.a(libxxe_a-xesyn2.o)
                0x00190384                syncfgfree
                0x001906ec                syngetshcmd
                0x0019073c                syngetshopt
                0x00190898                syngetwkfnm
                0x001909c8                synsetinpfnm
                0x00190b3c                syngetcfg
                0x00191010                synchkcfgrec
                0x00191b94                synqeproc
                0x00191d4c                syngetcolorparm
                0x00191e34                syngetcmapparm
                0x00192010                syngetrgbparm
                0x001920d8                syngetpathparm
                0x00192208                synkicksh
                0x001925c4                synkicksh2
                0x00192914                synopencf
                0x00192e20                synclosecf
                0x00192ec0                syngetcfdata
                0x00193398                syngetindex
                0x001935cc                syngetcfdata2
                0x0019382c                syngetcfdata3
                0x00193984                getinput
                0x00193ab4                lineproc
                0x00193d1c                escchk
                0x00193f7c                syngetbgeol
                0x00194044                syngetbgtab
                0x0019410c                syngetbgupd
                0x00194174                syngetstylecolor
                0x001942dc                xesyn_serverinit
                0x001943a0                xesyn_shreq
                0x001944c0                xesyn_serverterm
 .text          0x00194534     0x3a60 ./xe/libxxe.a(libxxe_a-xetso.o)
                0x00194534                xetsoinit
                0x001946cc                func_tso
                0x00194e6c                xetsoxcopy
                0x00194f78                xetsosave
                0x001955a8                xetsospfupdate
                0x00195d20                xetsoupdatechk
                0x001961c8                xetsolocalfstat
                0x001962d4                xetsogetspf
                0x001963c0                xetsosetspf
                0x001965ec                xetsodefaultlrecl
                0x001969e8                xetsodlcmdsetlocal
                0x00196ccc                xetsofilefullpath2ndedit
                0x00197044                xetsofilefullpath2
                0x00197450                xetsogetpathlen
                0x00197568                xetsolvlfname
                0x001977e0                xetsodlcgetfullname
                0x001979bc                xetsoconcatfilename
                0x00197c18                setupspfcmdopt
 .text          0x00197f94     0x34f0 ./xe/libxxe.a(libxxe_a-xetso2.o)
                0x00197f94                xetsotsocmdlogon
                0x00198620                xetsotsocmd
                0x001991f4                xetsoupdateplh
                0x00199648                xetsorsh6
                0x00199974                xetsosetftpparm
                0x00199df4                xetsosubmit
                0x0019a004                xetsoquery
                0x0019a124                xetso2isvalidactionname
                0x0019a2ec                xetso2escstring
                0x0019a468                xetso2escstring2
                0x0019a650                func_tsohotkey
                0x0019a840                xetsosetup3270keymap
                0x0019a930                xetsois3270key
                0x0019b098                func_3270kbd
                0x0019b3bc                tso3270tsokbd
 .text          0x0019b484     0x5ee8 ./xe/libxxe.a(libxxe_a-xeundo.o)
                0x0019b484                undoupdate
                0x0019bae4                undoprep
                0x0019cbc0                func_undo_file
                0x0019e940                undoclearplcmdall
                0x0019eaac                undoclearplcmd
                0x0019ebf0                undofreeuuh
                0x0019ec50                freeundoent
                0x0019ecbc                undocsrmove
                0x0019ed24                undosetdeletedflag
                0x0019ee14                freeredoq
                0x0019ee6c                redoprep
                0x0019f768                undo_redo
                0x001a12bc                redo_undoupdate
                0x001a1314                redo_undoprep
 .text          0x001a136c     0x9bdc ./xe/libxxe.a(libxxe_a-xeutf.o)
                0x001a136c                xeutf_init
                0x001a1498                xeutf_buffget
                0x001a15dc                xeutfgetmixstrctopt
                0x001a17d0                xeutf_getlocalepathname
                0x001a242c                xeutf_getlocalestr
                0x001a2774                xeutfdbcsnpchk
                0x001a28ac                xeutf_getmixedword
                0x001a3ba0                xeutfcvf2lc
                0x001a3e90                xeutfcvf2lDDW
                0x001a40d8                xeutfcvlf2ddAdjust
                0x001a45c4                xeutfcvdd2lc
                0x001a483c                xeutf_getmixedstr
                0x001a515c                xeutf_getmixedstrDDFMT
                0x001a52f8                xeutf_modechng
                0x001a57a4                xeutf_cvdata
                0x001a59e0                xeutf_cvdatawb
                0x001a5e68                xeutf_cvf2lsetdbcs
                0x001a6330                xeutf_islocalestr
                0x001a63f4                xeutf_fldl2f
                0x001a6698                xeutf_getucsstr
                0x001a6834                xeutf_cvl2fbyct
                0x001a6d60                xeutf_cvlf2lbyct
                0x001a7144                xeutf_cvlf2lbyctDDW
                0x001a7428                xeutf_strlenu8byct
                0x001a76f8                xeutf_strwidthu8byct
                0x001a7784                xeutf_strwidthlcbyct
                0x001a7810                xeutf_dbcssplit
                0x001a7b28                xeutf_mixedstrupdate
                0x001a8560                xeutf_setctbyu8lc
                0x001a8aa8                xeutf_setdbcstblbyct
                0x001a8ccc                xeutf_memcmpu8lc
                0x001a90b8                xeutf_memcmpddlc
                0x001a96ac                xeutf_savelcctforerrmsg
                0x001a9ac0                xeutf_savefnmforerrmsg
                0x001a9d40                xeutf_chksaveedlcct
                0x001a9e48                xeutf_seterrmsgct_forxeerrmsg
                0x001aa274                xeutf_seterrmsgct
                0x001aa99c                xeutf_seterrmsgctopd2
                0x001aae9c                xeutf_dbcssubcharcmp
 .text          0x001aaf48     0x3e58 ./xe/libxxe.a(libxxe_a-xeutf2.o)
                0x001aaf48                xeutf_cvf2dd
                0x001ab104                xeutf_cvf2ddct
                0x001ab278                xeutf_cvf2dd_padding
                0x001ab6e4                xeutf_getvhexpos
                0x001ab944                xeutf_getvhexoffs
                0x001aba58                xeutf_plhpos2offs
                0x001abb34                xeutf_getvhexcsrpos
                0x001abd50                xeutf_getvhexcsrspan
                0x001abe88                xeutf_getdataspan
                0x001ac110                xeutf_getvhexcsrposdbcs
                0x001ac3b4                xeutf_charmakeucsvhexdd
                0x001ac6d4                xeutf_chargetvhexdd
                0x001acf50                xeutf_chargetkbddd
                0x001ad288                xeutfgetddstr
                0x001ad49c                xeutfcvlf2dd
                0x001ad704                xeutfcvlf2dd_updatect
                0x001adc74                xeutfcvl2fdd
                0x001addb0                xeutfcvl2dd
                0x001ae044                xeutfcvl2ddtab
                0x001ae164                xeutfcvdd2l
                0x001ae2bc                xeutfcvdd2ldbcs
                0x001ae42c                xeutfcvdd2f
                0x001ae680                xeutfcvdd2fl
                0x001ae8e8                xeutfcvf2ldd
                0x001ae9b4                xeutf_dd2syn
                0x001aeacc                xeutfcvdd2u
                0x001aebe0                xeutfcvu2dd
                0x001aecb4                xeutfddwidth4
 .text          0x001aeda0      0x1d0 ./xe/libxxe.a(libxxe_a-xecalc.o)
                0x001aeda0                func_bc
 .text          0x001aef70     0x2ca0 ./xe/libxxe.a(libxxe_a-xecalc2.o)
                0x001aef70                tc_blocksave
                0x001aefb0                func_tc
                0x001af250                tc_help
                0x001af3d4                tc_opdchk
                0x001b0748                tc_fldnochk
                0x001b09bc                tc_getopd
                0x001b0e08                tc_getnumrange_f
                0x001b0f90                tc_opdchk2
                0x001b1460                tc_chkdatatype
                0x001b1508                tc_setplherr
                0x001b1570                tc_calc
                0x001b18e8                calc_m2bconststr
                0x001b1a9c                tcerrdatawidth
                0x001b1ac8                tcerrnorec
                0x001b1b10                tcerrinvalidforcount
                0x001b1b38                tc_help0
                0x001b1b5c                tc_help1
                0x001b1b80                tc_helpsum
                0x001b1ba4                tc_help2
                0x001b1bc8                tc_help3
                0x001b1bec                tc_helpf
 .text          0x001b1c10     0x3998 ./xe/libxxe.a(libxxe_a-xecalc21.o)
                0x001b1c10                tc_ft1
                0x001b2370                tc_ft1sum
                0x001b2620                tc_ft1sumdatatype
                0x001b26e0                tc_ft1sumtotal
                0x001b28c0                tc_ft1sumnobreak
                0x001b2fa0                tc_ft1sumdelplh
                0x001b302c                tc_ft1sumchksumline
                0x001b3174                tc_getisrtpos
                0x001b3334                tc_ft1sumkey
                0x001b436c                tc_ft1isrtsum
                0x001b4a54                tc_ft1outsumline
                0x001b4f70                tc_updateprofile
                0x001b5054                tc_editsumm
 .text          0x001b55a8     0x42ec ./xe/libxxe.a(libxxe_a-xecalc22.o)
                0x001b55a8                tc_ft2
                0x001b60f4                tc_ft2count
                0x001b723c                tc_getplhdata
                0x001b80e8                tc_getlinedata
                0x001b8648                tc_getlinedatanum
                0x001b8924                tc_setlinedata3
                0x001b89c0                tc_setlinedata
                0x001b913c                tc_setlinedatacopy
 .text          0x001b9894     0x55a8 ./xe/libxxe.a(libxxe_a-xecalc3.o)
                0x001b9894                tc_format
                0x001b9970                tc_fmtopdchk
                0x001ba2b8                tc_fmtopdchk2
                0x001ba714                tc_fmtopdchk3
                0x001bab6c                tc_fmtmain
                0x001bb280                tc_getplh
                0x001bb3d8                tc_chkfieldwidth
                0x001bbb54                tc_getfieldendaddr
                0x001bc398                tc_getfieldendaddrquote
                0x001bcb04                tc_chknonfmtfieldwidth
                0x001bcd4c                tc_fmtdata
                0x001bd9f0                tc_isrthdr
                0x001bdd70                tc_ishdrline
                0x001be0c0                tc_chkhdr
                0x001be854                tc_helpfmt
                0x001be878                chkhexdelm
                0x001bea4c                xecalc3_tabchkDelmstr
                0x001beb7c                xecalc3_umempbrk_nonascii_TABCHK
 .text          0x001bee3c     0x2c24 ./xe/libxxe.a(libxxe_a-xedir.o)
                0x001bee3c                func_end_dir
                0x001bef28                func_cancel_dir
                0x001bf00c                dirload
                0x001bff64                dirplhfail
                0x001bff94                dirgetlist
                0x001c0124                dirgetfstat
                0x001c0358                dirsetdata
                0x001c05a8                dirsetdatasub
                0x001c09a0                dirsetdatasub2
                0x001c0bec                dirresetftpfiletime
                0x001c0d28                dirclosefree
                0x001c0e84                dirclosefree2
                0x001c0f98                diralloclh
                0x001c1254                dirfree
                0x001c12ac                dirfreeplh
                0x001c1458                dirlvlfname0
                0x001c14fc                dirlvlfname
                0x001c172c                dirrenum
                0x001c17e8                dirnexttab
                0x001c1880                dirupdatename
 .text          0x001c1a60     0x2528 ./xe/libxxe.a(libxxe_a-xefcmd2.o)
                0x001c1a60                func_find_file
                0x001c1aac                func_ifind_file
                0x001c1af8                fcmd2saverestorx
                0x001c1c18                func_exclude_file
                0x001c1c6c                func_iexclude_file
                0x001c1cc0                func_findnx_file
                0x001c1d0c                func_ifindnx_file
                0x001c1d58                func_rfind_file
                0x001c1d88                func_revrfind_file
                0x001c1e00                func_change_file
                0x001c1e4c                func_changenx_file
                0x001c1e98                func_ichange_file
                0x001c1ee4                func_ichangenx_file
                0x001c1f30                func_rchange_file
                0x001c1f60                func_revrchange_file
                0x001c1f90                func_findwordF_file
                0x001c1fec                func_findwordB_file
                0x001c2048                func_ifindwordF_file
                0x001c20a4                func_ifindwordB_file
                0x001c2100                func_findPSF
                0x001c213c                func_findPSP
                0x001c2178                func_revfindPSP
                0x001c21b4                func_revfindPSF
                0x001c21f0                func_displayPS
                0x001c2218                fcmdwfparm
                0x001c2aa0                fcmdrfparm
                0x001c3548                fcmdescsrch
                0x001c3624                fcmdsrcherr
                0x001c3ef0                fcmdothererrmsgcat
 .text          0x001c3f88     0x8984 ./xe/libxxe.a(libxxe_a-xefcmd24.o)
                0x001c3f88                fcmdsamesrch
                0x001c44c0                fcmdsamematch
                0x001c4860                func_xx_file
                0x001c4d30                func_ppsrchnx
                0x001c4d78                func_ppsrch
                0x001c544c                ppsrchsub
                0x001c5a74                ppsrchsub2
                0x001c68a8                ppsrchmac
                0x001c6d90                ppsrchmacrochk
                0x001c76d4                fcmdgetabplh
                0x001c7880                fcmdget2ndpfh
                0x001c79e0                fcmdcvsrchword
                0x001c8278                fcmdsrchword
                0x001c894c                fcmdsrchwordopdchk
                0x001c9640                fcmdgetword
                0x001c9818                ppsrchword
                0x001ca0a8                isValidElementName
                0x001ca168                getxmltype
                0x001ca88c                xml_gettypename
                0x001cabec                xmlsrchwordsub
                0x001cb034                xmlchkcomment
                0x001cb3bc                xmlsrchtagnest
                0x001cb620                xmlchkpartialname
                0x001cb754                xmlsrchwordnest
                0x001cc094                xmlsrchword
                0x001cc220                xmlsrchsub
                0x001cc5ac                func_xmlsrch
 .text          0x001cc90c     0x683c ./xe/libxxe.a(libxxe_a-xefile23.o)
                0x001cc90c                func_draw_file
                0x001d0dd0                filesetvhexcsrattr
                0x001d0ec4                setlineattr
                0x001d2f00                setattraroundvhexdataline
                0x001d3024                f23_isutf8dbcssplit
 .text          0x001d3148     0x3778 ./ulib/libuserxxe.a(libuserxxe_a-u3270.o)
                0x001d3148                u3270init
                0x001d31b0                u3270fstat
                0x001d37a4                u3270findfile
                0x001d39d8                u3270fullpathistso
                0x001d3a64                u3270getcwd
                0x001d3aec                u3270chdir
                0x001d3b88                u3270fullpath
                0x001d3e64                u3270fullpathwildexp
                0x001d4380                u3270getmembname
                0x001d4524                u3270chkmembname
                0x001d466c                u3270getlastname
                0x001d4744                u3270getnthname
                0x001d484c                u3270concatfilename
                0x001d4b34                u3270editname
                0x001d4edc                u3270parsedsn
                0x001d4f78                u3270parentdsn
                0x001d5118                u3270getsetdsnwild
                0x001d5438                u3270pathlen
                0x001d5588                u3270sethostuser
                0x001d563c                u3270cmdrequest
                0x001d58b4                u3270editrespmsg
                0x001d59cc                u3270dirlistsub
                0x001d5c88                u3270setdirlist
                0x001d6148                u3270srchdirlist
                0x001d6214                u3270setdirlistdsn
                0x001d64e0                u3270setattr
                0x001d65fc                u3270getattrstr
                0x001d6888                u3270errdsnpath
 .text          0x001d68c0     0x152c ./ulib/libuserxxe.a(libuserxxe_a-u32702.o)
                0x001d68c0                u3270mkdir
                0x001d68f8                u3270rmdir
                0x001d6928                u3270xddsub
                0x001d6aa8                u3270xdelete
                0x001d6cb8                u3270wildxdel
                0x001d6cf0                u3270xdelsub
                0x001d6df8                u3270remove
                0x001d6f5c                u3270rename
                0x001d71ac                u3270renamesub
                0x001d7280                u3270wildrename
                0x001d72d0                u3270spfupdate
                0x001d74a0                u3270spfsetparm
                0x001d79dc                u3270attrib
                0x001d7a14                u3270attrxchk
                0x001d7a48                u3270getftime
                0x001d7a80                u3270setftime
                0x001d7ab8                u3270setftime2
                0x001d7af0                u3270copypathinfo
                0x001d7b28                u3270setown
                0x001d7b60                u3270setmod
                0x001d7b94                u3270wildfunc
                0x001d7d9c                u3270errnotsupported
 .text          0x001d7dec     0x3ab0 ./ulib/libuserxxe.a(libuserxxe_a-u32703.o)
                0x001d7dec                u3270xmove
                0x001d7f5c                u3270xcopyr2r
                0x001d8224                u3270xcopy
                0x001d83ec                u3270xcopyget
                0x001d8ea8                u3270xcopyput
                0x001d995c                u3270filecreateparmproc
                0x001d9c00                u3270filecpymvflags
                0x001da154                u3270filewildcopyget
                0x001da39c                u3270filewildcopyput
                0x001da6dc                u3270copysubget
                0x001da938                u3270copysubput
                0x001dadc4                u3270transfer
                0x001db328                u3270srcdupchk
                0x001db56c                u3270copyspfupdate
                0x001db810                u3270setftpparm
 .text          0x001db89c       0x40 ./ulib/libuserxxe.a(libuserxxe_a-uabend.o)
                0x001db89c                uabend
 .text          0x001db8dc      0xe50 ./ulib/libuserxxe.a(libuserxxe_a-uallocl.o)
                0x001db8dc                ualloc_init
                0x001dbb30                ugetallocdata
                0x001dbc68                ualloc_chk
                0x001dbe30                umalloc
                0x001dc074                ucalloc
                0x001dc2e4                ufree
                0x001dc514                uallocsz
                0x001dc560                ufreesz
                0x001dc5b0                uallocmapset
                0x001dc6c4                ufreesizeerr
                0x001dc6f8                umallocsizeerr
 .text          0x001dc72c     0x5de8 ./ulib/libuserxxe.a(libuserxxe_a-ucalc.o)
                0x001dc72c                ucalc_bcmain
                0x001dd5ac                bc_opdchk
                0x001de490                getvarname
                0x001de570                ucalc_chkvrparm
                0x001de6fc                bc_getvalue
                0x001dedf0                ucalc_vrajust
                0x001df114                ucalc_o2l
                0x001df1fc                ucalc_gettimevalue
                0x001df624                ucalc_getunderpointdata
                0x001df788                bc_opdcopy
                0x001dfa48                bc_putwordordword
                0x001dfb20                bc_expand2dword
                0x001dfbbc                ucalc_binop
                0x001e0158                ucalc_binopsub
                0x001e0c0c                ucalc_underpoint
                0x001e0ef4                ucalc_editnum
                0x001e10bc                ucalc_editevenhex
                0x001e1148                ucalc_dwtime
                0x001e1330                ucalc_time
                0x001e1828                ucalc_timeedit
                0x001e1bb8                ucalc_shiftdown
                0x001e1d04                ucalc_shiftup
                0x001e1e44                bc_getbase
                0x001e1e88                calcuperr1
                0x001e1eb0                calcuperr2
                0x001e1ed8                calcuperr3
                0x001e1f00                calcerrinvalid
                0x001e1f38                calcerrinvalid_dw
                0x001e1f70                calcerrformat
                0x001e1f98                calcerrunderflow
                0x001e1fc4                calcerrwordovf
                0x001e2008                calcerrminus
                0x001e2030                calcerr0div
                0x001e2058                calcerrtimeop
                0x001e2080                bc_getvalue3
                0x001e2334                bc_setconvtype3
 .text          0x001e2514     0x417c ./ulib/libuserxxe.a(libuserxxe_a-ucalc2.o)
                0x001e2514                bc_getxdw
                0x001e2668                bc_getld
                0x001e28b8                bc_dwbinop
                0x001e2e70                bc_twbinop
                0x001e3390                bc_edittod
                0x001e3504                bc_dweditnum64
                0x001e356c                bc_dweditnum
                0x001e3888                bc_dwupeditnum
                0x001e3a50                ucalc_dwmult
                0x001e3ca4                ucalc_twmult
                0x001e416c                ucalc_dwdiv
                0x001e444c                ucalc_dwdiv2
                0x001e4784                ucalc_twdiv
                0x001e490c                ucalc_twdivbyup
                0x001e4a50                ucalc_twshiftup
                0x001e4b6c                ucalc_dwshiftdown
                0x001e4c9c                ucalc_ltime
                0x001e50bc                ucalc_getdate
                0x001e52a8                ucalc_nextday
                0x001e5558                ucalc_ld2dw
                0x001e5af0                ucalc_dw2ld
                0x001e5bfc                ucalc_nsadd
                0x001e5e64                ucalc_ldedit
                0x001e5fa4                ucalc_dwupinit
                0x001e6004                ucalc_dwupset
                0x001e6134                bc_numfmt2dw
                0x001e61e4                bc_dw2numfmt
                0x001e62bc                ucalc_dwup2dwandup
                0x001e6460                bc_dword2word
                0x001e655c                ucalc_dw2err
                0x001e6594                ucalc_dw2errresidual
                0x001e6608                ucalc_dwuperr
                0x001e6630                ucalc_dwmaxerr
                0x001e6668                ucalcerrdwordovf
 .text          0x001e6690     0x1ad0 ./ulib/libuserxxe.a(libuserxxe_a-ucvebc.o)
                0x001e6690                ucvebcinite2uJ
                0x001e67e4                ucvebc
                0x001e67fc                ucvebc_gettrte2a
                0x001e681c                ucvebc2asc_handle
                0x001e68bc                ucvasc2ebc_handle
                0x001e695c                ucvebc2asc
                0x001e6d74                ucvebc2asc1sbcsJ
                0x001e6ef4                ucvebc2ucs1sbcsJ
                0x001e7088                ucvasc2ebc
                0x001e7630                ucvebc_defaultremap
                0x001e7910                ucvebcinita2e
                0x001e7a7c                ucvkandl
                0x001e7c6c                ucvebcinitkandl
                0x001e7d90                ucvebc2_chkprintsbcs
                0x001e806c                ucvebc_chkeolopt
 .text          0x001e8160     0x1718 ./ulib/libuserxxe.a(libuserxxe_a-ucvebc2.o)
                0x001e8160                ucvebc2
                0x001e8178                ucvebc2_init
                0x001e81e8                ucvebc2_codecomp
                0x001e8230                ucvebc2_s2e
                0x001e82cc                ucvebc2_e2s
                0x001e8364                ucvebc2_chkprint
                0x001e862c                ucvebc2_chkprintnewold
                0x001e88a4                ucvebc2_chkprintdup
                0x001e8a50                ucvebc2_e2ssub
                0x001e8c90                ucvebc2_s2esub
                0x001e8d48                ucvebc2_stre2s
                0x001e8ff8                ucvebc2_ebc2asc1dbcsJ
                0x001e9094                ucvebc2_strs2e
                0x001e9648                ucvebc2_setsi
                0x001e976c                ucvebc2_setso
 .text          0x001e9878     0x54c8 ./ulib/libuserxxe.a(libuserxxe_a-ucvebc3.o)
                0x001e9878                ucvebc3_getcfgparmconverter
                0x001e9a7c                ucvebc3_init_xcv
                0x001e9abc                ucvebc3_getconvertersubchar
                0x001e9b30                ucvebc3_setletter
                0x001ea464                ucvebc3_init
                0x001ea6d8                ucvebc3_cfgerr
                0x001ea700                ucvebc3_b2uSbcs1
                0x001ea9e8                ucvebc3_b2ddSbcs1
                0x001eabd8                ucvebc3_b2ddSbcs
                0x001eb098                ucvebc3_b2uDbcs1
                0x001eb2b4                ucvebc3_b2ddDbcs1
                0x001eb4d4                ucvebc3_b2ddDbcsstr
                0x001eb6d4                ucvebc3_b2ddDbcs
                0x001ebe00                ucvebc3_b2dd
                0x001ebef4                ucvebc3_u2b1map
                0x001ec034                ucvebc3_u2b1
                0x001ec3d8                ucvebc3_m2b1Sbcs1
                0x001ec594                ucvebc3_m2b1
                0x001ec8cc                ucvebc3_m2b
                0x001ecddc                ucvebc3_f2b
                0x001ed474                ucvebc3_dd2b
                0x001edb44                ucvebc3_b2mSbcs
                0x001ee210                ucvebc3_b2mDbcsstr
                0x001ee4b0                ucvebc3_b2m
                0x001ee988                ucvebc3_setdbcstbl
                0x001eeb28                ucvebc3_getebc3opt
                0x001eec18                ucvebc3_b2f
                0x001eecb4                ucvebc3_f2bcmd
 .text          0x001eed40     0x1ee8 ./ulib/libuserxxe.a(libuserxxe_a-ucvebc32.o)
                0x001eed40                ucvebc_umemspnc
                0x001eee30                ucvebc_umemrspnc
                0x001eef20                ucvebc_umemchr
                0x001ef054                ucvebc_umemrchr
                0x001ef164                ucvebc_memcmp_banda
                0x001ef338                ucvebc_memicmp
                0x001ef394                ucvebc_memcmp
                0x001ef5f4                ucvebc_umemmemi
                0x001ef8e0                ucvebc_umemmem
                0x001efa6c                ucvebc_umemrmemi
                0x001efd14                ucvebc_umemrmem
                0x001efea4                ucvebc_unumlen
                0x001f01cc                ucvebc_asciilen
                0x001f02f4                ucvebc_issbcsstr
                0x001f0394                ucvebc_uispunct
                0x001f04b0                ucvebc_uatoin
                0x001f05dc                ucvebc_a2bfld
                0x001f0700                ucvebc_b2afld
                0x001f083c                ucvebc_umempbrk
                0x001f0924                ucvebc_umemrpbrk
                0x001f0a24                ucvebc_umemspn
                0x001f0b24                ucvebc_umemrspn
 .text          0x001f0c28     0x1c0c ./ulib/libuserxxe.a(libuserxxe_a-ucvebc4.o)
                0x001f0c28                ucvebc4_init
                0x001f0cb4                ucvebc4_compbyname
                0x001f0d0c                ucvebc4_compbyhandle
                0x001f0d5c                ucvebc4_srchcveh
                0x001f0eb0                ucvebc4_gethandle
                0x001f0fa0                ucvebc4_getpucveh
                0x001f1020                ucvebc4_getcvname
                0x001f1084                ucvebc4_getcvtype
                0x001f1208                ucvebc4_createhandle
                0x001f1344                ucvebc4_getparmconverter
                0x001f1474                ucvebc4_chkdbcsconverter
                0x001f158c                ucvebc4_setuphandle
                0x001f169c                ucvebc4_setletter
                0x001f1df8                ucvebc4_b2uSbcs1
                0x001f1f14                ucvebc4_b2mSbcs
                0x001f2340                ucvebc4_setupsubch
 .text          0x001f2834       0xa8 ./ulib/libuserxxe.a(libuserxxe_a-ucvebct.o)
                0x001f2834                ucvebc2gettbl
 .text          0x001f28dc     0x6c18 ./ulib/libuserxxe.a(libuserxxe_a-ucvext.o)
                0x001f28dc                ucvext_cfglineerr
                0x001f2918                ucvext_cfgdupoption
                0x001f2954                ucvext_ux2s
                0x001f2a3c                ucvext_cfgmap
                0x001f2bb4                ucvext_getcfg
                0x001f39a8                ucvext_setdefaultlocalcv
                0x001f3aec                ucvext_getarmso1
                0x001f3d4c                ucvext_getarmso
                0x001f3fd8                ucvext_getarmdata1
                0x001f4148                ucvext_getarmdata
                0x001f42f8                chkapiver
                0x001f44b4                ucvext_icuinit_env
                0x001f4750                setdatadir
                0x001f481c                ucvext_mapinit
                0x001f5200                ucvext_setupsubch
                0x001f57d4                ucvext_loaddll_icudata
                0x001f5a68                ucvext_loaddll
                0x001f5b18                ucvext_icuinit
                0x001f623c                ucvext_icuenumcvname
                0x001f660c                ucvext_icuuerrname
                0x001f667c                ucvext_icugetdefaultconvertername2
                0x001f6798                ucvext_getstdcharset
                0x001f6b70                ucvext_icugetdefaultconvertername
                0x001f6cb0                ucvext_icugetconvertertype
                0x001f6ed4                ucvext_icugetsubchars
                0x001f7058                ucvext_icusetsubchars
                0x001f714c                ucvext_icugetstarter
                0x001f72d8                ucvext_icugetconverter
                0x001f78e8                ucvext_getparmconverter
                0x001f7b6c                ucvext_openparmconverter
                0x001f7cec                ucvext_getcvoption
                0x001f8058                set_internal_CP037
                0x001f8140                ucvext_mapinitsetdefault
                0x001f837c                ucvext_setlocalconverter
                0x001f8478                ucvext_icusubcharchk
                0x001f882c                ucvext_isdbcs1st
                0x001f88b0                chk_converter_is_ebcdic
                0x001f89a4                ucvext_handle0init
                0x001f8be8                ucvext_icuclose
                0x001f8c50                ucvext_icureset
                0x001f8cb8                ucvext_icugetmbconverter
                0x001f8d98                ucvext_icumbinit12
                0x001f8df8                ucvext_icumbinit
                0x001f90c4                ucvext_setdefaultlocale
                0x001f91b4                chkicuversion
                0x001f9440                ucvext_getConverterCfg
 .text          0x001f94f4     0x49f4 ./ulib/libuserxxe.a(libuserxxe_a-ucvext12.o)
                0x001f94f4                ucvext12_init
                0x001f9658                ucvext_icuebc2ucs1
                0x001f9914                ucvext_iculocal2ucs1
                0x001f9c08                ucvext_icuucs2ebc1
                0x001f9f20                ucvext_icuucs2local1
                0x001fa1ec                ucvext_icuebc2mb1
                0x001fa64c                ucvext_icumb2ebc1
                0x001fab0c                ucvext_icuebc2mbs_handle
                0x001fab8c                ucvext_icuebc2mbs
                0x001fae94                ucvext_icumb2ebcdbcs
                0x001fb454                ucvext_icumb2ebcs_handle
                0x001fb4d4                ucvext_icumb2ebcs
                0x001fb9d4                ucvext_icuebc2mbf
                0x001fbebc                ucvext_icumb2ebcf
                0x001fc658                ucvext_icumb2ucs1
                0x001fc864                ucvext_icuucs2mb1
                0x001fca8c                ucvext_icuutf2mb1
                0x001fcc38                ucvext_icumb2utf1
                0x001fce34                ucvext_icumb2utf
                0x001fd0dc                ucvext_icuisprint
                0x001fd17c                ucvext_locale1ICU
                0x001fd260                ucvext_getparmconvertermbICU
                0x001fd698                ucvext_icua2ainit
                0x001fd75c                ucvext_icua2aterm
                0x001fd7d4                ucvext_icua2as
                0x001fde94                ucvext_icusubcharchk_handle
 .text          0x001fdee8     0x1ec0 ./ulib/libuserxxe.a(libuserxxe_a-ucvext2.o)
                0x001fdee8                ucvext_iconvmapinit
                0x001fdf34                ucvext_iconvgetstarter
                0x001fe098                ucvext_iconvgetconvertertype
                0x001fe114                ucvext_iconvgetconverter
                0x001fe258                ucvext_iconvgetparmconverter
                0x001fe460                ucvext_iconvebc2ucs1
                0x001fe5d0                ucvext_iconvlocal2ucs1
                0x001fe890                ucvext_iconvucs2ebc1
                0x001fea04                ucvext_iconvucs2local1
                0x001feb6c                ucvext_iconva2as
                0x001ff180                ucvext_iconvb2bs
                0x001ff32c                ucvext_iconva2af
                0x001ffa3c                ucvext_iconva2ainit
                0x001ffb5c                ucvext_iconva2acont
 .text          0x001ffda8     0x4f64 ./ulib/libuserxxe.a(libuserxxe_a-ucvucs.o)
                0x001ffda8                ucp932init
                0x00200330                ucp932term
                0x002003d8                ucp932sjis2ucs
                0x002004a8                ucp932ucs2sjis
                0x0020062c                uccvsjis2ucs
                0x00200760                uccvucs2sjis
                0x00200790                uccvucs2utf
                0x002009c4                uccvutf2ucs
                0x00200d68                uccvucss2utf
                0x00200e4c                uccvutf2ucss
                0x00201018                uccvsjis2ucss
                0x00201098                uccvucss2sjis
                0x002010dc                uccvsjis2utf
                0x002011c0                uccvutf2sjis
                0x0020128c                ucvsucs2utf
                0x00201630                ucvsescucs2utf
                0x002019f4                ucvssjis2utf
                0x00201dc0                ucvsmb2utf
                0x00202120                ucvsutf2ucs
                0x00202484                ucvsutf2sjis
                0x00202920                ucvsutf2mb
                0x00202d00                ucvssjis2ucs
                0x00203024                ucvsucs2sjis
                0x002033c4                ucvsescucs2sjis
                0x00203748                ucvfsjis2ucs
                0x00203968                ucvfucs2sjis
                0x00203b6c                ucvfutf2ucs
                0x00203e08                ucvfucs2utf
                0x00204074                ucvfsjis2utf
                0x002042e0                ucvfutf2sjis
                0x0020457c                ucvbomchk
                0x00204724                ucvbomset
                0x00204880                ucvsetucss
                0x00204ab0                ucvgetucss
                0x00204bec                ucverrutf
                0x00204c4c                ucverrucs
                0x00204cac                ucverrsjis
 .text          0x00204d0c       0x38 ./ulib/libuserxxe.a(libuserxxe_a-ucvucst.o)
                0x00204d0c                ugetcp932tbl
 .text          0x00204d44     0x3030 ./ulib/libuserxxe.a(libuserxxe_a-udbcschk.o)
                0x00204d44                udbcschk_wcinit
                0x002050c0                udbcschk_getbaseconverter
                0x00205168                udbcschk_setunprintable
                0x00205300                udbcschk_wclocaleinit
                0x0020546c                udbcschk_wclocalereset
                0x00205880                udbcschk_chklocale
                0x00205940                udbcschk_getlinuxleadbyte
                0x00205aa8                udbcschk
                0x00205c34                udbcschk_hk
                0x00205d20                udbcschk_getmblen
                0x00205fe0                udbcschk_mblen
                0x002060b0                udbcschk_mb2nd
                0x00206238                udbcschk_isvalidmbchar
                0x0020631c                udbcschk_locale_topbyte
                0x00206420                udbcschk_getdbcs1st
                0x00206514                udbcschk_ismbdbcs1st
                0x00206574                udbcschk_locale1
                0x00206860                udbcschk_mb2ucs1
                0x002069cc                udbcschk_ucs2mb1
                0x00206af8                udbcschk_forceenglish
                0x00206b64                udbcschkcp
                0x00206cd0                ugetcp
                0x00206d84                udbcsenv
                0x00206dc4                udosquerydbcsenv
                0x00206f38                udbcschk2
                0x00206ffc                udbcschk_pos2offs
                0x002071d8                usetdbcstbl
                0x0020753c                usetdbcstblmb
                0x002079ac                udbcschk_setlocale
                0x00207bfc                udbcschk_setdbcstype
                0x00207d14                udbcschk_icugetlocalconverter
 .text          0x00207d74     0x2db4 ./ulib/libuserxxe.a(libuserxxe_a-udbcsck2.o)
                0x00207d74                ujischkx208
                0x00207e44                usjischkx208
                0x00207f24                usjis2jis
                0x0020802c                ujis2sjis
                0x0020811c                ustrjis2sjis
                0x00208634                ustrsjis2jis
                0x00208b3c                ushift2euc
                0x00209074                ushift2euc1
                0x00209250                ushift2euccount
                0x00209490                usjischk
                0x00209744                ueuc2shift1SS3
                0x00209774                ueuc2shift
                0x00209f00                ueucchk
                0x0020a33c                ueuc2shift1
                0x0020a5b0                ueuc2shift1c
                0x0020a764                uhan2zen
                0x0020aa28                udbcschk_srchSS2
 .text          0x0020ab28      0x3dc ./ulib/libuserxxe.a(libuserxxe_a-udos2.o)
                0x0020ab28                udos2
                0x0020ab40                ugetdriveidlist
                0x0020ac34                ugetdrivelist
                0x0020acd4                ugetdrivetype
                0x0020adfc                udos_setenv
 .text          0x0020af04       0xa4 ./ulib/libuserxxe.a(libuserxxe_a-udosl.o)
                0x0020af04                udos_version
                0x0020af54                udosiswin
                0x0020af70                udosiswinnt
                0x0020af8c                udosisos2
 .text          0x0020afa8     0x3fe8 ./ulib/libuserxxe.a(libuserxxe_a-uedit.o)
                0x0020afa8                uedit
                0x0020afc0                unumedit
                0x0020b2f8                utimeedit
                0x0020be70                uitoa10
                0x0020bea4                ucmdparmedit
                0x0020c5cc                ueditenv
                0x0020c9f8                uwordrep
                0x0020d0a4                ugethex
                0x0020d204                ugethexdump
                0x0020d3e4                ux2FILESZ
                0x0020d414                ux2l
                0x0020d5a8                ux2ll
                0x0020d690                ua2ll
                0x0020d6c0                ux2s
                0x0020d81c                ugetnumrange3
                0x0020d994                ugetnumrange2
                0x0020da90                ugetnumrange2XFILESZ
                0x0020db64                ugetnumrange
                0x0020dd70                ugetxnumrange
                0x0020e194                ugetxnumrangeLL
                0x0020e5c0                unumlen
                0x0020e800                uatoin
                0x0020e880                getKMGTB
                0x0020ea08                ueditFILESZ
                0x0020ec7c                ueditLONGHANDLE
                0x0020ee84                ueditKMG
 .text          0x0020ef90     0x2890 ./ulib/libuserxxe.a(libuserxxe_a-uedit2.o)
                0x0020ef90                uedit2
                0x0020efa8                uasciidump
                0x0020f1c4                uasciidump_utf
                0x0020f47c                uucsdump
                0x0020f7c8                ub2x
                0x0020f8f8                ueditfattr
                0x0020fcd0                ueditfattrspf
                0x0020fda4                ueditfattr_mdos
                0x0020ff24                uxdumpline
                0x00210924                xdlputs
                0x002109d0                ugetdtparm
                0x00210acc                ugetdateparm
                0x00210b40                ugettimeparm
                0x00210bb4                ueditgetftnum
                0x00210e84                ueditsetfdateUSHORT
                0x00210f18                ueditsetfdate
                0x00210ff8                ueditsetftimeUSHORT
                0x0021108c                ueditsetftime
                0x00211184                uxdumpstr
                0x002113ac                ueditNowFileTime
                0x002114dc                ueditescrep
 .text          0x00211820      0x354 ./ulib/libuserxxe.a(libuserxxe_a-uehl.o)
                0x00211820                useteh
                0x002118ec                uehl_setsh
                0x00211940                ureseteh
                0x00211a08                uehl_resetsh
                0x00211a44                usighandler
 .text          0x00211b74     0x2800 ./ulib/libuserxxe.a(libuserxxe_a-uerr.o)
                0x00211b74                uerr
                0x00211b8c                ubell_init
                0x00211bcc                ubell_init2
                0x00211bfc                ubell
                0x00211d14                uerrexit_init
                0x00211ddc                uerrexit_optinit
                0x00211e0c                uerrsetopt2
                0x00211e70                uerrexit
                0x00211f2c                uerrmsg_init
                0x0021210c                uerrmsg
                0x0021231c                uerrmsg2
                0x0021249c                uerrmsgcat
                0x002125a8                uerrsprintf
                0x00212694                uerrfprintfutf
                0x00212b00                uerrhelpmsg
                0x00212fec                uerrscrheight
                0x0021309c                useterrmsg
                0x00213110                ugeterrmsg
                0x0021315c                ugeterrmsg2
                0x0021319c                uerrmsgedit
                0x00213a74                uconfirmmsg
                0x00213d8c                uerrornomsg
                0x00213db4                ugeterrdescription
                0x00213e38                uerrapi1
                0x00213e80                uerrapi1x
                0x00213ec4                uerrapi0
                0x00213f00                uerrapi0x
                0x00213f38                uerrapi1t
                0x00213fa8                uerrapi1nt
                0x00213ffc                uerrapi1tx
                0x00214068                uerrapi0t
                0x002140d0                uerrapi0tx
                0x00214134                uerrnotsupported
                0x00214178                uerrmsg_initstart
                0x0021423c                uerrmsg_initstack
                0x002142a0                uerrmsg_initcomp
 *fill*         0x00214374        0x4 
 .text          0x00214378      0xec0 ./ulib/libuserxxe.a(libuserxxe_a-ufemsg.o)
                0x00214378                ufemsg
                0x00214390                ufilenotfound
                0x002143cc                ufilenotfoundotherexist
                0x00214408                ufilepatherr
                0x00214444                ufileapierr
                0x0021448c                ufileapierr_str
                0x002144e4                ufiledelpath
                0x00214520                ufilereadonly
                0x0021455c                ufilereadonly2
                0x0021459c                ufiledeleted
                0x002146cc                ufileshare
                0x00214708                ufileexist
                0x00214744                ufileexistcopy
                0x00214780                ufileexist2
                0x002147c4                ufileexistdir
                0x00214800                ufilenotdir
                0x0021483c                ufilediskfull
                0x00214880                ufilewildtarget
                0x002148b4                ufilewildcarderr
                0x002148e8                ufilewildpatherr
                0x0021491c                ufileroot
                0x00214958                ufileapierr2
                0x002149ac                ufiledirna
                0x002149f8                ufileerrdir
                0x00214a34                ufilenotvfat
                0x00214a5c                ufilenopermission
                0x00214aa0                ufileslinkloop
                0x00214af8                ufileerrspecialfile
                0x00214b34                ufileerrnotnormal
                0x00214b70                ufileerrdir2file
                0x00214ba0                ufileerrnoentry
                0x00214bd8                ufileerrnofileentry
                0x00214c10                ufileTooLongFullpathName
                0x00214c68                ufileTooLongFullpathName2
                0x00214dc8                ufileeditsz
                0x00215160                ufileslinktargeterr
                0x002151a4                ufileopenerrInvalidargument
                0x00215200                ufileErrInvalidName
 .text          0x00215238     0x3508 ./ulib/libuserxxe.a(libuserxxe_a-ufile.o)
                0x00215238                ufile
                0x00215250                ufullpathwildexp
                0x00215904                ufullpathresolvespecialdirid
                0x00215ac0                ufilegetpathdir
                0x00215cac                udirlistnomsg
                0x00215d0c                udirlist
                0x00215ec0                udirlistsub
                0x002163b4                udirlist_set_slinkname
                0x00216508                ufile_udirlist_copy
                0x00216764                ufile_udirlist_swap
                0x00216948                ufile_udirlist_alloc1
                0x002169dc                ufile_udirlist_free
                0x00216ad8                udircompare_pointer
                0x00216b48                udirlistsort
                0x00216d0c                udircomp
                0x00216d50                udircompare
                0x002177d0                udircompsub
                0x002178f8                uredirect
                0x00217d40                uredirectrestore
                0x00217e5c                ufdateedit
                0x0021819c                uftimeedit
                0x002183d4                uftimeedit_1sec
                0x00218430                udirlist_chk_max_entry
                0x00218498                udirlist_setname
                0x00218674                udirlist_setname_cat
 .text          0x00218740      0x7ec ./ulib/libuserxxe.a(libuserxxe_a-ufile12.o)
                0x00218740                ufilegetlastname
                0x00218898                ufileconcatlastname
                0x00218a64                ufileisnormalfile
                0x00218cc8                ufilefullpathtemp
                0x00218da8                ufilenameenclose
 .text          0x00218f2c     0x1b00 ./ulib/libuserxxe.a(libuserxxe_a-ufile1f.o)
                0x00218f2c                uftpfstat
                0x0021924c                uftpwinchk
                0x00219378                uftpfullpathnorid
                0x002193d8                uftpfullpath
                0x00219aa0                uftppathlen
                0x00219af0                uftpgetcwd
                0x00219bf0                uftpgethome
                0x00219c70                uftpgethomesub
                0x00219e44                uftpchdir
                0x0021a010                uftpchdirsub
                0x0021a1e0                uftplchdirrespchk
                0x0021a3ec                uftpdirlistsub
                0x0021a7cc                uftpfindfirst
                0x0021a91c                uftpfindfirstfile
                0x0021a9a4                uftpfindnext
 .text          0x0021aa2c     0x4344 ./ulib/libuserxxe.a(libuserxxe_a-ufile1l.o)
                0x0021aa2c                ufstat
                0x0021b29c                ufilechkwildmultiple
                0x0021b538                ufstat_wild
                0x0021b5c8                ufilefscomp
                0x0021b640                ufilegetfsid
                0x0021b720                ufilegetftime
                0x0021b830                ufullpath
                0x0021c238                upathlen
                0x0021c288                ugetcwd
                0x0021c2b4                uchdir
                0x0021c3e0                udosfindfirstnomsg
                0x0021c450                udosfindfirst
                0x0021cbcc                udosfindnext
                0x0021cc3c                udosfindnextmsg
                0x0021d040                ufilelnxwildselect
                0x0021d0ac                ufilelnxattrselect
                0x0021d284                ufilelnxgetmembfstat
                0x0021d4b0                ufilelnxsavehdir
                0x0021d5e0                ufilelnxsrchhdir
                0x0021d6e8                ufilelnxclosehdir
                0x0021d828                ufilemode2attr
                0x0021d9d4                ufilemktime
                0x0021da8c                ufilerepwildname
                0x0021db8c                errwildname
                0x0021dd94                filesrchmountpoint
                0x0021df6c                filegetdevt
                0x0021e1f0                filegetdevicename
                0x0021e39c                filegetdevicemntent
                0x0021e4bc                filegetmntent
                0x0021e690                filegetmntoption
                0x0021e7f4                ufilegetiocharset
                0x0021e8f8                ufilefnmcvcs
                0x0021eb3c                ufullpathCP
 .text          0x0021ed70     0x1f08 ./ulib/libuserxxe.a(libuserxxe_a-ufile1l2.o)
                0x0021ed70                mtoolsinit
                0x0021ed9c                ufstat_mdos
                0x0021f2e8                ufilegetmdosattr
                0x0021f3ec                uopendir_mdos
                0x0021f6e8                ureaddir_mdos
                0x0021f92c                ufilegetmdosdl
                0x0021fe8c                ufilegetmdosattrlist
                0x00220084                ugetcwd_mdos
                0x00220200                uchdir_mdos
                0x0022029c                ustatfs_mdos
                0x002204dc                uminfo
                0x002207b8                ufilegetnum
                0x002208bc                ufilemdoscmd
                0x00220b14                ufilemdoserrchk
 .text          0x00220c78     0x4588 ./ulib/libuserxxe.a(libuserxxe_a-ufile2.o)
                0x00220c78                ufile2
                0x00220c90                uxddpchk
                0x002210e0                uxddsub
                0x00221930                uxdelete
                0x002226b0                ufilewildxdel
                0x002228e4                uxdelsub
                0x0022328c                uremovenomsg
                0x002232e0                uremove
                0x00223540                urenamenomsg
                0x00223598                urename2
                0x002235f0                urename
                0x00223cf4                ufilewildrename
                0x00223d2c                uwildfunc
                0x00224128                ufilecdirchk
                0x002244c0                ufilespfnchk
                0x002244e8                wildchk
                0x00224680                ufilechkwildmemb
                0x002247b0                ufilechkwildname
                0x00224944                ufileopenexclusivewrite
                0x00224a00                ufiledelifnotopened
                0x00224adc                ufile2quietmsg
                0x00224c0c                ugetmoveavailablepath
                0x002250f8                uwildfunc_LongName
 .text          0x00225200     0x47cc ./ulib/libuserxxe.a(libuserxxe_a-ufile2f.o)
                0x00225200                uftpmkdir
                0x002257f8                uftprmdir
                0x00225c04                uftpremove
                0x00226048                uftprename
                0x002263f4                uftprenamesub
                0x002267c8                uftpwildrename
                0x00226818                uftpattrib
                0x00226b24                uftpattrxon
                0x00226b6c                uftpattrxchk
                0x00226d44                uftpgetftime
                0x00226e98                uftpgetftime_1sec
                0x00227010                uftpsetftime
                0x00227088                uftpsetftime2
                0x00227100                uftpcopypathinfo
                0x00227228                uftpsetown
                0x002272a0                uftpsetmod
                0x00227780                uftpwildfunc
                0x002279ac                uftpwildfunc2
                0x00227d24                uftpmultidel
                0x00227e3c                uftpmultirename
                0x00227f54                uftpwildxdel
                0x00228290                uftpmultidelsub
                0x0022841c                uftpmultirenamesub
                0x0022865c                uftpbypassreason
                0x002286e8                uftpxdelrchk
                0x00228af4                uftpmultidelrchk
                0x00228d90                uftpmultirenamerchk
                0x00229038                ufile2putstmt
                0x00229178                uftpnotsupported
                0x002291d0                uftpnotsupportedforlocal
                0x00229228                uftpdelsubdir
                0x002294a8                ufile3xdeleteinit
                0x00229534                uxdelsubftp
                0x00229984                errtoolongname
 .text          0x002299cc     0x19d8 ./ulib/libuserxxe.a(libuserxxe_a-ufile2l.o)
                0x002299cc                umkdir
                0x00229a38                umkdirmode
                0x00229d6c                urmdir
                0x0022a210                uattrib
                0x0022a55c                uattrxon
                0x0022a5d4                uattrxchk
                0x0022a7b4                ugetftime
                0x0022a8ec                ugetftime_1sec
                0x0022aa6c                usetftime
                0x0022abe8                usetftime_1sec
                0x0022ac44                usetftime2
                0x0022ada0                ucopypathinfo
                0x0022b1ac                ufilesetown
                0x0022b2a4                ufilesetmod
 .text          0x0022b3a4      0xbc8 ./ulib/libuserxxe.a(libuserxxe_a-ufile2l2.o)
                0x0022b3a4                umkdir_mdos
                0x0022b470                urmdir_mdos
                0x0022b584                uattrib_mdos
                0x0022b788                uremove_mdos
                0x0022b89c                urename_mdos
                0x0022b934                ucopy_mdos
                0x0022bbc8                uappend_mdos
                0x0022bf10                ufilemdoscopyerr
 .text          0x0022bf6c     0x4dd0 ./ulib/libuserxxe.a(libuserxxe_a-ufile3.o)
                0x0022bf6c                ufile3
                0x0022bf84                invalidtargetfilename
                0x0022bfbc                uxcopy
                0x0022ceac                ufilecreateparmproc
                0x0022d618                ufilecpymvflags
                0x0022d8e4                ufilewildcopy
                0x0022db84                ucopysub_slinktarget
                0x0022dd24                ucopysub_slink
                0x0022e01c                ucopysub
                0x0022e740                udoscopy
                0x0022eaf8                uxmove
                0x0022f510                ufilewildmove
                0x0022f6a0                umovesub_slink
                0x0022fddc                umovesub
                0x0023050c                ufilecopytschk
                0x00230624                ufilechkslinkpath
                0x0023086c                ufilegetslinkfinaltarget
                0x002309f4                ufilesymlink
                0x00230a78                ufilesymlink_copyfiletime
                0x00230b70                ufilesymlink_copy
                0x00230c1c                ufileerrdirandfile
                0x00230c5c                ufileerrslinktarget
                0x00230ca0                ufileerrslinkappend
                0x00230ce0                ufileerrnotargetslink
 .text          0x00230d3c     0x539c ./ulib/libuserxxe.a(libuserxxe_a-ufile3f.o)
                0x00230d3c                uftpxmove
                0x00230f04                uftpxcopy
                0x002311fc                uftpxcopyr2r
                0x00231480                uftpupload
                0x00231b20                uftpdownload
                0x00232170                uftptargetflag
                0x002324f8                uftpsourceflag
                0x002328b0                uftps2tchk
                0x00232ea4                uftpcreateparmproc
                0x002332e8                uftpmoveparmproc
                0x0023359c                uftpupdownctl
                0x00233ea0                uftpgetdirlist
                0x00233f74                uftpexistchk1
                0x002341d0                uftpexistchkm
                0x00234730                uftpcopycallback
                0x00234f54                uftpcopyrchk
                0x002356e8                uftpputstmt
                0x0023582c                uftpputstmt2
                0x002359cc                uftpcopyftime
                0x00235d18                ufileftpcopytschk
                0x00235f54                uftpmktdir
                0x00235fb4                uftperrsourceisroot
                0x00235fdc                uftperrtargetisnotdir
                0x00236010                uftperrdir2file
                0x00236050                uftpfileanddir
                0x0023609c                uftpappenddir2dir
 .text          0x002360d8     0x2acc ./ulib/libuserxxe.a(libuserxxe_a-ufile4.o)
                0x002360d8                ufile4
                0x002360f0                utempnam
                0x002363d0                utempnamd
                0x00236428                ufgetpos
                0x00236458                udirwalk
                0x00236b90                udirwalksub
                0x00237c40                ufileslinkoutoflinkchk
                0x002380e0                ufileslinkloopchk
                0x00238584                ufileslinkloopchk2
                0x00238694                ugetdiskfree
                0x00238828                ufileisvfat
                0x0023885c                ufileisntfs
                0x00238880                ufileisvfatMounted
                0x00238900                ufileisntfsMounted
                0x00238980                ufileisMSMounted
                0x00238a2c                ufsetlock
                0x00238a94                uflock
 .text          0x00238ba4     0x4e20 ./ulib/libuserxxe.a(libuserxxe_a-ufile5.o)
                0x00238ba4                ufile5
                0x00238bbc                ufgetsinit
                0x00238fd8                ufgetscurpos
                0x00239000                ufgets_setcurpos
                0x00239084                ufgets
                0x00239448                ufgetssub
                0x00239a30                ufgetsbinchk_utf8
                0x00239d08                ufgetsbinchk_ebc
                0x00239f28                ufgetsbinchk
                0x0023a3e0                isSameU8c
                0x0023a628                udoseditname
                0x0023aeec                ufileeditname
                0x0023b3b4                ufilewildcomp
                0x0023b734                ufilewildcompsub
                0x0023b904                ufilecomp
                0x0023bddc                ufilecomptextmode
                0x0023c184                ufilecomptextmodefixed
                0x0023c410                ufilecomptextmodesub
                0x0023c554                ufreads
                0x0023c834                ufgetsVHeader
                0x0023cabc                ufgetsVRecord
                0x0023cdb4                ufgetsV
                0x0023d034                ufile5chkvfmt
                0x0023d194                ufile5getVfmtstr
                0x0023d258                ufseek
                0x0023d294                uftell
                0x0023d2c4                fileeditname_copypath
                0x0023d8e0                fileeditname_copypath_err
                0x0023d944                filetouch
 .text          0x0023d9c4     0x4f50 ./ulib/libuserxxe.a(libuserxxe_a-uftp.o)
                0x0023d9c4                uftpfstatroot
                0x0023da6c                uftplshome
                0x0023dbd4                uftpfstatudl
                0x0023df18                uftpisexist
                0x0023e034                uftpopendir
                0x0023e60c                uftpreaddir
                0x0023e770                uftpattrselect
                0x0023e938                uftpgetslinkattr
                0x0023ed18                uftpdirlistslink
                0x0023f308                uftpsortslink
                0x0023f360                uftpslinkcomp
                0x0023f3e4                uftpslinklscmd
                0x0023f71c                uftplsoutchk
                0x0023fa90                uftpmodtimerchk
                0x0023ff6c                uftpmodtimeerr
                0x0023ffc0                uftplsoutchkslinkerrskip
                0x002400ec                uftplsoutchkslink
                0x002401ec                uftpsavehdir
                0x00240334                uftpsrchhdir
                0x002403e0                uftpclosehdir
                0x00240444                uftpmode2attr
                0x002405c0                uftpudl2ffb3
                0x00240770                uftpgetpathname
                0x00240838                uftpnodesrch
                0x002408e8                uftpnodeadd
                0x002409a0                uftpnodedel
                0x002409fc                uftpnodeclear
                0x00240a18                uftpgethostqhaddr
                0x00240a38                uftphoststbinit
                0x00240d58                uftpgethostsdata
                0x00241dc4                uftgetstringopd
                0x00242044                uftpipachk
                0x00242264                uftpgetportno
                0x002422f0                uftpisremote
                0x0024247c                uftpisrootdir
                0x00242500                uftphostscrypt
                0x002427dc                uftptempnam
                0x00242838                uftp_mempswd
                0x002428d0                uftp_udirlist_setname
 .text          0x00242914     0x2c2c ./ulib/libuserxxe.a(libuserxxe_a-uftp2.o)
                0x00242914                uftpinit
                0x00242a64                uftpterm
                0x00242aac                uftplog
                0x00242e80                uftpnodeinit
                0x00243068                uftpcmd
                0x002437a0                uftpcmdrespchk
                0x002438ac                uftpcmdresphdrchk
                0x002439d4                uftpcmdsrchrespid
                0x00243c34                uftpsimplerespchk
                0x00243d0c                uftpnextstdo
                0x00243ddc                uftpsrchfname
                0x00243fa4                uftpsrchfnameslink
                0x0024422c                uftpgetdl
                0x0024454c                uftpgetdl1
                0x00244c54                uftpgetmode
                0x00244f9c                uftpgetdlftime
                0x00245140                uftpgetmonth
                0x002451bc                uftpgetwday
                0x00245234                uftpajustjst
                0x00245490                uftpmktempwd
                0x002454dc                uftpdeltempwd
 .text          0x00245540     0x5ab0 ./ulib/libuserxxe.a(libuserxxe_a-uftp3.o)
                0x00245540                uftp3setssh
                0x00245800                uftp3editpsftpcmd
                0x00245940                uftp3cmdrespchk
                0x00245a5c                uftp3cmdresphdrchk
                0x00245bb0                uftp3srchcmdecho
                0x00245d04                uftp3gethomesub
                0x00245e64                uftp3simplerespchk
                0x00245fd0                uftp3simplerespchkOK
                0x0024616c                uftp3simplerespchkCHNG
                0x002462fc                uftp3lchdirrespchk
                0x00246368                uftp3getputrespchk
                0x00246484                uftp3cdrespchk
                0x002465c0                uftp3setsmb
                0x0024667c                uftp3smb_setcmd
                0x00246afc                uftp3smb_editcmdline
                0x00246db4                uftp3smb_nodeinit
                0x00246e60                uftp3smbcmd
                0x00246ee4                uftp3smb_cmd
                0x002473ec                uftp3smb_chkstatuserr
                0x00247634                uftp3smb_srchresp
                0x0024785c                uftp3smb_stderrlog
                0x002478d4                uftp3smb_getdltime
                0x00247a78                uftp3smb_getdltimestat
                0x00247bc8                uftp3smb_setdltime
                0x00247cf8                uftp3smb_getmode
                0x00247f28                uftp3smb_getdirlistctr
                0x00247f70                uftp3smb_getdl1
                0x002481e4                uftp3smb_fstatudl
                0x002484f4                uftp3smb_fstatudl_byls
                0x00248724                uftp3smb_fstatudl_byls_root
                0x002489c0                uftp3smb_lsoutchk
                0x00248b44                uftp3smb_getdlattr
                0x00248c3c                uftp3smb_fstatdircallback
                0x00248edc                uftp3smb_fstatdirrchk
                0x00249324                uftp3smb_fstatoutchk
                0x00249828                uftp3smb_putstmt
                0x00249dd0                uftp3smb_respchk_srchnext
                0x0024a108                uftp3smb_respchk
                0x0024a530                uftp3smb_lchdirrespchk
                0x0024a580                uftp3smb_strfname
                0x0024a830                uftp3smb_enclosefnm
                0x0024a970                uftp3smb_editcmdparm
                0x0024ab10                uftp3smb_dirnameforlist
                0x0024abe0                uftp3smb_mode2attr_winsub
                0x0024ac70                uftp3smb_mode2attr_win
                0x0024acc0                uftp3smb_strattr
                0x0024ada8                uftp3smb_setmod_win
 .text          0x0024aff0      0x4b0 ./ulib/libuserxxe.a(libuserxxe_a-ugcclib.o)
                0x0024aff0                strupr
                0x0024b058                strlwr
                0x0024b0c0                memicmp
                0x0024b18c                stricmp
                0x0024b21c                itoa
                0x0024b2b0                kbhit
                0x0024b2c8                getch_nc
                0x0024b2e8                getche
                0x0024b308                spawnvp
                0x0024b360                spawnv
 .text          0x0024b4a0     0x1d4c ./ulib/libuserxxe.a(libuserxxe_a-ukbdl.o)
                0x0024b4a0                ukbdpeek
                0x0024b4cc                ukbdcharin
                0x0024b674                ukbdl_init
                0x0024b760                ukbdl_term
                0x0024b778                ukbdl_setkbmode
                0x0024b800                ukbdl_shellmode
                0x0024b90c                ukbdl_setgetchmode
                0x0024b9cc                ukbdl_tcgetattr
                0x0024ba6c                ukbdl_tcsetattr
                0x0024bb10                ukbdl_getch_init
                0x0024bb64                ukbdl_getche_init
                0x0024bbb8                ukbdl_getch_term
                0x0024bc04                ukbdl_getche_term
                0x0024bc50                ukbdl_kbhit
                0x0024bca0                ukbdl_getch
                0x0024bd40                ukbdl_getche
                0x0024bde0                ukbdl_gettermid
                0x0024bf24                ukbdl_gettermsim
                0x0024c45c                ukbdl_editstring
                0x0024c524                ukbdsetstatus
                0x0024c5dc                ukbdl_wcinit
                0x0024c6f8                ukbdl_readutf8
                0x0024ccec                ukbdl_readdbcs
                0x0024cff4                ukbd_simutf8_f2l
 .text          0x0024d1ec     0x8020 ./ulib/libuserxxe.a(libuserxxe_a-ukbdlnxc.o)
                0x0024d1ec                ukbdlnxc_gettbl
                0x0024d288                ukbdlnxc_init
                0x0024d438                ukbdlnxc_term
                0x0024d4b4                ukbdlnxc_getnext
                0x0024d53c                ukbdlnxc_read
                0x0024d6f0                ukbdlnxc_readkbd
                0x0024e584                ukbdlnxc_optproc
                0x0024e700                ukbdlnxc_setupckt
                0x0024edc4                ukbdlnxc_setupcktsub
                0x0024f030                ukbdlnxc_setupcktx
                0x002516ec                cktovferr
                0x00251768                ukbdlnxc_addstrtbl
                0x00251a40                ukbdlnxc_dupstrchk
                0x00251d9c                ukbdlnxc_cleanup
                0x00251e24                ukbdlnxc_termexit
                0x00251e58                ukbdlnxc_getplainsym
                0x0025212c                ukbdlnxc_chkothersym
                0x00252198                ukbdlnxc_xbsdel
                0x0025229c                ukbdlnxc_delopt
                0x00252380                ukbdlnxc_setfunckey
                0x00252564                ukbdlnxc_setfuncstr
                0x00252948                ukbdlnxc_setcompose
                0x002529e0                ukbdlnxc_getkeysym
                0x00252ac0                ukbdlnxc_setkeysym
                0x00252ba0                ukbdlnxc_getstring
                0x00252c70                ukbdlnxc_setstring
                0x00252d68                ukbdlnxc_getdiacr
                0x00252e14                ukbdlnxc_setdiacr
                0x00252ec0                ukbdlnxc_setmetamode
                0x002530cc                ukbdlnxc_getconsole
                0x00253250                ukbdlnxc_getptty
                0x0025338c                ukbdlnxc_open
                0x00253414                ukbdlnxc_chkconsole
                0x0025343c                ukbdlnxc_save1st
                0x002537d8                ukbdlnxc_restorelast
                0x00253d94                ukbdlnxc_lockfwrite
                0x00253e18                ukbdlnxc_lockfread
                0x00253e9c                ukbdlnxc_pidsetlock
                0x00253f88                ukbdlnxc_pidresetlock
                0x00254028                ukbdlnxc_pidchklock
                0x002540e0                ukbdlnxc_chngttkey
                0x00254cac                ukbdlnxc_setrctl
                0x00254de0                ukbdlnxc_setrctlstr
                0x002551e4                uttyname
 .text          0x0025520c      0x848 ./ulib/libuserxxe.a(libuserxxe_a-ukbdlnxm.o)
                0x0025520c                ukbdlnxm_mouseopt
                0x0025531c                ukbdlnxm_mouseinit
                0x00255384                ukbdlnxm_mouseterm
                0x002553e4                ukbdlnxm_getmouse
                0x0025583c                clickchk
 .text          0x00255a54     0x22e0 ./ulib/libuserxxe.a(libuserxxe_a-uparse.o)
                0x00255a54                uparsein
                0x00255cfc                uparseindir
                0x00255e70                uparsev
                0x00256038                uparse2
                0x00256174                uparse
                0x00256e7c                uparsefname
                0x00257008                uparsecmd
                0x00257778                uparsecmdin
                0x002579d0                uparsegetopt
 .text          0x00257d34     0x3754 ./ulib/libuserxxe.a(libuserxxe_a-uproc.o)
                0x00257d34                usystem2
                0x00257e70                usystem
                0x00257f84                uspawnl
                0x002580b0                uspawnlp
                0x002581dc                uspawnvp
                0x002582d8                uprocopt
                0x002583a4                uspawnrc
                0x002585cc                uprocerrmem
                0x00258608                uprocerrnotf
                0x00258644                uexecchk
                0x00258a4c                uextdirsrch
                0x00258a8c                ucmdnmcomp
                0x00258c08                ugetexepath
                0x00258c2c                uproc_getpsinfo
                0x00259184                uproc_srchpsinfo
                0x00259314                uproc_freepsinfo
                0x00259384                usystem_redirect
                0x0025966c                uspawn_redirect
                0x00259a44                uproc_redirectoutchk
                0x0025a3c0                uspawnvp_pipe
                0x0025a814                uspawnvp_pipeclose
                0x0025a8e0                usystem_cmdserverinit
                0x0025a984                usystem_cmdserverterm
                0x0025aac0                usystem_cmdserversetup
                0x0025af30                usystem_cmdtocmdserver
                0x0025afbc                usystem_cmdserverreq
                0x0025b3c8                usystem_cmdserverreqwithoutbuff
                0x0025b45c                usystem_pidalivechk
 .text          0x0025b488     0x142c ./ulib/libuserxxe.a(libuserxxe_a-uproc2.o)
                0x0025b488                uprocparseredirect
                0x0025b890                uproc_rsh
                0x0025bfb0                uproc_redirectrewrite
                0x0025c0d8                uproc_rshlog
                0x0025c1a8                ugetpid
                0x0025c1f4                uprocredirectchk
                0x0025c244                uproc_loaddllpath
                0x0025c4ac                uproc_loaddll
                0x0025c65c                uproc_getdllproc
                0x0025c748                uproc_freedll
                0x0025c7a4                uproc_getprocaddr
 .text          0x0025c8b4     0x1988 ./ulib/libuserxxe.a(libuserxxe_a-uproc3.o)
                0x0025c8b4                uproc_gvfsinit
                0x0025c918                ushellexec
                0x0025cdcc                ushellexecsub
                0x0025d0a0                ulnxlgettermpgmopt
                0x0025d224                ulnxlgetshellpgm
                0x0025d2f0                ulnxxgettermpgmopt
                0x0025d604                uproc3pgmchk
                0x0025d6a8                usystemlnxterm
                0x0025d748                usleepms
                0x0025d7ec                uprocconnect
                0x0025daa8                uprocdisconnect
                0x0025db54                uprocpipeio
                0x0025dd60                startserver
                0x0025dddc                uprocpiperead
                0x0025de70                uprocpiperecevmsg
                0x0025dfec                uprocpipeiodata
 .text          0x0025e23c     0x11dc ./ulib/libuserxxe.a(libuserxxe_a-uproc4.o)
                0x0025e23c                uproc_shcmd
                0x0025e344                uproc_shserverinit
                0x0025e3e8                uproc_shserverterm
                0x0025e4c0                uproc_shserversetup
                0x0025e980                uproc_shserverreq
                0x0025edc4                uproc_srchprocessw
                0x0025ee88                uproc_srchprocess
                0x0025ef6c                uproc_select
                0x0025f330                uproc4_fdset
                0x0025f3a0                uproc4_fdisset
 .text          0x0025f418      0x9d4 ./ulib/libuserxxe.a(libuserxxe_a-uque.o)
                0x0025f418                uque
                0x0025f430                uenq
                0x0025f704                udeq
                0x0025f9e0                uqscan
                0x0025fb04                uqfree
                0x0025fb5c                uqufree
                0x0025fbb4                uenqchain
                0x0025fccc                uenqent
                0x0025fd6c                uqhmove
 .text          0x0025fdec      0x274 ./ulib/libuserxxe.a(libuserxxe_a-ustrcpy.o)
                0x0025fdec                ustring_memcpy
                0x0025fea8                ustring_strncpy
                0x0025ffc8                ustring_strcpy
 .text          0x00260060     0x2778 ./ulib/libuserxxe.a(libuserxxe_a-ustring.o)
                0x00260060                ustring
                0x00260078                ustrnchr
                0x00260100                ustrnpbrk
                0x002601dc                ustrnspn
                0x002602d8                ustrrspn
                0x00260378                ustrnrspn
                0x00260428                umemrspn
                0x002604e0                umemspnc
                0x0026056c                umemspn_spacetab
                0x002605fc                umemrspnc
                0x0026068c                ustrnstr
                0x00260794                ustrrstr
                0x00260824                ustrnrstr
                0x00260910                ustrstri
                0x00260a68                ustrnstri
                0x00260b5c                ustrrstri
                0x00260bec                ustrnrstri
                0x00260cd8                ustrnrchr
                0x00260dcc                umemchr_utf
                0x00260f68                ustrchr2
                0x002610b0                ustrnchr2
                0x002610fc                umemchr2
                0x0026123c                ustrrchr2
                0x0026137c                ustrnrchr2
                0x002613c8                umemrchr2
                0x002614dc                umemrchr
                0x0026155c                umempbrk
                0x00261628                umemrpbrk
                0x002616f8                ustrnlen
                0x0026174c                umemstr
                0x00261790                umemstri
                0x002617d4                umemrstr
                0x00261818                umemrstri
                0x0026185c                umemmem
                0x0026194c                umemmemi
                0x00261b4c                umemrmem
                0x00261c44                umemrmemi
                0x00261e28                ustrncpyz
                0x00261ecc                uispunct
                0x00261f94                uispunctdbcs
                0x002621a0                ustrdup
                0x0026226c                umemtrim
                0x002624b8                umemicmpdbcs
                0x002625b4                umemstridbcs
                0x002626d4                umemrstridbcs
 .text          0x002627d8       0x70 ./ulib/libuserxxe.a(libuserxxe_a-utf.o)
                0x002627d8                utf_init
 .text          0x00262848     0x5ba0 ./ulib/libuserxxe.a(libuserxxe_a-utf2.o)
                0x00262848                umbtowc
                0x00262904                utfpos2offs
                0x00262b94                utfctr2offs
                0x00262eac                utfstrchkmbr2wc
                0x0026332c                utfcvf2u
                0x00263834                utfcvl2fmix
                0x00263b0c                utfcvl2f
                0x002641d8                utfcvl2ftab
                0x00264394                utfsetdbcstbl
                0x00264698                utfisvalidutf8
                0x0026479c                utfgetstrwidth
                0x00264864                utfisvalidutf8char
                0x002649f4                utfstrvalidate
                0x00264b60                utfgetutf8strlen
                0x00264cd8                utfsplitchk
                0x00264efc                utfcvl2fany
                0x00265784                utfcvf2l1
                0x0026596c                utfcvf2l
                0x00265e08                utfcvf2lany
                0x002663a4                utfcvl2fany1
                0x00266608                utfcvl2fany1mb
                0x0026676c                utfcvl2uany1mb
                0x00266910                utfcvf2lany1
                0x00266d20                utfcvf2lany1mb
                0x00266ea4                utfcvu2lany1mb
                0x00267008                utfcvlocaleinit
                0x00267234                utfcvsetdefaultlocale
                0x002673a4                utfcvsetparmlocale
                0x00267500                utfgetcharset_std
                0x0026782c                utfgetcharset
                0x00267a50                utflocalechk
                0x00267ad0                utfcvlocaleopen
                0x00267be8                utfcvlocaleclose
                0x00267c14                utfcvlocaletclose
                0x00267c54                utfcviconvdbcschk_topbyte
                0x00267d90                utfcviconvdbcschk1
                0x00267efc                utfcvlocaleinitICU
                0x00267f64                utfcvf2lany1ICU
                0x002680e0                utfcvl2fany1ICU
                0x00268284                utfcvsetdefaultlocaleICU
                0x002682c8                utflocalechkICU
                0x00268330                utfgetstrlenHK
 .text          0x002683e8     0x7bb0 ./ulib/libuserxxe.a(libuserxxe_a-utf22.o)
                0x002683e8                utfwwapichk
                0x00268650                utfddflag2sbcsid
                0x002686e8                utfddgetlenflag
                0x002689a8                utf22_mapwidth0_rounddown
                0x00268ae4                utf22_mapwidth0
                0x00268cfc                utfucsmapinit
                0x0026920c                utf22setworkdir
                0x002693a4                utf22versionchk
                0x0026959c                utfucsloadmap
                0x00269794                utfucssavemap
                0x00269928                utfucsmapinit_remap
                0x00269cb8                utfucsmapmodify
                0x00269e30                utfmapucs2dd
                0x00269ee8                utfmapdd2ucs
                0x00269f6c                utfddsetsbcs
                0x0026a034                utfddgetsbcs
                0x0026a098                utfgetwcw
                0x0026a1d8                utfcvu2dd1w
                0x0026a4a4                utfcvu2dd1
                0x0026a5a0                utfcvf2dd
                0x0026a88c                utfdd2u1
                0x0026a8f8                utfdd2u1vio
                0x0026a9d4                utfdd2u1chsz
                0x0026abc8                utfdd2u
                0x0026b0f4                utfucs42utf16
                0x0026b2c0                utfddgetucsctr
                0x0026b43c                utfu2dd
                0x0026b650                utfddcmp
                0x0026bf4c                utfddicmp
                0x0026c090                utfcvdd2f
                0x0026c724                utfchkdd
                0x0026c80c                utfddisasciistr
                0x0026c980                utfddissbcsstr
                0x0026ca38                utfddasciilen
                0x0026ca80                utfddpos2offs
                0x0026ccb8                utfddoffs2pos
                0x0026cfec                utfddispunct
                0x0026d1e4                utfddmemspnc
                0x0026d2e8                utfddmemrspnc
                0x0026d408                utfddstrnlen
                0x0026d4f0                utfddstrlen
                0x0026d5a0                utfddstrnspn
                0x0026d628                utfddmemspn
                0x0026d75c                utfddmemrspn
                0x0026d894                utfddmemchr
                0x0026d9c4                utfddmemchr_nonascii
                0x0026dab8                utfddmemrchr
                0x0026dba0                utfddmemrchr_nonascii
                0x0026dc50                utfddmempbrk
                0x0026dd30                utfddmempbrk_nonascii
                0x0026de34                utfddmemrpbrk
                0x0026df30                utfddmemrpbrk_nonascii
                0x0026e050                utfddcmpdbcstab
                0x0026e160                utfddmemmem
                0x0026e3e4                utfddmemrmem
                0x0026e4d0                utfddnumlen
                0x0026e794                utfddgetdbcslr
                0x0026e8d4                utfddgetcsrposbca
                0x0026ec68                utfgetvisiblealtch
                0x0026f02c                utfgetvisiblealtchprint
                0x0026f0c8                utf_setsubchar_dbcs
                0x0026f2cc                utf_subcharcmp
                0x0026f448                utfmemrchrDD
                0x0026f504                utfmemchrDD
                0x0026f5e0                isASCIIstr
                0x0026f648                isPrintableASCIIstr
                0x0026f6c0                isPrintableASCIImem
                0x0026f74c                utf22_setunpucsvio
                0x0026f888                utf22_setdbcsspacealt
                0x0026f944                utfsetvisiblealtch
                0x0026fa9c                utf22_iswidth0Ovf
                0x0026fb90                utf22_iswidth0DBCS
                0x0026fc68                utf_iswidth0
                0x0026fda8                utf_iscombinable
                0x0026fee4                utf_iscombining
 .text          0x0026ff98     0x17a4 ./ulib/libuserxxe.a(libuserxxe_a-utf3.o)
                0x0026ff98                utfmb2wc
                0x002701f4                utfwcwidth
                0x00270480                utfwcwidthNoMap
                0x00270620                utfwcwidthsub
                0x00270860                utfwcwidthsubNoMap
                0x00270a8c                utfiswide
                0x00270ac4                utfisprint
                0x00270ce0                utfgetwc
                0x00270d7c                utftbinit
                0x002712f4                utftbfhelp
                0x00271314                utftbterm
                0x00271368                utftbsrch
                0x002714e4                utftbsrch_jeuc
                0x00271550                utftbsrch_cjk
                0x00271698                utf3_wcwidthXXE
 .text          0x0027173c      0xad0 ./ulib/libuserxxe.a(libuserxxe_a-utf4.o)
                0x00271840                mk_wcwidth_combining
                0x0027188c                mk_wcwidth
                0x00271b50                mk_wcwidth_cjk
                0x00271c8c                mk_wcswidth_cjk
                0x00271d24                mk_wcwidth_adjsbcs
                0x00271f24                utf4_isSpacingCombiningMark
                0x00271fe0                utf4_isAmbiguous
                0x002720ec                utf4_isAmbiguous_XXE
                0x0027216c                utf4_isFormat
                0x002721c0                mk_wcwidth_combining2SCM
 .text          0x0027220c     0x176c ./ulib/libuserxxe.a(libuserxxe_a-utrace.o)
                0x0027220c                utrace_initmt
                0x00272268                utrace_init
                0x002724cc                utracepop
                0x00272638                utracepopf
                0x002727ec                utracepnop
                0x0027280c                utrace_ebc
                0x00272904                utrace
                0x00272ce8                utracectime
                0x00272f24                utraceopen_force
                0x002730f4                utraceocmsg_force
                0x00273898                utrace_term
 .text          0x00273978      0x5b8 ./ulib/libuserxxe.a(libuserxxe_a-uunxsub.o)
                0x00273978                ugetugid
                0x00273a1c                ugetusername
                0x00273ab4                ugetgroupname
                0x00273b4c                usrchugname
                0x00273bb8                uaddugname
                0x00273cac                unc_setupterm
                0x00273d20                unx_fsetlock
                0x00273de4                unx_fresetlock
                0x00273e40                unx_fchklock
                0x00273efc                ugethostname
 .text          0x00273f30      0xe34 ./ulib/libuserxxe.a(libuserxxe_a-uviom.o)
                0x00273f30                uviom_init
                0x00273f7c                uviom_setopt2
                0x00274278                uviom_notify
                0x0027433c                uvio_wcinit
                0x0027439c                uviom_escrep
                0x00274588                uvio_getbufflineopt
                0x002747a8                uvio_setbufflineopt
                0x002749c0                uviom_ISUCSWIDTH0
                0x00274b04                uviom_getcombaltchUcs
                0x00274b88                uviom_getcombaltchU8
 .text          0x00274d64     0x12bc ./ulib/libuserxxe.a(libuserxxe_a-uviolx.o)
                0x00274d64                uvio
                0x00274d7c                uviofreework
                0x00274e8c                uviogetwork
                0x00275060                uviol_init2
                0x00275090                uvio_w95getattrtbl
                0x00275124                uvio_w95setscrattr
                0x002751dc                uvio_initparm
                0x00275234                uviogetmode
                0x00275478                uviosetmode
                0x002754b8                uvioreadcellstr
                0x002755d4                uviowrtcellstr
                0x002758c0                uviowrtcharstr
                0x0027599c                uviowrtattrstr
                0x00275a6c                uviowrtcharstratt
                0x00275b88                uviowrtnattr
                0x00275c58                uviowrtncell
                0x00275e10                uviowrtnchar
                0x00275ed8                uvio_w95writecell
                0x00275f08                uvio_w95resetconsole
                0x00275f20                uviogetcurpos
                0x00275f50                uviosetcurpos
                0x00275f80                uviogetcurtype
                0x00275fa8                uviosetcurtype
                0x00275fd0                uviogetstate
                0x00275ff8                uviosetstate
 .text          0x00276020      0xd74 ./ulib/libuserxxe.a(libuserxxe_a-uproc22.o)
                0x00276020                ukillpid
                0x002760bc                uthread
                0x00276134                uevent
                0x002763a0                uevent_wait1
                0x0027656c                uevent_post1
                0x00276670                uevent_waitm
                0x00276854                uevent_postm
                0x00276994                uevent_reset1
                0x00276a28                uevent_setuplist
                0x00276bbc                uevent_resetlist
                0x00276c6c                ucriticalsection
 .text          0x00276d94      0x20c /usr/lib/gcc/arm-linux-gnueabihf/8/libgcc.a(_udivsi3.o)
                0x00276d94                __aeabi_uidiv
                0x00276d94                __udivsi3
                0x00276f80                __aeabi_uidivmod
 .text          0x00276fa0      0x240 /usr/lib/gcc/arm-linux-gnueabihf/8/libgcc.a(_divsi3.o)
                0x00276fa0                __divsi3
                0x00276fa0                __aeabi_idiv
                0x002771c0                __aeabi_idivmod
 .text          0x002771e0       0xd4 /usr/lib/gcc/arm-linux-gnueabihf/8/libgcc.a(_aeabi_ldivmod.o)
                0x002771e0                __aeabi_ldivmod
 .text          0x002772b4       0x10 /usr/lib/gcc/arm-linux-gnueabihf/8/libgcc.a(_dvmd_lnx.o)
                0x002772b4                __aeabi_idiv0
                0x002772b4                __aeabi_ldiv0
 .text          0x002772c4      0x128 /usr/lib/gcc/arm-linux-gnueabihf/8/libgcc.a(_udivmoddi4.o)
                0x002772c4                __udivmoddi4
 .text          0x002773ec       0x64 //usr/lib/arm-linux-gnueabihf/libc_nonshared.a(elf-init.oS)
                0x002773ec                __libc_csu_init
                0x0027744c                __libc_csu_fini
 .text          0x00277450       0x10 //usr/lib/arm-linux-gnueabihf/libc_nonshared.a(stat64.oS)
                0x00277450                stat64
 .text          0x00277460       0x10 //usr/lib/arm-linux-gnueabihf/libc_nonshared.a(lstat64.oS)
                0x00277460                lstat64
 .text          0x00277470        0x0 /usr/lib/gcc/arm-linux-gnueabihf/8/crtend.o
 .text          0x00277470        0x0 /usr/lib/gcc/arm-linux-gnueabihf/8/../../../arm-linux-gnueabihf/crtn.o
 *(.gnu.warning)
 *(.glue_7t)
 .glue_7t       0x00277470        0x0 linker stubs
 *(.glue_7)
 .glue_7        0x00277470        0x0 linker stubs
 *(.vfp11_veneer)
 .vfp11_veneer  0x00277470        0x0 linker stubs
 *(.v4_bx)
 .v4_bx         0x00277470        0x0 linker stubs

.fini           0x00277470        0x8
 *(SORT_NONE(.fini))
 .fini          0x00277470        0x4 /usr/lib/gcc/arm-linux-gnueabihf/8/../../../arm-linux-gnueabihf/crti.o
                0x00277470                _fini
 .fini          0x00277474        0x4 /usr/lib/gcc/arm-linux-gnueabihf/8/../../../arm-linux-gnueabihf/crtn.o
                [!provide]                PROVIDE (__etext = .)
                [!provide]                PROVIDE (_etext = .)
                [!provide]                PROVIDE (etext = .)

.rodata         0x00277478    0x2c20a
 *(.rodata .rodata.* .gnu.linkonce.r.*)
 .rodata.cst4   0x00277478        0x4 /usr/lib/gcc/arm-linux-gnueabihf/8/../../../arm-linux-gnueabihf/crt1.o
                0x00277478                _IO_stdin_used
 .rodata        0x0027747c       0xc0 gxe-support.o
 .rodata        0x0027753c       0x4c gxe-main.o
 .rodata        0x00277588     0x1e67 gxe-interface.o
 *fill*         0x002793ef        0x1 
 .rodata        0x002793f0      0x449 gxe-callbacks.o
 *fill*         0x00279839        0x3 
 .rodata        0x0027983c      0x95d gxe-gxeview.o
 *fill*         0x0027a199        0x3 
 .rodata        0x0027a19c      0x7e2 gxe-gxedlg.o
 *fill*         0x0027a97e        0x2 
 .rodata        0x0027a980      0x2a6 gxe-gxe.o
 *fill*         0x0027ac26        0x2 
 .rodata        0x0027ac28       0x6c gxe-xxemain.o
 .rodata        0x0027ac94      0x852 gxe-gxemfrm.o
 *fill*         0x0027b4e6        0x2 
 .rodata        0x0027b4e8      0x404 gxe-xxecsub.o
 .rodata        0x0027b8ec      0x2b7 gxe-xxexei.o
 *fill*         0x0027bba3        0x1 
 .rodata        0x0027bba4      0x3cf gxe-xxekbd.o
 *fill*         0x0027bf73        0x1 
 .rodata        0x0027bf74      0x3c7 gxe-xxescr.o
 *fill*         0x0027c33b        0x1 
 .rodata        0x0027c33c      0x4ff gxe-xxexei3.o
 *fill*         0x0027c83b        0x1 
 .rodata        0x0027c83c      0x79a gxe-xxemouse.o
 *fill*         0x0027cfd6        0x2 
 .rodata        0x0027cfd8      0x131 gxe-xxexei2.o
 *fill*         0x0027d109        0x7 
 .rodata        0x0027d110      0x6cb gxe-xxecsub2.o
 *fill*         0x0027d7db        0x1 
 .rodata        0x0027d7dc      0x3ac gxe-xxefile.o
 .rodata        0x0027db88      0x8bc gxe-gxepage.o
 .rodata        0x0027e444      0x1bb gxe-xxeprt.o
 *fill*         0x0027e5ff        0x1 
 .rodata        0x0027e600     0x20ec ./xe/libxxe.a(libxxe_a-xe.o)
 .rodata        0x002806ec      0x988 ./xe/libxxe.a(libxxe_a-xecap.o)
 .rodata        0x00281074      0x25b ./xe/libxxe.a(libxxe_a-xecap2.o)
 *fill*         0x002812cf        0x1 
 .rodata        0x002812d0      0x1b2 ./xe/libxxe.a(libxxe_a-xechar.o)
 *fill*         0x00281482        0x2 
 .rodata        0x00281484       0x38 ./xe/libxxe.a(libxxe_a-xechar12.o)
 .rodata        0x002814bc       0x41 ./xe/libxxe.a(libxxe_a-xechar2.o)
 *fill*         0x002814fd        0x3 
 .rodata        0x00281500       0xe1 ./xe/libxxe.a(libxxe_a-xecsr.o)
 *fill*         0x002815e1        0x3 
 .rodata        0x002815e4      0xc25 ./xe/libxxe.a(libxxe_a-xedcmd.o)
 *fill*         0x00282209        0x3 
 .rodata        0x0028220c      0x747 ./xe/libxxe.a(libxxe_a-xedcmd2.o)
 *fill*         0x00282953        0x1 
 .rodata        0x00282954      0x3a3 ./xe/libxxe.a(libxxe_a-xedcmd3.o)
 *fill*         0x00282cf7        0x1 
 .rodata        0x00282cf8      0x2cd ./xe/libxxe.a(libxxe_a-xedcmd4.o)
 *fill*         0x00282fc5        0x3 
 .rodata        0x00282fc8      0x130 ./xe/libxxe.a(libxxe_a-xedir2.o)
 .rodata        0x002830f8      0x4fa ./xe/libxxe.a(libxxe_a-xedir3.o)
 *fill*         0x002835f2        0x2 
 .rodata        0x002835f4      0x11b ./xe/libxxe.a(libxxe_a-xedir4.o)
 *fill*         0x0028370f        0x1 
 .rodata        0x00283710      0xf48 ./xe/libxxe.a(libxxe_a-xedlcmd.o)
 .rodata        0x00284658      0x1d4 ./xe/libxxe.a(libxxe_a-xedlcmd2.o)
 .rodata        0x0028482c      0x2de ./xe/libxxe.a(libxxe_a-xedlcmd3.o)
 *fill*         0x00284b0a        0x2 
 .rodata        0x00284b0c      0x3d8 ./xe/libxxe.a(libxxe_a-xedlcmd4.o)
 .rodata        0x00284ee4       0x76 ./xe/libxxe.a(libxxe_a-xedlcmd5.o)
 *fill*         0x00284f5a        0x2 
 .rodata        0x00284f5c      0x38e ./xe/libxxe.a(libxxe_a-xedlcmd6.o)
 *fill*         0x002852ea        0x2 
 .rodata        0x002852ec      0x1a1 ./xe/libxxe.a(libxxe_a-xeebc.o)
 *fill*         0x0028548d        0x3 
 .rodata        0x00285490      0x5f1 ./xe/libxxe.a(libxxe_a-xeerr.o)
 *fill*         0x00285a81        0x3 
 .rodata        0x00285a84      0xd7e ./xe/libxxe.a(libxxe_a-xefcmd.o)
 *fill*         0x00286802        0x2 
 .rodata        0x00286804      0x87b ./xe/libxxe.a(libxxe_a-xefcmd22.o)
 *fill*         0x0028707f        0x1 
 .rodata        0x00287080      0x3cb ./xe/libxxe.a(libxxe_a-xefcmd23.o)
 *fill*         0x0028744b        0x1 
 .rodata        0x0028744c      0x73e ./xe/libxxe.a(libxxe_a-xefcmd25.o)
 *fill*         0x00287b8a        0x2 
 .rodata        0x00287b8c      0x158 ./xe/libxxe.a(libxxe_a-xefcmd26.o)
 .rodata        0x00287ce4       0xcf ./xe/libxxe.a(libxxe_a-xefcmd27.o)
 *fill*         0x00287db3        0x1 
 .rodata        0x00287db4      0xf4a ./xe/libxxe.a(libxxe_a-xefcmd3.o)
 *fill*         0x00288cfe        0x2 
 .rodata        0x00288d00      0x5bb ./xe/libxxe.a(libxxe_a-xefcmd4.o)
 *fill*         0x002892bb        0x1 
 .rodata        0x002892bc      0x810 ./xe/libxxe.a(libxxe_a-xefcmd42.o)
 .rodata        0x00289acc      0x356 ./xe/libxxe.a(libxxe_a-xefcmd43.o)
 *fill*         0x00289e22        0x2 
 .rodata        0x00289e24      0xbce ./xe/libxxe.a(libxxe_a-xefcmd5.o)
 *fill*         0x0028a9f2        0x2 
 .rodata        0x0028a9f4      0x645 ./xe/libxxe.a(libxxe_a-xefcmd6.o)
 *fill*         0x0028b039        0x3 
 .rodata        0x0028b03c      0x48e ./xe/libxxe.a(libxxe_a-xefcmd7.o)
 *fill*         0x0028b4ca        0x2 
 .rodata        0x0028b4cc      0x703 ./xe/libxxe.a(libxxe_a-xefile.o)
 *fill*         0x0028bbcf        0x1 
 .rodata        0x0028bbd0      0x808 ./xe/libxxe.a(libxxe_a-xefile12.o)
 .rodata        0x0028c3d8       0x39 ./xe/libxxe.a(libxxe_a-xefile13.o)
 *fill*         0x0028c411        0x3 
 .rodata        0x0028c414      0x8a3 ./xe/libxxe.a(libxxe_a-xefile14.o)
 *fill*         0x0028ccb7        0x1 
 .rodata        0x0028ccb8      0x70e ./xe/libxxe.a(libxxe_a-xefile15.o)
 *fill*         0x0028d3c6        0x2 
 .rodata        0x0028d3c8       0xd5 ./xe/libxxe.a(libxxe_a-xefile2.o)
 *fill*         0x0028d49d        0x3 
 .rodata        0x0028d4a0       0x59 ./xe/libxxe.a(libxxe_a-xefile22.o)
 *fill*         0x0028d4f9        0x3 
 .rodata        0x0028d4fc       0x82 ./xe/libxxe.a(libxxe_a-xefile3.o)
 *fill*         0x0028d57e        0x2 
 .rodata        0x0028d580      0x12a ./xe/libxxe.a(libxxe_a-xefile4.o)
 *fill*         0x0028d6aa        0x2 
 .rodata        0x0028d6ac      0x4bd ./xe/libxxe.a(libxxe_a-xefile42.o)
 *fill*         0x0028db69        0x3 
 .rodata        0x0028db6c       0x4f ./xe/libxxe.a(libxxe_a-xefile43.o)
 *fill*         0x0028dbbb        0x1 
 .rodata        0x0028dbbc      0xcc7 ./xe/libxxe.a(libxxe_a-xefile5.o)
 *fill*         0x0028e883        0x1 
 .rodata        0x0028e884      0x4a1 ./xe/libxxe.a(libxxe_a-xefile6.o)
 *fill*         0x0028ed25        0x3 
 .rodata        0x0028ed28      0x412 ./xe/libxxe.a(libxxe_a-xefile7.o)
 *fill*         0x0028f13a        0x2 
 .rodata        0x0028f13c      0x27a ./xe/libxxe.a(libxxe_a-xefsub.o)
 *fill*         0x0028f3b6        0x2 
 .rodata        0x0028f3b8      0x1c7 ./xe/libxxe.a(libxxe_a-xeftp.o)
 *fill*         0x0028f57f        0x1 
 .rodata        0x0028f580      0x446 ./xe/libxxe.a(libxxe_a-xefunc.o)
 *fill*         0x0028f9c6        0x2 
 .rodata        0x0028f9c8      0xc37 ./xe/libxxe.a(libxxe_a-xefunc2.o)
 *fill*         0x002905ff        0x1 
 .rodata        0x00290600       0x41 ./xe/libxxe.a(libxxe_a-xefunct.o)
 *fill*         0x00290641        0x3 
 .rodata        0x00290644      0x23e ./xe/libxxe.a(libxxe_a-xefunct2.o)
 *fill*         0x00290882        0x2 
 .rodata        0x00290884       0x35 ./xe/libxxe.a(libxxe_a-xegbl.o)
 *fill*         0x002908b9        0x3 
 .rodata        0x002908bc      0x65b ./xe/libxxe.a(libxxe_a-xeini.o)
 *fill*         0x00290f17        0x1 
 .rodata        0x00290f18     0x103a ./xe/libxxe.a(libxxe_a-xeini2.o)
 *fill*         0x00291f52        0x2 
 .rodata        0x00291f54       0xde ./xe/libxxe.a(libxxe_a-xeini3.o)
 *fill*         0x00292032        0x2 
 .rodata        0x00292034      0x248 ./xe/libxxe.a(libxxe_a-xekbd.o)
 .rodata        0x0029227c      0x19b ./xe/libxxe.a(libxxe_a-xelcmd.o)
 *fill*         0x00292417        0x1 
 .rodata        0x00292418      0x10a ./xe/libxxe.a(libxxe_a-xelcmd2.o)
 *fill*         0x00292522        0x2 
 .rodata        0x00292524      0x201 ./xe/libxxe.a(libxxe_a-xelcmd3.o)
 *fill*         0x00292725        0x3 
 .rodata        0x00292728       0x6f ./xe/libxxe.a(libxxe_a-xelcmd4.o)
 *fill*         0x00292797        0x1 
 .rodata        0x00292798      0x185 ./xe/libxxe.a(libxxe_a-xelcmd5.o)
 *fill*         0x0029291d        0x3 
 .rodata        0x00292920        0xe ./xe/libxxe.a(libxxe_a-xemousel.o)
 *fill*         0x0029292e        0x2 
 .rodata        0x00292930     0x10c6 ./xe/libxxe.a(libxxe_a-xeopt.o)
 *fill*         0x002939f6        0x2 
 .rodata        0x002939f8      0x5c4 ./xe/libxxe.a(libxxe_a-xeopt2.o)
 .rodata        0x00293fbc       0x58 ./xe/libxxe.a(libxxe_a-xepan.o)
 .rodata        0x00294014       0x7f ./xe/libxxe.a(libxxe_a-xepan2.o)
 *fill*         0x00294093        0x1 
 .rodata        0x00294094       0x68 ./xe/libxxe.a(libxxe_a-xepan22.o)
 .rodata        0x002940fc      0x322 ./xe/libxxe.a(libxxe_a-xepan23.o)
 *fill*         0x0029441e        0x2 
 .rodata        0x00294420        0x9 ./xe/libxxe.a(libxxe_a-xepan24.o)
 *fill*         0x00294429        0x3 
 .rodata        0x0029442c       0x40 ./xe/libxxe.a(libxxe_a-xepan3.o)
 .rodata        0x0029446c      0x2bd ./xe/libxxe.a(libxxe_a-xescr.o)
 *fill*         0x00294729        0x3 
 .rodata        0x0029472c       0x44 ./xe/libxxe.a(libxxe_a-xescr2.o)
 .rodata        0x00294770      0x3ea ./xe/libxxe.a(libxxe_a-xesub.o)
 *fill*         0x00294b5a        0x2 
 .rodata        0x00294b5c      0x2fd ./xe/libxxe.a(libxxe_a-xesyn.o)
 *fill*         0x00294e59        0x3 
 .rodata        0x00294e5c      0x713 ./xe/libxxe.a(libxxe_a-xesyn2.o)
 *fill*         0x0029556f        0x1 
 .rodata        0x00295570      0x4df ./xe/libxxe.a(libxxe_a-xetso.o)
 *fill*         0x00295a4f        0x1 
 .rodata        0x00295a50      0x5ad ./xe/libxxe.a(libxxe_a-xetso2.o)
 *fill*         0x00295ffd        0x3 
 .rodata        0x00296000      0x545 ./xe/libxxe.a(libxxe_a-xeundo.o)
 *fill*         0x00296545        0x3 
 .rodata        0x00296548      0x1f0 ./xe/libxxe.a(libxxe_a-xeutf2.o)
 .rodata        0x00296738       0x8d ./xe/libxxe.a(libxxe_a-xecalc.o)
 *fill*         0x002967c5        0x3 
 .rodata        0x002967c8      0x824 ./xe/libxxe.a(libxxe_a-xecalc2.o)
 .rodata        0x00296fec      0x11c ./xe/libxxe.a(libxxe_a-xecalc21.o)
 .rodata        0x00297108      0x1ff ./xe/libxxe.a(libxxe_a-xecalc22.o)
 *fill*         0x00297307        0x1 
 .rodata        0x00297308      0x239 ./xe/libxxe.a(libxxe_a-xecalc3.o)
 *fill*         0x00297541        0x3 
 .rodata        0x00297544       0x18 ./xe/libxxe.a(libxxe_a-xedir.o)
 .rodata        0x0029755c      0x232 ./xe/libxxe.a(libxxe_a-xefcmd2.o)
 *fill*         0x0029778e        0x2 
 .rodata        0x00297790      0x5bc ./xe/libxxe.a(libxxe_a-xefcmd24.o)
 .rodata        0x00297d4c       0xe9 ./xe/libxxe.a(libxxe_a-xefile23.o)
 *fill*         0x00297e35        0x3 
 .rodata        0x00297e38      0x161 ./ulib/libuserxxe.a(libuserxxe_a-u3270.o)
 *fill*         0x00297f99        0x3 
 .rodata        0x00297f9c      0x1ad ./ulib/libuserxxe.a(libuserxxe_a-u32702.o)
 *fill*         0x00298149        0x3 
 .rodata        0x0029814c      0x395 ./ulib/libuserxxe.a(libuserxxe_a-u32703.o)
 *fill*         0x002984e1        0x3 
 .rodata        0x002984e4       0x30 ./ulib/libuserxxe.a(libuserxxe_a-uabend.o)
 .rodata        0x00298514      0x571 ./ulib/libuserxxe.a(libuserxxe_a-uallocl.o)
 *fill*         0x00298a85        0x3 
 .rodata        0x00298a88      0x4ad ./ulib/libuserxxe.a(libuserxxe_a-ucalc.o)
 *fill*         0x00298f35        0x3 
 .rodata        0x00298f38      0x7c3 ./ulib/libuserxxe.a(libuserxxe_a-ucalc2.o)
 *fill*         0x002996fb        0x1 
 .rodata        0x002996fc      0x88e ./ulib/libuserxxe.a(libuserxxe_a-ucvebc.o)
 *fill*         0x00299f8a        0x2 
 .rodata        0x00299f8c      0x221 ./ulib/libuserxxe.a(libuserxxe_a-ucvebc2.o)
 *fill*         0x0029a1ad        0x3 
 .rodata        0x0029a1b0       0x8f ./ulib/libuserxxe.a(libuserxxe_a-ucvebc3.o)
 *fill*         0x0029a23f        0x1 
 .rodata        0x0029a240       0xac ./ulib/libuserxxe.a(libuserxxe_a-ucvebc4.o)
 .rodata        0x0029a2ec      0x8e8 ./ulib/libuserxxe.a(libuserxxe_a-ucvext.o)
 .rodata        0x0029abd4       0xca ./ulib/libuserxxe.a(libuserxxe_a-ucvext12.o)
 *fill*         0x0029ac9e        0x2 
 .rodata        0x0029aca0      0x172 ./ulib/libuserxxe.a(libuserxxe_a-ucvext2.o)
 *fill*         0x0029ae12        0x2 
 .rodata        0x0029ae14       0xa2 ./ulib/libuserxxe.a(libuserxxe_a-ucvucs.o)
 *fill*         0x0029aeb6        0x2 
 .rodata        0x0029aeb8      0x10c ./ulib/libuserxxe.a(libuserxxe_a-udbcschk.o)
 .rodata        0x0029afc4       0x47 ./ulib/libuserxxe.a(libuserxxe_a-udos2.o)
 *fill*         0x0029b00b        0x1 
 .rodata        0x0029b00c       0xed ./ulib/libuserxxe.a(libuserxxe_a-uedit.o)
 *fill*         0x0029b0f9        0x3 
 .rodata        0x0029b0fc       0xbd ./ulib/libuserxxe.a(libuserxxe_a-uedit2.o)
 *fill*         0x0029b1b9        0x3 
 .rodata        0x0029b1bc       0x33 ./ulib/libuserxxe.a(libuserxxe_a-uehl.o)
 *fill*         0x0029b1ef        0x1 
 .rodata        0x0029b1f0      0x2fd ./ulib/libuserxxe.a(libuserxxe_a-uerr.o)
 *fill*         0x0029b4ed        0x3 
 .rodata        0x0029b4f0      0x8b9 ./ulib/libuserxxe.a(libuserxxe_a-ufemsg.o)
 *fill*         0x0029bda9        0x3 
 .rodata        0x0029bdac      0x113 ./ulib/libuserxxe.a(libuserxxe_a-ufile.o)
 *fill*         0x0029bebf        0x1 
 .rodata        0x0029bec0      0x12b ./ulib/libuserxxe.a(libuserxxe_a-ufile1f.o)
 *fill*         0x0029bfeb        0x1 
 .rodata        0x0029bfec      0x6a3 ./ulib/libuserxxe.a(libuserxxe_a-ufile1l.o)
 *fill*         0x0029c68f        0x1 
 .rodata        0x0029c690      0x10f ./ulib/libuserxxe.a(libuserxxe_a-ufile1l2.o)
 *fill*         0x0029c79f        0x1 
 .rodata        0x0029c7a0      0x7e4 ./ulib/libuserxxe.a(libuserxxe_a-ufile2.o)
 .rodata        0x0029cf84      0x357 ./ulib/libuserxxe.a(libuserxxe_a-ufile2f.o)
 *fill*         0x0029d2db        0x1 
 .rodata        0x0029d2dc       0xf6 ./ulib/libuserxxe.a(libuserxxe_a-ufile2l.o)
 *fill*         0x0029d3d2        0x2 
 .rodata        0x0029d3d4       0xfc ./ulib/libuserxxe.a(libuserxxe_a-ufile2l2.o)
 .rodata        0x0029d4d0      0x4da ./ulib/libuserxxe.a(libuserxxe_a-ufile3.o)
 *fill*         0x0029d9aa        0x2 
 .rodata        0x0029d9ac      0x476 ./ulib/libuserxxe.a(libuserxxe_a-ufile3f.o)
 *fill*         0x0029de22        0x2 
 .rodata        0x0029de24      0x234 ./ulib/libuserxxe.a(libuserxxe_a-ufile4.o)
 .rodata        0x0029e058      0x1a6 ./ulib/libuserxxe.a(libuserxxe_a-ufile5.o)
 *fill*         0x0029e1fe        0x2 
 .rodata        0x0029e200      0x619 ./ulib/libuserxxe.a(libuserxxe_a-uftp.o)
 *fill*         0x0029e819        0x3 
 .rodata        0x0029e81c      0x45c ./ulib/libuserxxe.a(libuserxxe_a-uftp2.o)
 .rodata        0x0029ec78      0x512 ./ulib/libuserxxe.a(libuserxxe_a-uftp3.o)
 *fill*         0x0029f18a        0x2 
 .rodata        0x0029f18c        0xb ./ulib/libuserxxe.a(libuserxxe_a-ugcclib.o)
 *fill*         0x0029f197        0x1 
 .rodata        0x0029f198       0xef ./ulib/libuserxxe.a(libuserxxe_a-ukbdl.o)
 *fill*         0x0029f287        0x1 
 .rodata        0x0029f288      0xf2a ./ulib/libuserxxe.a(libuserxxe_a-ukbdlnxc.o)
 *fill*         0x002a01b2        0x2 
 .rodata        0x002a01b4       0x2d ./ulib/libuserxxe.a(libuserxxe_a-uparse.o)
 *fill*         0x002a01e1        0x3 
 .rodata        0x002a01e4      0x4fd ./ulib/libuserxxe.a(libuserxxe_a-uproc.o)
 *fill*         0x002a06e1        0x3 
 .rodata        0x002a06e4      0x168 ./ulib/libuserxxe.a(libuserxxe_a-uproc2.o)
 .rodata        0x002a084c      0x3e0 ./ulib/libuserxxe.a(libuserxxe_a-uproc3.o)
 .rodata        0x002a0c2c      0x341 ./ulib/libuserxxe.a(libuserxxe_a-uproc4.o)
 *fill*         0x002a0f6d        0x3 
 .rodata        0x002a0f70      0x384 ./ulib/libuserxxe.a(libuserxxe_a-uque.o)
 .rodata        0x002a12f4       0x7e ./ulib/libuserxxe.a(libuserxxe_a-ustrcpy.o)
 *fill*         0x002a1372        0x2 
 .rodata        0x002a1374        0x4 ./ulib/libuserxxe.a(libuserxxe_a-ustring.o)
 .rodata        0x002a1378      0x1cc ./ulib/libuserxxe.a(libuserxxe_a-utf2.o)
 .rodata        0x002a1544      0x329 ./ulib/libuserxxe.a(libuserxxe_a-utf22.o)
 *fill*         0x002a186d        0x3 
 .rodata        0x002a1870      0x133 ./ulib/libuserxxe.a(libuserxxe_a-utf3.o)
 *fill*         0x002a19a3        0x1 
 .rodata        0x002a19a4     0x19d0 ./ulib/libuserxxe.a(libuserxxe_a-utf4.o)
 .rodata        0x002a3374      0x169 ./ulib/libuserxxe.a(libuserxxe_a-utrace.o)
 *fill*         0x002a34dd        0x3 
 .rodata        0x002a34e0       0x98 ./ulib/libuserxxe.a(libuserxxe_a-uunxsub.o)
 .rodata        0x002a3578       0xa3 ./ulib/libuserxxe.a(libuserxxe_a-uviolx.o)
 *fill*         0x002a361b        0x1 
 .rodata        0x002a361c       0x66 ./ulib/libuserxxe.a(libuserxxe_a-uproc22.o)

.rodata1
 *(.rodata1)

.ARM.extab      0x002a3682        0x0
 *(.ARM.extab* .gnu.linkonce.armextab.*)
 .ARM.extab     0x002a3682        0x0 /usr/lib/gcc/arm-linux-gnueabihf/8/../../../arm-linux-gnueabihf/crt1.o
 .ARM.extab     0x002a3682        0x0 /usr/lib/gcc/arm-linux-gnueabihf/8/libgcc.a(_udivmoddi4.o)
                [!provide]                PROVIDE (__exidx_start = .)

.ARM.exidx      0x002a3684        0x8
 *(.ARM.exidx* .gnu.linkonce.armexidx.*)
 .ARM.exidx     0x002a3684        0x8 /usr/lib/gcc/arm-linux-gnueabihf/8/../../../arm-linux-gnueabihf/crt1.o
 .ARM.exidx     0x002a368c        0x0 /usr/lib/gcc/arm-linux-gnueabihf/8/libgcc.a(_udivmoddi4.o)
                                  0x8 (size before relaxing)
                [!provide]                PROVIDE (__exidx_end = .)

.eh_frame_hdr
 *(.eh_frame_hdr)
 *(.eh_frame_entry .eh_frame_entry.*)

.eh_frame       0x002a368c        0x4
 *(.eh_frame)
 .eh_frame      0x002a368c        0x4 /usr/lib/gcc/arm-linux-gnueabihf/8/crtend.o
 *(.eh_frame.*)

.gcc_except_table
 *(.gcc_except_table .gcc_except_table.*)

.gnu_extab
 *(.gnu_extab*)

.exception_ranges
 *(.exception_ranges .exception_ranges*)
                0x002b3dfc                . = DATA_SEGMENT_ALIGN (CONSTANT (MAXPAGESIZE), CONSTANT (COMMONPAGESIZE))

.eh_frame
 *(.eh_frame)
 *(.eh_frame.*)

.gnu_extab
 *(.gnu_extab)

.gcc_except_table
 *(.gcc_except_table .gcc_except_table.*)

.exception_ranges
 *(.exception_ranges .exception_ranges*)

.tdata          0x002b3dfc        0x0
                [!provide]                PROVIDE (__tdata_start = .)
 *(.tdata .tdata.* .gnu.linkonce.td.*)

.tbss
 *(.tbss .tbss.* .gnu.linkonce.tb.*)
 *(.tcommon)

.preinit_array  0x002b3dfc        0x0
                [!provide]                PROVIDE (__preinit_array_start = .)
 *(.preinit_array)
                [!provide]                PROVIDE (__preinit_array_end = .)

.init_array     0x002b3dfc        0x4
                0x002b3dfc                PROVIDE (__init_array_start = .)
 *(SORT_BY_INIT_PRIORITY(.init_array.*) SORT_BY_INIT_PRIORITY(.ctors.*))
 *(.init_array EXCLUDE_FILE(*crtend?.o *crtend.o *crtbegin?.o *crtbegin.o) .ctors)
 .init_array    0x002b3dfc        0x4 /usr/lib/gcc/arm-linux-gnueabihf/8/crtbegin.o
                0x002b3e00                PROVIDE (__init_array_end = .)

.fini_array     0x002b3e00        0x4
                [!provide]                PROVIDE (__fini_array_start = .)
 *(SORT_BY_INIT_PRIORITY(.fini_array.*) SORT_BY_INIT_PRIORITY(.dtors.*))
 *(.fini_array EXCLUDE_FILE(*crtend?.o *crtend.o *crtbegin?.o *crtbegin.o) .dtors)
 .fini_array    0x002b3e00        0x4 /usr/lib/gcc/arm-linux-gnueabihf/8/crtbegin.o
                [!provide]                PROVIDE (__fini_array_end = .)

.ctors
 *crtbegin.o(.ctors)
 *crtbegin?.o(.ctors)
 *(EXCLUDE_FILE(*crtend?.o *crtend.o) .ctors)
 *(SORT_BY_NAME(.ctors.*))
 *(.ctors)

.dtors
 *crtbegin.o(.dtors)
 *crtbegin?.o(.dtors)
 *(EXCLUDE_FILE(*crtend?.o *crtend.o) .dtors)
 *(SORT_BY_NAME(.dtors.*))
 *(.dtors)

.jcr
 *(.jcr)

.data.rel.ro    0x002b3e04        0x4
 *(.data.rel.ro.local* .gnu.linkonce.d.rel.ro.local.*)
 *(.data.rel.ro .data.rel.ro.* .gnu.linkonce.d.rel.ro.*)
 .data.rel.ro   0x002b3e04        0x4 /usr/lib/gcc/arm-linux-gnueabihf/8/../../../arm-linux-gnueabihf/crt1.o
                0x002b3e04                g_utf8_skip

.dynamic        0x002b3e08      0x1f8
 *(.dynamic)
 .dynamic       0x002b3e08      0x1f8 /usr/lib/gcc/arm-linux-gnueabihf/8/../../../arm-linux-gnueabihf/crt1.o
                0x002b3e08                _DYNAMIC
                0x002b4000                . = DATA_SEGMENT_RELRO_END (., 0x0)

.got            0x002b4000      0x7f0
 *(.got.plt)
 .got.plt       0x002b4000      0x7ec /usr/lib/gcc/arm-linux-gnueabihf/8/../../../arm-linux-gnueabihf/crt1.o
                0x002b4000                _GLOBAL_OFFSET_TABLE_
 *(.igot.plt)
 .igot.plt      0x002b47ec        0x0 /usr/lib/gcc/arm-linux-gnueabihf/8/../../../arm-linux-gnueabihf/crt1.o
 *(.got)
 .got           0x002b47ec        0x4 /usr/lib/gcc/arm-linux-gnueabihf/8/../../../arm-linux-gnueabihf/crt1.o
 *(.igot)

.data           0x002b47f0    0x340c8
                [!provide]                PROVIDE (__data_start = .)
 *(.data .data.* .gnu.linkonce.d.*)
 .data          0x002b47f0        0x4 /usr/lib/gcc/arm-linux-gnueabihf/8/../../../arm-linux-gnueabihf/crt1.o
                0x002b47f0                __data_start
                0x002b47f0                data_start
 .data          0x002b47f4        0x0 /usr/lib/gcc/arm-linux-gnueabihf/8/../../../arm-linux-gnueabihf/crti.o
 .data          0x002b47f4        0x4 /usr/lib/gcc/arm-linux-gnueabihf/8/crtbegin.o
                0x002b47f4                __dso_handle
 .data          0x002b47f8        0x0 gxe-support.o
 .data          0x002b47f8        0x0 gxe-main.o
 .data          0x002b47f8      0x5ac gxe-interface.o
 .data          0x002b4da4        0x0 gxe-callbacks.o
 .data          0x002b4da4        0x0 gxe-gxeview.o
 .data          0x002b4da4        0x8 gxe-gxedlg.o
 .data          0x002b4dac       0x30 gxe-gxe.o
                0x002b4dac                Gprintbg
                0x002b4db8                Gpreviewbg
                0x002b4dc4                Gcsrcolor
                0x002b4dd0                Gimbgcolor
 .data          0x002b4ddc        0xe gxe-xxemain.o
                0x002b4ddc                DEF_BGCOLOR
                0x002b4de4                DEF_RULERCOLOR
 *fill*         0x002b4dea        0x2 
 .data          0x002b4dec      0xf8c gxe-gxemfrm.o
 .data          0x002b5d78        0x0 gxe-xxecsub.o
 .data          0x002b5d78        0x0 gxe-xxexei.o
 .data          0x002b5d78      0x9ec gxe-xxekbd.o
 .data          0x002b6764        0x0 gxe-xxescr.o
 .data          0x002b6764       0x10 gxe-xxexei3.o
 .data          0x002b6774        0x0 gxe-xxemouse.o
 .data          0x002b6774        0x0 gxe-xxexei2.o
 .data          0x002b6774       0x18 gxe-xxecsub2.o
 .data          0x002b678c        0x0 gxe-xxefile.o
 .data          0x002b678c        0x0 gxe-gxepage.o
 *fill*         0x002b678c        0x4 
 .data          0x002b6790       0x18 gxe-xxeprt.o
 .data          0x002b67a8       0x28 ./xe/libxxe.a(libxxe_a-xe.o)
                0x002b67a8                Glargefilesz
                0x002b67b0                Gcmdmaxstack
                0x002b67b4                Gfiletabskip
                0x002b67b8                Gkbdspeed
                0x002b67bc                Gkbddelay
                0x002b67c0                Gkbdspeed2
                0x002b67c4                Gkbddelay2
                0x002b67c8                Sostype
 .data          0x002b67d0       0x10 ./xe/libxxe.a(libxxe_a-xecap.o)
 .data          0x002b67e0        0x0 ./xe/libxxe.a(libxxe_a-xecap2.o)
 .data          0x002b67e0        0xc ./xe/libxxe.a(libxxe_a-xechar.o)
 .data          0x002b67ec        0xc ./xe/libxxe.a(libxxe_a-xechar12.o)
 .data          0x002b67f8        0x0 ./xe/libxxe.a(libxxe_a-xechar13.o)
 .data          0x002b67f8        0x0 ./xe/libxxe.a(libxxe_a-xechar2.o)
 .data          0x002b67f8        0x0 ./xe/libxxe.a(libxxe_a-xecsr.o)
 .data          0x002b67f8      0x1a4 ./xe/libxxe.a(libxxe_a-xedcmd.o)
 .data          0x002b699c       0x19 ./xe/libxxe.a(libxxe_a-xedcmd2.o)
 .data          0x002b69b5        0x0 ./xe/libxxe.a(libxxe_a-xedcmd3.o)
 .data          0x002b69b5        0x0 ./xe/libxxe.a(libxxe_a-xedcmd4.o)
 *fill*         0x002b69b5        0x3 
 .data          0x002b69b8        0x4 ./xe/libxxe.a(libxxe_a-xedir2.o)
 .data          0x002b69bc     0x1002 ./xe/libxxe.a(libxxe_a-xedir3.o)
 *fill*         0x002b79be        0x2 
 .data          0x002b79c0        0x5 ./xe/libxxe.a(libxxe_a-xedir4.o)
 *fill*         0x002b79c5        0x3 
 .data          0x002b79c8      0x468 ./xe/libxxe.a(libxxe_a-xedlcmd.o)
 .data          0x002b7e30        0x0 ./xe/libxxe.a(libxxe_a-xedlcmd2.o)
 .data          0x002b7e30        0x7 ./xe/libxxe.a(libxxe_a-xedlcmd3.o)
 *fill*         0x002b7e37        0x1 
 .data          0x002b7e38     0x1008 ./xe/libxxe.a(libxxe_a-xedlcmd4.o)
 .data          0x002b8e40        0x0 ./xe/libxxe.a(libxxe_a-xedlcmd5.o)
 .data          0x002b8e40       0x15 ./xe/libxxe.a(libxxe_a-xedlcmd6.o)
 .data          0x002b8e55        0x0 ./xe/libxxe.a(libxxe_a-xeebc.o)
 .data          0x002b8e55        0x0 ./xe/libxxe.a(libxxe_a-xeerr.o)
 .data          0x002b8e55        0x0 ./xe/libxxe.a(libxxe_a-xefcmd.o)
 *fill*         0x002b8e55        0x3 
 .data          0x002b8e58       0xa8 ./xe/libxxe.a(libxxe_a-xefcmd22.o)
 .data          0x002b8f00        0x0 ./xe/libxxe.a(libxxe_a-xefcmd23.o)
 .data          0x002b8f00        0x4 ./xe/libxxe.a(libxxe_a-xefcmd25.o)
 .data          0x002b8f04        0x0 ./xe/libxxe.a(libxxe_a-xefcmd26.o)
 .data          0x002b8f04        0xc ./xe/libxxe.a(libxxe_a-xefcmd27.o)
 .data          0x002b8f10      0x234 ./xe/libxxe.a(libxxe_a-xefcmd3.o)
 .data          0x002b9144        0xc ./xe/libxxe.a(libxxe_a-xefcmd4.o)
 .data          0x002b9150        0x8 ./xe/libxxe.a(libxxe_a-xefcmd42.o)
 .data          0x002b9158        0x4 ./xe/libxxe.a(libxxe_a-xefcmd43.o)
 .data          0x002b915c       0x1c ./xe/libxxe.a(libxxe_a-xefcmd5.o)
 .data          0x002b9178        0x4 ./xe/libxxe.a(libxxe_a-xefcmd6.o)
 .data          0x002b917c        0x4 ./xe/libxxe.a(libxxe_a-xefcmd7.o)
 .data          0x002b9180        0x0 ./xe/libxxe.a(libxxe_a-xefile.o)
 .data          0x002b9180        0x0 ./xe/libxxe.a(libxxe_a-xefile12.o)
 .data          0x002b9180        0x0 ./xe/libxxe.a(libxxe_a-xefile13.o)
 .data          0x002b9180       0x3c ./xe/libxxe.a(libxxe_a-xefile14.o)
 .data          0x002b91bc        0x0 ./xe/libxxe.a(libxxe_a-xefile15.o)
 .data          0x002b91bc        0x0 ./xe/libxxe.a(libxxe_a-xefile2.o)
 .data          0x002b91bc        0x0 ./xe/libxxe.a(libxxe_a-xefile22.o)
 .data          0x002b91bc       0x10 ./xe/libxxe.a(libxxe_a-xefile3.o)
 .data          0x002b91cc       0xf2 ./xe/libxxe.a(libxxe_a-xefile4.o)
 *fill*         0x002b92be        0x2 
 .data          0x002b92c0       0x15 ./xe/libxxe.a(libxxe_a-xefile42.o)
 .data          0x002b92d5        0x0 ./xe/libxxe.a(libxxe_a-xefile43.o)
 .data          0x002b92d5        0x0 ./xe/libxxe.a(libxxe_a-xefile5.o)
 .data          0x002b92d5        0x0 ./xe/libxxe.a(libxxe_a-xefile6.o)
 *fill*         0x002b92d5        0x3 
 .data          0x002b92d8       0x20 ./xe/libxxe.a(libxxe_a-xefile7.o)
 .data          0x002b92f8        0x0 ./xe/libxxe.a(libxxe_a-xefsub.o)
 .data          0x002b92f8        0x0 ./xe/libxxe.a(libxxe_a-xeftp.o)
 .data          0x002b92f8       0x27 ./xe/libxxe.a(libxxe_a-xefunc.o)
 *fill*         0x002b931f        0x1 
 .data          0x002b9320       0x24 ./xe/libxxe.a(libxxe_a-xefunc2.o)
 .data          0x002b9344     0x4514 ./xe/libxxe.a(libxxe_a-xefunct.o)
 .data          0x002bd858       0x40 ./xe/libxxe.a(libxxe_a-xefunct2.o)
 .data          0x002bd898      0x410 ./xe/libxxe.a(libxxe_a-xegbl.o)
 .data          0x002bdca8       0x1d ./xe/libxxe.a(libxxe_a-xeini.o)
 *fill*         0x002bdcc5        0x3 
 .data          0x002bdcc8      0x1b8 ./xe/libxxe.a(libxxe_a-xeini2.o)
 .data          0x002bde80       0x1f ./xe/libxxe.a(libxxe_a-xeini3.o)
 *fill*         0x002bde9f        0x1 
 .data          0x002bdea0     0x1052 ./xe/libxxe.a(libxxe_a-xekbd.o)
 *fill*         0x002beef2        0x2 
 .data          0x002beef4      0x4c8 ./xe/libxxe.a(libxxe_a-xelcmd.o)
 .data          0x002bf3bc       0x48 ./xe/libxxe.a(libxxe_a-xelcmd2.o)
 .data          0x002bf404        0x4 ./xe/libxxe.a(libxxe_a-xelcmd3.o)
 .data          0x002bf408        0x0 ./xe/libxxe.a(libxxe_a-xelcmd4.o)
 .data          0x002bf408        0x0 ./xe/libxxe.a(libxxe_a-xelcmd5.o)
 .data          0x002bf408        0xc ./xe/libxxe.a(libxxe_a-xemousel.o)
                0x002bf408                Gwxescrollctr
 .data          0x002bf414      0x1d4 ./xe/libxxe.a(libxxe_a-xeopt.o)
                0x002bf414                Goptopt
                0x002bf415                Goptopt2
                0x002bf418                Goptcombaltch
 .data          0x002bf5e8        0x8 ./xe/libxxe.a(libxxe_a-xeopt2.o)
 .data          0x002bf5f0     0x1678 ./xe/libxxe.a(libxxe_a-xepan.o)
 .data          0x002c0c68        0x0 ./xe/libxxe.a(libxxe_a-xepan2.o)
 .data          0x002c0c68       0x21 ./xe/libxxe.a(libxxe_a-xepan22.o)
                0x002c0c68                Gmaxfnmlist
 .data          0x002c0c89        0x0 ./xe/libxxe.a(libxxe_a-xepan23.o)
 .data          0x002c0c89        0x0 ./xe/libxxe.a(libxxe_a-xepan24.o)
 .data          0x002c0c89        0x0 ./xe/libxxe.a(libxxe_a-xepan3.o)
 *fill*         0x002c0c89        0x3 
 .data          0x002c0c8c       0x78 ./xe/libxxe.a(libxxe_a-xescr.o)
 .data          0x002c0d04        0x0 ./xe/libxxe.a(libxxe_a-xescr2.o)
 .data          0x002c0d04        0x2 ./xe/libxxe.a(libxxe_a-xesub.o)
 .data          0x002c0d06        0x0 ./xe/libxxe.a(libxxe_a-xesub2.o)
 *fill*         0x002c0d06        0x2 
 .data          0x002c0d08        0x4 ./xe/libxxe.a(libxxe_a-xesyn.o)
 .data          0x002c0d0c        0x4 ./xe/libxxe.a(libxxe_a-xesyn2.o)
 .data          0x002c0d10        0x0 ./xe/libxxe.a(libxxe_a-xetso.o)
 .data          0x002c0d10      0x464 ./xe/libxxe.a(libxxe_a-xetso2.o)
 .data          0x002c1174        0x6 ./xe/libxxe.a(libxxe_a-xeundo.o)
 .data          0x002c117a        0x0 ./xe/libxxe.a(libxxe_a-xeutf.o)
 .data          0x002c117a        0x0 ./xe/libxxe.a(libxxe_a-xeutf2.o)
 .data          0x002c117a        0x0 ./xe/libxxe.a(libxxe_a-xecalc.o)
 *fill*         0x002c117a        0x2 
 .data          0x002c117c       0x14 ./xe/libxxe.a(libxxe_a-xecalc2.o)
 .data          0x002c1190        0x0 ./xe/libxxe.a(libxxe_a-xecalc21.o)
 .data          0x002c1190        0x0 ./xe/libxxe.a(libxxe_a-xecalc22.o)
 .data          0x002c1190        0x0 ./xe/libxxe.a(libxxe_a-xecalc3.o)
 .data          0x002c1190       0x3d ./xe/libxxe.a(libxxe_a-xedir.o)
 *fill*         0x002c11cd        0x3 
 .data          0x002c11d0       0x18 ./xe/libxxe.a(libxxe_a-xefcmd2.o)
                0x002c11d0                Sulsrchid
                0x002c11d4                Selsrchid
                0x002c11d8                Sllsrchid
                0x002c11dc                Sgrepsrchid
                0x002c11e0                Seqsrchid
                0x002c11e4                Smatchingid
 .data          0x002c11e8       0x9c ./xe/libxxe.a(libxxe_a-xefcmd24.o)
 .data          0x002c1284        0xc ./xe/libxxe.a(libxxe_a-xefile23.o)
 .data          0x002c1290        0x4 ./ulib/libuserxxe.a(libuserxxe_a-u3270.o)
 .data          0x002c1294        0x0 ./ulib/libuserxxe.a(libuserxxe_a-u32702.o)
 .data          0x002c1294        0x0 ./ulib/libuserxxe.a(libuserxxe_a-u32703.o)
 .data          0x002c1294        0x0 ./ulib/libuserxxe.a(libuserxxe_a-uabend.o)
 .data          0x002c1294     0x1000 ./ulib/libuserxxe.a(libuserxxe_a-uallocl.o)
 .data          0x002c2294       0x54 ./ulib/libuserxxe.a(libuserxxe_a-ucalc.o)
 .data          0x002c22e8      0x24c ./ulib/libuserxxe.a(libuserxxe_a-ucalc2.o)
 .data          0x002c2534      0x248 ./ulib/libuserxxe.a(libuserxxe_a-ucvebc.o)
 .data          0x002c277c        0x0 ./ulib/libuserxxe.a(libuserxxe_a-ucvebc2.o)
 .data          0x002c277c        0x8 ./ulib/libuserxxe.a(libuserxxe_a-ucvebc3.o)
 .data          0x002c2784        0x0 ./ulib/libuserxxe.a(libuserxxe_a-ucvebc32.o)
 .data          0x002c2784        0x0 ./ulib/libuserxxe.a(libuserxxe_a-ucvebc4.o)
 .data          0x002c2784     0xed30 ./ulib/libuserxxe.a(libuserxxe_a-ucvebct.o)
 .data          0x002d14b4      0x316 ./ulib/libuserxxe.a(libuserxxe_a-ucvext.o)
 .data          0x002d17ca        0x6 ./ulib/libuserxxe.a(libuserxxe_a-ucvext12.o)
 .data          0x002d17d0        0x0 ./ulib/libuserxxe.a(libuserxxe_a-ucvext2.o)
 .data          0x002d17d0       0x28 ./ulib/libuserxxe.a(libuserxxe_a-ucvucs.o)
 .data          0x002d17f8     0x7cb0 ./ulib/libuserxxe.a(libuserxxe_a-ucvucst.o)
                0x002d17f8                Scp932tb
 .data          0x002d94a8        0x8 ./ulib/libuserxxe.a(libuserxxe_a-udbcschk.o)
                0x002d94a8                Gpdbcstbl
 .data          0x002d94b0     0x1148 ./ulib/libuserxxe.a(libuserxxe_a-udbcsck2.o)
 .data          0x002da5f8        0x0 ./ulib/libuserxxe.a(libuserxxe_a-udos2.o)
 .data          0x002da5f8        0x0 ./ulib/libuserxxe.a(libuserxxe_a-udosl.o)
 .data          0x002da5f8        0x0 ./ulib/libuserxxe.a(libuserxxe_a-uedit.o)
 .data          0x002da5f8       0x78 ./ulib/libuserxxe.a(libuserxxe_a-uedit2.o)
 .data          0x002da670       0x38 ./ulib/libuserxxe.a(libuserxxe_a-uehl.o)
 .data          0x002da6a8        0xd ./ulib/libuserxxe.a(libuserxxe_a-uerr.o)
 .data          0x002da6b5        0x0 ./ulib/libuserxxe.a(libuserxxe_a-ufemsg.o)
 *fill*         0x002da6b5        0x3 
 .data          0x002da6b8        0xc ./ulib/libuserxxe.a(libuserxxe_a-ufile.o)
 .data          0x002da6c4        0x0 ./ulib/libuserxxe.a(libuserxxe_a-ufile12.o)
 .data          0x002da6c4        0x0 ./ulib/libuserxxe.a(libuserxxe_a-ufile1f.o)
 .data          0x002da6c4        0x0 ./ulib/libuserxxe.a(libuserxxe_a-ufile1l.o)
 .data          0x002da6c4       0x2c ./ulib/libuserxxe.a(libuserxxe_a-ufile1l2.o)
 .data          0x002da6f0        0x0 ./ulib/libuserxxe.a(libuserxxe_a-ufile2.o)
 .data          0x002da6f0        0x0 ./ulib/libuserxxe.a(libuserxxe_a-ufile2f.o)
 .data          0x002da6f0        0x0 ./ulib/libuserxxe.a(libuserxxe_a-ufile2l.o)
 .data          0x002da6f0        0x0 ./ulib/libuserxxe.a(libuserxxe_a-ufile2l2.o)
 .data          0x002da6f0        0x0 ./ulib/libuserxxe.a(libuserxxe_a-ufile3.o)
 .data          0x002da6f0        0x0 ./ulib/libuserxxe.a(libuserxxe_a-ufile3f.o)
 .data          0x002da6f0        0x0 ./ulib/libuserxxe.a(libuserxxe_a-ufile4.o)
 .data          0x002da6f0        0x0 ./ulib/libuserxxe.a(libuserxxe_a-ufile5.o)
 .data          0x002da6f0       0x10 ./ulib/libuserxxe.a(libuserxxe_a-uftp.o)
 .data          0x002da700       0x50 ./ulib/libuserxxe.a(libuserxxe_a-uftp2.o)
 .data          0x002da750        0x4 ./ulib/libuserxxe.a(libuserxxe_a-uftp3.o)
 .data          0x002da754        0x0 ./ulib/libuserxxe.a(libuserxxe_a-ugcclib.o)
 .data          0x002da754        0x0 ./ulib/libuserxxe.a(libuserxxe_a-ukbdl.o)
 .data          0x002da754     0xb6bc ./ulib/libuserxxe.a(libuserxxe_a-ukbdlnxc.o)
 .data          0x002e5e10       0x10 ./ulib/libuserxxe.a(libuserxxe_a-ukbdlnxm.o)
 .data          0x002e5e20        0x0 ./ulib/libuserxxe.a(libuserxxe_a-uparse.o)
 .data          0x002e5e20       0x20 ./ulib/libuserxxe.a(libuserxxe_a-uproc.o)
 .data          0x002e5e40        0x0 ./ulib/libuserxxe.a(libuserxxe_a-uproc2.o)
 .data          0x002e5e40       0x54 ./ulib/libuserxxe.a(libuserxxe_a-uproc3.o)
 .data          0x002e5e94        0x0 ./ulib/libuserxxe.a(libuserxxe_a-uproc4.o)
 .data          0x002e5e94        0x0 ./ulib/libuserxxe.a(libuserxxe_a-uque.o)
 .data          0x002e5e94        0x0 ./ulib/libuserxxe.a(libuserxxe_a-ustrcpy.o)
 .data          0x002e5e94       0xfb ./ulib/libuserxxe.a(libuserxxe_a-ustring.o)
 .data          0x002e5f8f        0x0 ./ulib/libuserxxe.a(libuserxxe_a-utf.o)
 .data          0x002e5f8f        0x0 ./ulib/libuserxxe.a(libuserxxe_a-utf2.o)
 *fill*         0x002e5f8f        0x1 
 .data          0x002e5f90      0x164 ./ulib/libuserxxe.a(libuserxxe_a-utf22.o)
 .data          0x002e60f4      0xe94 ./ulib/libuserxxe.a(libuserxxe_a-utf3.o)
 .data          0x002e6f88        0x0 ./ulib/libuserxxe.a(libuserxxe_a-utf4.o)
 .data          0x002e6f88     0x1928 ./ulib/libuserxxe.a(libuserxxe_a-utrace.o)
 .data          0x002e88b0        0x0 ./ulib/libuserxxe.a(libuserxxe_a-uunxsub.o)
 .data          0x002e88b0        0x4 ./ulib/libuserxxe.a(libuserxxe_a-uviom.o)
                0x002e88b0                Guviomdbcspad
 .data          0x002e88b4        0x4 ./ulib/libuserxxe.a(libuserxxe_a-uviolx.o)
 .data          0x002e88b8        0x0 ./ulib/libuserxxe.a(libuserxxe_a-uproc22.o)
 .data          0x002e88b8        0x0 /usr/lib/gcc/arm-linux-gnueabihf/8/libgcc.a(_udivsi3.o)
 .data          0x002e88b8        0x0 /usr/lib/gcc/arm-linux-gnueabihf/8/libgcc.a(_divsi3.o)
 .data          0x002e88b8        0x0 /usr/lib/gcc/arm-linux-gnueabihf/8/libgcc.a(_aeabi_ldivmod.o)
 .data          0x002e88b8        0x0 /usr/lib/gcc/arm-linux-gnueabihf/8/libgcc.a(_dvmd_lnx.o)
 .data          0x002e88b8        0x0 /usr/lib/gcc/arm-linux-gnueabihf/8/libgcc.a(_udivmoddi4.o)
 .data          0x002e88b8        0x0 //usr/lib/arm-linux-gnueabihf/libc_nonshared.a(elf-init.oS)
 .data          0x002e88b8        0x0 //usr/lib/arm-linux-gnueabihf/libc_nonshared.a(stat64.oS)
 .data          0x002e88b8        0x0 //usr/lib/arm-linux-gnueabihf/libc_nonshared.a(lstat64.oS)
 .data          0x002e88b8        0x0 /usr/lib/gcc/arm-linux-gnueabihf/8/crtend.o
 .data          0x002e88b8        0x0 /usr/lib/gcc/arm-linux-gnueabihf/8/../../../arm-linux-gnueabihf/crtn.o

.tm_clone_table
                0x002e88b8        0x0
 .tm_clone_table
                0x002e88b8        0x0 /usr/lib/gcc/arm-linux-gnueabihf/8/crtbegin.o
 .tm_clone_table
                0x002e88b8        0x0 /usr/lib/gcc/arm-linux-gnueabihf/8/crtend.o

.data1
 *(.data1)
                0x002e88b8                _edata = .
                [!provide]                PROVIDE (edata = .)
                0x002e88b8                . = .
                0x002e88b8                __bss_start = .
                0x002e88b8                __bss_start__ = .

.bss            0x002e88b8   0x19a09c
 *(.dynbss)
 .dynbss        0x002e88b8       0x1c /usr/lib/gcc/arm-linux-gnueabihf/8/../../../arm-linux-gnueabihf/crt1.o
                0x002e88b8                gdk_display
                0x002e88bc                LINES@@NCURSES6_TINFO_5.0.19991023
                0x002e88c0                cur_term@@NCURSES6_TINFO_5.0.19991023
                0x002e88c4                stdout@@GLIBC_2.4
                0x002e88c8                stdin@@GLIBC_2.4
                0x002e88d0                stderr@@GLIBC_2.4
 *(.bss .bss.* .gnu.linkonce.b.*)
 .bss           0x002e88d4        0x0 /usr/lib/gcc/arm-linux-gnueabihf/8/../../../arm-linux-gnueabihf/crt1.o
 .bss           0x002e88d4        0x0 /usr/lib/gcc/arm-linux-gnueabihf/8/../../../arm-linux-gnueabihf/crti.o
 .bss           0x002e88d4        0x1 /usr/lib/gcc/arm-linux-gnueabihf/8/crtbegin.o
 .bss           0x002e88d5        0x0 gxe-support.o
 .bss           0x002e88d5        0x0 gxe-main.o
 .bss           0x002e88d5        0x0 gxe-interface.o
 .bss           0x002e88d5        0x0 gxe-callbacks.o
 *fill*         0x002e88d5        0x3 
 .bss           0x002e88d8       0x34 gxe-gxeview.o
 .bss           0x002e890c       0x40 gxe-gxedlg.o
 .bss           0x002e894c       0x18 gxe-gxe.o
                0x002e894c                Gprintfg
                0x002e8958                Gimfgcolor
 .bss           0x002e8964       0x10 gxe-xxemain.o
 .bss           0x002e8974        0x8 gxe-gxemfrm.o
 .bss           0x002e897c     0x2844 gxe-xxecsub.o
 .bss           0x002eb1c0      0x854 gxe-xxexei.o
 .bss           0x002eba14      0xe48 gxe-xxekbd.o
 .bss           0x002ec85c        0x4 gxe-xxescr.o
 .bss           0x002ec860        0x8 gxe-xxexei3.o
 .bss           0x002ec868        0x4 gxe-xxemouse.o
 .bss           0x002ec86c     0x1040 gxe-xxexei2.o
 .bss           0x002ed8ac       0x20 gxe-xxecsub2.o
 .bss           0x002ed8cc        0x8 gxe-xxefile.o
 .bss           0x002ed8d4       0x30 gxe-gxepage.o
 .bss           0x002ed904     0x1078 gxe-xxeprt.o
 .bss           0x002ee97c       0x40 ./xe/libxxe.a(libxxe_a-xe.o)
 .bss           0x002ee9bc       0x30 ./xe/libxxe.a(libxxe_a-xecap.o)
 .bss           0x002ee9ec        0x0 ./xe/libxxe.a(libxxe_a-xecap2.o)
 .bss           0x002ee9ec       0x18 ./xe/libxxe.a(libxxe_a-xechar.o)
 .bss           0x002eea04        0x0 ./xe/libxxe.a(libxxe_a-xechar12.o)
 .bss           0x002eea04        0x0 ./xe/libxxe.a(libxxe_a-xechar13.o)
 .bss           0x002eea04        0x0 ./xe/libxxe.a(libxxe_a-xechar2.o)
 .bss           0x002eea04       0x49 ./xe/libxxe.a(libxxe_a-xecsr.o)
 .bss           0x002eea4d        0x2 ./xe/libxxe.a(libxxe_a-xedcmd.o)
 *fill*         0x002eea4f        0x1 
 .bss           0x002eea50     0x3068 ./xe/libxxe.a(libxxe_a-xedcmd2.o)
 .bss           0x002f1ab8        0x0 ./xe/libxxe.a(libxxe_a-xedcmd3.o)
 .bss           0x002f1ab8        0x0 ./xe/libxxe.a(libxxe_a-xedcmd4.o)
 .bss           0x002f1ab8       0x23 ./xe/libxxe.a(libxxe_a-xedir2.o)
 *fill*         0x002f1adb        0x1 
 .bss           0x002f1adc       0x31 ./xe/libxxe.a(libxxe_a-xedir3.o)
 .bss           0x002f1b0d        0x0 ./xe/libxxe.a(libxxe_a-xedir4.o)
 *fill*         0x002f1b0d        0x3 
 .bss           0x002f1b10     0x12dc ./xe/libxxe.a(libxxe_a-xedlcmd.o)
 .bss           0x002f2dec       0x10 ./xe/libxxe.a(libxxe_a-xedlcmd2.o)
 .bss           0x002f2dfc     0x100c ./xe/libxxe.a(libxxe_a-xedlcmd3.o)
 .bss           0x002f3e08     0x1034 ./xe/libxxe.a(libxxe_a-xedlcmd4.o)
 .bss           0x002f4e3c        0x0 ./xe/libxxe.a(libxxe_a-xedlcmd5.o)
 .bss           0x002f4e3c     0x2018 ./xe/libxxe.a(libxxe_a-xedlcmd6.o)
 .bss           0x002f6e54        0x0 ./xe/libxxe.a(libxxe_a-xeebc.o)
 .bss           0x002f6e54        0x0 ./xe/libxxe.a(libxxe_a-xeerr.o)
 .bss           0x002f6e54     0x2098 ./xe/libxxe.a(libxxe_a-xefcmd.o)
 .bss           0x002f8eec       0x30 ./xe/libxxe.a(libxxe_a-xefcmd22.o)
 .bss           0x002f8f1c      0x88c ./xe/libxxe.a(libxxe_a-xefcmd23.o)
 .bss           0x002f97a8        0x8 ./xe/libxxe.a(libxxe_a-xefcmd25.o)
 .bss           0x002f97b0       0x44 ./xe/libxxe.a(libxxe_a-xefcmd26.o)
 .bss           0x002f97f4       0x50 ./xe/libxxe.a(libxxe_a-xefcmd27.o)
 .bss           0x002f9844       0x1a ./xe/libxxe.a(libxxe_a-xefcmd3.o)
 *fill*         0x002f985e        0x2 
 .bss           0x002f9860       0x60 ./xe/libxxe.a(libxxe_a-xefcmd4.o)
 .bss           0x002f98c0       0x48 ./xe/libxxe.a(libxxe_a-xefcmd42.o)
 .bss           0x002f9908        0x0 ./xe/libxxe.a(libxxe_a-xefcmd43.o)
 .bss           0x002f9908       0xfc ./xe/libxxe.a(libxxe_a-xefcmd5.o)
 .bss           0x002f9a04       0x1c ./xe/libxxe.a(libxxe_a-xefcmd6.o)
 .bss           0x002f9a20       0x10 ./xe/libxxe.a(libxxe_a-xefcmd7.o)
 .bss           0x002f9a30     0x24f0 ./xe/libxxe.a(libxxe_a-xefile.o)
 .bss           0x002fbf20        0x0 ./xe/libxxe.a(libxxe_a-xefile12.o)
 .bss           0x002fbf20        0x0 ./xe/libxxe.a(libxxe_a-xefile13.o)
 .bss           0x002fbf20       0x2b ./xe/libxxe.a(libxxe_a-xefile14.o)
 .bss           0x002fbf4b        0x0 ./xe/libxxe.a(libxxe_a-xefile15.o)
 *fill*         0x002fbf4b        0x1 
 .bss           0x002fbf4c       0x14 ./xe/libxxe.a(libxxe_a-xefile2.o)
 .bss           0x002fbf60        0x8 ./xe/libxxe.a(libxxe_a-xefile22.o)
 .bss           0x002fbf68        0x4 ./xe/libxxe.a(libxxe_a-xefile3.o)
 .bss           0x002fbf6c       0x47 ./xe/libxxe.a(libxxe_a-xefile4.o)
 .bss           0x002fbfb3        0x0 ./xe/libxxe.a(libxxe_a-xefile42.o)
 .bss           0x002fbfb3        0x0 ./xe/libxxe.a(libxxe_a-xefile43.o)
 *fill*         0x002fbfb3        0x1 
 .bss           0x002fbfb4        0x8 ./xe/libxxe.a(libxxe_a-xefile5.o)
 .bss           0x002fbfbc       0x10 ./xe/libxxe.a(libxxe_a-xefile6.o)
 .bss           0x002fbfcc       0x10 ./xe/libxxe.a(libxxe_a-xefile7.o)
 .bss           0x002fbfdc       0x18 ./xe/libxxe.a(libxxe_a-xefsub.o)
 .bss           0x002fbff4     0x2008 ./xe/libxxe.a(libxxe_a-xeftp.o)
 .bss           0x002fdffc     0x2944 ./xe/libxxe.a(libxxe_a-xefunc.o)
 .bss           0x00300940       0x48 ./xe/libxxe.a(libxxe_a-xefunc2.o)
 .bss           0x00300988        0x4 ./xe/libxxe.a(libxxe_a-xefunct.o)
 .bss           0x0030098c     0x224c ./xe/libxxe.a(libxxe_a-xefunct2.o)
 .bss           0x00302bd8        0x0 ./xe/libxxe.a(libxxe_a-xegbl.o)
 .bss           0x00302bd8       0x14 ./xe/libxxe.a(libxxe_a-xeini.o)
 .bss           0x00302bec     0x104c ./xe/libxxe.a(libxxe_a-xeini2.o)
 .bss           0x00303c38     0x300c ./xe/libxxe.a(libxxe_a-xeini3.o)
 .bss           0x00306c44      0x330 ./xe/libxxe.a(libxxe_a-xekbd.o)
 .bss           0x00306f74     0x1c4c ./xe/libxxe.a(libxxe_a-xelcmd.o)
 .bss           0x00308bc0       0x14 ./xe/libxxe.a(libxxe_a-xelcmd2.o)
 .bss           0x00308bd4       0x24 ./xe/libxxe.a(libxxe_a-xelcmd3.o)
 .bss           0x00308bf8        0x4 ./xe/libxxe.a(libxxe_a-xelcmd4.o)
                0x00308bf8                Glcmd4errctr
 .bss           0x00308bfc        0x4 ./xe/libxxe.a(libxxe_a-xelcmd5.o)
 .bss           0x00308c00        0x8 ./xe/libxxe.a(libxxe_a-xemousel.o)
 .bss           0x00308c08        0x4 ./xe/libxxe.a(libxxe_a-xeopt.o)
 .bss           0x00308c0c        0x0 ./xe/libxxe.a(libxxe_a-xeopt2.o)
 .bss           0x00308c0c       0x10 ./xe/libxxe.a(libxxe_a-xepan.o)
 .bss           0x00308c1c       0x44 ./xe/libxxe.a(libxxe_a-xepan2.o)
 .bss           0x00308c60       0x2c ./xe/libxxe.a(libxxe_a-xepan22.o)
 .bss           0x00308c8c    0x223c4 ./xe/libxxe.a(libxxe_a-xepan23.o)
 .bss           0x0032b050        0xc ./xe/libxxe.a(libxxe_a-xepan24.o)
 .bss           0x0032b05c        0x0 ./xe/libxxe.a(libxxe_a-xepan3.o)
 .bss           0x0032b05c      0x188 ./xe/libxxe.a(libxxe_a-xescr.o)
                0x0032b05c                Gscrbuffheight
                0x0032b060                Gscrbuffwidth
                0x0032b064                Gscropt
 .bss           0x0032b1e4        0x0 ./xe/libxxe.a(libxxe_a-xescr2.o)
 .bss           0x0032b1e4       0x10 ./xe/libxxe.a(libxxe_a-xesub.o)
 .bss           0x0032b1f4        0x0 ./xe/libxxe.a(libxxe_a-xesub2.o)
 .bss           0x0032b1f4        0x0 ./xe/libxxe.a(libxxe_a-xesyn.o)
 .bss           0x0032b1f4       0x4c ./xe/libxxe.a(libxxe_a-xesyn2.o)
 .bss           0x0032b240     0x1084 ./xe/libxxe.a(libxxe_a-xetso.o)
 .bss           0x0032c2c4      0x108 ./xe/libxxe.a(libxxe_a-xetso2.o)
 .bss           0x0032c3cc        0x4 ./xe/libxxe.a(libxxe_a-xeundo.o)
 .bss           0x0032c3d0     0x5092 ./xe/libxxe.a(libxxe_a-xeutf.o)
 .bss           0x00331462        0x0 ./xe/libxxe.a(libxxe_a-xeutf2.o)
 .bss           0x00331462        0x0 ./xe/libxxe.a(libxxe_a-xecalc.o)
 *fill*         0x00331462        0x2 
 .bss           0x00331464       0x24 ./xe/libxxe.a(libxxe_a-xecalc2.o)
 .bss           0x00331488        0x0 ./xe/libxxe.a(libxxe_a-xecalc21.o)
 .bss           0x00331488        0x4 ./xe/libxxe.a(libxxe_a-xecalc22.o)
 .bss           0x0033148c      0x244 ./xe/libxxe.a(libxxe_a-xecalc3.o)
 .bss           0x003316d0        0x0 ./xe/libxxe.a(libxxe_a-xedir.o)
 .bss           0x003316d0       0xf4 ./xe/libxxe.a(libxxe_a-xefcmd2.o)
                0x003316d0                Ssrchlen
                0x003316d4                Ssrchlen2
                0x003316d8                Gsrchlenu8
                0x003316dc                Gsrchlenu82
                0x003316e0                Gsrchlendd
                0x003316e4                Gsrchlendd2
                0x003316e8                Grepwordlenu8
                0x003316ec                Grepwordlendd
                0x003316f0                Gsrchebclen
                0x003316f4                Gsrchebclen2
                0x003316f8                Grepwordebclen
                0x003316fc                Gebchandle
                0x00331700                Gebchandle2
                0x00331704                Gebchandler
                0x00331708                Seolsrchsw
                0x00331709                Seolsrchsw2
                0x0033170c                Ssubcmdid
                0x00331710                Schangeopt
                0x00331714                Spfhfindctr
                0x00331718                Spfhmatching
                0x0033171c                Sallkxinpctr
                0x00331720                S2ndofallsw
                0x00331724                Sfoundplh
                0x00331728                Splhafter
                0x0033172c                Sfoundoffs
                0x00331730                Sstep
                0x00331734                Sdirstep
                0x00331738                Sdirstepr
                0x0033173c                Sfoundctr
                0x00331740                Gmfwtovf
                0x00331744                Sovflineno
                0x00331748                Sovfoffset
                0x00331750                Sovfsuffix
                0x00331754                Snotfinpctr
                0x00331758                Sfindcmdinpctr
                0x0033175c                Sulsrchsw
                0x0033175d                Sulsrchsw2
                0x00331760                Sscrollpendsw
                0x00331764                Snotsrchsw
                0x00331765                Snotsrchsw2
                0x00331766                Srepnull
                0x00331767                Sexcludesw2
                0x00331768                Sallxfound
                0x0033176a                Srange1
                0x0033176c                Srange2
                0x0033176e                Srangeid1
                0x00331770                Srangeid2
                0x00331772                Srange1and
                0x00331774                Srange2and
                0x00331776                Srangeid1and
                0x00331778                Srangeid2and
                0x0033177c                Slinebefore
                0x00331780                Slineafter
                0x00331784                Slinedist
                0x00331788                Sminsame
                0x0033178c                Ssrcherrplh
                0x00331790                Sspanplh
                0x00331794                Sandplh1
                0x00331798                Ssamelastplh
                0x0033179c                Ssamelinectr
                0x003317a0                Sfindopt
                0x003317a4                Sfindopt2
                0x003317a8                Sothopt
                0x003317ac                Sothererr_abrange
                0x003317b0                Sothererr_selfjoin
 .bss           0x003317c4      0x8b2 ./xe/libxxe.a(libxxe_a-xefcmd24.o)
 *fill*         0x00332076        0x2 
 .bss           0x00332078       0x4f ./xe/libxxe.a(libxxe_a-xefile23.o)
 *fill*         0x003320c7        0x1 
 .bss           0x003320c8        0xc ./ulib/libuserxxe.a(libuserxxe_a-u3270.o)
 .bss           0x003320d4       0x10 ./ulib/libuserxxe.a(libuserxxe_a-u32702.o)
 *fill*         0x003320e4        0x4 
 .bss           0x003320e8     0x1208 ./ulib/libuserxxe.a(libuserxxe_a-u32703.o)
 .bss           0x003332f0        0x0 ./ulib/libuserxxe.a(libuserxxe_a-uabend.o)
 .bss           0x003332f0       0x84 ./ulib/libuserxxe.a(libuserxxe_a-uallocl.o)
 .bss           0x00333374      0x114 ./ulib/libuserxxe.a(libuserxxe_a-ucalc.o)
 .bss           0x00333488        0x0 ./ulib/libuserxxe.a(libuserxxe_a-ucalc2.o)
 .bss           0x00333488      0x790 ./ulib/libuserxxe.a(libuserxxe_a-ucvebc.o)
 .bss           0x00333c18       0x10 ./ulib/libuserxxe.a(libuserxxe_a-ucvebc2.o)
 .bss           0x00333c28       0x34 ./ulib/libuserxxe.a(libuserxxe_a-ucvebc3.o)
 .bss           0x00333c5c        0x0 ./ulib/libuserxxe.a(libuserxxe_a-ucvebc32.o)
 .bss           0x00333c5c        0x4 ./ulib/libuserxxe.a(libuserxxe_a-ucvebc4.o)
 .bss           0x00333c60        0x0 ./ulib/libuserxxe.a(libuserxxe_a-ucvebct.o)
 .bss           0x00333c60     0x1cd4 ./ulib/libuserxxe.a(libuserxxe_a-ucvext.o)
 .bss           0x00335934       0x24 ./ulib/libuserxxe.a(libuserxxe_a-ucvext12.o)
 .bss           0x00335958        0xc ./ulib/libuserxxe.a(libuserxxe_a-ucvext2.o)
 .bss           0x00335964        0xc ./ulib/libuserxxe.a(libuserxxe_a-ucvucs.o)
 .bss           0x00335970        0x0 ./ulib/libuserxxe.a(libuserxxe_a-ucvucst.o)
 .bss           0x00335970      0x2f9 ./ulib/libuserxxe.a(libuserxxe_a-udbcschk.o)
 .bss           0x00335c69        0x0 ./ulib/libuserxxe.a(libuserxxe_a-udbcsck2.o)
 .bss           0x00335c69        0x0 ./ulib/libuserxxe.a(libuserxxe_a-udos2.o)
 .bss           0x00335c69        0x0 ./ulib/libuserxxe.a(libuserxxe_a-udosl.o)
 *fill*         0x00335c69        0x3 
 .bss           0x00335c6c       0xd8 ./ulib/libuserxxe.a(libuserxxe_a-uedit.o)
 .bss           0x00335d44      0x268 ./ulib/libuserxxe.a(libuserxxe_a-uedit2.o)
 .bss           0x00335fac       0x64 ./ulib/libuserxxe.a(libuserxxe_a-uehl.o)
 .bss           0x00336010     0x40dc ./ulib/libuserxxe.a(libuserxxe_a-uerr.o)
 .bss           0x0033a0ec       0x20 ./ulib/libuserxxe.a(libuserxxe_a-ufemsg.o)
 .bss           0x0033a10c       0x18 ./ulib/libuserxxe.a(libuserxxe_a-ufile.o)
 .bss           0x0033a124        0x0 ./ulib/libuserxxe.a(libuserxxe_a-ufile12.o)
 .bss           0x0033a124        0x4 ./ulib/libuserxxe.a(libuserxxe_a-ufile1f.o)
 .bss           0x0033a128    0x64658 ./ulib/libuserxxe.a(libuserxxe_a-ufile1l.o)
 .bss           0x0039e780        0x4 ./ulib/libuserxxe.a(libuserxxe_a-ufile1l2.o)
 *fill*         0x0039e784        0x4 
 .bss           0x0039e788       0x34 ./ulib/libuserxxe.a(libuserxxe_a-ufile2.o)
 .bss           0x0039e7bc       0x20 ./ulib/libuserxxe.a(libuserxxe_a-ufile2f.o)
 .bss           0x0039e7dc        0x4 ./ulib/libuserxxe.a(libuserxxe_a-ufile2l.o)
 .bss           0x0039e7e0        0x0 ./ulib/libuserxxe.a(libuserxxe_a-ufile2l2.o)
 .bss           0x0039e7e0        0x8 ./ulib/libuserxxe.a(libuserxxe_a-ufile3.o)
 .bss           0x0039e7e8     0x100d ./ulib/libuserxxe.a(libuserxxe_a-ufile3f.o)
 *fill*         0x0039f7f5        0x3 
 .bss           0x0039f7f8     0x1034 ./ulib/libuserxxe.a(libuserxxe_a-ufile4.o)
 *fill*         0x003a082c        0x4 
 .bss           0x003a0830       0x5d ./ulib/libuserxxe.a(libuserxxe_a-ufile5.o)
 *fill*         0x003a088d        0x3 
 .bss           0x003a0890    0x64d00 ./ulib/libuserxxe.a(libuserxxe_a-uftp.o)
 .bss           0x00405590        0x8 ./ulib/libuserxxe.a(libuserxxe_a-uftp2.o)
 .bss           0x00405598        0x0 ./ulib/libuserxxe.a(libuserxxe_a-uftp3.o)
 .bss           0x00405598        0x4 ./ulib/libuserxxe.a(libuserxxe_a-ugcclib.o)
 .bss           0x0040559c       0xf4 ./ulib/libuserxxe.a(libuserxxe_a-ukbdl.o)
                0x0040559c                Swcstat
 .bss           0x00405690     0x5808 ./ulib/libuserxxe.a(libuserxxe_a-ukbdlnxc.o)
 .bss           0x0040ae98        0x8 ./ulib/libuserxxe.a(libuserxxe_a-ukbdlnxm.o)
 .bss           0x0040aea0      0x205 ./ulib/libuserxxe.a(libuserxxe_a-uparse.o)
 *fill*         0x0040b0a5        0x3 
 .bss           0x0040b0a8       0x1c ./ulib/libuserxxe.a(libuserxxe_a-uproc.o)
                0x0040b0a8                Sserverstat
                0x0040b0ac                Scmdservercallback
                0x0040b0b0                Scallbackparm
                0x0040b0b4                Scmdserverchildpid
 .bss           0x0040b0c4        0x4 ./ulib/libuserxxe.a(libuserxxe_a-uproc2.o)
 .bss           0x0040b0c8       0x10 ./ulib/libuserxxe.a(libuserxxe_a-uproc3.o)
 .bss           0x0040b0d8       0x1c ./ulib/libuserxxe.a(libuserxxe_a-uproc4.o)
 .bss           0x0040b0f4        0x0 ./ulib/libuserxxe.a(libuserxxe_a-uque.o)
 .bss           0x0040b0f4        0x0 ./ulib/libuserxxe.a(libuserxxe_a-ustrcpy.o)
 .bss           0x0040b0f4        0x0 ./ulib/libuserxxe.a(libuserxxe_a-ustring.o)
 .bss           0x0040b0f4        0x0 ./ulib/libuserxxe.a(libuserxxe_a-utf.o)
 .bss           0x0040b0f4       0x98 ./ulib/libuserxxe.a(libuserxxe_a-utf2.o)
 .bss           0x0040b18c       0x14 ./ulib/libuserxxe.a(libuserxxe_a-utf22.o)
 .bss           0x0040b1a0        0xc ./ulib/libuserxxe.a(libuserxxe_a-utf3.o)
 .bss           0x0040b1ac        0x4 ./ulib/libuserxxe.a(libuserxxe_a-utf4.o)
 .bss           0x0040b1b0     0x1180 ./ulib/libuserxxe.a(libuserxxe_a-utrace.o)
 .bss           0x0040c330       0x20 ./ulib/libuserxxe.a(libuserxxe_a-uunxsub.o)
 .bss           0x0040c350       0x40 ./ulib/libuserxxe.a(libuserxxe_a-uviom.o)
 .bss           0x0040c390       0x5c ./ulib/libuserxxe.a(libuserxxe_a-uviolx.o)
 .bss           0x0040c3ec       0x18 ./ulib/libuserxxe.a(libuserxxe_a-uproc22.o)
 .bss           0x0040c404        0x0 /usr/lib/gcc/arm-linux-gnueabihf/8/libgcc.a(_udivsi3.o)
 .bss           0x0040c404        0x0 /usr/lib/gcc/arm-linux-gnueabihf/8/libgcc.a(_divsi3.o)
 .bss           0x0040c404        0x0 /usr/lib/gcc/arm-linux-gnueabihf/8/libgcc.a(_aeabi_ldivmod.o)
 .bss           0x0040c404        0x0 /usr/lib/gcc/arm-linux-gnueabihf/8/libgcc.a(_dvmd_lnx.o)
 .bss           0x0040c404        0x0 /usr/lib/gcc/arm-linux-gnueabihf/8/libgcc.a(_udivmoddi4.o)
 .bss           0x0040c404        0x0 //usr/lib/arm-linux-gnueabihf/libc_nonshared.a(elf-init.oS)
 .bss           0x0040c404        0x0 //usr/lib/arm-linux-gnueabihf/libc_nonshared.a(stat64.oS)
 .bss           0x0040c404        0x0 //usr/lib/arm-linux-gnueabihf/libc_nonshared.a(lstat64.oS)
 .bss           0x0040c404        0x0 /usr/lib/gcc/arm-linux-gnueabihf/8/crtend.o
 .bss           0x0040c404        0x0 /usr/lib/gcc/arm-linux-gnueabihf/8/../../../arm-linux-gnueabihf/crtn.o
 *(COMMON)
 COMMON         0x0040c404       0x10 gxe-support.o
                0x0040c404                Gsynfontdesc
 COMMON         0x0040c414        0x4 gxe-main.o
                0x0040c414                Gfileselectiondir
 COMMON         0x0040c418        0x4 gxe-callbacks.o
                0x0040c418                Mcurpage
 COMMON         0x0040c41c      0xd70 gxe-gxe.o
                0x0040c41c                Gfontdata
                0x0040c42c                Gppixmappreview
                0x0040c430                Gpview
                0x0040c434                Gpgtkpo
                0x0040c438                Gppangocontext
                0x0040c43c                Gplayout
                0x0040c440                Gpgc
                0x0040c444                Gpclipboardp
                0x0040c448                Gpgcim
                0x0040c44c                Gpprtgc
                0x0040c450                GppixmapGtkPrint
                0x0040c454                Gpcolormap
                0x0040c458                GplayoutGtkPrint
                0x0040c45c                Gpframe
                0x0040c460                Gxxepalette
                0x0040d060                Gppangolang
                0x0040d064                Gpclipboard
                0x0040d068                Gppangoattrlist
                0x0040d06c                Gcolordata
                0x0040d07c                Gplayoutpreview
                0x0040d080                Gpgccsr
                0x0040d084                Grulerfg
                0x0040d090                Gppopupmenu
                0x0040d094                Gppixmapprtscr
                0x0040d098                Gpsourcedragcontext
                0x0040d09c                GpgcGtkPrint
                0x0040d0a0                Gpgtkps
                0x0040d0a4                Gpgcruler
                0x0040d0a8                GppopupmenuCHL
                0x0040d0ac                Gpgcpreview
                0x0040d0b0                Gxxesynpalette
                0x0040d170                Gppixmap
                0x0040d174                Gppangoattrlistscreen
                0x0040d178                Gpimcontext
                0x0040d17c                Gpgtkprtctxt
                0x0040d180                Gxxeopt
                0x0040d184                GppangoattrlistGtkPrint
                0x0040d188                GplayoutGtkPrintScr
 *fill*         0x0040d18c        0x4 
 COMMON         0x0040d190      0x654 gxe-xxemain.o
                0x0040d190                Mprtcurpage
                0x0040d194                Mprtrow
                0x0040d198                Mprtdatamaxrow
                0x0040d19c                Mprt2pcol
                0x0040d1a0                Mrulerkey
                0x0040d1a4                Mmarginshift
                0x0040d1a8                Mpcellszhmax
                0x0040d1ac                Mtypematicinterval
                0x0040d1b0                Musemk
                0x0040d1b4                Mcpoldpos
                0x0040d1bc                Mcellw
                0x0040d1c0                Mdragacceptsw
                0x0040d1c4                Mcharinpup
                0x0040d204                Mwwscrprt
                0x0040d208                Mchkpfontsz
                0x0040d20c                Mheader
                0x0040d210                Mrulercol
                0x0040d214                Mpcellszw
                0x0040d218                Mbgcolor
                0x0040d220                Mprinter
                0x0040d24c                Mpfontszh
                0x0040d250                Mmonospace
                0x0040d254                Mscrolltimer
                0x0040d258                Mdragplhs
                0x0040d25c                Mprtmaxpage
                0x0040d260                Mtypematicintervalwait
                0x0040d264                Mbeep
                0x0040d268                Mmonospacepreviewfile
                0x0040d26c                Mdroprc
                0x0040d270                Mxeinitsw
                0x0040d274                Mcpcopysw
                0x0040d278                Mlbposid
                0x0040d27c                Mlinenumber
                0x0040d280                Mtypematicdelay
                0x0040d284                Mprinter_cupsdefault
                0x0040d2b0                MmarginshiftL
                0x0040d2b4                M2p
                0x0040d2b8                Mdragedpcw
                0x0040d2bc                MprintLigature
                0x0040d2c0                Mscrollctr
                0x0040d2c4                Mligature
                0x0040d2c8                Mdraglist
                0x0040d2cc                Mprtlnotype
                0x0040d2d0                Mimageprtscr
                0x0040d2d4                Mwxeintf
                0x0040d4c8                Mxxemaininitsw
                0x0040d4cc                Mtypematicchkinterval
                0x0040d4d0                Mcellcopy2
                0x0040d4d8                Mprtcol
                0x0040d4e0                Mpreviewscaley
                0x0040d4e8                Mcharinpdn
                0x0040d528                Mlandscape
                0x0040d52c                Mcpblockmode
                0x0040d530                Mprtfontascendant
                0x0040d534                Mcharwp
                0x0040d574                Mprtmaxlrecl
                0x0040d578                Mmarginl
                0x0040d57c                Mscrolllockmsec
                0x0040d580                Mhcopysw
                0x0040d584                Mcellcopy1
                0x0040d58c                MlandscapeR
                0x0040d590                Mfulldrawsw
                0x0040d594                Mrulermode
                0x0040d598                Mpreviewscalex
                0x0040d5a0                Mcppastesw
                0x0040d5a4                Mscrcmaxcol
                0x0040d5a8                Mswkillfocus
                0x0040d5ac                Mprtfontstyle
                0x0040d62c                Mcellw0
                0x0040d630                Mdragpcw
                0x0040d634                Mfooter
                0x0040d638                Mdrawcellh
                0x0040d63c                Mpagerange
                0x0040d68c                Mformtype
                0x0040d6b8                Mprevieworgy
                0x0040d6c0                Mttfont
                0x0040d6c4                Mdblclicktimer
                0x0040d6c8                Mmarginb
                0x0040d6cc                Mmarginr
                0x0040d6d0                Mdragtimeout
                0x0040d6d4                Mrulercolor
                0x0040d6dc                Mcpcopypansw
                0x0040d6e0                Museact
                0x0040d6e4                Mportlate
                0x0040d6e8                Mprevieworgx
                0x0040d6f0                Mfontoffsy
                0x0040d6f4                Mscrolltimereventctr
                0x0040d6f8                Mpcellszh
                0x0040d6fc                Mprtcmaxcol
                0x0040d700                Mfontwidth
                0x0040d704                Mwinextw
                0x0040d708                Mfiletime
                0x0040d70c                Mscrheight
                0x0040d710                Mrctl
                0x0040d714                Mfontoffsx
                0x0040d718                Msetfocustime
                0x0040d71c                Mwinexth
                0x0040d720                Mscrcmaxrow
                0x0040d724                Mfontheight
                0x0040d728                Mdrawcellw
                0x0040d72c                Mfloatmenusw
                0x0040d730                Msystime
                0x0040d734                Mpagerangeno
                0x0040d738                Mscrolllocksw
                0x0040d73c                Mprtdatamaxcol
                0x0040d740                Mscrolllocktime
                0x0040d744                Mlbdblclicksw
                0x0040d748                Mpreviewmode
                0x0040d74c                MmarginshiftT
                0x0040d750                Mprtcmaxrow
                0x0040d754                Mpfontszw
                0x0040d758                Mprtcmaxlrecl
                0x0040d75c                Mfontstyle
                0x0040d7ac                Mcellh
                0x0040d7b0                Mmargint
                0x0040d7b4                Mcellh0
                0x0040d7b8                MmarginshiftB
                0x0040d7bc                MmarginshiftR
                0x0040d7c0                Mrulerrow
                0x0040d7c4                Mscrwidth
                0x0040d7c8                Msetfocusmsec
                0x0040d7cc                Mligaturereverse
                0x0040d7d0                Mrulermodeo
                0x0040d7d4                Mfullpage
                0x0040d7d8                Mfreecsr
                0x0040d7dc                Mcpstart
 COMMON         0x0040d7e4      0x38c gxe-gxemfrm.o
                0x0040d7e4                Menablepaste
                0x0040d7e8                Menablecopy
                0x0040d7ec                Menablecut
                0x0040d7f0                Menablepastev
                0x0040d7f4                Mwxeinidata
                0x0040db64                Mtoolbar
                0x0040db68                Mswgetinifail
                0x0040db6c                Menableselectall
 COMMON         0x0040db70       0x74 gxe-xxexei.o
                0x0040db70                Ggeometrybasex
                0x0040db74                Spwxei
                0x0040db78                Gpxxedbcstbl
                0x0040db7c                Gpwxei
                0x0040db80                Gwxecapebchandle
                0x0040db84                Gwxecapdatalen
                0x0040db88                Gcharset
                0x0040dbc8                Gwxecpposx
                0x0040dbcc                Gwxestat
                0x0040dbd0                Gxxestat
                0x0040dbd4                Gwxecapdbcs
                0x0040dbd8                Gwxecapbuff
                0x0040dbdc                Gwxecapdataoffs
                0x0040dbe0                Gconverters
 COMMON         0x0040dbe4     0x116c gxe-gxepage.o
                0x0040dbe4                Msvpcellszh
                0x0040dbe8                Mlinenodigit
                0x0040dbec                Mcmaxlrecl
                0x0040dbf0                MsvmarginshiftT
                0x0040dbf4                Msvchkpfontsz
                0x0040dbf8                Mmaxlrecl
                0x0040dbfc                Msvpcellszhmax
                0x0040dc00                Mcmaxcol
                0x0040dc04                Mlinenosz
                0x0040dc08                Msvsystime
                0x0040dc0c                Mtotlineno
                0x0040dc10                Msvpcellszw
                0x0040dc14                MsvprintLigature
                0x0040dc18                Msvmarginb
                0x0040dc1c                Msvmarginr
                0x0040dc20                Msv2p
                0x0040dc24                MsvmarginshiftB
                0x0040dc28                MsvmarginshiftR
                0x0040dc2c                Morgprttype
                0x0040dc30                Msvprtfontstyle
                0x0040dcb0                Msvfiletime
                0x0040dcb4                Msvmargint
                0x0040dcb8                Msvprtcol
                0x0040dcbc                Mprtfnm
                0x0040ecbc                Mprttype
                0x0040ecc0                Msvfullpage
                0x0040ecc4                Snoprinter
                0x0040ecc8                MsvmarginshiftL
                0x0040eccc                Msvformtype
                0x0040ecf8                Msvwwscrprt
                0x0040ecfc                Msvfooter
                0x0040ed00                Msvheader
                0x0040ed04                Msvlinenumber
                0x0040ed08                Mcmaxrow
                0x0040ed0c                Msvprinter
                0x0040ed38                Msvprt2pcol
                0x0040ed3c                Mmaxpage
                0x0040ed40                Msvprtrow
                0x0040ed44                Mtotrow
                0x0040ed48                Msvlandscape
                0x0040ed4c                Msvmarginl
 COMMON         0x0040ed50     0x8474 ./xe/libxxe.a(libxxe_a-xe.o)
                0x0040ed50                Gdcmd2wxeshellcmd
                0x0040ed54                Gcappcw
                0x0040ed58                Gcapplh2
                0x0040ed5c                Gunpdispchartble
                0x0040ed60                Gvalidchartbl
                0x0040ed64                Gfiletabdisp1
                0x0040ed68                Ghelpdir
                0x0040fd68                Gscrheight
                0x0040fd6c                Gcmdstack
                0x0040fd7c                Giniopt
                0x0040fd80                Gscrconfreqid
                0x0040fd84                Gcalcplh2
                0x0040fd88                Gopt4
                0x0040fd8c                Gcmdbuffdbcs
                0x00411150                Gscrdbcstbl
                0x00411154                Gfhwidthtxt
                0x00411158                Gcapplh1
                0x0041115c                Gcmdbuffct
                0x00412520                Gcmdbuff
                0x004138e4                Gfilebuff2
                0x004138e8                Gversion
                0x004138ec                Gpallassigntbl
                0x00413902                Gopt2
                0x00413904                Ginifiletabskip
                0x00413908                Gfhxwidth
                0x0041390c                Gxdconfindex
                0x00413910                Gxprintcmd
                0x00413914                Gprintcmd
                0x00413918                Gscrsplitv
                0x0041391c                Gattrtbl
                0x00413934                Gfhwidthtxtedit
                0x00413938                Gunpdispchartble_wxe
                0x0041393c                Gcmdbufflclen
                0x00413940                Gcalcpcw
                0x00413944                Gcapcbpfh
                0x00413948                Ghexctl
                0x00413954                Gunpdispchar
                0x00413958                Gfhwidth
                0x0041395c                Gcmdbufflc
                0x00414d20                Gxprintcmd0
                0x00414d24                Gopt
                0x00414d28                Gscrcurclient
                0x00414d2c                Gfiletabdisp2
                0x00414d30                Gworkdir
                0x00415d30                Gcsrposy
                0x00415d34                Gfunctbl
                0x00415d38                Gshellicmd0
                0x00415d3c                Gopt5
                0x00415d40                Gverdate
                0x00415d44                Gshellicmd
                0x00415d48                Gcsrposx
                0x00415d4c                Gcmdbuffu8
                0x00417110                Gdefpallette
                0x00417120                Gscrstatus
                0x00417124                Gscrconfactid
                0x00417128                Gkeyshiftname
                0x0041712c                Glastsono
                0x0041712d                Gopt3
                0x00417130                Gcapcbpcw
                0x00417134                Gscrsplith
                0x00417138                Gotherstatus
                0x0041713c                Gunpdispchartblj
                0x00417140                Gkbdinpctr
                0x00417144                Gunpdispchartblj_wxe
                0x00417148                Gfixcidid
                0x00417158                Ginitscroll
                0x0041716c                Gotheropt
                0x00417170                Gpodelmt
                0x00417174                Glinenosze
                0x00417178                Gproclastpft
                0x0041717c                Gfilebuff
                0x00417180                Gunpdispchartbl
                0x00417184                Gscrwidth
                0x00417188                Gprocstatus
                0x0041718c                Gopttabaltch
                0x00417198                Glinenoszb
                0x0041719c                Gtabdispchar
                0x004171a0                Gkbdopt
                0x004171a4                Giniopt2
                0x004171a8                Gcalcplh1
                0x004171ac                Gkeytbl
                0x004171b0                Glinenoszc
                0x004171b1                Gunpdispchar3_after_inigetopt
                0x004171b4                Gpallette
 COMMON         0x004171c4        0xc ./xe/libxxe.a(libxxe_a-xedcmd2.o)
                0x004171c4                Gcmdbuffsz_row
                0x004171c8                Gcmdbuffsz_col
                0x004171cc                Scmdbyspawn
 COMMON         0x004171d0        0x4 ./xe/libxxe.a(libxxe_a-xedcmd4.o)
                0x004171d0                Gdcmdtempf
 COMMON         0x004171d4        0x4 ./xe/libxxe.a(libxxe_a-xedir3.o)
                0x004171d4                Gdir3status
 COMMON         0x004171d8        0x8 ./xe/libxxe.a(libxxe_a-xedlcmd.o)
                0x004171d8                Gcompctr
                0x004171dc                Ggrepctr
 COMMON         0x004171e0        0x8 ./xe/libxxe.a(libxxe_a-xeebc.o)
                0x004171e0                Gebcstat
                0x004171e4                Gebccfgfnm
 COMMON         0x004171e8        0x4 ./xe/libxxe.a(libxxe_a-xefcmd26.o)
                0x004171e8                Sdirsrchlen
 COMMON         0x004171ec       0x14 ./xe/libxxe.a(libxxe_a-xefcmd43.o)
                0x004171ec                Gopt2_fc43
                0x004171f0                Gswutf8file_fc43
                0x004171f4                Gswebcfile_fc43
                0x004171f8                Gchspace_fc43
                0x004171fc                Gotheropt_fc43
 COMMON         0x00417200        0x4 ./xe/libxxe.a(libxxe_a-xeftp.o)
                0x00417200                Gxehostsfnm
 COMMON         0x00417204       0xcc ./xe/libxxe.a(libxxe_a-xefunct.o)
                0x00417204                Gstrinputdbcs
                0x00417268                Gstrinputlen
                0x0041726c                Gstrinput
 COMMON         0x004172d0       0x60 ./xe/libxxe.a(libxxe_a-xegbl.o)
                0x004172d0                Ggrepcmd
                0x004172d4                Ggroupid
                0x004172d8                Guserid
                0x004172dc                Ghostname2
                0x004172fc                Gmaxcolor
                0x00417300                Glocalhostsw
                0x00417304                Gunxflag
                0x00417308                Ghostname
                0x00417328                Gcomparecmdd
                0x0041732c                Gcomparecmdf
 COMMON         0x00417330      0x258 ./xe/libxxe.a(libxxe_a-xekbd.o)
                0x00417330                Gkbdsckt
 COMMON         0x00417588       0xc8 ./xe/libxxe.a(libxxe_a-xeopt.o)
                0x00417588                Gopteol
                0x00417589                Gopteol2
                0x0041758a                Goptopt3
                0x0041758b                Gopteolcont2
                0x0041758c                Gdefaultlocalecode
                0x004175cc                Glocalecode
                0x0041760c                Gopteolcont
                0x00417610                Gparmlocalecode
 COMMON         0x00417650        0x4 ./xe/libxxe.a(libxxe_a-xepan23.o)
                0x00417650                Sutilcolstart
 COMMON         0x00417654        0x4 ./xe/libxxe.a(libxxe_a-xesub.o)
                0x00417654                Gsubgblopt
 COMMON         0x00417658        0x8 ./xe/libxxe.a(libxxe_a-xesyn.o)
                0x00417658                Gsynstyletbl
                0x0041765c                Gsynopt
 COMMON         0x00417660       0xc0 ./xe/libxxe.a(libxxe_a-xesyn2.o)
                0x00417660                Scolorfoffs
                0x00417664                Scolorfsz
                0x00417668                Sindexfsz
                0x0041766c                Gsyncfg
 COMMON         0x00417720        0x8 ./xe/libxxe.a(libxxe_a-xeutf.o)
                0x00417720                Gutfmode
                0x00417724                Gutfmode2
 COMMON         0x00417728     0x12a4 ./xe/libxxe.a(libxxe_a-xefcmd2.o)
                0x00417728                Sescsrchchar2
                0x00417818                Sphasesw
                0x0041781c                Grepwordebcdbcs
                0x0041790c                Gsrchebcdata2
                0x004179fc                Slinerangesw
                0x00417a00                Srepwordlen
                0x00417a04                Stabsrchsw2
                0x00417a05                Stabsrchsw
                0x00417a06                Sescreplen
                0x00417a08                Gnxsw
                0x00417a0c                GfindcmdSplit
                0x00417a18                Sexcludesw
                0x00417a1c                Srepword
                0x00417b0c                Sescsrchlen2
                0x00417b10                Ssrchword
                0x00417c00                Supctrsw
                0x00417c04                Ssetlabel
                0x00417c0c                Srangeplhe2
                0x00417c10                Scasesensesw
                0x00417c14                Grepworddbcs
                0x00417d04                Gsrchwordforini
                0x00417d84                Gsrchebcdbcs
                0x00417e74                Gsrchdd
                0x00417f64                Sescsrchlen
                0x00417f68                Gsrchebcdata
                0x00418058                Ssrch2
                0x00418148                Grepwordebcdata
                0x00418238                Stabrepsw
                0x0041823c                Ssrch
                0x0041832c                Srangeplhe
                0x00418330                Ssrchwordlen
                0x00418334                Sescrepchar
                0x00418424                Gsrchebcdbcs2
                0x00418514                Sescsrchchar
                0x00418604                Gsrchdd2
                0x004186f4                Gpanfindopt
                0x004186f8                Gsrchdbcs
                0x004187e8                Swrapsw
                0x004187ec                Grepworddd
                0x004188dc                Gsrchdbcs2
 COMMON         0x004189cc        0x8 ./ulib/libuserxxe.a(libuserxxe_a-uallocl.o)
                0x004189cc                Gualloc_amount
                0x004189d0                Gualloc16_amount
 COMMON         0x004189d4      0x140 ./ulib/libuserxxe.a(libuserxxe_a-ucalc.o)
                0x004189d4                Gucalc_result
 COMMON         0x00418b14     0x9c48 ./ulib/libuserxxe.a(libuserxxe_a-ucvebc.o)
                0x00418b14                Gucvebchctr
                0x00418b18                Gucvebch
                0x00422758                Gucvebc_stat
 COMMON         0x0042275c       0x10 ./ulib/libuserxxe.a(libuserxxe_a-ucvebc2.o)
                0x0042275c                Snewoldctr
                0x00422760                Se2stctr
                0x00422764                Sduptctr
                0x00422768                Ss2etctr
 COMMON         0x0042276c        0xc ./ulib/libuserxxe.a(libuserxxe_a-udbcschk.o)
                0x0042276c                Gudbcschk_flag
                0x00422770                Gudbcschk_width0top
                0x00422774                Sdbcschk_hkopt
 COMMON         0x00422778        0x5 ./ulib/libuserxxe.a(libuserxxe_a-uerr.o)
                0x00422778                Guerropt2
                0x0042277c                Guerropt
 *fill*         0x0042277d        0x3 
 COMMON         0x00422780        0x8 ./ulib/libuserxxe.a(libuserxxe_a-ufile.o)
                0x00422780                Gufile_opt
                0x00422784                Gufile_nomsg
 COMMON         0x00422788       0x88 ./ulib/libuserxxe.a(libuserxxe_a-uftp2.o)
                0x00422788                Gftperr
                0x0042278c                Gftpopt
                0x00422790                Gftpclient
 COMMON         0x00422810        0x8 ./ulib/libuserxxe.a(libuserxxe_a-ukbdl.o)
                0x00422810                Sphiconv
                0x00422814                Gukbdl_flag
 COMMON         0x00422818        0x8 ./ulib/libuserxxe.a(libuserxxe_a-uproc.o)
                0x00422818                Sfdpiper
                0x0042281c                Sfdpipew
 COMMON         0x00422820        0xc ./ulib/libuserxxe.a(libuserxxe_a-utf.o)
                0x00422820                Gulibutfmode
                0x00422824                Gutfrc
                0x00422828                Gutfcombaltch
 COMMON         0x0042282c    0x60000 ./ulib/libuserxxe.a(libuserxxe_a-utf22.o)
                0x0042282c                Gucs2ddmap_i2u
                0x0044282c                Gucs2ddmap
 COMMON         0x0048282c      0x104 ./ulib/libuserxxe.a(libuserxxe_a-utrace.o)
                0x0048282c                Gtracehdr
                0x0048292c                Slockhandle
 COMMON         0x00482930       0x24 ./ulib/libuserxxe.a(libuserxxe_a-uviom.o)
                0x00482930                Guviombuffu
                0x00482934                Guviomopt
                0x00482938                Guviomoptstr
                0x0048293c                Guviomopt2
                0x00482940                Gw95buffopt
                0x00482944                Guviomoptstrucs
                0x00482954                . = ALIGN ((. != 0x0)?0x4:0x1)
                0x00482954                _bss_end__ = .
                0x00482954                __bss_end__ = .
                0x00482954                . = ALIGN (0x4)
                0x00482954                . = SEGMENT_START ("ldata-segment", .)
                0x00482954                . = ALIGN (0x4)
                0x00482954                __end__ = .
                0x00482954                _end = .
                [!provide]                PROVIDE (end = .)
                0x00482954                . = DATA_SEGMENT_END (.)

.stab
 *(.stab)

.stabstr
 *(.stabstr)

.stab.excl
 *(.stab.excl)

.stab.exclstr
 *(.stab.exclstr)

.stab.index
 *(.stab.index)

.stab.indexstr
 *(.stab.indexstr)

.comment        0x00000000       0x23
 *(.comment)
 .comment       0x00000000       0x23 /usr/lib/gcc/arm-linux-gnueabihf/8/crtbegin.o
                                 0x24 (size before relaxing)
 .comment       0x00000023       0x24 gxe-support.o
 .comment       0x00000023       0x24 gxe-main.o
 .comment       0x00000023       0x24 gxe-interface.o
 .comment       0x00000023       0x24 gxe-callbacks.o
 .comment       0x00000023       0x24 gxe-gxeview.o
 .comment       0x00000023       0x24 gxe-gxedlg.o
 .comment       0x00000023       0x24 gxe-gxe.o
 .comment       0x00000023       0x24 gxe-xxemain.o
 .comment       0x00000023       0x24 gxe-gxemfrm.o
 .comment       0x00000023       0x24 gxe-xxecsub.o
 .comment       0x00000023       0x24 gxe-xxexei.o
 .comment       0x00000023       0x24 gxe-xxekbd.o
 .comment       0x00000023       0x24 gxe-xxescr.o
 .comment       0x00000023       0x24 gxe-xxexei3.o
 .comment       0x00000023       0x24 gxe-xxemouse.o
 .comment       0x00000023       0x24 gxe-xxexei2.o
 .comment       0x00000023       0x24 gxe-xxecsub2.o
 .comment       0x00000023       0x24 gxe-xxefile.o
 .comment       0x00000023       0x24 gxe-gxepage.o
 .comment       0x00000023       0x24 gxe-xxeprt.o
 .comment       0x00000023       0x24 ./xe/libxxe.a(libxxe_a-xe.o)
 .comment       0x00000023       0x24 ./xe/libxxe.a(libxxe_a-xecap.o)
 .comment       0x00000023       0x24 ./xe/libxxe.a(libxxe_a-xecap2.o)
 .comment       0x00000023       0x24 ./xe/libxxe.a(libxxe_a-xechar.o)
 .comment       0x00000023       0x24 ./xe/libxxe.a(libxxe_a-xechar12.o)
 .comment       0x00000023       0x24 ./xe/libxxe.a(libxxe_a-xechar13.o)
 .comment       0x00000023       0x24 ./xe/libxxe.a(libxxe_a-xechar2.o)
 .comment       0x00000023       0x24 ./xe/libxxe.a(libxxe_a-xecsr.o)
 .comment       0x00000023       0x24 ./xe/libxxe.a(libxxe_a-xedcmd.o)
 .comment       0x00000023       0x24 ./xe/libxxe.a(libxxe_a-xedcmd2.o)
 .comment       0x00000023       0x24 ./xe/libxxe.a(libxxe_a-xedcmd3.o)
 .comment       0x00000023       0x24 ./xe/libxxe.a(libxxe_a-xedcmd4.o)
 .comment       0x00000023       0x24 ./xe/libxxe.a(libxxe_a-xedir2.o)
 .comment       0x00000023       0x24 ./xe/libxxe.a(libxxe_a-xedir3.o)
 .comment       0x00000023       0x24 ./xe/libxxe.a(libxxe_a-xedir4.o)
 .comment       0x00000023       0x24 ./xe/libxxe.a(libxxe_a-xedlcmd.o)
 .comment       0x00000023       0x24 ./xe/libxxe.a(libxxe_a-xedlcmd2.o)
 .comment       0x00000023       0x24 ./xe/libxxe.a(libxxe_a-xedlcmd3.o)
 .comment       0x00000023       0x24 ./xe/libxxe.a(libxxe_a-xedlcmd4.o)
 .comment       0x00000023       0x24 ./xe/libxxe.a(libxxe_a-xedlcmd5.o)
 .comment       0x00000023       0x24 ./xe/libxxe.a(libxxe_a-xedlcmd6.o)
 .comment       0x00000023       0x24 ./xe/libxxe.a(libxxe_a-xeebc.o)
 .comment       0x00000023       0x24 ./xe/libxxe.a(libxxe_a-xeerr.o)
 .comment       0x00000023       0x24 ./xe/libxxe.a(libxxe_a-xefcmd.o)
 .comment       0x00000023       0x24 ./xe/libxxe.a(libxxe_a-xefcmd22.o)
 .comment       0x00000023       0x24 ./xe/libxxe.a(libxxe_a-xefcmd23.o)
 .comment       0x00000023       0x24 ./xe/libxxe.a(libxxe_a-xefcmd25.o)
 .comment       0x00000023       0x24 ./xe/libxxe.a(libxxe_a-xefcmd26.o)
 .comment       0x00000023       0x24 ./xe/libxxe.a(libxxe_a-xefcmd27.o)
 .comment       0x00000023       0x24 ./xe/libxxe.a(libxxe_a-xefcmd3.o)
 .comment       0x00000023       0x24 ./xe/libxxe.a(libxxe_a-xefcmd4.o)
 .comment       0x00000023       0x24 ./xe/libxxe.a(libxxe_a-xefcmd42.o)
 .comment       0x00000023       0x24 ./xe/libxxe.a(libxxe_a-xefcmd43.o)
 .comment       0x00000023       0x24 ./xe/libxxe.a(libxxe_a-xefcmd5.o)
 .comment       0x00000023       0x24 ./xe/libxxe.a(libxxe_a-xefcmd6.o)
 .comment       0x00000023       0x24 ./xe/libxxe.a(libxxe_a-xefcmd7.o)
 .comment       0x00000023       0x24 ./xe/libxxe.a(libxxe_a-xefile.o)
 .comment       0x00000023       0x24 ./xe/libxxe.a(libxxe_a-xefile12.o)
 .comment       0x00000023       0x24 ./xe/libxxe.a(libxxe_a-xefile13.o)
 .comment       0x00000023       0x24 ./xe/libxxe.a(libxxe_a-xefile14.o)
 .comment       0x00000023       0x24 ./xe/libxxe.a(libxxe_a-xefile15.o)
 .comment       0x00000023       0x24 ./xe/libxxe.a(libxxe_a-xefile2.o)
 .comment       0x00000023       0x24 ./xe/libxxe.a(libxxe_a-xefile22.o)
 .comment       0x00000023       0x24 ./xe/libxxe.a(libxxe_a-xefile3.o)
 .comment       0x00000023       0x24 ./xe/libxxe.a(libxxe_a-xefile4.o)
 .comment       0x00000023       0x24 ./xe/libxxe.a(libxxe_a-xefile42.o)
 .comment       0x00000023       0x24 ./xe/libxxe.a(libxxe_a-xefile43.o)
 .comment       0x00000023       0x24 ./xe/libxxe.a(libxxe_a-xefile5.o)
 .comment       0x00000023       0x24 ./xe/libxxe.a(libxxe_a-xefile6.o)
 .comment       0x00000023       0x24 ./xe/libxxe.a(libxxe_a-xefile7.o)
 .comment       0x00000023       0x24 ./xe/libxxe.a(libxxe_a-xefsub.o)
 .comment       0x00000023       0x24 ./xe/libxxe.a(libxxe_a-xeftp.o)
 .comment       0x00000023       0x24 ./xe/libxxe.a(libxxe_a-xefunc.o)
 .comment       0x00000023       0x24 ./xe/libxxe.a(libxxe_a-xefunc2.o)
 .comment       0x00000023       0x24 ./xe/libxxe.a(libxxe_a-xefunct.o)
 .comment       0x00000023       0x24 ./xe/libxxe.a(libxxe_a-xefunct2.o)
 .comment       0x00000023       0x24 ./xe/libxxe.a(libxxe_a-xegbl.o)
 .comment       0x00000023       0x24 ./xe/libxxe.a(libxxe_a-xeini.o)
 .comment       0x00000023       0x24 ./xe/libxxe.a(libxxe_a-xeini2.o)
 .comment       0x00000023       0x24 ./xe/libxxe.a(libxxe_a-xeini3.o)
 .comment       0x00000023       0x24 ./xe/libxxe.a(libxxe_a-xekbd.o)
 .comment       0x00000023       0x24 ./xe/libxxe.a(libxxe_a-xelcmd.o)
 .comment       0x00000023       0x24 ./xe/libxxe.a(libxxe_a-xelcmd2.o)
 .comment       0x00000023       0x24 ./xe/libxxe.a(libxxe_a-xelcmd3.o)
 .comment       0x00000023       0x24 ./xe/libxxe.a(libxxe_a-xelcmd4.o)
 .comment       0x00000023       0x24 ./xe/libxxe.a(libxxe_a-xelcmd5.o)
 .comment       0x00000023       0x24 ./xe/libxxe.a(libxxe_a-xemousel.o)
 .comment       0x00000023       0x24 ./xe/libxxe.a(libxxe_a-xeopt.o)
 .comment       0x00000023       0x24 ./xe/libxxe.a(libxxe_a-xeopt2.o)
 .comment       0x00000023       0x24 ./xe/libxxe.a(libxxe_a-xepan.o)
 .comment       0x00000023       0x24 ./xe/libxxe.a(libxxe_a-xepan2.o)
 .comment       0x00000023       0x24 ./xe/libxxe.a(libxxe_a-xepan22.o)
 .comment       0x00000023       0x24 ./xe/libxxe.a(libxxe_a-xepan23.o)
 .comment       0x00000023       0x24 ./xe/libxxe.a(libxxe_a-xepan24.o)
 .comment       0x00000023       0x24 ./xe/libxxe.a(libxxe_a-xepan3.o)
 .comment       0x00000023       0x24 ./xe/libxxe.a(libxxe_a-xescr.o)
 .comment       0x00000023       0x24 ./xe/libxxe.a(libxxe_a-xescr2.o)
 .comment       0x00000023       0x24 ./xe/libxxe.a(libxxe_a-xesub.o)
 .comment       0x00000023       0x24 ./xe/libxxe.a(libxxe_a-xesub2.o)
 .comment       0x00000023       0x24 ./xe/libxxe.a(libxxe_a-xesyn.o)
 .comment       0x00000023       0x24 ./xe/libxxe.a(libxxe_a-xesyn2.o)
 .comment       0x00000023       0x24 ./xe/libxxe.a(libxxe_a-xetso.o)
 .comment       0x00000023       0x24 ./xe/libxxe.a(libxxe_a-xetso2.o)
 .comment       0x00000023       0x24 ./xe/libxxe.a(libxxe_a-xeundo.o)
 .comment       0x00000023       0x24 ./xe/libxxe.a(libxxe_a-xeutf.o)
 .comment       0x00000023       0x24 ./xe/libxxe.a(libxxe_a-xeutf2.o)
 .comment       0x00000023       0x24 ./xe/libxxe.a(libxxe_a-xecalc.o)
 .comment       0x00000023       0x24 ./xe/libxxe.a(libxxe_a-xecalc2.o)
 .comment       0x00000023       0x24 ./xe/libxxe.a(libxxe_a-xecalc21.o)
 .comment       0x00000023       0x24 ./xe/libxxe.a(libxxe_a-xecalc22.o)
 .comment       0x00000023       0x24 ./xe/libxxe.a(libxxe_a-xecalc3.o)
 .comment       0x00000023       0x24 ./xe/libxxe.a(libxxe_a-xedir.o)
 .comment       0x00000023       0x24 ./xe/libxxe.a(libxxe_a-xefcmd2.o)
 .comment       0x00000023       0x24 ./xe/libxxe.a(libxxe_a-xefcmd24.o)
 .comment       0x00000023       0x24 ./xe/libxxe.a(libxxe_a-xefile23.o)
 .comment       0x00000023       0x24 ./ulib/libuserxxe.a(libuserxxe_a-u3270.o)
 .comment       0x00000023       0x24 ./ulib/libuserxxe.a(libuserxxe_a-u32702.o)
 .comment       0x00000023       0x24 ./ulib/libuserxxe.a(libuserxxe_a-u32703.o)
 .comment       0x00000023       0x24 ./ulib/libuserxxe.a(libuserxxe_a-uabend.o)
 .comment       0x00000023       0x24 ./ulib/libuserxxe.a(libuserxxe_a-uallocl.o)
 .comment       0x00000023       0x24 ./ulib/libuserxxe.a(libuserxxe_a-ucalc.o)
 .comment       0x00000023       0x24 ./ulib/libuserxxe.a(libuserxxe_a-ucalc2.o)
 .comment       0x00000023       0x24 ./ulib/libuserxxe.a(libuserxxe_a-ucvebc.o)
 .comment       0x00000023       0x24 ./ulib/libuserxxe.a(libuserxxe_a-ucvebc2.o)
 .comment       0x00000023       0x24 ./ulib/libuserxxe.a(libuserxxe_a-ucvebc3.o)
 .comment       0x00000023       0x24 ./ulib/libuserxxe.a(libuserxxe_a-ucvebc32.o)
 .comment       0x00000023       0x24 ./ulib/libuserxxe.a(libuserxxe_a-ucvebc4.o)
 .comment       0x00000023       0x24 ./ulib/libuserxxe.a(libuserxxe_a-ucvebct.o)
 .comment       0x00000023       0x24 ./ulib/libuserxxe.a(libuserxxe_a-ucvext.o)
 .comment       0x00000023       0x24 ./ulib/libuserxxe.a(libuserxxe_a-ucvext12.o)
 .comment       0x00000023       0x24 ./ulib/libuserxxe.a(libuserxxe_a-ucvext2.o)
 .comment       0x00000023       0x24 ./ulib/libuserxxe.a(libuserxxe_a-ucvucs.o)
 .comment       0x00000023       0x24 ./ulib/libuserxxe.a(libuserxxe_a-ucvucst.o)
 .comment       0x00000023       0x24 ./ulib/libuserxxe.a(libuserxxe_a-udbcschk.o)
 .comment       0x00000023       0x24 ./ulib/libuserxxe.a(libuserxxe_a-udbcsck2.o)
 .comment       0x00000023       0x24 ./ulib/libuserxxe.a(libuserxxe_a-udos2.o)
 .comment       0x00000023       0x24 ./ulib/libuserxxe.a(libuserxxe_a-udosl.o)
 .comment       0x00000023       0x24 ./ulib/libuserxxe.a(libuserxxe_a-uedit.o)
 .comment       0x00000023       0x24 ./ulib/libuserxxe.a(libuserxxe_a-uedit2.o)
 .comment       0x00000023       0x24 ./ulib/libuserxxe.a(libuserxxe_a-uehl.o)
 .comment       0x00000023       0x24 ./ulib/libuserxxe.a(libuserxxe_a-uerr.o)
 .comment       0x00000023       0x24 ./ulib/libuserxxe.a(libuserxxe_a-ufemsg.o)
 .comment       0x00000023       0x24 ./ulib/libuserxxe.a(libuserxxe_a-ufile.o)
 .comment       0x00000023       0x24 ./ulib/libuserxxe.a(libuserxxe_a-ufile12.o)
 .comment       0x00000023       0x24 ./ulib/libuserxxe.a(libuserxxe_a-ufile1f.o)
 .comment       0x00000023       0x24 ./ulib/libuserxxe.a(libuserxxe_a-ufile1l.o)
 .comment       0x00000023       0x24 ./ulib/libuserxxe.a(libuserxxe_a-ufile1l2.o)
 .comment       0x00000023       0x24 ./ulib/libuserxxe.a(libuserxxe_a-ufile2.o)
 .comment       0x00000023       0x24 ./ulib/libuserxxe.a(libuserxxe_a-ufile2f.o)
 .comment       0x00000023       0x24 ./ulib/libuserxxe.a(libuserxxe_a-ufile2l.o)
 .comment       0x00000023       0x24 ./ulib/libuserxxe.a(libuserxxe_a-ufile2l2.o)
 .comment       0x00000023       0x24 ./ulib/libuserxxe.a(libuserxxe_a-ufile3.o)
 .comment       0x00000023       0x24 ./ulib/libuserxxe.a(libuserxxe_a-ufile3f.o)
 .comment       0x00000023       0x24 ./ulib/libuserxxe.a(libuserxxe_a-ufile4.o)
 .comment       0x00000023       0x24 ./ulib/libuserxxe.a(libuserxxe_a-ufile5.o)
 .comment       0x00000023       0x24 ./ulib/libuserxxe.a(libuserxxe_a-uftp.o)
 .comment       0x00000023       0x24 ./ulib/libuserxxe.a(libuserxxe_a-uftp2.o)
 .comment       0x00000023       0x24 ./ulib/libuserxxe.a(libuserxxe_a-uftp3.o)
 .comment       0x00000023       0x24 ./ulib/libuserxxe.a(libuserxxe_a-ugcclib.o)
 .comment       0x00000023       0x24 ./ulib/libuserxxe.a(libuserxxe_a-ukbdl.o)
 .comment       0x00000023       0x24 ./ulib/libuserxxe.a(libuserxxe_a-ukbdlnxc.o)
 .comment       0x00000023       0x24 ./ulib/libuserxxe.a(libuserxxe_a-ukbdlnxm.o)
 .comment       0x00000023       0x24 ./ulib/libuserxxe.a(libuserxxe_a-uparse.o)
 .comment       0x00000023       0x24 ./ulib/libuserxxe.a(libuserxxe_a-uproc.o)
 .comment       0x00000023       0x24 ./ulib/libuserxxe.a(libuserxxe_a-uproc2.o)
 .comment       0x00000023       0x24 ./ulib/libuserxxe.a(libuserxxe_a-uproc3.o)
 .comment       0x00000023       0x24 ./ulib/libuserxxe.a(libuserxxe_a-uproc4.o)
 .comment       0x00000023       0x24 ./ulib/libuserxxe.a(libuserxxe_a-uque.o)
 .comment       0x00000023       0x24 ./ulib/libuserxxe.a(libuserxxe_a-ustrcpy.o)
 .comment       0x00000023       0x24 ./ulib/libuserxxe.a(libuserxxe_a-ustring.o)
 .comment       0x00000023       0x24 ./ulib/libuserxxe.a(libuserxxe_a-utf.o)
 .comment       0x00000023       0x24 ./ulib/libuserxxe.a(libuserxxe_a-utf2.o)
 .comment       0x00000023       0x24 ./ulib/libuserxxe.a(libuserxxe_a-utf22.o)
 .comment       0x00000023       0x24 ./ulib/libuserxxe.a(libuserxxe_a-utf3.o)
 .comment       0x00000023       0x24 ./ulib/libuserxxe.a(libuserxxe_a-utf4.o)
 .comment       0x00000023       0x24 ./ulib/libuserxxe.a(libuserxxe_a-utrace.o)
 .comment       0x00000023       0x24 ./ulib/libuserxxe.a(libuserxxe_a-uunxsub.o)
 .comment       0x00000023       0x24 ./ulib/libuserxxe.a(libuserxxe_a-uviom.o)
 .comment       0x00000023       0x24 ./ulib/libuserxxe.a(libuserxxe_a-uviolx.o)
 .comment       0x00000023       0x24 ./ulib/libuserxxe.a(libuserxxe_a-uproc22.o)
 .comment       0x00000023       0x24 /usr/lib/gcc/arm-linux-gnueabihf/8/crtend.o

.ARM.attributes
                0x00000000       0x2f
 .ARM.attributes
                0x00000000       0x2f /usr/lib/gcc/arm-linux-gnueabihf/8/../../../arm-linux-gnueabihf/crt1.o
 .ARM.attributes
                0x0000002f       0x23 /usr/lib/gcc/arm-linux-gnueabihf/8/../../../arm-linux-gnueabihf/crti.o
 .ARM.attributes
                0x00000052       0x2f /usr/lib/gcc/arm-linux-gnueabihf/8/crtbegin.o
 .ARM.attributes
                0x00000081       0x2f gxe-support.o
 .ARM.attributes
                0x000000b0       0x2f gxe-main.o
 .ARM.attributes
                0x000000df       0x2f gxe-interface.o
 .ARM.attributes
                0x0000010e       0x2f gxe-callbacks.o
 .ARM.attributes
                0x0000013d       0x2f gxe-gxeview.o
 .ARM.attributes
                0x0000016c       0x2f gxe-gxedlg.o
 .ARM.attributes
                0x0000019b       0x2f gxe-gxe.o
 .ARM.attributes
                0x000001ca       0x2f gxe-xxemain.o
 .ARM.attributes
                0x000001f9       0x2f gxe-gxemfrm.o
 .ARM.attributes
                0x00000228       0x2f gxe-xxecsub.o
 .ARM.attributes
                0x00000257       0x2f gxe-xxexei.o
 .ARM.attributes
                0x00000286       0x2f gxe-xxekbd.o
 .ARM.attributes
                0x000002b5       0x2f gxe-xxescr.o
 .ARM.attributes
                0x000002e4       0x2f gxe-xxexei3.o
 .ARM.attributes
                0x00000313       0x2f gxe-xxemouse.o
 .ARM.attributes
                0x00000342       0x2f gxe-xxexei2.o
 .ARM.attributes
                0x00000371       0x2f gxe-xxecsub2.o
 .ARM.attributes
                0x000003a0       0x2f gxe-xxefile.o
 .ARM.attributes
                0x000003cf       0x2f gxe-gxepage.o
 .ARM.attributes
                0x000003fe       0x2f gxe-xxeprt.o
 .ARM.attributes
                0x0000042d       0x2f ./xe/libxxe.a(libxxe_a-xe.o)
 .ARM.attributes
                0x0000045c       0x2f ./xe/libxxe.a(libxxe_a-xecap.o)
 .ARM.attributes
                0x0000048b       0x2f ./xe/libxxe.a(libxxe_a-xecap2.o)
 .ARM.attributes
                0x000004ba       0x2f ./xe/libxxe.a(libxxe_a-xechar.o)
 .ARM.attributes
                0x000004e9       0x2f ./xe/libxxe.a(libxxe_a-xechar12.o)
 .ARM.attributes
                0x00000518       0x2f ./xe/libxxe.a(libxxe_a-xechar13.o)
 .ARM.attributes
                0x00000547       0x2f ./xe/libxxe.a(libxxe_a-xechar2.o)
 .ARM.attributes
                0x00000576       0x2f ./xe/libxxe.a(libxxe_a-xecsr.o)
 .ARM.attributes
                0x000005a5       0x2f ./xe/libxxe.a(libxxe_a-xedcmd.o)
 .ARM.attributes
                0x000005d4       0x2f ./xe/libxxe.a(libxxe_a-xedcmd2.o)
 .ARM.attributes
                0x00000603       0x2f ./xe/libxxe.a(libxxe_a-xedcmd3.o)
 .ARM.attributes
                0x00000632       0x2f ./xe/libxxe.a(libxxe_a-xedcmd4.o)
 .ARM.attributes
                0x00000661       0x2f ./xe/libxxe.a(libxxe_a-xedir2.o)
 .ARM.attributes
                0x00000690       0x2f ./xe/libxxe.a(libxxe_a-xedir3.o)
 .ARM.attributes
                0x000006bf       0x2f ./xe/libxxe.a(libxxe_a-xedir4.o)
 .ARM.attributes
                0x000006ee       0x2f ./xe/libxxe.a(libxxe_a-xedlcmd.o)
 .ARM.attributes
                0x0000071d       0x2f ./xe/libxxe.a(libxxe_a-xedlcmd2.o)
 .ARM.attributes
                0x0000074c       0x2f ./xe/libxxe.a(libxxe_a-xedlcmd3.o)
 .ARM.attributes
                0x0000077b       0x2f ./xe/libxxe.a(libxxe_a-xedlcmd4.o)
 .ARM.attributes
                0x000007aa       0x2f ./xe/libxxe.a(libxxe_a-xedlcmd5.o)
 .ARM.attributes
                0x000007d9       0x2f ./xe/libxxe.a(libxxe_a-xedlcmd6.o)
 .ARM.attributes
                0x00000808       0x2f ./xe/libxxe.a(libxxe_a-xeebc.o)
 .ARM.attributes
                0x00000837       0x2f ./xe/libxxe.a(libxxe_a-xeerr.o)
 .ARM.attributes
                0x00000866       0x2f ./xe/libxxe.a(libxxe_a-xefcmd.o)
 .ARM.attributes
                0x00000895       0x2f ./xe/libxxe.a(libxxe_a-xefcmd22.o)
 .ARM.attributes
                0x000008c4       0x2f ./xe/libxxe.a(libxxe_a-xefcmd23.o)
 .ARM.attributes
                0x000008f3       0x2f ./xe/libxxe.a(libxxe_a-xefcmd25.o)
 .ARM.attributes
                0x00000922       0x2f ./xe/libxxe.a(libxxe_a-xefcmd26.o)
 .ARM.attributes
                0x00000951       0x2f ./xe/libxxe.a(libxxe_a-xefcmd27.o)
 .ARM.attributes
                0x00000980       0x2f ./xe/libxxe.a(libxxe_a-xefcmd3.o)
 .ARM.attributes
                0x000009af       0x2f ./xe/libxxe.a(libxxe_a-xefcmd4.o)
 .ARM.attributes
                0x000009de       0x2f ./xe/libxxe.a(libxxe_a-xefcmd42.o)
 .ARM.attributes
                0x00000a0d       0x2f ./xe/libxxe.a(libxxe_a-xefcmd43.o)
 .ARM.attributes
                0x00000a3c       0x2f ./xe/libxxe.a(libxxe_a-xefcmd5.o)
 .ARM.attributes
                0x00000a6b       0x2f ./xe/libxxe.a(libxxe_a-xefcmd6.o)
 .ARM.attributes
                0x00000a9a       0x2f ./xe/libxxe.a(libxxe_a-xefcmd7.o)
 .ARM.attributes
                0x00000ac9       0x2f ./xe/libxxe.a(libxxe_a-xefile.o)
 .ARM.attributes
                0x00000af8       0x2f ./xe/libxxe.a(libxxe_a-xefile12.o)
 .ARM.attributes
                0x00000b27       0x2f ./xe/libxxe.a(libxxe_a-xefile13.o)
 .ARM.attributes
                0x00000b56       0x2f ./xe/libxxe.a(libxxe_a-xefile14.o)
 .ARM.attributes
                0x00000b85       0x2f ./xe/libxxe.a(libxxe_a-xefile15.o)
 .ARM.attributes
                0x00000bb4       0x2f ./xe/libxxe.a(libxxe_a-xefile2.o)
 .ARM.attributes
                0x00000be3       0x2f ./xe/libxxe.a(libxxe_a-xefile22.o)
 .ARM.attributes
                0x00000c12       0x2f ./xe/libxxe.a(libxxe_a-xefile3.o)
 .ARM.attributes
                0x00000c41       0x2f ./xe/libxxe.a(libxxe_a-xefile4.o)
 .ARM.attributes
                0x00000c70       0x2f ./xe/libxxe.a(libxxe_a-xefile42.o)
 .ARM.attributes
                0x00000c9f       0x2f ./xe/libxxe.a(libxxe_a-xefile43.o)
 .ARM.attributes
                0x00000cce       0x2f ./xe/libxxe.a(libxxe_a-xefile5.o)
 .ARM.attributes
                0x00000cfd       0x2f ./xe/libxxe.a(libxxe_a-xefile6.o)
 .ARM.attributes
                0x00000d2c       0x2f ./xe/libxxe.a(libxxe_a-xefile7.o)
 .ARM.attributes
                0x00000d5b       0x2f ./xe/libxxe.a(libxxe_a-xefsub.o)
 .ARM.attributes
                0x00000d8a       0x2f ./xe/libxxe.a(libxxe_a-xeftp.o)
 .ARM.attributes
                0x00000db9       0x2f ./xe/libxxe.a(libxxe_a-xefunc.o)
 .ARM.attributes
                0x00000de8       0x2f ./xe/libxxe.a(libxxe_a-xefunc2.o)
 .ARM.attributes
                0x00000e17       0x2f ./xe/libxxe.a(libxxe_a-xefunct.o)
 .ARM.attributes
                0x00000e46       0x2f ./xe/libxxe.a(libxxe_a-xefunct2.o)
 .ARM.attributes
                0x00000e75       0x2f ./xe/libxxe.a(libxxe_a-xegbl.o)
 .ARM.attributes
                0x00000ea4       0x2f ./xe/libxxe.a(libxxe_a-xeini.o)
 .ARM.attributes
                0x00000ed3       0x2f ./xe/libxxe.a(libxxe_a-xeini2.o)
 .ARM.attributes
                0x00000f02       0x2f ./xe/libxxe.a(libxxe_a-xeini3.o)
 .ARM.attributes
                0x00000f31       0x2f ./xe/libxxe.a(libxxe_a-xekbd.o)
 .ARM.attributes
                0x00000f60       0x2f ./xe/libxxe.a(libxxe_a-xelcmd.o)
 .ARM.attributes
                0x00000f8f       0x2f ./xe/libxxe.a(libxxe_a-xelcmd2.o)
 .ARM.attributes
                0x00000fbe       0x2f ./xe/libxxe.a(libxxe_a-xelcmd3.o)
 .ARM.attributes
                0x00000fed       0x2f ./xe/libxxe.a(libxxe_a-xelcmd4.o)
 .ARM.attributes
                0x0000101c       0x2f ./xe/libxxe.a(libxxe_a-xelcmd5.o)
 .ARM.attributes
                0x0000104b       0x2f ./xe/libxxe.a(libxxe_a-xemousel.o)
 .ARM.attributes
                0x0000107a       0x2f ./xe/libxxe.a(libxxe_a-xeopt.o)
 .ARM.attributes
                0x000010a9       0x2f ./xe/libxxe.a(libxxe_a-xeopt2.o)
 .ARM.attributes
                0x000010d8       0x2f ./xe/libxxe.a(libxxe_a-xepan.o)
 .ARM.attributes
                0x00001107       0x2f ./xe/libxxe.a(libxxe_a-xepan2.o)
 .ARM.attributes
                0x00001136       0x2f ./xe/libxxe.a(libxxe_a-xepan22.o)
 .ARM.attributes
                0x00001165       0x2f ./xe/libxxe.a(libxxe_a-xepan23.o)
 .ARM.attributes
                0x00001194       0x2f ./xe/libxxe.a(libxxe_a-xepan24.o)
 .ARM.attributes
                0x000011c3       0x2f ./xe/libxxe.a(libxxe_a-xepan3.o)
 .ARM.attributes
                0x000011f2       0x2f ./xe/libxxe.a(libxxe_a-xescr.o)
 .ARM.attributes
                0x00001221       0x2f ./xe/libxxe.a(libxxe_a-xescr2.o)
 .ARM.attributes
                0x00001250       0x2f ./xe/libxxe.a(libxxe_a-xesub.o)
 .ARM.attributes
                0x0000127f       0x2f ./xe/libxxe.a(libxxe_a-xesub2.o)
 .ARM.attributes
                0x000012ae       0x2f ./xe/libxxe.a(libxxe_a-xesyn.o)
 .ARM.attributes
                0x000012dd       0x2f ./xe/libxxe.a(libxxe_a-xesyn2.o)
 .ARM.attributes
                0x0000130c       0x2f ./xe/libxxe.a(libxxe_a-xetso.o)
 .ARM.attributes
                0x0000133b       0x2f ./xe/libxxe.a(libxxe_a-xetso2.o)
 .ARM.attributes
                0x0000136a       0x2f ./xe/libxxe.a(libxxe_a-xeundo.o)
 .ARM.attributes
                0x00001399       0x2f ./xe/libxxe.a(libxxe_a-xeutf.o)
 .ARM.attributes
                0x000013c8       0x2f ./xe/libxxe.a(libxxe_a-xeutf2.o)
 .ARM.attributes
                0x000013f7       0x2f ./xe/libxxe.a(libxxe_a-xecalc.o)
 .ARM.attributes
                0x00001426       0x2f ./xe/libxxe.a(libxxe_a-xecalc2.o)
 .ARM.attributes
                0x00001455       0x2f ./xe/libxxe.a(libxxe_a-xecalc21.o)
 .ARM.attributes
                0x00001484       0x2f ./xe/libxxe.a(libxxe_a-xecalc22.o)
 .ARM.attributes
                0x000014b3       0x2f ./xe/libxxe.a(libxxe_a-xecalc3.o)
 .ARM.attributes
                0x000014e2       0x2f ./xe/libxxe.a(libxxe_a-xedir.o)
 .ARM.attributes
                0x00001511       0x2f ./xe/libxxe.a(libxxe_a-xefcmd2.o)
 .ARM.attributes
                0x00001540       0x2f ./xe/libxxe.a(libxxe_a-xefcmd24.o)
 .ARM.attributes
                0x0000156f       0x2f ./xe/libxxe.a(libxxe_a-xefile23.o)
 .ARM.attributes
                0x0000159e       0x2f ./ulib/libuserxxe.a(libuserxxe_a-u3270.o)
 .ARM.attributes
                0x000015cd       0x2f ./ulib/libuserxxe.a(libuserxxe_a-u32702.o)
 .ARM.attributes
                0x000015fc       0x2f ./ulib/libuserxxe.a(libuserxxe_a-u32703.o)
 .ARM.attributes
                0x0000162b       0x2f ./ulib/libuserxxe.a(libuserxxe_a-uabend.o)
 .ARM.attributes
                0x0000165a       0x2f ./ulib/libuserxxe.a(libuserxxe_a-uallocl.o)
 .ARM.attributes
                0x00001689       0x2f ./ulib/libuserxxe.a(libuserxxe_a-ucalc.o)
 .ARM.attributes
                0x000016b8       0x2f ./ulib/libuserxxe.a(libuserxxe_a-ucalc2.o)
 .ARM.attributes
                0x000016e7       0x2f ./ulib/libuserxxe.a(libuserxxe_a-ucvebc.o)
 .ARM.attributes
                0x00001716       0x2f ./ulib/libuserxxe.a(libuserxxe_a-ucvebc2.o)
 .ARM.attributes
                0x00001745       0x2f ./ulib/libuserxxe.a(libuserxxe_a-ucvebc3.o)
 .ARM.attributes
                0x00001774       0x2f ./ulib/libuserxxe.a(libuserxxe_a-ucvebc32.o)
 .ARM.attributes
                0x000017a3       0x2f ./ulib/libuserxxe.a(libuserxxe_a-ucvebc4.o)
 .ARM.attributes
                0x000017d2       0x2f ./ulib/libuserxxe.a(libuserxxe_a-ucvebct.o)
 .ARM.attributes
                0x00001801       0x2f ./ulib/libuserxxe.a(libuserxxe_a-ucvext.o)
 .ARM.attributes
                0x00001830       0x2f ./ulib/libuserxxe.a(libuserxxe_a-ucvext12.o)
 .ARM.attributes
                0x0000185f       0x2f ./ulib/libuserxxe.a(libuserxxe_a-ucvext2.o)
 .ARM.attributes
                0x0000188e       0x2f ./ulib/libuserxxe.a(libuserxxe_a-ucvucs.o)
 .ARM.attributes
                0x000018bd       0x2f ./ulib/libuserxxe.a(libuserxxe_a-ucvucst.o)
 .ARM.attributes
                0x000018ec       0x2f ./ulib/libuserxxe.a(libuserxxe_a-udbcschk.o)
 .ARM.attributes
                0x0000191b       0x2f ./ulib/libuserxxe.a(libuserxxe_a-udbcsck2.o)
 .ARM.attributes
                0x0000194a       0x2f ./ulib/libuserxxe.a(libuserxxe_a-udos2.o)
 .ARM.attributes
                0x00001979       0x2f ./ulib/libuserxxe.a(libuserxxe_a-udosl.o)
 .ARM.attributes
                0x000019a8       0x2f ./ulib/libuserxxe.a(libuserxxe_a-uedit.o)
 .ARM.attributes
                0x000019d7       0x2f ./ulib/libuserxxe.a(libuserxxe_a-uedit2.o)
 .ARM.attributes
                0x00001a06       0x2f ./ulib/libuserxxe.a(libuserxxe_a-uehl.o)
 .ARM.attributes
                0x00001a35       0x2f ./ulib/libuserxxe.a(libuserxxe_a-uerr.o)
 .ARM.attributes
                0x00001a64       0x2f ./ulib/libuserxxe.a(libuserxxe_a-ufemsg.o)
 .ARM.attributes
                0x00001a93       0x2f ./ulib/libuserxxe.a(libuserxxe_a-ufile.o)
 .ARM.attributes
                0x00001ac2       0x2f ./ulib/libuserxxe.a(libuserxxe_a-ufile12.o)
 .ARM.attributes
                0x00001af1       0x2f ./ulib/libuserxxe.a(libuserxxe_a-ufile1f.o)
 .ARM.attributes
                0x00001b20       0x2f ./ulib/libuserxxe.a(libuserxxe_a-ufile1l.o)
 .ARM.attributes
                0x00001b4f       0x2f ./ulib/libuserxxe.a(libuserxxe_a-ufile1l2.o)
 .ARM.attributes
                0x00001b7e       0x2f ./ulib/libuserxxe.a(libuserxxe_a-ufile2.o)
 .ARM.attributes
                0x00001bad       0x2f ./ulib/libuserxxe.a(libuserxxe_a-ufile2f.o)
 .ARM.attributes
                0x00001bdc       0x2f ./ulib/libuserxxe.a(libuserxxe_a-ufile2l.o)
 .ARM.attributes
                0x00001c0b       0x2f ./ulib/libuserxxe.a(libuserxxe_a-ufile2l2.o)
 .ARM.attributes
                0x00001c3a       0x2f ./ulib/libuserxxe.a(libuserxxe_a-ufile3.o)
 .ARM.attributes
                0x00001c69       0x2f ./ulib/libuserxxe.a(libuserxxe_a-ufile3f.o)
 .ARM.attributes
                0x00001c98       0x2f ./ulib/libuserxxe.a(libuserxxe_a-ufile4.o)
 .ARM.attributes
                0x00001cc7       0x2f ./ulib/libuserxxe.a(libuserxxe_a-ufile5.o)
 .ARM.attributes
                0x00001cf6       0x2f ./ulib/libuserxxe.a(libuserxxe_a-uftp.o)
 .ARM.attributes
                0x00001d25       0x2f ./ulib/libuserxxe.a(libuserxxe_a-uftp2.o)
 .ARM.attributes
                0x00001d54       0x2f ./ulib/libuserxxe.a(libuserxxe_a-uftp3.o)
 .ARM.attributes
                0x00001d83       0x2f ./ulib/libuserxxe.a(libuserxxe_a-ugcclib.o)
 .ARM.attributes
                0x00001db2       0x2f ./ulib/libuserxxe.a(libuserxxe_a-ukbdl.o)
 .ARM.attributes
                0x00001de1       0x2f ./ulib/libuserxxe.a(libuserxxe_a-ukbdlnxc.o)
 .ARM.attributes
                0x00001e10       0x2f ./ulib/libuserxxe.a(libuserxxe_a-ukbdlnxm.o)
 .ARM.attributes
                0x00001e3f       0x2f ./ulib/libuserxxe.a(libuserxxe_a-uparse.o)
 .ARM.attributes
                0x00001e6e       0x2f ./ulib/libuserxxe.a(libuserxxe_a-uproc.o)
 .ARM.attributes
                0x00001e9d       0x2f ./ulib/libuserxxe.a(libuserxxe_a-uproc2.o)
 .ARM.attributes
                0x00001ecc       0x2f ./ulib/libuserxxe.a(libuserxxe_a-uproc3.o)
 .ARM.attributes
                0x00001efb       0x2f ./ulib/libuserxxe.a(libuserxxe_a-uproc4.o)
 .ARM.attributes
                0x00001f2a       0x2f ./ulib/libuserxxe.a(libuserxxe_a-uque.o)
 .ARM.attributes
                0x00001f59       0x2f ./ulib/libuserxxe.a(libuserxxe_a-ustrcpy.o)
 .ARM.attributes
                0x00001f88       0x2f ./ulib/libuserxxe.a(libuserxxe_a-ustring.o)
 .ARM.attributes
                0x00001fb7       0x2f ./ulib/libuserxxe.a(libuserxxe_a-utf.o)
 .ARM.attributes
                0x00001fe6       0x2f ./ulib/libuserxxe.a(libuserxxe_a-utf2.o)
 .ARM.attributes
                0x00002015       0x2f ./ulib/libuserxxe.a(libuserxxe_a-utf22.o)
 .ARM.attributes
                0x00002044       0x2f ./ulib/libuserxxe.a(libuserxxe_a-utf3.o)
 .ARM.attributes
                0x00002073       0x2f ./ulib/libuserxxe.a(libuserxxe_a-utf4.o)
 .ARM.attributes
                0x000020a2       0x2f ./ulib/libuserxxe.a(libuserxxe_a-utrace.o)
 .ARM.attributes
                0x000020d1       0x2f ./ulib/libuserxxe.a(libuserxxe_a-uunxsub.o)
 .ARM.attributes
                0x00002100       0x2f ./ulib/libuserxxe.a(libuserxxe_a-uviom.o)
 .ARM.attributes
                0x0000212f       0x2f ./ulib/libuserxxe.a(libuserxxe_a-uviolx.o)
 .ARM.attributes
                0x0000215e       0x2f ./ulib/libuserxxe.a(libuserxxe_a-uproc22.o)
 .ARM.attributes
                0x0000218d       0x1d /usr/lib/gcc/arm-linux-gnueabihf/8/libgcc.a(_udivsi3.o)
 .ARM.attributes
                0x000021aa       0x1d /usr/lib/gcc/arm-linux-gnueabihf/8/libgcc.a(_divsi3.o)
 .ARM.attributes
                0x000021c7       0x1d /usr/lib/gcc/arm-linux-gnueabihf/8/libgcc.a(_aeabi_ldivmod.o)
 .ARM.attributes
                0x000021e4       0x1d /usr/lib/gcc/arm-linux-gnueabihf/8/libgcc.a(_dvmd_lnx.o)
 .ARM.attributes
                0x00002201       0x2f /usr/lib/gcc/arm-linux-gnueabihf/8/libgcc.a(_udivmoddi4.o)
 .ARM.attributes
                0x00002230       0x31 //usr/lib/arm-linux-gnueabihf/libc_nonshared.a(elf-init.oS)
 .ARM.attributes
                0x00002261       0x31 //usr/lib/arm-linux-gnueabihf/libc_nonshared.a(stat64.oS)
 .ARM.attributes
                0x00002292       0x31 //usr/lib/arm-linux-gnueabihf/libc_nonshared.a(lstat64.oS)
 .ARM.attributes
                0x000022c3       0x2f /usr/lib/gcc/arm-linux-gnueabihf/8/crtend.o
 .ARM.attributes
                0x000022f2       0x23 /usr/lib/gcc/arm-linux-gnueabihf/8/../../../arm-linux-gnueabihf/crtn.o

.debug
 *(.debug)

.line
 *(.line)

.debug_srcinfo
 *(.debug_srcinfo)

.debug_sfnames
 *(.debug_sfnames)

.debug_aranges
 *(.debug_aranges)

.debug_pubnames
 *(.debug_pubnames)

.debug_info
 *(.debug_info .gnu.linkonce.wi.*)

.debug_abbrev
 *(.debug_abbrev)

.debug_line
 *(.debug_line .debug_line.* .debug_line_end)

.debug_frame
 *(.debug_frame)

.debug_str
 *(.debug_str)

.debug_loc
 *(.debug_loc)

.debug_macinfo
 *(.debug_macinfo)

.debug_weaknames
 *(.debug_weaknames)

.debug_funcnames
 *(.debug_funcnames)

.debug_typenames
 *(.debug_typenames)

.debug_varnames
 *(.debug_varnames)

.debug_pubtypes
 *(.debug_pubtypes)

.debug_ranges
 *(.debug_ranges)

.debug_macro
 *(.debug_macro)

.debug_addr
 *(.debug_addr)

.gnu.attributes
 *(.gnu.attributes)

.note.gnu.arm.ident
 *(.note.gnu.arm.ident)

/DISCARD/
 *(.note.GNU-stack)
 *(.gnu_debuglink)
 *(.gnu.lto_*)
OUTPUT(gxe elf32-littlearm)
